
C:/Users/agras/pico/pico-examples/build/dcp/hello_dcp/hello_dcp.elf:     file format elf32-littlearm

Sections:
Idx Name          Size      VMA       LMA       File off  Algn
  0 .text         00007b04  10000000  10000000  00001000  2**3
                  CONTENTS, ALLOC, LOAD, READONLY, CODE
  1 .rodata       00000c38  10007b08  10007b08  00008b08  2**3
                  CONTENTS, ALLOC, LOAD, READONLY, DATA
  2 .ARM.exidx    00000008  10008740  10008740  00009740  2**2
                  CONTENTS, ALLOC, LOAD, READONLY, DATA
  3 .binary_info  0000002c  10008748  10008748  00009748  2**2
                  CONTENTS, ALLOC, LOAD, READONLY, DATA
  4 .ram_vector_table 00000110  20000000  20000000  0000c000  2**2
                  ALLOC
  5 .uninitialized_data 00000000  20000110  20000110  0000b3d0  2**0
                  CONTENTS
  6 .data         00000c48  20000110  10008774  0000a110  2**3
                  CONTENTS, ALLOC, LOAD, READONLY, CODE
  7 .tdata        00000000  20000d58  20000d58  0000b3d0  2**0
                  CONTENTS, ALLOC, LOAD, DATA, THREAD_LOCAL
  8 .tbss         00000000  20000d58  20000d58  00000000  2**0
                  ALLOC, THREAD_LOCAL
  9 .bss          000003a4  20000d58  100093bc  0000bd58  2**3
                  ALLOC
 10 .heap         00000800  200010fc  200010fc  0000b3d0  2**2
                  CONTENTS, READONLY
 11 .scratch_x    00000000  20080000  20080000  0000bbd0  2**0
                  CONTENTS
 12 .scratch_y    00000000  20081000  20081000  0000bbd0  2**0
                  CONTENTS
 13 .stack_dummy  00000800  20081000  20081000  0000bbe0  2**5
                  CONTENTS, READONLY
 14 .flash_end    00000014  100093bc  100093bc  0000b3bc  2**2
                  CONTENTS, ALLOC, LOAD, READONLY, DATA
 15 .ARM.attributes 00000034  00000000  00000000  0000c3e0  2**0
                  CONTENTS, READONLY
 16 .comment      00000045  00000000  00000000  0000c414  2**0
                  CONTENTS, READONLY
 17 .debug_info   00018298  00000000  00000000  0000c459  2**0
                  CONTENTS, READONLY, DEBUGGING, OCTETS
 18 .debug_abbrev 00004bb1  00000000  00000000  000246f1  2**0
                  CONTENTS, READONLY, DEBUGGING, OCTETS
 19 .debug_loclists 0000799f  00000000  00000000  000292a2  2**0
                  CONTENTS, READONLY, DEBUGGING, OCTETS
 20 .debug_aranges 00000c30  00000000  00000000  00030c48  2**3
                  CONTENTS, READONLY, DEBUGGING, OCTETS
 21 .debug_rnglists 00000c7b  00000000  00000000  00031878  2**0
                  CONTENTS, READONLY, DEBUGGING, OCTETS
 22 .debug_line   0000d41a  00000000  00000000  000324f3  2**0
                  CONTENTS, READONLY, DEBUGGING, OCTETS
 23 .debug_str    00005227  00000000  00000000  0003f90d  2**0
                  CONTENTS, READONLY, DEBUGGING, OCTETS
 24 .debug_frame  00002dbc  00000000  00000000  00044b34  2**2
                  CONTENTS, READONLY, DEBUGGING, OCTETS
 25 .debug_line_str 000002b8  00000000  00000000  000478f0  2**0
                  CONTENTS, READONLY, DEBUGGING, OCTETS

C:/Users/agras/pico/pico-examples/build/dcp/hello_dcp/hello_dcp.elf:     file format elf32-littlearm


Disassembly of section .text:

10000000 <__VECTOR_TABLE>:
10000000:	20082000 	.word	0x20082000
10000004:	1000015d 	.word	0x1000015d
10000008:	10000113 	.word	0x10000113
1000000c:	10000115 	.word	0x10000115
10000010:	10000111 	.word	0x10000111
10000014:	10000111 	.word	0x10000111
10000018:	10000111 	.word	0x10000111
1000001c:	10000111 	.word	0x10000111
10000020:	10000111 	.word	0x10000111
10000024:	10000111 	.word	0x10000111
10000028:	10000111 	.word	0x10000111
1000002c:	10000117 	.word	0x10000117
10000030:	10000111 	.word	0x10000111
10000034:	10000111 	.word	0x10000111
10000038:	10000119 	.word	0x10000119
1000003c:	1000011b 	.word	0x1000011b
10000040:	1000011d 	.word	0x1000011d
10000044:	1000011d 	.word	0x1000011d
10000048:	1000011d 	.word	0x1000011d
1000004c:	1000011d 	.word	0x1000011d
10000050:	1000011d 	.word	0x1000011d
10000054:	1000011d 	.word	0x1000011d
10000058:	1000011d 	.word	0x1000011d
1000005c:	1000011d 	.word	0x1000011d
10000060:	1000011d 	.word	0x1000011d
10000064:	1000011d 	.word	0x1000011d
10000068:	1000011d 	.word	0x1000011d
1000006c:	1000011d 	.word	0x1000011d
10000070:	1000011d 	.word	0x1000011d
10000074:	1000011d 	.word	0x1000011d
10000078:	1000011d 	.word	0x1000011d
1000007c:	1000011d 	.word	0x1000011d
10000080:	1000011d 	.word	0x1000011d
10000084:	1000011d 	.word	0x1000011d
10000088:	1000011d 	.word	0x1000011d
1000008c:	1000011d 	.word	0x1000011d
10000090:	1000011d 	.word	0x1000011d
10000094:	1000011d 	.word	0x1000011d
10000098:	1000011d 	.word	0x1000011d
1000009c:	1000011d 	.word	0x1000011d
100000a0:	1000011d 	.word	0x1000011d
100000a4:	1000011d 	.word	0x1000011d
100000a8:	1000011d 	.word	0x1000011d
100000ac:	1000011d 	.word	0x1000011d
100000b0:	1000011d 	.word	0x1000011d
100000b4:	1000011d 	.word	0x1000011d
100000b8:	1000011d 	.word	0x1000011d
100000bc:	1000011d 	.word	0x1000011d
100000c0:	1000011d 	.word	0x1000011d
100000c4:	1000011d 	.word	0x1000011d
100000c8:	1000011d 	.word	0x1000011d
100000cc:	1000011d 	.word	0x1000011d
100000d0:	1000011d 	.word	0x1000011d
100000d4:	1000011d 	.word	0x1000011d
100000d8:	1000011d 	.word	0x1000011d
100000dc:	1000011d 	.word	0x1000011d
100000e0:	1000011d 	.word	0x1000011d
100000e4:	1000011d 	.word	0x1000011d
100000e8:	1000011d 	.word	0x1000011d
100000ec:	1000011d 	.word	0x1000011d
100000f0:	1000011d 	.word	0x1000011d
100000f4:	1000011d 	.word	0x1000011d
100000f8:	1000011d 	.word	0x1000011d
100000fc:	1000011d 	.word	0x1000011d
10000100:	1000011d 	.word	0x1000011d
10000104:	1000011d 	.word	0x1000011d
10000108:	1000011d 	.word	0x1000011d
1000010c:	1000011d 	.word	0x1000011d

10000110 <isr_invalid>:
10000110:	be00      	bkpt	0x0000

10000112 <isr_nmi>:
10000112:	be00      	bkpt	0x0000

10000114 <isr_hardfault>:
10000114:	be00      	bkpt	0x0000

10000116 <isr_svcall>:
10000116:	be00      	bkpt	0x0000

10000118 <isr_pendsv>:
10000118:	be00      	bkpt	0x0000

1000011a <isr_systick>:
1000011a:	be00      	bkpt	0x0000

1000011c <__unhandled_user_irq>:
1000011c:	f3ef 8005 	mrs	r0, IPSR
10000120:	3810      	subs	r0, #16

10000122 <unhandled_user_irq_num_in_r0>:
10000122:	be00      	bkpt	0x0000

10000124 <binary_info_header>:
10000124:	7188ebf2 	.word	0x7188ebf2
10000128:	10008748 	.word	0x10008748
1000012c:	10008774 	.word	0x10008774
10000130:	100001a8 	.word	0x100001a8
10000134:	e71aa390 	.word	0xe71aa390

10000138 <__binary_info_header_end>:
10000138:	ffffded3 	.word	0xffffded3
1000013c:	10210142 	.word	0x10210142
10000140:	000001ff 	.word	0x000001ff
10000144:	00009284 	.word	0x00009284
10000148:	ab123579 	.word	0xab123579

1000014c <_entry_point>:
1000014c:	f04f 0000 	mov.w	r0, #0

10000150 <_enter_vtable_in_r0>:
10000150:	4920      	ldr	r1, [pc, #128]	@ (100001d4 <data_cpy_table+0x2c>)
10000152:	6008      	str	r0, [r1, #0]
10000154:	c806      	ldmia	r0!, {r1, r2}
10000156:	f381 8808 	msr	MSP, r1
1000015a:	4710      	bx	r2

1000015c <_reset_handler>:
1000015c:	f04f 4050 	mov.w	r0, #3489660928	@ 0xd0000000
10000160:	6800      	ldr	r0, [r0, #0]
10000162:	b110      	cbz	r0, 1000016a <hold_non_core0_in_bootrom+0x6>

10000164 <hold_non_core0_in_bootrom>:
10000164:	f04f 0000 	mov.w	r0, #0
10000168:	e7f2      	b.n	10000150 <_enter_vtable_in_r0>
1000016a:	a40f      	add	r4, pc, #60	@ (adr r4, 100001a8 <data_cpy_table>)
1000016c:	cc0e      	ldmia	r4!, {r1, r2, r3}
1000016e:	2900      	cmp	r1, #0
10000170:	d002      	beq.n	10000178 <hold_non_core0_in_bootrom+0x14>
10000172:	f000 f815 	bl	100001a0 <data_cpy>
10000176:	e7f9      	b.n	1000016c <hold_non_core0_in_bootrom+0x8>
10000178:	4917      	ldr	r1, [pc, #92]	@ (100001d8 <data_cpy_table+0x30>)
1000017a:	4a18      	ldr	r2, [pc, #96]	@ (100001dc <data_cpy_table+0x34>)
1000017c:	2000      	movs	r0, #0
1000017e:	e000      	b.n	10000182 <bss_fill_test>

10000180 <bss_fill_loop>:
10000180:	c101      	stmia	r1!, {r0}

10000182 <bss_fill_test>:
10000182:	4291      	cmp	r1, r2
10000184:	d1fc      	bne.n	10000180 <bss_fill_loop>

10000186 <platform_entry>:
10000186:	2000      	movs	r0, #0
10000188:	f380 880a 	msr	MSPLIM, r0
1000018c:	4914      	ldr	r1, [pc, #80]	@ (100001e0 <data_cpy_table+0x38>)
1000018e:	4788      	blx	r1
10000190:	4914      	ldr	r1, [pc, #80]	@ (100001e4 <data_cpy_table+0x3c>)
10000192:	4788      	blx	r1
10000194:	4914      	ldr	r1, [pc, #80]	@ (100001e8 <data_cpy_table+0x40>)
10000196:	4788      	blx	r1
10000198:	be00      	bkpt	0x0000
1000019a:	e7fd      	b.n	10000198 <platform_entry+0x12>

1000019c <data_cpy_loop>:
1000019c:	c901      	ldmia	r1!, {r0}
1000019e:	c201      	stmia	r2!, {r0}

100001a0 <data_cpy>:
100001a0:	429a      	cmp	r2, r3
100001a2:	d3fb      	bcc.n	1000019c <data_cpy_loop>
100001a4:	4770      	bx	lr
100001a6:	bf00      	nop

100001a8 <data_cpy_table>:
100001a8:	10008774 	.word	0x10008774
100001ac:	20000110 	.word	0x20000110
100001b0:	20000d58 	.word	0x20000d58
100001b4:	100093bc 	.word	0x100093bc
100001b8:	20080000 	.word	0x20080000
100001bc:	20080000 	.word	0x20080000
100001c0:	100093bc 	.word	0x100093bc
100001c4:	20081000 	.word	0x20081000
100001c8:	20081000 	.word	0x20081000
100001cc:	00000000 	.word	0x00000000
100001d0:	4770      	bx	lr
100001d2:	0000      	.short	0x0000
100001d4:	e000ed08 	.word	0xe000ed08
100001d8:	20000d58 	.word	0x20000d58
100001dc:	200010fc 	.word	0x200010fc
100001e0:	100023fd 	.word	0x100023fd
100001e4:	100004f1 	.word	0x100004f1
100001e8:	100023c1 	.word	0x100023c1

100001ec <_init>:
100001ec:	b5f8      	push	{r3, r4, r5, r6, r7, lr}
100001ee:	bf00      	nop

100001f0 <register_tm_clones>:
100001f0:	4b06      	ldr	r3, [pc, #24]	@ (1000020c <register_tm_clones+0x1c>)
100001f2:	4907      	ldr	r1, [pc, #28]	@ (10000210 <register_tm_clones+0x20>)
100001f4:	1ac9      	subs	r1, r1, r3
100001f6:	1089      	asrs	r1, r1, #2
100001f8:	bf48      	it	mi
100001fa:	3101      	addmi	r1, #1
100001fc:	1049      	asrs	r1, r1, #1
100001fe:	d003      	beq.n	10000208 <register_tm_clones+0x18>
10000200:	4b04      	ldr	r3, [pc, #16]	@ (10000214 <register_tm_clones+0x24>)
10000202:	b10b      	cbz	r3, 10000208 <register_tm_clones+0x18>
10000204:	4801      	ldr	r0, [pc, #4]	@ (1000020c <register_tm_clones+0x1c>)
10000206:	4718      	bx	r3
10000208:	4770      	bx	lr
1000020a:	bf00      	nop
1000020c:	20000d58 	.word	0x20000d58
10000210:	20000d58 	.word	0x20000d58
10000214:	00000000 	.word	0x00000000

10000218 <frame_dummy>:
10000218:	b508      	push	{r3, lr}
1000021a:	4b05      	ldr	r3, [pc, #20]	@ (10000230 <frame_dummy+0x18>)
1000021c:	b11b      	cbz	r3, 10000226 <frame_dummy+0xe>
1000021e:	4905      	ldr	r1, [pc, #20]	@ (10000234 <frame_dummy+0x1c>)
10000220:	4805      	ldr	r0, [pc, #20]	@ (10000238 <frame_dummy+0x20>)
10000222:	f3af 8000 	nop.w
10000226:	e8bd 4008 	ldmia.w	sp!, {r3, lr}
1000022a:	f7ff bfe1 	b.w	100001f0 <register_tm_clones>
1000022e:	bf00      	nop
10000230:	00000000 	.word	0x00000000
10000234:	200010b4 	.word	0x200010b4
10000238:	10007b04 	.word	0x10007b04

1000023c <dcp_test0>:
1000023c:	b510      	push	{r4, lr}
1000023e:	b08c      	sub	sp, #48	@ 0x30
10000240:	4c11      	ldr	r4, [pc, #68]	@ (10000288 <dcp_test0+0x4c>)
10000242:	f10d 0c18 	add.w	ip, sp, #24
10000246:	46a6      	mov	lr, r4
10000248:	e8be 000f 	ldmia.w	lr!, {r0, r1, r2, r3}
1000024c:	e8ac 000f 	stmia.w	ip!, {r0, r1, r2, r3}
10000250:	e89e 0003 	ldmia.w	lr, {r0, r1}
10000254:	e88c 0003 	stmia.w	ip, {r0, r1}
10000258:	46ee      	mov	lr, sp
1000025a:	f104 0c18 	add.w	ip, r4, #24
1000025e:	e8bc 000f 	ldmia.w	ip!, {r0, r1, r2, r3}
10000262:	e8ae 000f 	stmia.w	lr!, {r0, r1, r2, r3}
10000266:	e89c 0003 	ldmia.w	ip, {r0, r1}
1000026a:	e88e 0003 	stmia.w	lr, {r0, r1}
1000026e:	2203      	movs	r2, #3
10000270:	4669      	mov	r1, sp
10000272:	a806      	add	r0, sp, #24
10000274:	f000 f954 	bl	10000520 <dcp_dot>
10000278:	4602      	mov	r2, r0
1000027a:	460b      	mov	r3, r1
1000027c:	4803      	ldr	r0, [pc, #12]	@ (1000028c <dcp_test0+0x50>)
1000027e:	f002 f9fc 	bl	1000267a <__wrap_printf>
10000282:	b00c      	add	sp, #48	@ 0x30
10000284:	bd10      	pop	{r4, pc}
10000286:	bf00      	nop
10000288:	100082f8 	.word	0x100082f8
1000028c:	10007b08 	.word	0x10007b08

10000290 <dcp_test1>:
10000290:	b500      	push	{lr}
10000292:	b087      	sub	sp, #28
10000294:	4b0d      	ldr	r3, [pc, #52]	@ (100002cc <dcp_test1+0x3c>)
10000296:	f10d 0c0c 	add.w	ip, sp, #12
1000029a:	f103 0230 	add.w	r2, r3, #48	@ 0x30
1000029e:	ca07      	ldmia	r2, {r0, r1, r2}
100002a0:	e88c 0007 	stmia.w	ip, {r0, r1, r2}
100002a4:	46ee      	mov	lr, sp
100002a6:	333c      	adds	r3, #60	@ 0x3c
100002a8:	e893 0007 	ldmia.w	r3, {r0, r1, r2}
100002ac:	e88e 0007 	stmia.w	lr, {r0, r1, r2}
100002b0:	2203      	movs	r2, #3
100002b2:	4671      	mov	r1, lr
100002b4:	4660      	mov	r0, ip
100002b6:	f000 f98a 	bl	100005ce <dcp_dotx>
100002ba:	4602      	mov	r2, r0
100002bc:	460b      	mov	r3, r1
100002be:	4804      	ldr	r0, [pc, #16]	@ (100002d0 <dcp_test1+0x40>)
100002c0:	f002 f9db 	bl	1000267a <__wrap_printf>
100002c4:	b007      	add	sp, #28
100002c6:	f85d fb04 	ldr.w	pc, [sp], #4
100002ca:	bf00      	nop
100002cc:	100082f8 	.word	0x100082f8
100002d0:	10007b1c 	.word	0x10007b1c

100002d4 <dcp_test2>:
100002d4:	b530      	push	{r4, r5, lr}
100002d6:	b08b      	sub	sp, #44	@ 0x2c
100002d8:	ac05      	add	r4, sp, #20
100002da:	4d13      	ldr	r5, [pc, #76]	@ (10000328 <dcp_test2+0x54>)
100002dc:	cd0f      	ldmia	r5!, {r0, r1, r2, r3}
100002de:	c40f      	stmia	r4!, {r0, r1, r2, r3}
100002e0:	682b      	ldr	r3, [r5, #0]
100002e2:	6023      	str	r3, [r4, #0]
100002e4:	2400      	movs	r4, #0
100002e6:	9401      	str	r4, [sp, #4]
100002e8:	9402      	str	r4, [sp, #8]
100002ea:	9403      	str	r4, [sp, #12]
100002ec:	9404      	str	r4, [sp, #16]
100002ee:	480f      	ldr	r0, [pc, #60]	@ (1000032c <dcp_test2+0x58>)
100002f0:	f002 f9a3 	bl	1000263a <__wrap_puts>
100002f4:	e00f      	b.n	10000316 <dcp_test2+0x42>
100002f6:	f04f 507e 	mov.w	r0, #1065353216	@ 0x3f800000
100002fa:	2302      	movs	r3, #2
100002fc:	aa05      	add	r2, sp, #20
100002fe:	a901      	add	r1, sp, #4
10000300:	f000 f99b 	bl	1000063a <dcp_iirx>
10000304:	f007 fbd0 	bl	10007aa8 <____aeabi_f2d_veneer>
10000308:	4602      	mov	r2, r0
1000030a:	460b      	mov	r3, r1
1000030c:	4621      	mov	r1, r4
1000030e:	4808      	ldr	r0, [pc, #32]	@ (10000330 <dcp_test2+0x5c>)
10000310:	f002 f9b3 	bl	1000267a <__wrap_printf>
10000314:	3401      	adds	r4, #1
10000316:	2c13      	cmp	r4, #19
10000318:	dc03      	bgt.n	10000322 <dcp_test2+0x4e>
1000031a:	2c00      	cmp	r4, #0
1000031c:	d0eb      	beq.n	100002f6 <dcp_test2+0x22>
1000031e:	2000      	movs	r0, #0
10000320:	e7eb      	b.n	100002fa <dcp_test2+0x26>
10000322:	b00b      	add	sp, #44	@ 0x2c
10000324:	bd30      	pop	{r4, r5, pc}
10000326:	bf00      	nop
10000328:	10008340 	.word	0x10008340
1000032c:	10007b4c 	.word	0x10007b4c
10000330:	10007b6c 	.word	0x10007b6c

10000334 <dcp_test3>:
10000334:	b510      	push	{r4, lr}
10000336:	b08e      	sub	sp, #56	@ 0x38
10000338:	4c12      	ldr	r4, [pc, #72]	@ (10000384 <dcp_test3+0x50>)
1000033a:	f10d 0c28 	add.w	ip, sp, #40	@ 0x28
1000033e:	f104 0360 	add.w	r3, r4, #96	@ 0x60
10000342:	cb0f      	ldmia	r3, {r0, r1, r2, r3}
10000344:	e88c 000f 	stmia.w	ip, {r0, r1, r2, r3}
10000348:	f10d 0e18 	add.w	lr, sp, #24
1000034c:	f104 0370 	add.w	r3, r4, #112	@ 0x70
10000350:	cb0f      	ldmia	r3, {r0, r1, r2, r3}
10000352:	e88e 000f 	stmia.w	lr, {r0, r1, r2, r3}
10000356:	4671      	mov	r1, lr
10000358:	4660      	mov	r0, ip
1000035a:	f000 f9f2 	bl	10000742 <dcp_butterfly_radix2>
1000035e:	e9dd 2308 	ldrd	r2, r3, [sp, #32]
10000362:	e9cd 2304 	strd	r2, r3, [sp, #16]
10000366:	e9dd 2306 	ldrd	r2, r3, [sp, #24]
1000036a:	e9cd 2302 	strd	r2, r3, [sp, #8]
1000036e:	e9dd 230c 	ldrd	r2, r3, [sp, #48]	@ 0x30
10000372:	e9cd 2300 	strd	r2, r3, [sp]
10000376:	e9dd 230a 	ldrd	r2, r3, [sp, #40]	@ 0x28
1000037a:	4803      	ldr	r0, [pc, #12]	@ (10000388 <dcp_test3+0x54>)
1000037c:	f002 f97d 	bl	1000267a <__wrap_printf>
10000380:	b00e      	add	sp, #56	@ 0x38
10000382:	bd10      	pop	{r4, pc}
10000384:	100082f8 	.word	0x100082f8
10000388:	10007b78 	.word	0x10007b78

1000038c <dcp_test4>:
1000038c:	b530      	push	{r4, r5, lr}
1000038e:	b093      	sub	sp, #76	@ 0x4c
10000390:	4c16      	ldr	r4, [pc, #88]	@ (100003ec <dcp_test4+0x60>)
10000392:	f10d 0c38 	add.w	ip, sp, #56	@ 0x38
10000396:	f104 0360 	add.w	r3, r4, #96	@ 0x60
1000039a:	cb0f      	ldmia	r3, {r0, r1, r2, r3}
1000039c:	e88c 000f 	stmia.w	ip, {r0, r1, r2, r3}
100003a0:	f10d 0e28 	add.w	lr, sp, #40	@ 0x28
100003a4:	f104 0370 	add.w	r3, r4, #112	@ 0x70
100003a8:	cb0f      	ldmia	r3, {r0, r1, r2, r3}
100003aa:	e88e 000f 	stmia.w	lr, {r0, r1, r2, r3}
100003ae:	ad06      	add	r5, sp, #24
100003b0:	f104 0380 	add.w	r3, r4, #128	@ 0x80
100003b4:	cb0f      	ldmia	r3, {r0, r1, r2, r3}
100003b6:	e885 000f 	stmia.w	r5, {r0, r1, r2, r3}
100003ba:	462a      	mov	r2, r5
100003bc:	4671      	mov	r1, lr
100003be:	4660      	mov	r0, ip
100003c0:	f000 fa05 	bl	100007ce <dcp_butterfly_radix2_twiddle_dif>
100003c4:	e9dd 230c 	ldrd	r2, r3, [sp, #48]	@ 0x30
100003c8:	e9cd 2304 	strd	r2, r3, [sp, #16]
100003cc:	e9dd 230a 	ldrd	r2, r3, [sp, #40]	@ 0x28
100003d0:	e9cd 2302 	strd	r2, r3, [sp, #8]
100003d4:	e9dd 2310 	ldrd	r2, r3, [sp, #64]	@ 0x40
100003d8:	e9cd 2300 	strd	r2, r3, [sp]
100003dc:	e9dd 230e 	ldrd	r2, r3, [sp, #56]	@ 0x38
100003e0:	4803      	ldr	r0, [pc, #12]	@ (100003f0 <dcp_test4+0x64>)
100003e2:	f002 f94a 	bl	1000267a <__wrap_printf>
100003e6:	b013      	add	sp, #76	@ 0x4c
100003e8:	bd30      	pop	{r4, r5, pc}
100003ea:	bf00      	nop
100003ec:	100082f8 	.word	0x100082f8
100003f0:	10007bac 	.word	0x10007bac

100003f4 <dcp_test5>:
100003f4:	b530      	push	{r4, r5, lr}
100003f6:	b093      	sub	sp, #76	@ 0x4c
100003f8:	4c16      	ldr	r4, [pc, #88]	@ (10000454 <dcp_test5+0x60>)
100003fa:	f10d 0c38 	add.w	ip, sp, #56	@ 0x38
100003fe:	f104 0360 	add.w	r3, r4, #96	@ 0x60
10000402:	cb0f      	ldmia	r3, {r0, r1, r2, r3}
10000404:	e88c 000f 	stmia.w	ip, {r0, r1, r2, r3}
10000408:	f10d 0e28 	add.w	lr, sp, #40	@ 0x28
1000040c:	f104 0370 	add.w	r3, r4, #112	@ 0x70
10000410:	cb0f      	ldmia	r3, {r0, r1, r2, r3}
10000412:	e88e 000f 	stmia.w	lr, {r0, r1, r2, r3}
10000416:	ad06      	add	r5, sp, #24
10000418:	f104 0380 	add.w	r3, r4, #128	@ 0x80
1000041c:	cb0f      	ldmia	r3, {r0, r1, r2, r3}
1000041e:	e885 000f 	stmia.w	r5, {r0, r1, r2, r3}
10000422:	462a      	mov	r2, r5
10000424:	4671      	mov	r1, lr
10000426:	4660      	mov	r0, ip
10000428:	f000 faa8 	bl	1000097c <dcp_butterfly_radix2_twiddle_dit>
1000042c:	e9dd 230c 	ldrd	r2, r3, [sp, #48]	@ 0x30
10000430:	e9cd 2304 	strd	r2, r3, [sp, #16]
10000434:	e9dd 230a 	ldrd	r2, r3, [sp, #40]	@ 0x28
10000438:	e9cd 2302 	strd	r2, r3, [sp, #8]
1000043c:	e9dd 2310 	ldrd	r2, r3, [sp, #64]	@ 0x40
10000440:	e9cd 2300 	strd	r2, r3, [sp]
10000444:	e9dd 230e 	ldrd	r2, r3, [sp, #56]	@ 0x38
10000448:	4803      	ldr	r0, [pc, #12]	@ (10000458 <dcp_test5+0x64>)
1000044a:	f002 f916 	bl	1000267a <__wrap_printf>
1000044e:	b013      	add	sp, #76	@ 0x4c
10000450:	bd30      	pop	{r4, r5, pc}
10000452:	bf00      	nop
10000454:	100082f8 	.word	0x100082f8
10000458:	10007c04 	.word	0x10007c04

1000045c <dcp_test6>:
1000045c:	b570      	push	{r4, r5, r6, lr}
1000045e:	b09e      	sub	sp, #120	@ 0x78
10000460:	4c21      	ldr	r4, [pc, #132]	@ (100004e8 <dcp_test6+0x8c>)
10000462:	f10d 0c68 	add.w	ip, sp, #104	@ 0x68
10000466:	f104 0360 	add.w	r3, r4, #96	@ 0x60
1000046a:	cb0f      	ldmia	r3, {r0, r1, r2, r3}
1000046c:	e88c 000f 	stmia.w	ip, {r0, r1, r2, r3}
10000470:	f10d 0e58 	add.w	lr, sp, #88	@ 0x58
10000474:	f104 0370 	add.w	r3, r4, #112	@ 0x70
10000478:	cb0f      	ldmia	r3, {r0, r1, r2, r3}
1000047a:	e88e 000f 	stmia.w	lr, {r0, r1, r2, r3}
1000047e:	ad12      	add	r5, sp, #72	@ 0x48
10000480:	f104 0390 	add.w	r3, r4, #144	@ 0x90
10000484:	cb0f      	ldmia	r3, {r0, r1, r2, r3}
10000486:	e885 000f 	stmia.w	r5, {r0, r1, r2, r3}
1000048a:	ae0e      	add	r6, sp, #56	@ 0x38
1000048c:	34a0      	adds	r4, #160	@ 0xa0
1000048e:	e894 000f 	ldmia.w	r4, {r0, r1, r2, r3}
10000492:	e886 000f 	stmia.w	r6, {r0, r1, r2, r3}
10000496:	4633      	mov	r3, r6
10000498:	462a      	mov	r2, r5
1000049a:	4671      	mov	r1, lr
1000049c:	4660      	mov	r0, ip
1000049e:	f000 fb41 	bl	10000b24 <dcp_butterfly_radix4>
100004a2:	e9dd 2310 	ldrd	r2, r3, [sp, #64]	@ 0x40
100004a6:	e9cd 230c 	strd	r2, r3, [sp, #48]	@ 0x30
100004aa:	e9dd 230e 	ldrd	r2, r3, [sp, #56]	@ 0x38
100004ae:	e9cd 230a 	strd	r2, r3, [sp, #40]	@ 0x28
100004b2:	e9dd 2314 	ldrd	r2, r3, [sp, #80]	@ 0x50
100004b6:	e9cd 2308 	strd	r2, r3, [sp, #32]
100004ba:	e9dd 2312 	ldrd	r2, r3, [sp, #72]	@ 0x48
100004be:	e9cd 2306 	strd	r2, r3, [sp, #24]
100004c2:	e9dd 2318 	ldrd	r2, r3, [sp, #96]	@ 0x60
100004c6:	e9cd 2304 	strd	r2, r3, [sp, #16]
100004ca:	e9dd 2316 	ldrd	r2, r3, [sp, #88]	@ 0x58
100004ce:	e9cd 2302 	strd	r2, r3, [sp, #8]
100004d2:	e9dd 231c 	ldrd	r2, r3, [sp, #112]	@ 0x70
100004d6:	e9cd 2300 	strd	r2, r3, [sp]
100004da:	e9dd 231a 	ldrd	r2, r3, [sp, #104]	@ 0x68
100004de:	4803      	ldr	r0, [pc, #12]	@ (100004ec <dcp_test6+0x90>)
100004e0:	f002 f8cb 	bl	1000267a <__wrap_printf>
100004e4:	b01e      	add	sp, #120	@ 0x78
100004e6:	bd70      	pop	{r4, r5, r6, pc}
100004e8:	100082f8 	.word	0x100082f8
100004ec:	10007c5c 	.word	0x10007c5c

100004f0 <main>:
100004f0:	b508      	push	{r3, lr}
100004f2:	f002 f89d 	bl	10002630 <stdio_init_all>
100004f6:	4809      	ldr	r0, [pc, #36]	@ (1000051c <main+0x2c>)
100004f8:	f002 f89f 	bl	1000263a <__wrap_puts>
100004fc:	f7ff fe9e 	bl	1000023c <dcp_test0>
10000500:	f7ff fec6 	bl	10000290 <dcp_test1>
10000504:	f7ff fee6 	bl	100002d4 <dcp_test2>
10000508:	f7ff ff14 	bl	10000334 <dcp_test3>
1000050c:	f7ff ff3e 	bl	1000038c <dcp_test4>
10000510:	f7ff ff70 	bl	100003f4 <dcp_test5>
10000514:	f7ff ffa2 	bl	1000045c <dcp_test6>
10000518:	2000      	movs	r0, #0
1000051a:	bd08      	pop	{r3, pc}
1000051c:	10007cac 	.word	0x10007cac

10000520 <dcp_dot>:
10000520:	e92d 43f0 	stmdb	sp!, {r4, r5, r6, r7, r8, r9, lr}
10000524:	e8f0 3402 	ldrd	r3, r4, [r0], #8
10000528:	e8f1 5602 	ldrd	r5, r6, [r1], #8
1000052c:	ec44 3410 	dcp_wxup r3, r4
10000530:	ec46 5411 	dcp_wyup r5, r6
10000534:	ec54 3404 	dcp_rxms r3, r4, #0x0
10000538:	ec56 5405 	dcp_ryms r5, r6, #0x0
1000053c:	fba3 ce05 	umull	ip, lr, r3, r5
10000540:	f05f 0900 	movs.w	r9, #0
10000544:	fbe3 e906 	umlal	lr, r9, r3, r6
10000548:	fbe4 e905 	umlal	lr, r9, r4, r5
1000054c:	ec4e c420 	dcp_wxms ip, lr
10000550:	f05f 0c00 	movs.w	ip, #0
10000554:	fbe4 9c06 	umlal	r9, ip, r4, r6
10000558:	ec4c 9430 	dcp_wxmo r9, ip
1000055c:	ee80 0420 	dcp_nrdd
10000560:	ec58 7450 	dcp_rddm r7, r8
10000564:	3a01      	subs	r2, #1
10000566:	d02d      	beq.n	100005c4 <dcp_dot+0xa4>
10000568:	e8f0 3402 	ldrd	r3, r4, [r0], #8
1000056c:	e8f1 5602 	ldrd	r5, r6, [r1], #8
10000570:	ec44 3410 	dcp_wxup r3, r4
10000574:	ec46 5411 	dcp_wyup r5, r6
10000578:	ec54 3404 	dcp_rxms r3, r4, #0x0
1000057c:	ec56 5405 	dcp_ryms r5, r6, #0x0
10000580:	fba3 ce05 	umull	ip, lr, r3, r5
10000584:	f05f 0900 	movs.w	r9, #0
10000588:	fbe3 e906 	umlal	lr, r9, r3, r6
1000058c:	fbe4 e905 	umlal	lr, r9, r4, r5
10000590:	ec4e c420 	dcp_wxms ip, lr
10000594:	f05f 0c00 	movs.w	ip, #0
10000598:	fbe4 9c06 	umlal	r9, ip, r4, r6
1000059c:	ec4c 9430 	dcp_wxmo r9, ip
100005a0:	ee80 0420 	dcp_nrdd
100005a4:	ec54 3450 	dcp_rddm r3, r4
100005a8:	ec44 3410 	dcp_wxup r3, r4
100005ac:	ec48 7411 	dcp_wyup r7, r8
100005b0:	ee00 0401 	dcp_add0
100005b4:	ee10 0401 	dcp_add1
100005b8:	ee80 0420 	dcp_nrdd
100005bc:	ec58 7410 	dcp_rdda r7, r8
100005c0:	3a01      	subs	r2, #1
100005c2:	d1d1      	bne.n	10000568 <dcp_dot+0x48>
100005c4:	0038      	movs	r0, r7
100005c6:	ea5f 0108 	movs.w	r1, r8
100005ca:	e8bd 83f0 	ldmia.w	sp!, {r4, r5, r6, r7, r8, r9, pc}

100005ce <dcp_dotx>:
100005ce:	b510      	push	{r4, lr}
100005d0:	f850 3b04 	ldr.w	r3, [r0], #4
100005d4:	f851 4b04 	ldr.w	r4, [r1], #4
100005d8:	ec44 3412 	dcp_wxyu r3, r4
100005dc:	ec54 3411 	dcp_rxyh r3, r4
100005e0:	fba3 3404 	umull	r3, r4, r3, r4
100005e4:	ec44 3430 	dcp_wxmo r3, r4
100005e8:	ee80 0420 	dcp_nrdd
100005ec:	ec5e c450 	dcp_rddm ip, lr
100005f0:	3a01      	subs	r2, #1
100005f2:	d01d      	beq.n	10000630 <dcp_dotx+0x62>
100005f4:	f850 3b04 	ldr.w	r3, [r0], #4
100005f8:	f851 4b04 	ldr.w	r4, [r1], #4
100005fc:	ec44 3412 	dcp_wxyu r3, r4
10000600:	ec54 3411 	dcp_rxyh r3, r4
10000604:	fba3 3404 	umull	r3, r4, r3, r4
10000608:	ec44 3430 	dcp_wxmo r3, r4
1000060c:	ee80 0420 	dcp_nrdd
10000610:	ec54 3450 	dcp_rddm r3, r4
10000614:	ec44 3410 	dcp_wxup r3, r4
10000618:	ec4e c411 	dcp_wyup ip, lr
1000061c:	ee00 0401 	dcp_add0
10000620:	ee10 0401 	dcp_add1
10000624:	ee80 0420 	dcp_nrdd
10000628:	ec5e c410 	dcp_rdda ip, lr
1000062c:	3a01      	subs	r2, #1
1000062e:	d1e1      	bne.n	100005f4 <dcp_dotx+0x26>
10000630:	ea5f 000c 	movs.w	r0, ip
10000634:	ea5f 010e 	movs.w	r1, lr
10000638:	bd10      	pop	{r4, pc}

1000063a <dcp_iirx>:
1000063a:	b5f0      	push	{r4, r5, r6, r7, lr}
1000063c:	e9d1 4500 	ldrd	r4, r5, [r1]
10000640:	cac0      	ldmia	r2!, {r6, r7}
10000642:	ec46 4412 	dcp_wxyu r4, r6
10000646:	ec56 4411 	dcp_rxyh r4, r6
1000064a:	fba4 4606 	umull	r4, r6, r4, r6
1000064e:	ec46 4430 	dcp_wxmo r4, r6
10000652:	ee80 0420 	dcp_nrdd
10000656:	ec56 4450 	dcp_rddm r4, r6
1000065a:	ec47 5412 	dcp_wxyu r5, r7
1000065e:	ec57 5411 	dcp_rxyh r5, r7
10000662:	fba5 5707 	umull	r5, r7, r5, r7
10000666:	ec47 5430 	dcp_wxmo r5, r7
1000066a:	ee80 0420 	dcp_nrdd
1000066e:	ec57 5450 	dcp_rddm r5, r7
10000672:	ec46 4410 	dcp_wxup r4, r6
10000676:	ec47 5411 	dcp_wyup r5, r7
1000067a:	ee00 0401 	dcp_add0
1000067e:	ee10 0421 	dcp_sub1
10000682:	ee80 0420 	dcp_nrdd
10000686:	ec5e c430 	dcp_rdds ip, lr
1000068a:	3b01      	subs	r3, #1
1000068c:	d036      	beq.n	100006fc <dcp_iirx+0xc2>
1000068e:	e9d1 4502 	ldrd	r4, r5, [r1, #8]
10000692:	e8e1 4502 	strd	r4, r5, [r1], #8
10000696:	cac0      	ldmia	r2!, {r6, r7}
10000698:	ec46 4412 	dcp_wxyu r4, r6
1000069c:	ec56 4411 	dcp_rxyh r4, r6
100006a0:	fba4 4606 	umull	r4, r6, r4, r6
100006a4:	ec46 4430 	dcp_wxmo r4, r6
100006a8:	ee80 0420 	dcp_nrdd
100006ac:	ec56 4450 	dcp_rddm r4, r6
100006b0:	ec4e c410 	dcp_wxup ip, lr
100006b4:	ec46 4411 	dcp_wyup r4, r6
100006b8:	ee00 0401 	dcp_add0
100006bc:	ee10 0401 	dcp_add1
100006c0:	ee80 0420 	dcp_nrdd
100006c4:	ec5e c410 	dcp_rdda ip, lr
100006c8:	ec47 5412 	dcp_wxyu r5, r7
100006cc:	ec57 5411 	dcp_rxyh r5, r7
100006d0:	fba5 5707 	umull	r5, r7, r5, r7
100006d4:	ec47 5430 	dcp_wxmo r5, r7
100006d8:	ee80 0420 	dcp_nrdd
100006dc:	ec57 5450 	dcp_rddm r5, r7
100006e0:	ec4e c410 	dcp_wxup ip, lr
100006e4:	ec47 5411 	dcp_wyup r5, r7
100006e8:	ee00 0401 	dcp_add0
100006ec:	ee10 0421 	dcp_sub1
100006f0:	ee80 0420 	dcp_nrdd
100006f4:	ec5e c430 	dcp_rdds ip, lr
100006f8:	3b01      	subs	r3, #1
100006fa:	d1c8      	bne.n	1000068e <dcp_iirx+0x54>
100006fc:	6816      	ldr	r6, [r2, #0]
100006fe:	ec46 0412 	dcp_wxyu r0, r6
10000702:	ec56 4411 	dcp_rxyh r4, r6
10000706:	fba4 4606 	umull	r4, r6, r4, r6
1000070a:	ec46 4430 	dcp_wxmo r4, r6
1000070e:	ee80 0420 	dcp_nrdd
10000712:	ec56 4450 	dcp_rddm r4, r6
10000716:	ec4e c410 	dcp_wxup ip, lr
1000071a:	ec46 4411 	dcp_wyup r4, r6
1000071e:	ee00 0401 	dcp_add0
10000722:	ee10 0401 	dcp_add1
10000726:	ee80 0420 	dcp_nrdd
1000072a:	ec5e c410 	dcp_rdda ip, lr
1000072e:	ec4e c410 	dcp_wxup ip, lr
10000732:	ee80 0422 	dcp_nrdf
10000736:	ee10 44b2 	dcp_rdfg r4
1000073a:	e9c1 0400 	strd	r0, r4, [r1]
1000073e:	4620      	mov	r0, r4
10000740:	bdf0      	pop	{r4, r5, r6, r7, pc}

10000742 <dcp_butterfly_radix2>:
10000742:	b500      	push	{lr}
10000744:	e9d0 2300 	ldrd	r2, r3, [r0]
10000748:	e9d1 ce00 	ldrd	ip, lr, [r1]
1000074c:	ec4e c410 	dcp_wxup ip, lr
10000750:	ec43 2411 	dcp_wyup r2, r3
10000754:	ee00 0401 	dcp_add0
10000758:	ee10 0401 	dcp_add1
1000075c:	ee80 0420 	dcp_nrdd
10000760:	ec5e c410 	dcp_rdda ip, lr
10000764:	e9c0 ce00 	strd	ip, lr, [r0]
10000768:	e9d1 ce00 	ldrd	ip, lr, [r1]
1000076c:	ec43 2410 	dcp_wxup r2, r3
10000770:	ec4e c411 	dcp_wyup ip, lr
10000774:	ee00 0401 	dcp_add0
10000778:	ee10 0421 	dcp_sub1
1000077c:	ee80 0420 	dcp_nrdd
10000780:	ec5e c430 	dcp_rdds ip, lr
10000784:	e9c1 ce00 	strd	ip, lr, [r1]
10000788:	e9d0 2302 	ldrd	r2, r3, [r0, #8]
1000078c:	e9d1 ce02 	ldrd	ip, lr, [r1, #8]
10000790:	ec4e c410 	dcp_wxup ip, lr
10000794:	ec43 2411 	dcp_wyup r2, r3
10000798:	ee00 0401 	dcp_add0
1000079c:	ee10 0401 	dcp_add1
100007a0:	ee80 0420 	dcp_nrdd
100007a4:	ec5e c410 	dcp_rdda ip, lr
100007a8:	e9c0 ce02 	strd	ip, lr, [r0, #8]
100007ac:	e9d1 ce02 	ldrd	ip, lr, [r1, #8]
100007b0:	ec43 2410 	dcp_wxup r2, r3
100007b4:	ec4e c411 	dcp_wyup ip, lr
100007b8:	ee00 0401 	dcp_add0
100007bc:	ee10 0421 	dcp_sub1
100007c0:	ee80 0420 	dcp_nrdd
100007c4:	ec5e c430 	dcp_rdds ip, lr
100007c8:	e9c1 ce02 	strd	ip, lr, [r1, #8]
100007cc:	bd00      	pop	{pc}

100007ce <dcp_butterfly_radix2_twiddle_dif>:
100007ce:	e92d 47f0 	stmdb	sp!, {r4, r5, r6, r7, r8, r9, sl, lr}
100007d2:	e9d0 3400 	ldrd	r3, r4, [r0]
100007d6:	e9d1 5600 	ldrd	r5, r6, [r1]
100007da:	ec44 3410 	dcp_wxup r3, r4
100007de:	ec46 5411 	dcp_wyup r5, r6
100007e2:	ee00 0401 	dcp_add0
100007e6:	ee10 0401 	dcp_add1
100007ea:	ee80 0420 	dcp_nrdd
100007ee:	ec58 7410 	dcp_rdda r7, r8
100007f2:	e9c0 7800 	strd	r7, r8, [r0]
100007f6:	ec44 3410 	dcp_wxup r3, r4
100007fa:	ec46 5411 	dcp_wyup r5, r6
100007fe:	ee00 0401 	dcp_add0
10000802:	ee10 0421 	dcp_sub1
10000806:	ee80 0420 	dcp_nrdd
1000080a:	ec58 7430 	dcp_rdds r7, r8
1000080e:	e9d2 3400 	ldrd	r3, r4, [r2]
10000812:	ec44 3410 	dcp_wxup r3, r4
10000816:	ec48 7411 	dcp_wyup r7, r8
1000081a:	ec54 3404 	dcp_rxms r3, r4, #0x0
1000081e:	ec56 5405 	dcp_ryms r5, r6, #0x0
10000822:	fba3 9c05 	umull	r9, ip, r3, r5
10000826:	f05f 0e00 	movs.w	lr, #0
1000082a:	fbe3 ce06 	umlal	ip, lr, r3, r6
1000082e:	fbe4 ce05 	umlal	ip, lr, r4, r5
10000832:	ec4c 9420 	dcp_wxms r9, ip
10000836:	f05f 0900 	movs.w	r9, #0
1000083a:	fbe4 e906 	umlal	lr, r9, r4, r6
1000083e:	ec49 e430 	dcp_wxmo lr, r9
10000842:	ee80 0420 	dcp_nrdd
10000846:	ec54 3450 	dcp_rddm r3, r4
1000084a:	e9c1 3400 	strd	r3, r4, [r1]
1000084e:	e9d2 3402 	ldrd	r3, r4, [r2, #8]
10000852:	ec44 3410 	dcp_wxup r3, r4
10000856:	ec48 7411 	dcp_wyup r7, r8
1000085a:	ec54 3404 	dcp_rxms r3, r4, #0x0
1000085e:	ec56 5405 	dcp_ryms r5, r6, #0x0
10000862:	fba3 9c05 	umull	r9, ip, r3, r5
10000866:	f05f 0e00 	movs.w	lr, #0
1000086a:	fbe3 ce06 	umlal	ip, lr, r3, r6
1000086e:	fbe4 ce05 	umlal	ip, lr, r4, r5
10000872:	ec4c 9420 	dcp_wxms r9, ip
10000876:	f05f 0900 	movs.w	r9, #0
1000087a:	fbe4 e906 	umlal	lr, r9, r4, r6
1000087e:	ec49 e430 	dcp_wxmo lr, r9
10000882:	ee80 0420 	dcp_nrdd
10000886:	ec5e c450 	dcp_rddm ip, lr
1000088a:	e9d0 3402 	ldrd	r3, r4, [r0, #8]
1000088e:	e9d1 5602 	ldrd	r5, r6, [r1, #8]
10000892:	ec44 3410 	dcp_wxup r3, r4
10000896:	ec46 5411 	dcp_wyup r5, r6
1000089a:	ee00 0401 	dcp_add0
1000089e:	ee10 0401 	dcp_add1
100008a2:	ee80 0420 	dcp_nrdd
100008a6:	ec58 7410 	dcp_rdda r7, r8
100008aa:	e9c0 7802 	strd	r7, r8, [r0, #8]
100008ae:	ec44 3410 	dcp_wxup r3, r4
100008b2:	ec46 5411 	dcp_wyup r5, r6
100008b6:	ee00 0401 	dcp_add0
100008ba:	ee10 0421 	dcp_sub1
100008be:	ee80 0420 	dcp_nrdd
100008c2:	ec58 7430 	dcp_rdds r7, r8
100008c6:	e9d2 3400 	ldrd	r3, r4, [r2]
100008ca:	ec44 3410 	dcp_wxup r3, r4
100008ce:	ec48 7411 	dcp_wyup r7, r8
100008d2:	ec54 3404 	dcp_rxms r3, r4, #0x0
100008d6:	ec56 5405 	dcp_ryms r5, r6, #0x0
100008da:	fba3 9a05 	umull	r9, sl, r3, r5
100008de:	2000      	movs	r0, #0
100008e0:	fbe3 a006 	umlal	sl, r0, r3, r6
100008e4:	fbe4 a005 	umlal	sl, r0, r4, r5
100008e8:	ec4a 9420 	dcp_wxms r9, sl
100008ec:	f05f 0900 	movs.w	r9, #0
100008f0:	fbe4 0906 	umlal	r0, r9, r4, r6
100008f4:	ec49 0430 	dcp_wxmo r0, r9
100008f8:	ee80 0420 	dcp_nrdd
100008fc:	ec54 3450 	dcp_rddm r3, r4
10000900:	ec44 3410 	dcp_wxup r3, r4
10000904:	ec4e c411 	dcp_wyup ip, lr
10000908:	ee00 0401 	dcp_add0
1000090c:	ee10 0401 	dcp_add1
10000910:	ee80 0420 	dcp_nrdd
10000914:	ec54 3410 	dcp_rdda r3, r4
10000918:	e9c1 3402 	strd	r3, r4, [r1, #8]
1000091c:	e9d2 3402 	ldrd	r3, r4, [r2, #8]
10000920:	ec44 3410 	dcp_wxup r3, r4
10000924:	ec48 7411 	dcp_wyup r7, r8
10000928:	ec54 3404 	dcp_rxms r3, r4, #0x0
1000092c:	ec56 5405 	dcp_ryms r5, r6, #0x0
10000930:	fba3 9c05 	umull	r9, ip, r3, r5
10000934:	f05f 0e00 	movs.w	lr, #0
10000938:	fbe3 ce06 	umlal	ip, lr, r3, r6
1000093c:	fbe4 ce05 	umlal	ip, lr, r4, r5
10000940:	ec4c 9420 	dcp_wxms r9, ip
10000944:	f05f 0900 	movs.w	r9, #0
10000948:	fbe4 e906 	umlal	lr, r9, r4, r6
1000094c:	ec49 e430 	dcp_wxmo lr, r9
10000950:	ee80 0420 	dcp_nrdd
10000954:	ec54 3450 	dcp_rddm r3, r4
10000958:	e9d1 5600 	ldrd	r5, r6, [r1]
1000095c:	ec46 5410 	dcp_wxup r5, r6
10000960:	ec44 3411 	dcp_wyup r3, r4
10000964:	ee00 0401 	dcp_add0
10000968:	ee10 0421 	dcp_sub1
1000096c:	ee80 0420 	dcp_nrdd
10000970:	ec54 3430 	dcp_rdds r3, r4
10000974:	e9c1 3400 	strd	r3, r4, [r1]
10000978:	e8bd 87f0 	ldmia.w	sp!, {r4, r5, r6, r7, r8, r9, sl, pc}

1000097c <dcp_butterfly_radix2_twiddle_dit>:
1000097c:	e92d 43f0 	stmdb	sp!, {r4, r5, r6, r7, r8, r9, lr}
10000980:	e9d2 3400 	ldrd	r3, r4, [r2]
10000984:	e9d1 5600 	ldrd	r5, r6, [r1]
10000988:	ec44 3410 	dcp_wxup r3, r4
1000098c:	ec46 5411 	dcp_wyup r5, r6
10000990:	ec54 3404 	dcp_rxms r3, r4, #0x0
10000994:	ec56 5405 	dcp_ryms r5, r6, #0x0
10000998:	fba3 ce05 	umull	ip, lr, r3, r5
1000099c:	2700      	movs	r7, #0
1000099e:	fbe3 e706 	umlal	lr, r7, r3, r6
100009a2:	fbe4 e705 	umlal	lr, r7, r4, r5
100009a6:	ec4e c420 	dcp_wxms ip, lr
100009aa:	f05f 0c00 	movs.w	ip, #0
100009ae:	fbe4 7c06 	umlal	r7, ip, r4, r6
100009b2:	ec4c 7430 	dcp_wxmo r7, ip
100009b6:	ee80 0420 	dcp_nrdd
100009ba:	ec59 8450 	dcp_rddm r8, r9
100009be:	e9d2 3402 	ldrd	r3, r4, [r2, #8]
100009c2:	e9d1 5602 	ldrd	r5, r6, [r1, #8]
100009c6:	ec44 3410 	dcp_wxup r3, r4
100009ca:	ec46 5411 	dcp_wyup r5, r6
100009ce:	ec54 3404 	dcp_rxms r3, r4, #0x0
100009d2:	ec56 5405 	dcp_ryms r5, r6, #0x0
100009d6:	fba3 ce05 	umull	ip, lr, r3, r5
100009da:	2700      	movs	r7, #0
100009dc:	fbe3 e706 	umlal	lr, r7, r3, r6
100009e0:	fbe4 e705 	umlal	lr, r7, r4, r5
100009e4:	ec4e c420 	dcp_wxms ip, lr
100009e8:	f05f 0c00 	movs.w	ip, #0
100009ec:	fbe4 7c06 	umlal	r7, ip, r4, r6
100009f0:	ec4c 7430 	dcp_wxmo r7, ip
100009f4:	ee80 0420 	dcp_nrdd
100009f8:	ec54 3450 	dcp_rddm r3, r4
100009fc:	ec49 8410 	dcp_wxup r8, r9
10000a00:	ec44 3411 	dcp_wyup r3, r4
10000a04:	ee00 0401 	dcp_add0
10000a08:	ee10 0421 	dcp_sub1
10000a0c:	ee80 0420 	dcp_nrdd
10000a10:	ec59 8430 	dcp_rdds r8, r9
10000a14:	e9d0 3400 	ldrd	r3, r4, [r0]
10000a18:	ec44 3410 	dcp_wxup r3, r4
10000a1c:	ec49 8411 	dcp_wyup r8, r9
10000a20:	ee00 0401 	dcp_add0
10000a24:	ee10 0401 	dcp_add1
10000a28:	ee80 0420 	dcp_nrdd
10000a2c:	ec56 5410 	dcp_rdda r5, r6
10000a30:	e9c0 5600 	strd	r5, r6, [r0]
10000a34:	ec44 3410 	dcp_wxup r3, r4
10000a38:	ec49 8411 	dcp_wyup r8, r9
10000a3c:	ee00 0401 	dcp_add0
10000a40:	ee10 0421 	dcp_sub1
10000a44:	ee80 0420 	dcp_nrdd
10000a48:	ec54 3430 	dcp_rdds r3, r4
10000a4c:	e9d1 5600 	ldrd	r5, r6, [r1]
10000a50:	e9c1 3400 	strd	r3, r4, [r1]
10000a54:	e9d2 3402 	ldrd	r3, r4, [r2, #8]
10000a58:	ec44 3410 	dcp_wxup r3, r4
10000a5c:	ec46 5411 	dcp_wyup r5, r6
10000a60:	ec54 3404 	dcp_rxms r3, r4, #0x0
10000a64:	ec56 5405 	dcp_ryms r5, r6, #0x0
10000a68:	fba3 ce05 	umull	ip, lr, r3, r5
10000a6c:	2700      	movs	r7, #0
10000a6e:	fbe3 e706 	umlal	lr, r7, r3, r6
10000a72:	fbe4 e705 	umlal	lr, r7, r4, r5
10000a76:	ec4e c420 	dcp_wxms ip, lr
10000a7a:	f05f 0c00 	movs.w	ip, #0
10000a7e:	fbe4 7c06 	umlal	r7, ip, r4, r6
10000a82:	ec4c 7430 	dcp_wxmo r7, ip
10000a86:	ee80 0420 	dcp_nrdd
10000a8a:	ec59 8450 	dcp_rddm r8, r9
10000a8e:	e9d2 3400 	ldrd	r3, r4, [r2]
10000a92:	e9d1 5602 	ldrd	r5, r6, [r1, #8]
10000a96:	ec44 3410 	dcp_wxup r3, r4
10000a9a:	ec46 5411 	dcp_wyup r5, r6
10000a9e:	ec54 3404 	dcp_rxms r3, r4, #0x0
10000aa2:	ec56 5405 	dcp_ryms r5, r6, #0x0
10000aa6:	fba3 ce05 	umull	ip, lr, r3, r5
10000aaa:	2700      	movs	r7, #0
10000aac:	fbe3 e706 	umlal	lr, r7, r3, r6
10000ab0:	fbe4 e705 	umlal	lr, r7, r4, r5
10000ab4:	ec4e c420 	dcp_wxms ip, lr
10000ab8:	f05f 0c00 	movs.w	ip, #0
10000abc:	fbe4 7c06 	umlal	r7, ip, r4, r6
10000ac0:	ec4c 7430 	dcp_wxmo r7, ip
10000ac4:	ee80 0420 	dcp_nrdd
10000ac8:	ec54 3450 	dcp_rddm r3, r4
10000acc:	ec49 8410 	dcp_wxup r8, r9
10000ad0:	ec44 3411 	dcp_wyup r3, r4
10000ad4:	ee00 0401 	dcp_add0
10000ad8:	ee10 0401 	dcp_add1
10000adc:	ee80 0420 	dcp_nrdd
10000ae0:	ec59 8410 	dcp_rdda r8, r9
10000ae4:	e9d0 3402 	ldrd	r3, r4, [r0, #8]
10000ae8:	ec44 3410 	dcp_wxup r3, r4
10000aec:	ec49 8411 	dcp_wyup r8, r9
10000af0:	ee00 0401 	dcp_add0
10000af4:	ee10 0401 	dcp_add1
10000af8:	ee80 0420 	dcp_nrdd
10000afc:	ec56 5410 	dcp_rdda r5, r6
10000b00:	e9c0 5602 	strd	r5, r6, [r0, #8]
10000b04:	ec44 3410 	dcp_wxup r3, r4
10000b08:	ec49 8411 	dcp_wyup r8, r9
10000b0c:	ee00 0401 	dcp_add0
10000b10:	ee10 0421 	dcp_sub1
10000b14:	ee80 0420 	dcp_nrdd
10000b18:	ec54 3430 	dcp_rdds r3, r4
10000b1c:	e9c1 3402 	strd	r3, r4, [r1, #8]
10000b20:	e8bd 83f0 	ldmia.w	sp!, {r4, r5, r6, r7, r8, r9, pc}

10000b24 <dcp_butterfly_radix4>:
10000b24:	b530      	push	{r4, r5, lr}
10000b26:	e9d0 4500 	ldrd	r4, r5, [r0]
10000b2a:	e9d2 ce00 	ldrd	ip, lr, [r2]
10000b2e:	ec4e c410 	dcp_wxup ip, lr
10000b32:	ec45 4411 	dcp_wyup r4, r5
10000b36:	ee00 0401 	dcp_add0
10000b3a:	ee10 0401 	dcp_add1
10000b3e:	ee80 0420 	dcp_nrdd
10000b42:	ec5e c410 	dcp_rdda ip, lr
10000b46:	e9c0 ce00 	strd	ip, lr, [r0]
10000b4a:	e9d2 ce00 	ldrd	ip, lr, [r2]
10000b4e:	ec45 4410 	dcp_wxup r4, r5
10000b52:	ec4e c411 	dcp_wyup ip, lr
10000b56:	ee00 0401 	dcp_add0
10000b5a:	ee10 0421 	dcp_sub1
10000b5e:	ee80 0420 	dcp_nrdd
10000b62:	ec5e c430 	dcp_rdds ip, lr
10000b66:	e9c2 ce00 	strd	ip, lr, [r2]
10000b6a:	e9d0 4502 	ldrd	r4, r5, [r0, #8]
10000b6e:	e9d2 ce02 	ldrd	ip, lr, [r2, #8]
10000b72:	ec4e c410 	dcp_wxup ip, lr
10000b76:	ec45 4411 	dcp_wyup r4, r5
10000b7a:	ee00 0401 	dcp_add0
10000b7e:	ee10 0401 	dcp_add1
10000b82:	ee80 0420 	dcp_nrdd
10000b86:	ec5e c410 	dcp_rdda ip, lr
10000b8a:	e9c0 ce02 	strd	ip, lr, [r0, #8]
10000b8e:	e9d2 ce02 	ldrd	ip, lr, [r2, #8]
10000b92:	ec45 4410 	dcp_wxup r4, r5
10000b96:	ec4e c411 	dcp_wyup ip, lr
10000b9a:	ee00 0401 	dcp_add0
10000b9e:	ee10 0421 	dcp_sub1
10000ba2:	ee80 0420 	dcp_nrdd
10000ba6:	ec5e c430 	dcp_rdds ip, lr
10000baa:	e9c2 ce02 	strd	ip, lr, [r2, #8]
10000bae:	e9d1 4500 	ldrd	r4, r5, [r1]
10000bb2:	e9d3 ce00 	ldrd	ip, lr, [r3]
10000bb6:	ec4e c410 	dcp_wxup ip, lr
10000bba:	ec45 4411 	dcp_wyup r4, r5
10000bbe:	ee00 0401 	dcp_add0
10000bc2:	ee10 0401 	dcp_add1
10000bc6:	ee80 0420 	dcp_nrdd
10000bca:	ec5e c410 	dcp_rdda ip, lr
10000bce:	e9c1 ce00 	strd	ip, lr, [r1]
10000bd2:	e9d3 ce00 	ldrd	ip, lr, [r3]
10000bd6:	ec45 4410 	dcp_wxup r4, r5
10000bda:	ec4e c411 	dcp_wyup ip, lr
10000bde:	ee00 0401 	dcp_add0
10000be2:	ee10 0421 	dcp_sub1
10000be6:	ee80 0420 	dcp_nrdd
10000bea:	ec5e c430 	dcp_rdds ip, lr
10000bee:	e9c3 ce00 	strd	ip, lr, [r3]
10000bf2:	e9d1 4502 	ldrd	r4, r5, [r1, #8]
10000bf6:	e9d3 ce02 	ldrd	ip, lr, [r3, #8]
10000bfa:	ec4e c410 	dcp_wxup ip, lr
10000bfe:	ec45 4411 	dcp_wyup r4, r5
10000c02:	ee00 0401 	dcp_add0
10000c06:	ee10 0401 	dcp_add1
10000c0a:	ee80 0420 	dcp_nrdd
10000c0e:	ec5e c410 	dcp_rdda ip, lr
10000c12:	e9c1 ce02 	strd	ip, lr, [r1, #8]
10000c16:	e9d3 ce02 	ldrd	ip, lr, [r3, #8]
10000c1a:	ec45 4410 	dcp_wxup r4, r5
10000c1e:	ec4e c411 	dcp_wyup ip, lr
10000c22:	ee00 0401 	dcp_add0
10000c26:	ee10 0421 	dcp_sub1
10000c2a:	ee80 0420 	dcp_nrdd
10000c2e:	ec5e c430 	dcp_rdds ip, lr
10000c32:	e9c3 ce02 	strd	ip, lr, [r3, #8]
10000c36:	e9d0 4500 	ldrd	r4, r5, [r0]
10000c3a:	e9d1 ce00 	ldrd	ip, lr, [r1]
10000c3e:	ec4e c410 	dcp_wxup ip, lr
10000c42:	ec45 4411 	dcp_wyup r4, r5
10000c46:	ee00 0401 	dcp_add0
10000c4a:	ee10 0401 	dcp_add1
10000c4e:	ee80 0420 	dcp_nrdd
10000c52:	ec5e c410 	dcp_rdda ip, lr
10000c56:	e9c0 ce00 	strd	ip, lr, [r0]
10000c5a:	e9d1 ce00 	ldrd	ip, lr, [r1]
10000c5e:	ec45 4410 	dcp_wxup r4, r5
10000c62:	ec4e c411 	dcp_wyup ip, lr
10000c66:	ee00 0401 	dcp_add0
10000c6a:	ee10 0421 	dcp_sub1
10000c6e:	ee80 0420 	dcp_nrdd
10000c72:	ec5e c430 	dcp_rdds ip, lr
10000c76:	e9c1 ce00 	strd	ip, lr, [r1]
10000c7a:	e9d0 4502 	ldrd	r4, r5, [r0, #8]
10000c7e:	e9d1 ce02 	ldrd	ip, lr, [r1, #8]
10000c82:	ec4e c410 	dcp_wxup ip, lr
10000c86:	ec45 4411 	dcp_wyup r4, r5
10000c8a:	ee00 0401 	dcp_add0
10000c8e:	ee10 0401 	dcp_add1
10000c92:	ee80 0420 	dcp_nrdd
10000c96:	ec5e c410 	dcp_rdda ip, lr
10000c9a:	e9c0 ce02 	strd	ip, lr, [r0, #8]
10000c9e:	e9d1 ce02 	ldrd	ip, lr, [r1, #8]
10000ca2:	ec45 4410 	dcp_wxup r4, r5
10000ca6:	ec4e c411 	dcp_wyup ip, lr
10000caa:	ee00 0401 	dcp_add0
10000cae:	ee10 0421 	dcp_sub1
10000cb2:	ee80 0420 	dcp_nrdd
10000cb6:	ec5e c430 	dcp_rdds ip, lr
10000cba:	e9c1 ce02 	strd	ip, lr, [r1, #8]
10000cbe:	e9d2 4500 	ldrd	r4, r5, [r2]
10000cc2:	e9d3 ce02 	ldrd	ip, lr, [r3, #8]
10000cc6:	ec4e c410 	dcp_wxup ip, lr
10000cca:	ec45 4411 	dcp_wyup r4, r5
10000cce:	ee00 0401 	dcp_add0
10000cd2:	ee10 0401 	dcp_add1
10000cd6:	ee80 0420 	dcp_nrdd
10000cda:	ec5e c410 	dcp_rdda ip, lr
10000cde:	e9c2 ce00 	strd	ip, lr, [r2]
10000ce2:	e9d3 ce02 	ldrd	ip, lr, [r3, #8]
10000ce6:	ec45 4410 	dcp_wxup r4, r5
10000cea:	ec4e c411 	dcp_wyup ip, lr
10000cee:	ee00 0401 	dcp_add0
10000cf2:	ee10 0421 	dcp_sub1
10000cf6:	ee80 0420 	dcp_nrdd
10000cfa:	ec5e c430 	dcp_rdds ip, lr
10000cfe:	e9d3 4500 	ldrd	r4, r5, [r3]
10000d02:	e9c3 ce00 	strd	ip, lr, [r3]
10000d06:	e9d2 ce02 	ldrd	ip, lr, [r2, #8]
10000d0a:	ec4e c410 	dcp_wxup ip, lr
10000d0e:	ec45 4411 	dcp_wyup r4, r5
10000d12:	ee00 0401 	dcp_add0
10000d16:	ee10 0401 	dcp_add1
10000d1a:	ee80 0420 	dcp_nrdd
10000d1e:	ec5e c410 	dcp_rdda ip, lr
10000d22:	e9c3 ce02 	strd	ip, lr, [r3, #8]
10000d26:	e9d2 ce02 	ldrd	ip, lr, [r2, #8]
10000d2a:	ec4e c410 	dcp_wxup ip, lr
10000d2e:	ec45 4411 	dcp_wyup r4, r5
10000d32:	ee00 0401 	dcp_add0
10000d36:	ee10 0421 	dcp_sub1
10000d3a:	ee80 0420 	dcp_nrdd
10000d3e:	ec5e c430 	dcp_rdds ip, lr
10000d42:	e9c2 ce02 	strd	ip, lr, [r2, #8]
10000d46:	bd30      	pop	{r4, r5, pc}

10000d48 <gpio_set_function>:
10000d48:	4b0c      	ldr	r3, [pc, #48]	@ (10000d7c <gpio_set_function+0x34>)
10000d4a:	eb03 0280 	add.w	r2, r3, r0, lsl #2
10000d4e:	f853 3020 	ldr.w	r3, [r3, r0, lsl #2]
10000d52:	f083 0340 	eor.w	r3, r3, #64	@ 0x40
10000d56:	f003 03c0 	and.w	r3, r3, #192	@ 0xc0
10000d5a:	f502 5c80 	add.w	ip, r2, #4096	@ 0x1000
10000d5e:	f8cc 3000 	str.w	r3, [ip]
10000d62:	00c0      	lsls	r0, r0, #3
10000d64:	f100 4080 	add.w	r0, r0, #1073741824	@ 0x40000000
10000d68:	f500 3020 	add.w	r0, r0, #163840	@ 0x28000
10000d6c:	6041      	str	r1, [r0, #4]
10000d6e:	f502 5240 	add.w	r2, r2, #12288	@ 0x3000
10000d72:	f44f 7380 	mov.w	r3, #256	@ 0x100
10000d76:	6013      	str	r3, [r2, #0]
10000d78:	4770      	bx	lr
10000d7a:	bf00      	nop
10000d7c:	40038004 	.word	0x40038004

10000d80 <panic>:
10000d80:	b40f      	push	{r0, r1, r2, r3}
10000d82:	b500      	push	{lr}
10000d84:	b083      	sub	sp, #12
10000d86:	9c04      	ldr	r4, [sp, #16]
10000d88:	4807      	ldr	r0, [pc, #28]	@ (10000da8 <panic+0x28>)
10000d8a:	f001 fc56 	bl	1000263a <__wrap_puts>
10000d8e:	b13c      	cbz	r4, 10000da0 <panic+0x20>
10000d90:	a905      	add	r1, sp, #20
10000d92:	9101      	str	r1, [sp, #4]
10000d94:	4620      	mov	r0, r4
10000d96:	f001 fc5f 	bl	10002658 <__wrap_vprintf>
10000d9a:	4804      	ldr	r0, [pc, #16]	@ (10000dac <panic+0x2c>)
10000d9c:	f001 fc4d 	bl	1000263a <__wrap_puts>
10000da0:	2001      	movs	r0, #1
10000da2:	f001 fac3 	bl	1000232c <_exit>
10000da6:	bf00      	nop
10000da8:	10007cb8 	.word	0x10007cb8
10000dac:	10007ba8 	.word	0x10007ba8

10000db0 <hw_claim_lock>:
10000db0:	f3ef 8010 	mrs	r0, PRIMASK
10000db4:	b672      	cpsid	i
10000db6:	4b06      	ldr	r3, [pc, #24]	@ (10000dd0 <hw_claim_lock+0x20>)
10000db8:	e8d3 1fcf 	ldaexb	r1, [r3]
10000dbc:	2201      	movs	r2, #1
10000dbe:	2900      	cmp	r1, #0
10000dc0:	d1fa      	bne.n	10000db8 <hw_claim_lock+0x8>
10000dc2:	e8c3 2f41 	strexb	r1, r2, [r3]
10000dc6:	2900      	cmp	r1, #0
10000dc8:	d1f6      	bne.n	10000db8 <hw_claim_lock+0x8>
10000dca:	f3bf 8f5f 	dmb	sy
10000dce:	4770      	bx	lr
10000dd0:	2000105b 	.word	0x2000105b

10000dd4 <hw_claim_unlock>:
10000dd4:	2300      	movs	r3, #0
10000dd6:	4a03      	ldr	r2, [pc, #12]	@ (10000de4 <hw_claim_unlock+0x10>)
10000dd8:	e8c2 3f8f 	stlb	r3, [r2]
10000ddc:	f380 8810 	msr	PRIMASK, r0
10000de0:	4770      	bx	lr
10000de2:	bf00      	nop
10000de4:	2000105b 	.word	0x2000105b

10000de8 <hw_claim_or_assert>:
10000de8:	b570      	push	{r4, r5, r6, lr}
10000dea:	4605      	mov	r5, r0
10000dec:	460c      	mov	r4, r1
10000dee:	4616      	mov	r6, r2
10000df0:	f7ff ffde 	bl	10000db0 <hw_claim_lock>
10000df4:	08e2      	lsrs	r2, r4, #3
10000df6:	5ca9      	ldrb	r1, [r5, r2]
10000df8:	f004 0c07 	and.w	ip, r4, #7
10000dfc:	2301      	movs	r3, #1
10000dfe:	fa03 f30c 	lsl.w	r3, r3, ip
10000e02:	4219      	tst	r1, r3
10000e04:	d105      	bne.n	10000e12 <hw_claim_or_assert+0x2a>
10000e06:	b2db      	uxtb	r3, r3
10000e08:	430b      	orrs	r3, r1
10000e0a:	54ab      	strb	r3, [r5, r2]
10000e0c:	f7ff ffe2 	bl	10000dd4 <hw_claim_unlock>
10000e10:	bd70      	pop	{r4, r5, r6, pc}
10000e12:	4621      	mov	r1, r4
10000e14:	4630      	mov	r0, r6
10000e16:	f7ff ffb3 	bl	10000d80 <panic>
	...

10000e1c <next_striped_spin_lock_num>:
10000e1c:	4a05      	ldr	r2, [pc, #20]	@ (10000e34 <next_striped_spin_lock_num+0x18>)
10000e1e:	7810      	ldrb	r0, [r2, #0]
10000e20:	1c43      	adds	r3, r0, #1
10000e22:	b2db      	uxtb	r3, r3
10000e24:	7013      	strb	r3, [r2, #0]
10000e26:	2b17      	cmp	r3, #23
10000e28:	d902      	bls.n	10000e30 <next_striped_spin_lock_num+0x14>
10000e2a:	4613      	mov	r3, r2
10000e2c:	2210      	movs	r2, #16
10000e2e:	701a      	strb	r2, [r3, #0]
10000e30:	4770      	bx	lr
10000e32:	bf00      	nop
10000e34:	20000600 	.word	0x20000600

10000e38 <spinlock_set_extexclall>:
10000e38:	f04f 22e0 	mov.w	r2, #3758153728	@ 0xe000e000
10000e3c:	6893      	ldr	r3, [r2, #8]
10000e3e:	f043 5300 	orr.w	r3, r3, #536870912	@ 0x20000000
10000e42:	6093      	str	r3, [r2, #8]
10000e44:	4770      	bx	lr
	...

10000e48 <spin_locks_reset>:
10000e48:	2300      	movs	r3, #0
10000e4a:	e005      	b.n	10000e58 <spin_locks_reset+0x10>
10000e4c:	4a04      	ldr	r2, [pc, #16]	@ (10000e60 <spin_locks_reset+0x18>)
10000e4e:	441a      	add	r2, r3
10000e50:	2100      	movs	r1, #0
10000e52:	e8c2 1f8f 	stlb	r1, [r2]
10000e56:	3301      	adds	r3, #1
10000e58:	2b1f      	cmp	r3, #31
10000e5a:	d9f7      	bls.n	10000e4c <spin_locks_reset+0x4>
10000e5c:	4770      	bx	lr
10000e5e:	bf00      	nop
10000e60:	20001050 	.word	0x20001050

10000e64 <set_raw_irq_handler_and_unlock>:
10000e64:	4b06      	ldr	r3, [pc, #24]	@ (10000e80 <set_raw_irq_handler_and_unlock+0x1c>)
10000e66:	689b      	ldr	r3, [r3, #8]
10000e68:	3010      	adds	r0, #16
10000e6a:	f843 1020 	str.w	r1, [r3, r0, lsl #2]
10000e6e:	f3bf 8f5f 	dmb	sy
10000e72:	2300      	movs	r3, #0
10000e74:	4903      	ldr	r1, [pc, #12]	@ (10000e84 <set_raw_irq_handler_and_unlock+0x20>)
10000e76:	e8c1 3f8f 	stlb	r3, [r1]
10000e7a:	f382 8810 	msr	PRIMASK, r2
10000e7e:	4770      	bx	lr
10000e80:	e000ed00 	.word	0xe000ed00
10000e84:	20001059 	.word	0x20001059

10000e88 <nvic_ipr0>:
10000e88:	4800      	ldr	r0, [pc, #0]	@ (10000e8c <nvic_ipr0+0x4>)
10000e8a:	4770      	bx	lr
10000e8c:	e000e400 	.word	0xe000e400

10000e90 <runtime_init_per_core_irq_priorities>:
10000e90:	b508      	push	{r3, lr}
10000e92:	f7ff fff9 	bl	10000e88 <nvic_ipr0>
10000e96:	2300      	movs	r3, #0
10000e98:	e004      	b.n	10000ea4 <runtime_init_per_core_irq_priorities+0x14>
10000e9a:	f04f 3280 	mov.w	r2, #2155905152	@ 0x80808080
10000e9e:	f840 2b04 	str.w	r2, [r0], #4
10000ea2:	3301      	adds	r3, #1
10000ea4:	2b0c      	cmp	r3, #12
10000ea6:	d9f8      	bls.n	10000e9a <runtime_init_per_core_irq_priorities+0xa>
10000ea8:	bd08      	pop	{r3, pc}
	...

10000eac <resolve_j_16>:
10000eac:	b508      	push	{r3, lr}
10000eae:	8803      	ldrh	r3, [r0, #0]
10000eb0:	0ada      	lsrs	r2, r3, #11
10000eb2:	2a1c      	cmp	r2, #28
10000eb4:	d106      	bne.n	10000ec4 <resolve_j_16+0x18>
10000eb6:	055b      	lsls	r3, r3, #21
10000eb8:	d40b      	bmi.n	10000ed2 <resolve_j_16+0x26>
10000eba:	155b      	asrs	r3, r3, #21
10000ebc:	3302      	adds	r3, #2
10000ebe:	eb00 0043 	add.w	r0, r0, r3, lsl #1
10000ec2:	bd08      	pop	{r3, pc}
10000ec4:	4b06      	ldr	r3, [pc, #24]	@ (10000ee0 <resolve_j_16+0x34>)
10000ec6:	4a07      	ldr	r2, [pc, #28]	@ (10000ee4 <resolve_j_16+0x38>)
10000ec8:	f240 110f 	movw	r1, #271	@ 0x10f
10000ecc:	4806      	ldr	r0, [pc, #24]	@ (10000ee8 <resolve_j_16+0x3c>)
10000ece:	f001 fa7b 	bl	100023c8 <__assert_func>
10000ed2:	f503 13ff 	add.w	r3, r3, #2088960	@ 0x1fe000
10000ed6:	f503 53ff 	add.w	r3, r3, #8160	@ 0x1fe0
10000eda:	331f      	adds	r3, #31
10000edc:	e7ed      	b.n	10000eba <resolve_j_16+0xe>
10000ede:	bf00      	nop
10000ee0:	10007cc8 	.word	0x10007cc8
10000ee4:	100083f4 	.word	0x100083f4
10000ee8:	10007ce0 	.word	0x10007ce0

10000eec <make_j_16>:
10000eec:	b508      	push	{r3, lr}
10000eee:	1a09      	subs	r1, r1, r0
10000ef0:	f201 72fc 	addw	r2, r1, #2044	@ 0x7fc
10000ef4:	f640 73fe 	movw	r3, #4094	@ 0xffe
10000ef8:	429a      	cmp	r2, r3
10000efa:	d808      	bhi.n	10000f0e <make_j_16+0x22>
10000efc:	1f08      	subs	r0, r1, #4
10000efe:	f011 0f01 	tst.w	r1, #1
10000f02:	d104      	bne.n	10000f0e <make_j_16+0x22>
10000f04:	f3c0 004a 	ubfx	r0, r0, #1, #11
10000f08:	f440 4060 	orr.w	r0, r0, #57344	@ 0xe000
10000f0c:	bd08      	pop	{r3, pc}
10000f0e:	4b03      	ldr	r3, [pc, #12]	@ (10000f1c <make_j_16+0x30>)
10000f10:	4a03      	ldr	r2, [pc, #12]	@ (10000f20 <make_j_16+0x34>)
10000f12:	f240 1101 	movw	r1, #257	@ 0x101
10000f16:	4803      	ldr	r0, [pc, #12]	@ (10000f24 <make_j_16+0x38>)
10000f18:	f001 fa56 	bl	100023c8 <__assert_func>
10000f1c:	10007d28 	.word	0x10007d28
10000f20:	100083e8 	.word	0x100083e8
10000f24:	10007ce0 	.word	0x10007ce0

10000f28 <insert_bl_32>:
10000f28:	b508      	push	{r3, lr}
10000f2a:	1a09      	subs	r1, r1, r0
10000f2c:	3904      	subs	r1, #4
10000f2e:	084b      	lsrs	r3, r1, #1
10000f30:	0b09      	lsrs	r1, r1, #12
10000f32:	d10a      	bne.n	10000f4a <insert_bl_32+0x22>
10000f34:	f3c1 010a 	ubfx	r1, r1, #0, #11
10000f38:	f441 4170 	orr.w	r1, r1, #61440	@ 0xf000
10000f3c:	8001      	strh	r1, [r0, #0]
10000f3e:	ea6f 5343 	mvn.w	r3, r3, lsl #21
10000f42:	ea6f 5353 	mvn.w	r3, r3, lsr #21
10000f46:	8043      	strh	r3, [r0, #2]
10000f48:	bd08      	pop	{r3, pc}
10000f4a:	4b03      	ldr	r3, [pc, #12]	@ (10000f58 <insert_bl_32+0x30>)
10000f4c:	4a03      	ldr	r2, [pc, #12]	@ (10000f5c <insert_bl_32+0x34>)
10000f4e:	f240 1109 	movw	r1, #265	@ 0x109
10000f52:	4803      	ldr	r0, [pc, #12]	@ (10000f60 <insert_bl_32+0x38>)
10000f54:	f001 fa38 	bl	100023c8 <__assert_func>
10000f58:	10007d58 	.word	0x10007d58
10000f5c:	100083c4 	.word	0x100083c4
10000f60:	10007ce0 	.word	0x10007ce0

10000f64 <irq_is_enabled>:
10000f64:	0942      	lsrs	r2, r0, #5
10000f66:	4b06      	ldr	r3, [pc, #24]	@ (10000f80 <irq_is_enabled+0x1c>)
10000f68:	f853 2022 	ldr.w	r2, [r3, r2, lsl #2]
10000f6c:	f000 001f 	and.w	r0, r0, #31
10000f70:	2301      	movs	r3, #1
10000f72:	4083      	lsls	r3, r0
10000f74:	421a      	tst	r2, r3
10000f76:	bf14      	ite	ne
10000f78:	2001      	movne	r0, #1
10000f7a:	2000      	moveq	r0, #0
10000f7c:	4770      	bx	lr
10000f7e:	bf00      	nop
10000f80:	e000e100 	.word	0xe000e100

10000f84 <irq_set_mask_n_enabled>:
10000f84:	b13a      	cbz	r2, 10000f96 <irq_set_mask_n_enabled+0x12>
10000f86:	4b06      	ldr	r3, [pc, #24]	@ (10000fa0 <irq_set_mask_n_enabled+0x1c>)
10000f88:	f100 0260 	add.w	r2, r0, #96	@ 0x60
10000f8c:	f843 1022 	str.w	r1, [r3, r2, lsl #2]
10000f90:	f843 1020 	str.w	r1, [r3, r0, lsl #2]
10000f94:	4770      	bx	lr
10000f96:	3020      	adds	r0, #32
10000f98:	4b01      	ldr	r3, [pc, #4]	@ (10000fa0 <irq_set_mask_n_enabled+0x1c>)
10000f9a:	f843 1020 	str.w	r1, [r3, r0, lsl #2]
10000f9e:	4770      	bx	lr
10000fa0:	e000e100 	.word	0xe000e100

10000fa4 <irq_set_enabled>:
10000fa4:	b508      	push	{r3, lr}
10000fa6:	460a      	mov	r2, r1
10000fa8:	f000 031f 	and.w	r3, r0, #31
10000fac:	2101      	movs	r1, #1
10000fae:	4099      	lsls	r1, r3
10000fb0:	0940      	lsrs	r0, r0, #5
10000fb2:	f7ff ffe7 	bl	10000f84 <irq_set_mask_n_enabled>
10000fb6:	bd08      	pop	{r3, pc}

10000fb8 <irq_get_vtable_handler>:
10000fb8:	4b02      	ldr	r3, [pc, #8]	@ (10000fc4 <irq_get_vtable_handler+0xc>)
10000fba:	689b      	ldr	r3, [r3, #8]
10000fbc:	3010      	adds	r0, #16
10000fbe:	f853 0020 	ldr.w	r0, [r3, r0, lsl #2]
10000fc2:	4770      	bx	lr
10000fc4:	e000ed00 	.word	0xe000ed00

10000fc8 <irq_set_exclusive_handler>:
10000fc8:	b570      	push	{r4, r5, r6, lr}
10000fca:	4605      	mov	r5, r0
10000fcc:	460c      	mov	r4, r1
10000fce:	f3ef 8610 	mrs	r6, PRIMASK
10000fd2:	b672      	cpsid	i
10000fd4:	4b0f      	ldr	r3, [pc, #60]	@ (10001014 <irq_set_exclusive_handler+0x4c>)
10000fd6:	e8d3 1fcf 	ldaexb	r1, [r3]
10000fda:	2201      	movs	r2, #1
10000fdc:	2900      	cmp	r1, #0
10000fde:	d1fa      	bne.n	10000fd6 <irq_set_exclusive_handler+0xe>
10000fe0:	e8c3 2f41 	strexb	r1, r2, [r3]
10000fe4:	2900      	cmp	r1, #0
10000fe6:	d1f6      	bne.n	10000fd6 <irq_set_exclusive_handler+0xe>
10000fe8:	f3bf 8f5f 	dmb	sy
10000fec:	f7ff ffe4 	bl	10000fb8 <irq_get_vtable_handler>
10000ff0:	4b09      	ldr	r3, [pc, #36]	@ (10001018 <irq_set_exclusive_handler+0x50>)
10000ff2:	4298      	cmp	r0, r3
10000ff4:	d001      	beq.n	10000ffa <irq_set_exclusive_handler+0x32>
10000ff6:	42a0      	cmp	r0, r4
10000ff8:	d105      	bne.n	10001006 <irq_set_exclusive_handler+0x3e>
10000ffa:	4632      	mov	r2, r6
10000ffc:	4621      	mov	r1, r4
10000ffe:	4628      	mov	r0, r5
10001000:	f7ff ff30 	bl	10000e64 <set_raw_irq_handler_and_unlock>
10001004:	bd70      	pop	{r4, r5, r6, pc}
10001006:	4b05      	ldr	r3, [pc, #20]	@ (1000101c <irq_set_exclusive_handler+0x54>)
10001008:	4a05      	ldr	r2, [pc, #20]	@ (10001020 <irq_set_exclusive_handler+0x58>)
1000100a:	21e1      	movs	r1, #225	@ 0xe1
1000100c:	4805      	ldr	r0, [pc, #20]	@ (10001024 <irq_set_exclusive_handler+0x5c>)
1000100e:	f001 f9db 	bl	100023c8 <__assert_func>
10001012:	bf00      	nop
10001014:	20001059 	.word	0x20001059
10001018:	1000011d 	.word	0x1000011d
1000101c:	10007d68 	.word	0x10007d68
10001020:	10008404 	.word	0x10008404
10001024:	10007ce0 	.word	0x10007ce0

10001028 <irq_remove_handler>:
10001028:	e92d 47f0 	stmdb	sp!, {r4, r5, r6, r7, r8, r9, sl, lr}
1000102c:	4606      	mov	r6, r0
1000102e:	460d      	mov	r5, r1
10001030:	f3ef 8810 	mrs	r8, PRIMASK
10001034:	b672      	cpsid	i
10001036:	4b50      	ldr	r3, [pc, #320]	@ (10001178 <irq_remove_handler+0x150>)
10001038:	e8d3 1fcf 	ldaexb	r1, [r3]
1000103c:	2201      	movs	r2, #1
1000103e:	2900      	cmp	r1, #0
10001040:	d1fa      	bne.n	10001038 <irq_remove_handler+0x10>
10001042:	e8c3 2f41 	strexb	r1, r2, [r3]
10001046:	2900      	cmp	r1, #0
10001048:	d1f6      	bne.n	10001038 <irq_remove_handler+0x10>
1000104a:	f3bf 8f5f 	dmb	sy
1000104e:	4b4b      	ldr	r3, [pc, #300]	@ (1000117c <irq_remove_handler+0x154>)
10001050:	689b      	ldr	r3, [r3, #8]
10001052:	f100 0a10 	add.w	sl, r0, #16
10001056:	f853 702a 	ldr.w	r7, [r3, sl, lsl #2]
1000105a:	4b49      	ldr	r3, [pc, #292]	@ (10001180 <irq_remove_handler+0x158>)
1000105c:	429f      	cmp	r7, r3
1000105e:	d007      	beq.n	10001070 <irq_remove_handler+0x48>
10001060:	42af      	cmp	r7, r5
10001062:	f000 8087 	beq.w	10001174 <irq_remove_handler+0x14c>
10001066:	463c      	mov	r4, r7
10001068:	4b46      	ldr	r3, [pc, #280]	@ (10001184 <irq_remove_handler+0x15c>)
1000106a:	1afb      	subs	r3, r7, r3
1000106c:	2b2f      	cmp	r3, #47	@ 0x2f
1000106e:	d906      	bls.n	1000107e <irq_remove_handler+0x56>
10001070:	4642      	mov	r2, r8
10001072:	4639      	mov	r1, r7
10001074:	4630      	mov	r0, r6
10001076:	f7ff fef5 	bl	10000e64 <set_raw_irq_handler_and_unlock>
1000107a:	e8bd 87f0 	ldmia.w	sp!, {r4, r5, r6, r7, r8, r9, sl, pc}
1000107e:	f7ff ff71 	bl	10000f64 <irq_is_enabled>
10001082:	4681      	mov	r9, r0
10001084:	2100      	movs	r1, #0
10001086:	4630      	mov	r0, r6
10001088:	f7ff ff8c 	bl	10000fa4 <irq_set_enabled>
1000108c:	f3bf 8f5f 	dmb	sy
10001090:	f3ef 8005 	mrs	r0, IPSR
10001094:	b2c0      	uxtb	r0, r0
10001096:	b108      	cbz	r0, 1000109c <irq_remove_handler+0x74>
10001098:	4582      	cmp	sl, r0
1000109a:	d110      	bne.n	100010be <irq_remove_handler+0x96>
1000109c:	f024 0401 	bic.w	r4, r4, #1
100010a0:	2100      	movs	r1, #0
100010a2:	68a2      	ldr	r2, [r4, #8]
100010a4:	4295      	cmp	r5, r2
100010a6:	d012      	beq.n	100010ce <irq_remove_handler+0xa6>
100010a8:	f994 3006 	ldrsb.w	r3, [r4, #6]
100010ac:	2b00      	cmp	r3, #0
100010ae:	db0d      	blt.n	100010cc <irq_remove_handler+0xa4>
100010b0:	eb03 0343 	add.w	r3, r3, r3, lsl #1
100010b4:	4621      	mov	r1, r4
100010b6:	4c33      	ldr	r4, [pc, #204]	@ (10001184 <irq_remove_handler+0x15c>)
100010b8:	eb04 0483 	add.w	r4, r4, r3, lsl #2
100010bc:	e7f1      	b.n	100010a2 <irq_remove_handler+0x7a>
100010be:	4b32      	ldr	r3, [pc, #200]	@ (10001188 <irq_remove_handler+0x160>)
100010c0:	4a32      	ldr	r2, [pc, #200]	@ (1000118c <irq_remove_handler+0x164>)
100010c2:	f240 11f3 	movw	r1, #499	@ 0x1f3
100010c6:	4832      	ldr	r0, [pc, #200]	@ (10001190 <irq_remove_handler+0x168>)
100010c8:	f001 f97e 	bl	100023c8 <__assert_func>
100010cc:	4621      	mov	r1, r4
100010ce:	4295      	cmp	r5, r2
100010d0:	d149      	bne.n	10001166 <irq_remove_handler+0x13e>
100010d2:	f994 5006 	ldrsb.w	r5, [r4, #6]
100010d6:	2d00      	cmp	r5, #0
100010d8:	db2b      	blt.n	10001132 <irq_remove_handler+0x10a>
100010da:	eb05 0245 	add.w	r2, r5, r5, lsl #1
100010de:	4b29      	ldr	r3, [pc, #164]	@ (10001184 <irq_remove_handler+0x15c>)
100010e0:	eb03 0382 	add.w	r3, r3, r2, lsl #2
100010e4:	689a      	ldr	r2, [r3, #8]
100010e6:	60a2      	str	r2, [r4, #8]
100010e8:	79da      	ldrb	r2, [r3, #7]
100010ea:	71e2      	strb	r2, [r4, #7]
100010ec:	f993 3006 	ldrsb.w	r3, [r3, #6]
100010f0:	71a3      	strb	r3, [r4, #6]
100010f2:	2b00      	cmp	r3, #0
100010f4:	da10      	bge.n	10001118 <irq_remove_handler+0xf0>
100010f6:	f64b 5001 	movw	r0, #48385	@ 0xbd01
100010fa:	80a0      	strh	r0, [r4, #4]
100010fc:	eb05 0245 	add.w	r2, r5, r5, lsl #1
10001100:	4b20      	ldr	r3, [pc, #128]	@ (10001184 <irq_remove_handler+0x15c>)
10001102:	eb03 0382 	add.w	r3, r3, r2, lsl #2
10001106:	4a23      	ldr	r2, [pc, #140]	@ (10001194 <irq_remove_handler+0x16c>)
10001108:	7811      	ldrb	r1, [r2, #0]
1000110a:	7199      	strb	r1, [r3, #6]
1000110c:	7015      	strb	r5, [r2, #0]
1000110e:	4649      	mov	r1, r9
10001110:	4630      	mov	r0, r6
10001112:	f7ff ff47 	bl	10000fa4 <irq_set_enabled>
10001116:	e7ab      	b.n	10001070 <irq_remove_handler+0x48>
10001118:	eb05 0345 	add.w	r3, r5, r5, lsl #1
1000111c:	4819      	ldr	r0, [pc, #100]	@ (10001184 <irq_remove_handler+0x15c>)
1000111e:	eb00 0083 	add.w	r0, r0, r3, lsl #2
10001122:	3004      	adds	r0, #4
10001124:	f7ff fec2 	bl	10000eac <resolve_j_16>
10001128:	4601      	mov	r1, r0
1000112a:	1d20      	adds	r0, r4, #4
1000112c:	f7ff fede 	bl	10000eec <make_j_16>
10001130:	e7e3      	b.n	100010fa <irq_remove_handler+0xd2>
10001132:	b998      	cbnz	r0, 1000115c <irq_remove_handler+0x134>
10001134:	b181      	cbz	r1, 10001158 <irq_remove_handler+0x130>
10001136:	23ff      	movs	r3, #255	@ 0xff
10001138:	718b      	strb	r3, [r1, #6]
1000113a:	f64b 5301 	movw	r3, #48385	@ 0xbd01
1000113e:	808b      	strh	r3, [r1, #4]
10001140:	4a14      	ldr	r2, [pc, #80]	@ (10001194 <irq_remove_handler+0x16c>)
10001142:	7813      	ldrb	r3, [r2, #0]
10001144:	71a3      	strb	r3, [r4, #6]
10001146:	f64a 23aa 	movw	r3, #43690	@ 0xaaaa
1000114a:	490e      	ldr	r1, [pc, #56]	@ (10001184 <irq_remove_handler+0x15c>)
1000114c:	1a64      	subs	r4, r4, r1
1000114e:	4164      	adcs	r4, r4
10001150:	4363      	muls	r3, r4
10001152:	0d1b      	lsrs	r3, r3, #20
10001154:	7013      	strb	r3, [r2, #0]
10001156:	e7da      	b.n	1000110e <irq_remove_handler+0xe6>
10001158:	4f09      	ldr	r7, [pc, #36]	@ (10001180 <irq_remove_handler+0x158>)
1000115a:	e7f1      	b.n	10001140 <irq_remove_handler+0x118>
1000115c:	490e      	ldr	r1, [pc, #56]	@ (10001198 <irq_remove_handler+0x170>)
1000115e:	1d20      	adds	r0, r4, #4
10001160:	f7ff fee2 	bl	10000f28 <insert_bl_32>
10001164:	e7d3      	b.n	1000110e <irq_remove_handler+0xe6>
10001166:	4b0d      	ldr	r3, [pc, #52]	@ (1000119c <irq_remove_handler+0x174>)
10001168:	4a08      	ldr	r2, [pc, #32]	@ (1000118c <irq_remove_handler+0x164>)
1000116a:	f240 2135 	movw	r1, #565	@ 0x235
1000116e:	4808      	ldr	r0, [pc, #32]	@ (10001190 <irq_remove_handler+0x168>)
10001170:	f001 f92a 	bl	100023c8 <__assert_func>
10001174:	4f02      	ldr	r7, [pc, #8]	@ (10001180 <irq_remove_handler+0x158>)
10001176:	e77b      	b.n	10001070 <irq_remove_handler+0x48>
10001178:	20001059 	.word	0x20001059
1000117c:	e000ed00 	.word	0xe000ed00
10001180:	1000011d 	.word	0x1000011d
10001184:	20000604 	.word	0x20000604
10001188:	10007da0 	.word	0x10007da0
1000118c:	100083d4 	.word	0x100083d4
10001190:	10007ce0 	.word	0x10007ce0
10001194:	200010f8 	.word	0x200010f8
10001198:	2000063e 	.word	0x2000063e
1000119c:	10007dd4 	.word	0x10007dd4

100011a0 <irq_add_tail_to_free_list>:
100011a0:	b538      	push	{r3, r4, r5, lr}
100011a2:	f040 0401 	orr.w	r4, r0, #1
100011a6:	4b32      	ldr	r3, [pc, #200]	@ (10001270 <irq_add_tail_to_free_list+0xd0>)
100011a8:	1ae3      	subs	r3, r4, r3
100011aa:	2b2f      	cmp	r3, #47	@ 0x2f
100011ac:	d831      	bhi.n	10001212 <irq_add_tail_to_free_list+0x72>
100011ae:	f3ef 8105 	mrs	r1, IPSR
100011b2:	b2c9      	uxtb	r1, r1
100011b4:	2900      	cmp	r1, #0
100011b6:	d033      	beq.n	10001220 <irq_add_tail_to_free_list+0x80>
100011b8:	f3ef 8e10 	mrs	lr, PRIMASK
100011bc:	b672      	cpsid	i
100011be:	4b2d      	ldr	r3, [pc, #180]	@ (10001274 <irq_add_tail_to_free_list+0xd4>)
100011c0:	e8d3 5fcf 	ldaexb	r5, [r3]
100011c4:	2201      	movs	r2, #1
100011c6:	2d00      	cmp	r5, #0
100011c8:	d1fa      	bne.n	100011c0 <irq_add_tail_to_free_list+0x20>
100011ca:	e8c3 2f45 	strexb	r5, r2, [r3]
100011ce:	2d00      	cmp	r5, #0
100011d0:	d1f6      	bne.n	100011c0 <irq_add_tail_to_free_list+0x20>
100011d2:	f3bf 8f5f 	dmb	sy
100011d6:	f64a 23aa 	movw	r3, #43690	@ 0xaaaa
100011da:	4602      	mov	r2, r0
100011dc:	4d24      	ldr	r5, [pc, #144]	@ (10001270 <irq_add_tail_to_free_list+0xd0>)
100011de:	1b52      	subs	r2, r2, r5
100011e0:	4152      	adcs	r2, r2
100011e2:	4353      	muls	r3, r2
100011e4:	0d1b      	lsrs	r3, r3, #20
100011e6:	fa4f fc83 	sxtb.w	ip, r3
100011ea:	4b23      	ldr	r3, [pc, #140]	@ (10001278 <irq_add_tail_to_free_list+0xd8>)
100011ec:	689b      	ldr	r3, [r3, #8]
100011ee:	f853 3021 	ldr.w	r3, [r3, r1, lsl #2]
100011f2:	42a3      	cmp	r3, r4
100011f4:	d01b      	beq.n	1000122e <irq_add_tail_to_free_list+0x8e>
100011f6:	2300      	movs	r3, #0
100011f8:	2b03      	cmp	r3, #3
100011fa:	d832      	bhi.n	10001262 <irq_add_tail_to_free_list+0xc2>
100011fc:	eb03 0143 	add.w	r1, r3, r3, lsl #1
10001200:	4a1b      	ldr	r2, [pc, #108]	@ (10001270 <irq_add_tail_to_free_list+0xd0>)
10001202:	eb02 0281 	add.w	r2, r2, r1, lsl #2
10001206:	f992 2006 	ldrsb.w	r2, [r2, #6]
1000120a:	4562      	cmp	r2, ip
1000120c:	d020      	beq.n	10001250 <irq_add_tail_to_free_list+0xb0>
1000120e:	3301      	adds	r3, #1
10001210:	e7f2      	b.n	100011f8 <irq_add_tail_to_free_list+0x58>
10001212:	4b1a      	ldr	r3, [pc, #104]	@ (1000127c <irq_add_tail_to_free_list+0xdc>)
10001214:	4a1a      	ldr	r2, [pc, #104]	@ (10001280 <irq_add_tail_to_free_list+0xe0>)
10001216:	f240 216e 	movw	r1, #622	@ 0x26e
1000121a:	481a      	ldr	r0, [pc, #104]	@ (10001284 <irq_add_tail_to_free_list+0xe4>)
1000121c:	f001 f8d4 	bl	100023c8 <__assert_func>
10001220:	4b19      	ldr	r3, [pc, #100]	@ (10001288 <irq_add_tail_to_free_list+0xe8>)
10001222:	4a17      	ldr	r2, [pc, #92]	@ (10001280 <irq_add_tail_to_free_list+0xe0>)
10001224:	f240 2171 	movw	r1, #625	@ 0x271
10001228:	4816      	ldr	r0, [pc, #88]	@ (10001284 <irq_add_tail_to_free_list+0xe4>)
1000122a:	f001 f8cd 	bl	100023c8 <__assert_func>
1000122e:	4b12      	ldr	r3, [pc, #72]	@ (10001278 <irq_add_tail_to_free_list+0xd8>)
10001230:	689b      	ldr	r3, [r3, #8]
10001232:	4a16      	ldr	r2, [pc, #88]	@ (1000128c <irq_add_tail_to_free_list+0xec>)
10001234:	f843 2021 	str.w	r2, [r3, r1, lsl #2]
10001238:	4b15      	ldr	r3, [pc, #84]	@ (10001290 <irq_add_tail_to_free_list+0xf0>)
1000123a:	781a      	ldrb	r2, [r3, #0]
1000123c:	7182      	strb	r2, [r0, #6]
1000123e:	f883 c000 	strb.w	ip, [r3]
10001242:	2300      	movs	r3, #0
10001244:	4a0b      	ldr	r2, [pc, #44]	@ (10001274 <irq_add_tail_to_free_list+0xd4>)
10001246:	e8c2 3f8f 	stlb	r3, [r2]
1000124a:	f38e 8810 	msr	PRIMASK, lr
1000124e:	bd38      	pop	{r3, r4, r5, pc}
10001250:	4a07      	ldr	r2, [pc, #28]	@ (10001270 <irq_add_tail_to_free_list+0xd0>)
10001252:	eb02 0181 	add.w	r1, r2, r1, lsl #2
10001256:	24ff      	movs	r4, #255	@ 0xff
10001258:	718c      	strb	r4, [r1, #6]
1000125a:	f64b 5301 	movw	r3, #48385	@ 0xbd01
1000125e:	808b      	strh	r3, [r1, #4]
10001260:	e7ea      	b.n	10001238 <irq_add_tail_to_free_list+0x98>
10001262:	4b0c      	ldr	r3, [pc, #48]	@ (10001294 <irq_add_tail_to_free_list+0xf4>)
10001264:	4a06      	ldr	r2, [pc, #24]	@ (10001280 <irq_add_tail_to_free_list+0xe0>)
10001266:	f240 2182 	movw	r1, #642	@ 0x282
1000126a:	4806      	ldr	r0, [pc, #24]	@ (10001284 <irq_add_tail_to_free_list+0xe4>)
1000126c:	f001 f8ac 	bl	100023c8 <__assert_func>
10001270:	20000604 	.word	0x20000604
10001274:	20001059 	.word	0x20001059
10001278:	e000ed00 	.word	0xe000ed00
1000127c:	10007ddc 	.word	0x10007ddc
10001280:	100083a8 	.word	0x100083a8
10001284:	10007ce0 	.word	0x10007ce0
10001288:	10007e04 	.word	0x10007e04
1000128c:	1000011d 	.word	0x1000011d
10001290:	200010f8 	.word	0x200010f8
10001294:	10007e10 	.word	0x10007e10

10001298 <lock_init>:
10001298:	4b01      	ldr	r3, [pc, #4]	@ (100012a0 <lock_init+0x8>)
1000129a:	440b      	add	r3, r1
1000129c:	6003      	str	r3, [r0, #0]
1000129e:	4770      	bx	lr
100012a0:	20001050 	.word	0x20001050

100012a4 <mutex_init>:
100012a4:	b510      	push	{r4, lr}
100012a6:	4604      	mov	r4, r0
100012a8:	f7ff fdb8 	bl	10000e1c <next_striped_spin_lock_num>
100012ac:	4601      	mov	r1, r0
100012ae:	4620      	mov	r0, r4
100012b0:	f7ff fff2 	bl	10001298 <lock_init>
100012b4:	23ff      	movs	r3, #255	@ 0xff
100012b6:	7123      	strb	r3, [r4, #4]
100012b8:	f3bf 8f5f 	dmb	sy
100012bc:	bd10      	pop	{r4, pc}

100012be <recursive_mutex_init>:
100012be:	b510      	push	{r4, lr}
100012c0:	4604      	mov	r4, r0
100012c2:	f7ff fdab 	bl	10000e1c <next_striped_spin_lock_num>
100012c6:	4601      	mov	r1, r0
100012c8:	4620      	mov	r0, r4
100012ca:	f7ff ffe5 	bl	10001298 <lock_init>
100012ce:	23ff      	movs	r3, #255	@ 0xff
100012d0:	7123      	strb	r3, [r4, #4]
100012d2:	2300      	movs	r3, #0
100012d4:	7163      	strb	r3, [r4, #5]
100012d6:	f3bf 8f5f 	dmb	sy
100012da:	bd10      	pop	{r4, pc}

100012dc <runtime_init_mutex>:
100012dc:	b510      	push	{r4, lr}
100012de:	4c0d      	ldr	r4, [pc, #52]	@ (10001314 <runtime_init_mutex+0x38>)
100012e0:	e009      	b.n	100012f6 <runtime_init_mutex+0x1a>
100012e2:	4b0d      	ldr	r3, [pc, #52]	@ (10001318 <runtime_init_mutex+0x3c>)
100012e4:	4a0d      	ldr	r2, [pc, #52]	@ (1000131c <runtime_init_mutex+0x40>)
100012e6:	211a      	movs	r1, #26
100012e8:	480d      	ldr	r0, [pc, #52]	@ (10001320 <runtime_init_mutex+0x44>)
100012ea:	f001 f86d 	bl	100023c8 <__assert_func>
100012ee:	4620      	mov	r0, r4
100012f0:	f7ff ffd8 	bl	100012a4 <mutex_init>
100012f4:	3408      	adds	r4, #8
100012f6:	4b0b      	ldr	r3, [pc, #44]	@ (10001324 <runtime_init_mutex+0x48>)
100012f8:	429c      	cmp	r4, r3
100012fa:	d209      	bcs.n	10001310 <runtime_init_mutex+0x34>
100012fc:	6823      	ldr	r3, [r4, #0]
100012fe:	2b00      	cmp	r3, #0
10001300:	d0f5      	beq.n	100012ee <runtime_init_mutex+0x12>
10001302:	2b01      	cmp	r3, #1
10001304:	d1ed      	bne.n	100012e2 <runtime_init_mutex+0x6>
10001306:	4620      	mov	r0, r4
10001308:	f7ff ffd9 	bl	100012be <recursive_mutex_init>
1000130c:	3408      	adds	r4, #8
1000130e:	e7f2      	b.n	100012f6 <runtime_init_mutex+0x1a>
10001310:	bd10      	pop	{r4, pc}
10001312:	bf00      	nop
10001314:	20000d50 	.word	0x20000d50
10001318:	10007e18 	.word	0x10007e18
1000131c:	10008444 	.word	0x10008444
10001320:	10007e38 	.word	0x10007e38
10001324:	20000d58 	.word	0x20000d58

10001328 <ta_from_current_irq>:
10001328:	4602      	mov	r2, r0
1000132a:	f3ef 8305 	mrs	r3, IPSR
1000132e:	b2db      	uxtb	r3, r3
10001330:	3b10      	subs	r3, #16
10001332:	0899      	lsrs	r1, r3, #2
10001334:	d004      	beq.n	10001340 <ta_from_current_irq+0x18>
10001336:	4803      	ldr	r0, [pc, #12]	@ (10001344 <ta_from_current_irq+0x1c>)
10001338:	f003 0303 	and.w	r3, r3, #3
1000133c:	6013      	str	r3, [r2, #0]
1000133e:	4770      	bx	lr
10001340:	4801      	ldr	r0, [pc, #4]	@ (10001348 <ta_from_current_irq+0x20>)
10001342:	e7f9      	b.n	10001338 <ta_from_current_irq+0x10>
10001344:	400b8000 	.word	0x400b8000
10001348:	400b0000 	.word	0x400b0000

1000134c <make_alarm_id>:
1000134c:	ea41 4000 	orr.w	r0, r1, r0, lsl #16
10001350:	4770      	bx	lr
	...

10001354 <sleep_until_callback>:
10001354:	4b0d      	ldr	r3, [pc, #52]	@ (1000138c <sleep_until_callback+0x38>)
10001356:	681a      	ldr	r2, [r3, #0]
10001358:	f3ef 8110 	mrs	r1, PRIMASK
1000135c:	b672      	cpsid	i
1000135e:	e8d2 cfcf 	ldaexb	ip, [r2]
10001362:	2001      	movs	r0, #1
10001364:	f1bc 0f00 	cmp.w	ip, #0
10001368:	d1f9      	bne.n	1000135e <sleep_until_callback+0xa>
1000136a:	e8c2 0f4c 	strexb	ip, r0, [r2]
1000136e:	f1bc 0f00 	cmp.w	ip, #0
10001372:	d1f4      	bne.n	1000135e <sleep_until_callback+0xa>
10001374:	f3bf 8f5f 	dmb	sy
10001378:	681a      	ldr	r2, [r3, #0]
1000137a:	2300      	movs	r3, #0
1000137c:	e8c2 3f8f 	stlb	r3, [r2]
10001380:	f381 8810 	msr	PRIMASK, r1
10001384:	bf40      	sev
10001386:	2000      	movs	r0, #0
10001388:	2100      	movs	r1, #0
1000138a:	4770      	bx	lr
1000138c:	200010ec 	.word	0x200010ec

10001390 <alarm_pool_irq_handler>:
10001390:	e92d 4ff0 	stmdb	sp!, {r4, r5, r6, r7, r8, r9, sl, fp, lr}
10001394:	b085      	sub	sp, #20
10001396:	a803      	add	r0, sp, #12
10001398:	f7ff ffc6 	bl	10001328 <ta_from_current_irq>
1000139c:	4b8f      	ldr	r3, [pc, #572]	@ (100015dc <alarm_pool_irq_handler+0x24c>)
1000139e:	4298      	cmp	r0, r3
100013a0:	bf14      	ite	ne
100013a2:	2300      	movne	r3, #0
100013a4:	2301      	moveq	r3, #1
100013a6:	9903      	ldr	r1, [sp, #12]
100013a8:	eb01 0383 	add.w	r3, r1, r3, lsl #2
100013ac:	4a8c      	ldr	r2, [pc, #560]	@ (100015e0 <alarm_pool_irq_handler+0x250>)
100013ae:	f852 4023 	ldr.w	r4, [r2, r3, lsl #2]
100013b2:	7823      	ldrb	r3, [r4, #0]
100013b4:	4299      	cmp	r1, r3
100013b6:	d106      	bne.n	100013c6 <alarm_pool_irq_handler+0x36>
100013b8:	4605      	mov	r5, r0
100013ba:	2201      	movs	r2, #1
100013bc:	408a      	lsls	r2, r1
100013be:	f500 5341 	add.w	r3, r0, #12352	@ 0x3040
100013c2:	605a      	str	r2, [r3, #4]
100013c4:	e120      	b.n	10001608 <alarm_pool_irq_handler+0x278>
100013c6:	4b87      	ldr	r3, [pc, #540]	@ (100015e4 <alarm_pool_irq_handler+0x254>)
100013c8:	4a87      	ldr	r2, [pc, #540]	@ (100015e8 <alarm_pool_irq_handler+0x258>)
100013ca:	2192      	movs	r1, #146	@ 0x92
100013cc:	4887      	ldr	r0, [pc, #540]	@ (100015ec <alarm_pool_irq_handler+0x25c>)
100013ce:	f000 fffb 	bl	100023c8 <__assert_func>
100013d2:	f8d4 9014 	ldr.w	r9, [r4, #20]
100013d6:	eb06 0746 	add.w	r7, r6, r6, lsl #1
100013da:	ea4f 0ac7 	mov.w	sl, r7, lsl #3
100013de:	eb09 07c7 	add.w	r7, r9, r7, lsl #3
100013e2:	f8d7 b008 	ldr.w	fp, [r7, #8]
100013e6:	f8d7 800c 	ldr.w	r8, [r7, #12]
100013ea:	4628      	mov	r0, r5
100013ec:	f000 fb2e 	bl	10001a4c <timer_time_us_64>
100013f0:	ebb0 000b 	subs.w	r0, r0, fp
100013f4:	eb61 0308 	sbc.w	r3, r1, r8
100013f8:	2b00      	cmp	r3, #0
100013fa:	f2c0 810e 	blt.w	1000161a <alarm_pool_irq_handler+0x28a>
100013fe:	f1b8 0f00 	cmp.w	r8, #0
10001402:	db60      	blt.n	100014c6 <alarm_pool_irq_handler+0x136>
10001404:	693b      	ldr	r3, [r7, #16]
10001406:	461a      	mov	r2, r3
10001408:	9300      	str	r3, [sp, #0]
1000140a:	4b79      	ldr	r3, [pc, #484]	@ (100015f0 <alarm_pool_irq_handler+0x260>)
1000140c:	429a      	cmp	r2, r3
1000140e:	d030      	beq.n	10001472 <alarm_pool_irq_handler+0xe2>
10001410:	8879      	ldrh	r1, [r7, #2]
10001412:	b289      	uxth	r1, r1
10001414:	f9b4 0008 	ldrsh.w	r0, [r4, #8]
10001418:	f7ff ff98 	bl	1000134c <make_alarm_id>
1000141c:	6979      	ldr	r1, [r7, #20]
1000141e:	9b00      	ldr	r3, [sp, #0]
10001420:	4798      	blx	r3
10001422:	9000      	str	r0, [sp, #0]
10001424:	9101      	str	r1, [sp, #4]
10001426:	9900      	ldr	r1, [sp, #0]
10001428:	9a01      	ldr	r2, [sp, #4]
1000142a:	ea51 0302 	orrs.w	r3, r1, r2
1000142e:	d04a      	beq.n	100014c6 <alarm_pool_irq_handler+0x136>
10001430:	4613      	mov	r3, r2
10001432:	2a00      	cmp	r2, #0
10001434:	da29      	bge.n	1000148a <alarm_pool_irq_handler+0xfa>
10001436:	ebbb 0201 	subs.w	r2, fp, r1
1000143a:	eb68 0803 	sbc.w	r8, r8, r3
1000143e:	60ba      	str	r2, [r7, #8]
10001440:	f8c7 800c 	str.w	r8, [r7, #12]
10001444:	f939 300a 	ldrsh.w	r3, [r9, sl]
10001448:	2b00      	cmp	r3, #0
1000144a:	f2c0 80e6 	blt.w	1000161a <alarm_pool_irq_handler+0x28a>
1000144e:	f8d4 e014 	ldr.w	lr, [r4, #20]
10001452:	eb03 0143 	add.w	r1, r3, r3, lsl #1
10001456:	eb0e 01c1 	add.w	r1, lr, r1, lsl #3
1000145a:	6888      	ldr	r0, [r1, #8]
1000145c:	68c9      	ldr	r1, [r1, #12]
1000145e:	1a10      	subs	r0, r2, r0
10001460:	eb68 0101 	sbc.w	r1, r8, r1
10001464:	2900      	cmp	r1, #0
10001466:	f2c0 80d8 	blt.w	1000161a <alarm_pool_irq_handler+0x28a>
1000146a:	46a4      	mov	ip, r4
1000146c:	f82c 3f08 	strh.w	r3, [ip, #8]!
10001470:	e015      	b.n	1000149e <alarm_pool_irq_handler+0x10e>
10001472:	697a      	ldr	r2, [r7, #20]
10001474:	6913      	ldr	r3, [r2, #16]
10001476:	9200      	str	r2, [sp, #0]
10001478:	4610      	mov	r0, r2
1000147a:	4798      	blx	r3
1000147c:	b318      	cbz	r0, 100014c6 <alarm_pool_irq_handler+0x136>
1000147e:	9a00      	ldr	r2, [sp, #0]
10001480:	6813      	ldr	r3, [r2, #0]
10001482:	9300      	str	r3, [sp, #0]
10001484:	6853      	ldr	r3, [r2, #4]
10001486:	9301      	str	r3, [sp, #4]
10001488:	e7cd      	b.n	10001426 <alarm_pool_irq_handler+0x96>
1000148a:	4628      	mov	r0, r5
1000148c:	f000 fade 	bl	10001a4c <timer_time_us_64>
10001490:	9b00      	ldr	r3, [sp, #0]
10001492:	181a      	adds	r2, r3, r0
10001494:	9b01      	ldr	r3, [sp, #4]
10001496:	eb43 0801 	adc.w	r8, r3, r1
1000149a:	e7d0      	b.n	1000143e <alarm_pool_irq_handler+0xae>
1000149c:	469c      	mov	ip, r3
1000149e:	f9bc 7000 	ldrsh.w	r7, [ip]
100014a2:	2f00      	cmp	r7, #0
100014a4:	db0a      	blt.n	100014bc <alarm_pool_irq_handler+0x12c>
100014a6:	eb07 0347 	add.w	r3, r7, r7, lsl #1
100014aa:	eb0e 03c3 	add.w	r3, lr, r3, lsl #3
100014ae:	6898      	ldr	r0, [r3, #8]
100014b0:	68d9      	ldr	r1, [r3, #12]
100014b2:	1a10      	subs	r0, r2, r0
100014b4:	eb68 0101 	sbc.w	r1, r8, r1
100014b8:	2900      	cmp	r1, #0
100014ba:	daef      	bge.n	1000149c <alarm_pool_irq_handler+0x10c>
100014bc:	f829 700a 	strh.w	r7, [r9, sl]
100014c0:	f8ac 6000 	strh.w	r6, [ip]
100014c4:	e0a9      	b.n	1000161a <alarm_pool_irq_handler+0x28a>
100014c6:	f939 300a 	ldrsh.w	r3, [r9, sl]
100014ca:	8123      	strh	r3, [r4, #8]
100014cc:	6923      	ldr	r3, [r4, #16]
100014ce:	f3ef 8210 	mrs	r2, PRIMASK
100014d2:	b672      	cpsid	i
100014d4:	e8d3 0fcf 	ldaexb	r0, [r3]
100014d8:	2101      	movs	r1, #1
100014da:	2800      	cmp	r0, #0
100014dc:	d1fa      	bne.n	100014d4 <alarm_pool_irq_handler+0x144>
100014de:	e8c3 1f40 	strexb	r0, r1, [r3]
100014e2:	2800      	cmp	r0, #0
100014e4:	d1f6      	bne.n	100014d4 <alarm_pool_irq_handler+0x144>
100014e6:	f3bf 8f5f 	dmb	sy
100014ea:	f9b4 3002 	ldrsh.w	r3, [r4, #2]
100014ee:	f829 300a 	strh.w	r3, [r9, sl]
100014f2:	8066      	strh	r6, [r4, #2]
100014f4:	6921      	ldr	r1, [r4, #16]
100014f6:	2300      	movs	r3, #0
100014f8:	e8c1 3f8f 	stlb	r3, [r1]
100014fc:	f382 8810 	msr	PRIMASK, r2
10001500:	e08b      	b.n	1000161a <alarm_pool_irq_handler+0x28a>
10001502:	6923      	ldr	r3, [r4, #16]
10001504:	f3ef 8210 	mrs	r2, PRIMASK
10001508:	b672      	cpsid	i
1000150a:	e8d3 0fcf 	ldaexb	r0, [r3]
1000150e:	2101      	movs	r1, #1
10001510:	2800      	cmp	r0, #0
10001512:	d1fa      	bne.n	1000150a <alarm_pool_irq_handler+0x17a>
10001514:	e8c3 1f40 	strexb	r0, r1, [r3]
10001518:	2800      	cmp	r0, #0
1000151a:	d1f6      	bne.n	1000150a <alarm_pool_irq_handler+0x17a>
1000151c:	f3bf 8f5f 	dmb	sy
10001520:	f8b4 8004 	ldrh.w	r8, [r4, #4]
10001524:	fa0f f888 	sxth.w	r8, r8
10001528:	f64f 73ff 	movw	r3, #65535	@ 0xffff
1000152c:	80a3      	strh	r3, [r4, #4]
1000152e:	6921      	ldr	r1, [r4, #16]
10001530:	2300      	movs	r3, #0
10001532:	e8c1 3f8f 	stlb	r3, [r1]
10001536:	f382 8810 	msr	PRIMASK, r2
1000153a:	e015      	b.n	10001568 <alarm_pool_irq_handler+0x1d8>
1000153c:	461e      	mov	r6, r3
1000153e:	f9b6 2000 	ldrsh.w	r2, [r6]
10001542:	2a00      	cmp	r2, #0
10001544:	db0a      	blt.n	1000155c <alarm_pool_irq_handler+0x1cc>
10001546:	eb02 0342 	add.w	r3, r2, r2, lsl #1
1000154a:	eb0c 03c3 	add.w	r3, ip, r3, lsl #3
1000154e:	6898      	ldr	r0, [r3, #8]
10001550:	68d9      	ldr	r1, [r3, #12]
10001552:	1a38      	subs	r0, r7, r0
10001554:	eb6e 0101 	sbc.w	r1, lr, r1
10001558:	2900      	cmp	r1, #0
1000155a:	daef      	bge.n	1000153c <alarm_pool_irq_handler+0x1ac>
1000155c:	f8a6 8000 	strh.w	r8, [r6]
10001560:	f93c 8009 	ldrsh.w	r8, [ip, r9]
10001564:	f82c 2009 	strh.w	r2, [ip, r9]
10001568:	f1b8 0f00 	cmp.w	r8, #0
1000156c:	db5a      	blt.n	10001624 <alarm_pool_irq_handler+0x294>
1000156e:	f8d4 c014 	ldr.w	ip, [r4, #20]
10001572:	eb08 0348 	add.w	r3, r8, r8, lsl #1
10001576:	ea4f 09c3 	mov.w	r9, r3, lsl #3
1000157a:	eb0c 03c3 	add.w	r3, ip, r3, lsl #3
1000157e:	689f      	ldr	r7, [r3, #8]
10001580:	f8d3 e00c 	ldr.w	lr, [r3, #12]
10001584:	f104 0608 	add.w	r6, r4, #8
10001588:	e7d9      	b.n	1000153e <alarm_pool_irq_handler+0x1ae>
1000158a:	2300      	movs	r3, #0
1000158c:	71a3      	strb	r3, [r4, #6]
1000158e:	f104 0c08 	add.w	ip, r4, #8
10001592:	f9b4 3008 	ldrsh.w	r3, [r4, #8]
10001596:	e010      	b.n	100015ba <alarm_pool_irq_handler+0x22a>
10001598:	f04f 38ff 	mov.w	r8, #4294967295
1000159c:	f04f 39ff 	mov.w	r9, #4294967295
100015a0:	e9c0 8902 	strd	r8, r9, [r0, #8]
100015a4:	f9b4 0008 	ldrsh.w	r0, [r4, #8]
100015a8:	4298      	cmp	r0, r3
100015aa:	d005      	beq.n	100015b8 <alarm_pool_irq_handler+0x228>
100015ac:	f8ac 2000 	strh.w	r2, [ip]
100015b0:	f9b4 0008 	ldrsh.w	r0, [r4, #8]
100015b4:	53c8      	strh	r0, [r1, r7]
100015b6:	8123      	strh	r3, [r4, #8]
100015b8:	4613      	mov	r3, r2
100015ba:	f1b3 3fff 	cmp.w	r3, #4294967295
100015be:	d034      	beq.n	1000162a <alarm_pool_irq_handler+0x29a>
100015c0:	6961      	ldr	r1, [r4, #20]
100015c2:	eb03 0243 	add.w	r2, r3, r3, lsl #1
100015c6:	00d7      	lsls	r7, r2, #3
100015c8:	eb01 00c2 	add.w	r0, r1, r2, lsl #3
100015cc:	f931 2032 	ldrsh.w	r2, [r1, r2, lsl #3]
100015d0:	8846      	ldrh	r6, [r0, #2]
100015d2:	f416 4f00 	tst.w	r6, #32768	@ 0x8000
100015d6:	d1df      	bne.n	10001598 <alarm_pool_irq_handler+0x208>
100015d8:	4684      	mov	ip, r0
100015da:	e7ed      	b.n	100015b8 <alarm_pool_irq_handler+0x228>
100015dc:	400b8000 	.word	0x400b8000
100015e0:	200010cc 	.word	0x200010cc
100015e4:	10007ecc 	.word	0x10007ecc
100015e8:	10008470 	.word	0x10008470
100015ec:	10007ef8 	.word	0x10007ef8
100015f0:	10001391 	.word	0x10001391
100015f4:	4628      	mov	r0, r5
100015f6:	f000 fa29 	bl	10001a4c <timer_time_us_64>
100015fa:	1a36      	subs	r6, r6, r0
100015fc:	eb67 0701 	sbc.w	r7, r7, r1
10001600:	2e01      	cmp	r6, #1
10001602:	f177 0700 	sbcs.w	r7, r7, #0
10001606:	da2e      	bge.n	10001666 <alarm_pool_irq_handler+0x2d6>
10001608:	9a03      	ldr	r2, [sp, #12]
1000160a:	2301      	movs	r3, #1
1000160c:	4093      	lsls	r3, r2
1000160e:	63eb      	str	r3, [r5, #60]	@ 0x3c
10001610:	f9b4 6008 	ldrsh.w	r6, [r4, #8]
10001614:	2e00      	cmp	r6, #0
10001616:	f6bf aedc 	bge.w	100013d2 <alarm_pool_irq_handler+0x42>
1000161a:	88a3      	ldrh	r3, [r4, #4]
1000161c:	f413 4f00 	tst.w	r3, #32768	@ 0x8000
10001620:	f43f af6f 	beq.w	10001502 <alarm_pool_irq_handler+0x172>
10001624:	79a3      	ldrb	r3, [r4, #6]
10001626:	2b00      	cmp	r3, #0
10001628:	d1af      	bne.n	1000158a <alarm_pool_irq_handler+0x1fa>
1000162a:	f9b4 3008 	ldrsh.w	r3, [r4, #8]
1000162e:	2b00      	cmp	r3, #0
10001630:	db19      	blt.n	10001666 <alarm_pool_irq_handler+0x2d6>
10001632:	6962      	ldr	r2, [r4, #20]
10001634:	eb03 0343 	add.w	r3, r3, r3, lsl #1
10001638:	eb02 03c3 	add.w	r3, r2, r3, lsl #3
1000163c:	689e      	ldr	r6, [r3, #8]
1000163e:	68df      	ldr	r7, [r3, #12]
10001640:	f1b7 3fff 	cmp.w	r7, #4294967295
10001644:	bf08      	it	eq
10001646:	f1b6 3fff 	cmpeq.w	r6, #4294967295
1000164a:	d0d3      	beq.n	100015f4 <alarm_pool_irq_handler+0x264>
1000164c:	9a03      	ldr	r2, [sp, #12]
1000164e:	6aa9      	ldr	r1, [r5, #40]	@ 0x28
10001650:	1a70      	subs	r0, r6, r1
10001652:	1d13      	adds	r3, r2, #4
10001654:	f855 3023 	ldr.w	r3, [r5, r3, lsl #2]
10001658:	1a5b      	subs	r3, r3, r1
1000165a:	4298      	cmp	r0, r3
1000165c:	d2ca      	bcs.n	100015f4 <alarm_pool_irq_handler+0x264>
1000165e:	3204      	adds	r2, #4
10001660:	f845 6022 	str.w	r6, [r5, r2, lsl #2]
10001664:	e7c6      	b.n	100015f4 <alarm_pool_irq_handler+0x264>
10001666:	bf40      	sev
10001668:	b005      	add	sp, #20
1000166a:	e8bd 8ff0 	ldmia.w	sp!, {r4, r5, r6, r7, r8, r9, sl, fp, pc}
1000166e:	bf00      	nop

10001670 <ta_enable_irq_handler>:
10001670:	b5f8      	push	{r3, r4, r5, r6, r7, lr}
10001672:	4604      	mov	r4, r0
10001674:	460d      	mov	r5, r1
10001676:	4611      	mov	r1, r2
10001678:	4b0a      	ldr	r3, [pc, #40]	@ (100016a4 <ta_enable_irq_handler+0x34>)
1000167a:	4298      	cmp	r0, r3
1000167c:	d010      	beq.n	100016a0 <ta_enable_irq_handler+0x30>
1000167e:	2600      	movs	r6, #0
10001680:	442e      	add	r6, r5
10001682:	2701      	movs	r7, #1
10001684:	fa07 f505 	lsl.w	r5, r7, r5
10001688:	6225      	str	r5, [r4, #32]
1000168a:	4630      	mov	r0, r6
1000168c:	f7ff fc9c 	bl	10000fc8 <irq_set_exclusive_handler>
10001690:	4639      	mov	r1, r7
10001692:	4630      	mov	r0, r6
10001694:	f7ff fc86 	bl	10000fa4 <irq_set_enabled>
10001698:	f504 5401 	add.w	r4, r4, #8256	@ 0x2040
1000169c:	6025      	str	r5, [r4, #0]
1000169e:	bdf8      	pop	{r3, r4, r5, r6, r7, pc}
100016a0:	2604      	movs	r6, #4
100016a2:	e7ed      	b.n	10001680 <ta_enable_irq_handler+0x10>
100016a4:	400b8000 	.word	0x400b8000

100016a8 <alarm_pool_post_alloc_init>:
100016a8:	b5f8      	push	{r3, r4, r5, r6, r7, lr}
100016aa:	4604      	mov	r4, r0
100016ac:	460e      	mov	r6, r1
100016ae:	4617      	mov	r7, r2
100016b0:	461d      	mov	r5, r3
100016b2:	60c1      	str	r1, [r0, #12]
100016b4:	f7ff fbb2 	bl	10000e1c <next_striped_spin_lock_num>
100016b8:	4b16      	ldr	r3, [pc, #88]	@ (10001714 <alarm_pool_post_alloc_init+0x6c>)
100016ba:	4403      	add	r3, r0
100016bc:	6123      	str	r3, [r4, #16]
100016be:	7027      	strb	r7, [r4, #0]
100016c0:	b2ab      	uxth	r3, r5
100016c2:	8163      	strh	r3, [r4, #10]
100016c4:	f04f 4250 	mov.w	r2, #3489660928	@ 0xd0000000
100016c8:	7812      	ldrb	r2, [r2, #0]
100016ca:	7062      	strb	r2, [r4, #1]
100016cc:	f64f 72ff 	movw	r2, #65535	@ 0xffff
100016d0:	8122      	strh	r2, [r4, #8]
100016d2:	80a2      	strh	r2, [r4, #4]
100016d4:	3b01      	subs	r3, #1
100016d6:	8063      	strh	r3, [r4, #2]
100016d8:	f04f 0c00 	mov.w	ip, #0
100016dc:	e008      	b.n	100016f0 <alarm_pool_post_alloc_init+0x48>
100016de:	f10c 30ff 	add.w	r0, ip, #4294967295
100016e2:	eb0c 0e4c 	add.w	lr, ip, ip, lsl #1
100016e6:	6963      	ldr	r3, [r4, #20]
100016e8:	f823 003e 	strh.w	r0, [r3, lr, lsl #3]
100016ec:	f10c 0c01 	add.w	ip, ip, #1
100016f0:	45ac      	cmp	ip, r5
100016f2:	d3f4      	bcc.n	100016de <alarm_pool_post_alloc_init+0x36>
100016f4:	4b08      	ldr	r3, [pc, #32]	@ (10001718 <alarm_pool_post_alloc_init+0x70>)
100016f6:	429e      	cmp	r6, r3
100016f8:	bf14      	ite	ne
100016fa:	2300      	movne	r3, #0
100016fc:	2301      	moveq	r3, #1
100016fe:	eb07 0383 	add.w	r3, r7, r3, lsl #2
10001702:	4a06      	ldr	r2, [pc, #24]	@ (1000171c <alarm_pool_post_alloc_init+0x74>)
10001704:	f842 4023 	str.w	r4, [r2, r3, lsl #2]
10001708:	4a05      	ldr	r2, [pc, #20]	@ (10001720 <alarm_pool_post_alloc_init+0x78>)
1000170a:	4639      	mov	r1, r7
1000170c:	4630      	mov	r0, r6
1000170e:	f7ff ffaf 	bl	10001670 <ta_enable_irq_handler>
10001712:	bdf8      	pop	{r3, r4, r5, r6, r7, pc}
10001714:	20001050 	.word	0x20001050
10001718:	400b8000 	.word	0x400b8000
1000171c:	200010cc 	.word	0x200010cc
10001720:	10001391 	.word	0x10001391

10001724 <alarm_pool_get_default>:
10001724:	b508      	push	{r3, lr}
10001726:	4b05      	ldr	r3, [pc, #20]	@ (1000173c <alarm_pool_get_default+0x18>)
10001728:	691b      	ldr	r3, [r3, #16]
1000172a:	b10b      	cbz	r3, 10001730 <alarm_pool_get_default+0xc>
1000172c:	4803      	ldr	r0, [pc, #12]	@ (1000173c <alarm_pool_get_default+0x18>)
1000172e:	bd08      	pop	{r3, pc}
10001730:	4b03      	ldr	r3, [pc, #12]	@ (10001740 <alarm_pool_get_default+0x1c>)
10001732:	4a04      	ldr	r2, [pc, #16]	@ (10001744 <alarm_pool_get_default+0x20>)
10001734:	2165      	movs	r1, #101	@ 0x65
10001736:	4804      	ldr	r0, [pc, #16]	@ (10001748 <alarm_pool_get_default+0x24>)
10001738:	f000 fe46 	bl	100023c8 <__assert_func>
1000173c:	2000064c 	.word	0x2000064c
10001740:	10007f38 	.word	0x10007f38
10001744:	10008458 	.word	0x10008458
10001748:	10007ef8 	.word	0x10007ef8

1000174c <alarm_pool_add_alarm_at_force_in_context>:
1000174c:	b5f8      	push	{r3, r4, r5, r6, r7, lr}
1000174e:	4604      	mov	r4, r0
10001750:	469e      	mov	lr, r3
10001752:	6900      	ldr	r0, [r0, #16]
10001754:	f3ef 8110 	mrs	r1, PRIMASK
10001758:	b672      	cpsid	i
1000175a:	e8d0 6fcf 	ldaexb	r6, [r0]
1000175e:	2501      	movs	r5, #1
10001760:	2e00      	cmp	r6, #0
10001762:	d1fa      	bne.n	1000175a <alarm_pool_add_alarm_at_force_in_context+0xe>
10001764:	e8c0 5f46 	strexb	r6, r5, [r0]
10001768:	2e00      	cmp	r6, #0
1000176a:	d1f6      	bne.n	1000175a <alarm_pool_add_alarm_at_force_in_context+0xe>
1000176c:	f3bf 8f5f 	dmb	sy
10001770:	f9b4 5002 	ldrsh.w	r5, [r4, #2]
10001774:	6966      	ldr	r6, [r4, #20]
10001776:	eb05 0045 	add.w	r0, r5, r5, lsl #1
1000177a:	00c7      	lsls	r7, r0, #3
1000177c:	eb06 00c0 	add.w	r0, r6, r0, lsl #3
10001780:	2d00      	cmp	r5, #0
10001782:	db03      	blt.n	1000178c <alarm_pool_add_alarm_at_force_in_context+0x40>
10001784:	f936 c007 	ldrsh.w	ip, [r6, r7]
10001788:	f8a4 c002 	strh.w	ip, [r4, #2]
1000178c:	f04f 0c00 	mov.w	ip, #0
10001790:	6923      	ldr	r3, [r4, #16]
10001792:	e8c3 cf8f 	stlb	ip, [r3]
10001796:	f381 8810 	msr	PRIMASK, r1
1000179a:	4565      	cmp	r5, ip
1000179c:	db33      	blt.n	10001806 <alarm_pool_add_alarm_at_force_in_context+0xba>
1000179e:	9906      	ldr	r1, [sp, #24]
100017a0:	6101      	str	r1, [r0, #16]
100017a2:	9907      	ldr	r1, [sp, #28]
100017a4:	6141      	str	r1, [r0, #20]
100017a6:	6082      	str	r2, [r0, #8]
100017a8:	f8c0 e00c 	str.w	lr, [r0, #12]
100017ac:	8841      	ldrh	r1, [r0, #2]
100017ae:	b289      	uxth	r1, r1
100017b0:	3101      	adds	r1, #1
100017b2:	f3c1 010e 	ubfx	r1, r1, #0, #15
100017b6:	b901      	cbnz	r1, 100017ba <alarm_pool_add_alarm_at_force_in_context+0x6e>
100017b8:	2101      	movs	r1, #1
100017ba:	8041      	strh	r1, [r0, #2]
100017bc:	4628      	mov	r0, r5
100017be:	f7ff fdc5 	bl	1000134c <make_alarm_id>
100017c2:	6923      	ldr	r3, [r4, #16]
100017c4:	f3ef 8210 	mrs	r2, PRIMASK
100017c8:	b672      	cpsid	i
100017ca:	e8d3 cfcf 	ldaexb	ip, [r3]
100017ce:	2101      	movs	r1, #1
100017d0:	f1bc 0f00 	cmp.w	ip, #0
100017d4:	d1f9      	bne.n	100017ca <alarm_pool_add_alarm_at_force_in_context+0x7e>
100017d6:	e8c3 1f4c 	strexb	ip, r1, [r3]
100017da:	f1bc 0f00 	cmp.w	ip, #0
100017de:	d1f4      	bne.n	100017ca <alarm_pool_add_alarm_at_force_in_context+0x7e>
100017e0:	f3bf 8f5f 	dmb	sy
100017e4:	88a3      	ldrh	r3, [r4, #4]
100017e6:	53f3      	strh	r3, [r6, r7]
100017e8:	80a5      	strh	r5, [r4, #4]
100017ea:	6921      	ldr	r1, [r4, #16]
100017ec:	2300      	movs	r3, #0
100017ee:	e8c1 3f8f 	stlb	r3, [r1]
100017f2:	f382 8810 	msr	PRIMASK, r2
100017f6:	68e3      	ldr	r3, [r4, #12]
100017f8:	7821      	ldrb	r1, [r4, #0]
100017fa:	2201      	movs	r2, #1
100017fc:	408a      	lsls	r2, r1
100017fe:	f503 5301 	add.w	r3, r3, #8256	@ 0x2040
10001802:	605a      	str	r2, [r3, #4]
10001804:	bdf8      	pop	{r3, r4, r5, r6, r7, pc}
10001806:	f04f 30ff 	mov.w	r0, #4294967295
1000180a:	e7fb      	b.n	10001804 <alarm_pool_add_alarm_at_force_in_context+0xb8>

1000180c <alarm_pool_add_alarm_at>:
1000180c:	b570      	push	{r4, r5, r6, lr}
1000180e:	b082      	sub	sp, #8
10001810:	4606      	mov	r6, r0
10001812:	4615      	mov	r5, r2
10001814:	461c      	mov	r4, r3
10001816:	f89d 3020 	ldrb.w	r3, [sp, #32]
1000181a:	b933      	cbnz	r3, 1000182a <alarm_pool_add_alarm_at+0x1e>
1000181c:	f000 f940 	bl	10001aa0 <time_us_64>
10001820:	4285      	cmp	r5, r0
10001822:	eb64 0101 	sbc.w	r1, r4, r1
10001826:	2900      	cmp	r1, #0
10001828:	db0a      	blt.n	10001840 <alarm_pool_add_alarm_at+0x34>
1000182a:	9b07      	ldr	r3, [sp, #28]
1000182c:	9301      	str	r3, [sp, #4]
1000182e:	9b06      	ldr	r3, [sp, #24]
10001830:	9300      	str	r3, [sp, #0]
10001832:	462a      	mov	r2, r5
10001834:	4623      	mov	r3, r4
10001836:	4630      	mov	r0, r6
10001838:	f7ff ff88 	bl	1000174c <alarm_pool_add_alarm_at_force_in_context>
1000183c:	b002      	add	sp, #8
1000183e:	bd70      	pop	{r4, r5, r6, pc}
10001840:	2000      	movs	r0, #0
10001842:	e7fb      	b.n	1000183c <alarm_pool_add_alarm_at+0x30>

10001844 <add_alarm_at>:
10001844:	b5f0      	push	{r4, r5, r6, r7, lr}
10001846:	b085      	sub	sp, #20
10001848:	4605      	mov	r5, r0
1000184a:	460c      	mov	r4, r1
1000184c:	4616      	mov	r6, r2
1000184e:	461f      	mov	r7, r3
10001850:	f7ff ff68 	bl	10001724 <alarm_pool_get_default>
10001854:	f89d 3028 	ldrb.w	r3, [sp, #40]	@ 0x28
10001858:	9302      	str	r3, [sp, #8]
1000185a:	9701      	str	r7, [sp, #4]
1000185c:	9600      	str	r6, [sp, #0]
1000185e:	462a      	mov	r2, r5
10001860:	4623      	mov	r3, r4
10001862:	f7ff ffd3 	bl	1000180c <alarm_pool_add_alarm_at>
10001866:	b005      	add	sp, #20
10001868:	bdf0      	pop	{r4, r5, r6, r7, pc}

1000186a <alarm_pool_cancel_alarm>:
1000186a:	4603      	mov	r3, r0
1000186c:	8940      	ldrh	r0, [r0, #10]
1000186e:	ebb0 4f21 	cmp.w	r0, r1, asr #16
10001872:	dd31      	ble.n	100018d8 <alarm_pool_cancel_alarm+0x6e>
10001874:	b510      	push	{r4, lr}
10001876:	140a      	asrs	r2, r1, #16
10001878:	6958      	ldr	r0, [r3, #20]
1000187a:	eb02 0242 	add.w	r2, r2, r2, lsl #1
1000187e:	eb00 00c2 	add.w	r0, r0, r2, lsl #3
10001882:	691a      	ldr	r2, [r3, #16]
10001884:	f3ef 8c10 	mrs	ip, PRIMASK
10001888:	b672      	cpsid	i
1000188a:	e8d2 4fcf 	ldaexb	r4, [r2]
1000188e:	f05f 0e01 	movs.w	lr, #1
10001892:	2c00      	cmp	r4, #0
10001894:	d1f9      	bne.n	1000188a <alarm_pool_cancel_alarm+0x20>
10001896:	e8c2 ef44 	strexb	r4, lr, [r2]
1000189a:	2c00      	cmp	r4, #0
1000189c:	d1f5      	bne.n	1000188a <alarm_pool_cancel_alarm+0x20>
1000189e:	f3bf 8f5f 	dmb	sy
100018a2:	8842      	ldrh	r2, [r0, #2]
100018a4:	b292      	uxth	r2, r2
100018a6:	b289      	uxth	r1, r1
100018a8:	428a      	cmp	r2, r1
100018aa:	d00f      	beq.n	100018cc <alarm_pool_cancel_alarm+0x62>
100018ac:	2000      	movs	r0, #0
100018ae:	6919      	ldr	r1, [r3, #16]
100018b0:	2200      	movs	r2, #0
100018b2:	e8c1 2f8f 	stlb	r2, [r1]
100018b6:	f38c 8810 	msr	PRIMASK, ip
100018ba:	b130      	cbz	r0, 100018ca <alarm_pool_cancel_alarm+0x60>
100018bc:	68da      	ldr	r2, [r3, #12]
100018be:	781b      	ldrb	r3, [r3, #0]
100018c0:	2101      	movs	r1, #1
100018c2:	4099      	lsls	r1, r3
100018c4:	f502 5301 	add.w	r3, r2, #8256	@ 0x2040
100018c8:	6059      	str	r1, [r3, #4]
100018ca:	bd10      	pop	{r4, pc}
100018cc:	f442 4200 	orr.w	r2, r2, #32768	@ 0x8000
100018d0:	8042      	strh	r2, [r0, #2]
100018d2:	2001      	movs	r0, #1
100018d4:	7198      	strb	r0, [r3, #6]
100018d6:	e7ea      	b.n	100018ae <alarm_pool_cancel_alarm+0x44>
100018d8:	2000      	movs	r0, #0
100018da:	4770      	bx	lr

100018dc <cancel_alarm>:
100018dc:	b510      	push	{r4, lr}
100018de:	4604      	mov	r4, r0
100018e0:	f7ff ff20 	bl	10001724 <alarm_pool_get_default>
100018e4:	4621      	mov	r1, r4
100018e6:	f7ff ffc0 	bl	1000186a <alarm_pool_cancel_alarm>
100018ea:	bd10      	pop	{r4, pc}

100018ec <best_effort_wfe_or_timeout>:
100018ec:	b530      	push	{r4, r5, lr}
100018ee:	b083      	sub	sp, #12
100018f0:	4605      	mov	r5, r0
100018f2:	460c      	mov	r4, r1
100018f4:	f3ef 8305 	mrs	r3, IPSR
100018f8:	b2db      	uxtb	r3, r3
100018fa:	b193      	cbz	r3, 10001922 <best_effort_wfe_or_timeout+0x36>
100018fc:	4b39      	ldr	r3, [pc, #228]	@ (100019e4 <best_effort_wfe_or_timeout+0xf8>)
100018fe:	6a5b      	ldr	r3, [r3, #36]	@ 0x24
10001900:	428b      	cmp	r3, r1
10001902:	d309      	bcc.n	10001918 <best_effort_wfe_or_timeout+0x2c>
10001904:	4a37      	ldr	r2, [pc, #220]	@ (100019e4 <best_effort_wfe_or_timeout+0xf8>)
10001906:	6a92      	ldr	r2, [r2, #40]	@ 0x28
10001908:	4282      	cmp	r2, r0
1000190a:	d208      	bcs.n	1000191e <best_effort_wfe_or_timeout+0x32>
1000190c:	428b      	cmp	r3, r1
1000190e:	d001      	beq.n	10001914 <best_effort_wfe_or_timeout+0x28>
10001910:	2001      	movs	r0, #1
10001912:	e002      	b.n	1000191a <best_effort_wfe_or_timeout+0x2e>
10001914:	2000      	movs	r0, #0
10001916:	e000      	b.n	1000191a <best_effort_wfe_or_timeout+0x2e>
10001918:	2000      	movs	r0, #0
1000191a:	b003      	add	sp, #12
1000191c:	bd30      	pop	{r4, r5, pc}
1000191e:	2001      	movs	r0, #1
10001920:	e7fb      	b.n	1000191a <best_effort_wfe_or_timeout+0x2e>
10001922:	f7ff feff 	bl	10001724 <alarm_pool_get_default>
10001926:	68c1      	ldr	r1, [r0, #12]
10001928:	7803      	ldrb	r3, [r0, #0]
1000192a:	6a8a      	ldr	r2, [r1, #40]	@ 0x28
1000192c:	1aa8      	subs	r0, r5, r2
1000192e:	3304      	adds	r3, #4
10001930:	f851 3023 	ldr.w	r3, [r1, r3, lsl #2]
10001934:	1a9b      	subs	r3, r3, r2
10001936:	4298      	cmp	r0, r3
10001938:	d312      	bcc.n	10001960 <best_effort_wfe_or_timeout+0x74>
1000193a:	bf20      	wfe
1000193c:	4b29      	ldr	r3, [pc, #164]	@ (100019e4 <best_effort_wfe_or_timeout+0xf8>)
1000193e:	6a5b      	ldr	r3, [r3, #36]	@ 0x24
10001940:	429c      	cmp	r4, r3
10001942:	d809      	bhi.n	10001958 <best_effort_wfe_or_timeout+0x6c>
10001944:	4a27      	ldr	r2, [pc, #156]	@ (100019e4 <best_effort_wfe_or_timeout+0xf8>)
10001946:	6a92      	ldr	r2, [r2, #40]	@ 0x28
10001948:	4295      	cmp	r5, r2
1000194a:	d907      	bls.n	1000195c <best_effort_wfe_or_timeout+0x70>
1000194c:	429c      	cmp	r4, r3
1000194e:	d001      	beq.n	10001954 <best_effort_wfe_or_timeout+0x68>
10001950:	2001      	movs	r0, #1
10001952:	e7e2      	b.n	1000191a <best_effort_wfe_or_timeout+0x2e>
10001954:	2000      	movs	r0, #0
10001956:	e7e0      	b.n	1000191a <best_effort_wfe_or_timeout+0x2e>
10001958:	2000      	movs	r0, #0
1000195a:	e7de      	b.n	1000191a <best_effort_wfe_or_timeout+0x2e>
1000195c:	2001      	movs	r0, #1
1000195e:	e7dc      	b.n	1000191a <best_effort_wfe_or_timeout+0x2e>
10001960:	2300      	movs	r3, #0
10001962:	9300      	str	r3, [sp, #0]
10001964:	4a20      	ldr	r2, [pc, #128]	@ (100019e8 <best_effort_wfe_or_timeout+0xfc>)
10001966:	4628      	mov	r0, r5
10001968:	4621      	mov	r1, r4
1000196a:	f7ff ff6b 	bl	10001844 <add_alarm_at>
1000196e:	2800      	cmp	r0, #0
10001970:	dd0b      	ble.n	1000198a <best_effort_wfe_or_timeout+0x9e>
10001972:	4b1c      	ldr	r3, [pc, #112]	@ (100019e4 <best_effort_wfe_or_timeout+0xf8>)
10001974:	6a5b      	ldr	r3, [r3, #36]	@ 0x24
10001976:	429c      	cmp	r4, r3
10001978:	d81b      	bhi.n	100019b2 <best_effort_wfe_or_timeout+0xc6>
1000197a:	4a1a      	ldr	r2, [pc, #104]	@ (100019e4 <best_effort_wfe_or_timeout+0xf8>)
1000197c:	6a92      	ldr	r2, [r2, #40]	@ 0x28
1000197e:	4295      	cmp	r5, r2
10001980:	d928      	bls.n	100019d4 <best_effort_wfe_or_timeout+0xe8>
10001982:	429c      	cmp	r4, r3
10001984:	d013      	beq.n	100019ae <best_effort_wfe_or_timeout+0xc2>
10001986:	2301      	movs	r3, #1
10001988:	e014      	b.n	100019b4 <best_effort_wfe_or_timeout+0xc8>
1000198a:	4b16      	ldr	r3, [pc, #88]	@ (100019e4 <best_effort_wfe_or_timeout+0xf8>)
1000198c:	6a5b      	ldr	r3, [r3, #36]	@ 0x24
1000198e:	429c      	cmp	r4, r3
10001990:	d809      	bhi.n	100019a6 <best_effort_wfe_or_timeout+0xba>
10001992:	4a14      	ldr	r2, [pc, #80]	@ (100019e4 <best_effort_wfe_or_timeout+0xf8>)
10001994:	6a92      	ldr	r2, [r2, #40]	@ 0x28
10001996:	4295      	cmp	r5, r2
10001998:	d907      	bls.n	100019aa <best_effort_wfe_or_timeout+0xbe>
1000199a:	429c      	cmp	r4, r3
1000199c:	d001      	beq.n	100019a2 <best_effort_wfe_or_timeout+0xb6>
1000199e:	2001      	movs	r0, #1
100019a0:	e7bb      	b.n	1000191a <best_effort_wfe_or_timeout+0x2e>
100019a2:	2000      	movs	r0, #0
100019a4:	e7b9      	b.n	1000191a <best_effort_wfe_or_timeout+0x2e>
100019a6:	2000      	movs	r0, #0
100019a8:	e7b7      	b.n	1000191a <best_effort_wfe_or_timeout+0x2e>
100019aa:	2001      	movs	r0, #1
100019ac:	e7b5      	b.n	1000191a <best_effort_wfe_or_timeout+0x2e>
100019ae:	2300      	movs	r3, #0
100019b0:	e000      	b.n	100019b4 <best_effort_wfe_or_timeout+0xc8>
100019b2:	2300      	movs	r3, #0
100019b4:	b903      	cbnz	r3, 100019b8 <best_effort_wfe_or_timeout+0xcc>
100019b6:	bf20      	wfe
100019b8:	f7ff ff90 	bl	100018dc <cancel_alarm>
100019bc:	4b09      	ldr	r3, [pc, #36]	@ (100019e4 <best_effort_wfe_or_timeout+0xf8>)
100019be:	6a5b      	ldr	r3, [r3, #36]	@ 0x24
100019c0:	429c      	cmp	r4, r3
100019c2:	d80b      	bhi.n	100019dc <best_effort_wfe_or_timeout+0xf0>
100019c4:	4a07      	ldr	r2, [pc, #28]	@ (100019e4 <best_effort_wfe_or_timeout+0xf8>)
100019c6:	6a92      	ldr	r2, [r2, #40]	@ 0x28
100019c8:	4295      	cmp	r5, r2
100019ca:	d909      	bls.n	100019e0 <best_effort_wfe_or_timeout+0xf4>
100019cc:	429c      	cmp	r4, r3
100019ce:	d003      	beq.n	100019d8 <best_effort_wfe_or_timeout+0xec>
100019d0:	2001      	movs	r0, #1
100019d2:	e7a2      	b.n	1000191a <best_effort_wfe_or_timeout+0x2e>
100019d4:	2301      	movs	r3, #1
100019d6:	e7ed      	b.n	100019b4 <best_effort_wfe_or_timeout+0xc8>
100019d8:	2000      	movs	r0, #0
100019da:	e79e      	b.n	1000191a <best_effort_wfe_or_timeout+0x2e>
100019dc:	2000      	movs	r0, #0
100019de:	e79c      	b.n	1000191a <best_effort_wfe_or_timeout+0x2e>
100019e0:	2001      	movs	r0, #1
100019e2:	e79a      	b.n	1000191a <best_effort_wfe_or_timeout+0x2e>
100019e4:	400b0000 	.word	0x400b0000
100019e8:	10001355 	.word	0x10001355

100019ec <alarm_pool_get_default_timer>:
100019ec:	4800      	ldr	r0, [pc, #0]	@ (100019f0 <alarm_pool_get_default_timer+0x4>)
100019ee:	4770      	bx	lr
100019f0:	400b0000 	.word	0x400b0000

100019f4 <runtime_init_default_alarm_pool>:
100019f4:	b510      	push	{r4, lr}
100019f6:	4b0a      	ldr	r3, [pc, #40]	@ (10001a20 <runtime_init_default_alarm_pool+0x2c>)
100019f8:	691b      	ldr	r3, [r3, #16]
100019fa:	b123      	cbz	r3, 10001a06 <runtime_init_default_alarm_pool+0x12>
100019fc:	210a      	movs	r1, #10
100019fe:	4809      	ldr	r0, [pc, #36]	@ (10001a24 <runtime_init_default_alarm_pool+0x30>)
10001a00:	f7ff fc4a 	bl	10001298 <lock_init>
10001a04:	bd10      	pop	{r4, pc}
10001a06:	f7ff fff1 	bl	100019ec <alarm_pool_get_default_timer>
10001a0a:	4604      	mov	r4, r0
10001a0c:	2103      	movs	r1, #3
10001a0e:	f000 f80b 	bl	10001a28 <timer_hardware_alarm_claim>
10001a12:	2310      	movs	r3, #16
10001a14:	2203      	movs	r2, #3
10001a16:	4621      	mov	r1, r4
10001a18:	4801      	ldr	r0, [pc, #4]	@ (10001a20 <runtime_init_default_alarm_pool+0x2c>)
10001a1a:	f7ff fe45 	bl	100016a8 <alarm_pool_post_alloc_init>
10001a1e:	e7ed      	b.n	100019fc <runtime_init_default_alarm_pool+0x8>
10001a20:	2000064c 	.word	0x2000064c
10001a24:	200010ec 	.word	0x200010ec

10001a28 <timer_hardware_alarm_claim>:
10001a28:	b510      	push	{r4, lr}
10001a2a:	4a05      	ldr	r2, [pc, #20]	@ (10001a40 <timer_hardware_alarm_claim+0x18>)
10001a2c:	4c05      	ldr	r4, [pc, #20]	@ (10001a44 <timer_hardware_alarm_claim+0x1c>)
10001a2e:	4b06      	ldr	r3, [pc, #24]	@ (10001a48 <timer_hardware_alarm_claim+0x20>)
10001a30:	42a0      	cmp	r0, r4
10001a32:	bf14      	ite	ne
10001a34:	4618      	movne	r0, r3
10001a36:	1c58      	addeq	r0, r3, #1
10001a38:	f7ff f9d6 	bl	10000de8 <hw_claim_or_assert>
10001a3c:	bd10      	pop	{r4, pc}
10001a3e:	bf00      	nop
10001a40:	10007f5c 	.word	0x10007f5c
10001a44:	400b8000 	.word	0x400b8000
10001a48:	20001078 	.word	0x20001078

10001a4c <timer_time_us_64>:
10001a4c:	4602      	mov	r2, r0
10001a4e:	6a43      	ldr	r3, [r0, #36]	@ 0x24
10001a50:	6a90      	ldr	r0, [r2, #40]	@ 0x28
10001a52:	4619      	mov	r1, r3
10001a54:	6a53      	ldr	r3, [r2, #36]	@ 0x24
10001a56:	4299      	cmp	r1, r3
10001a58:	d1fa      	bne.n	10001a50 <timer_time_us_64+0x4>
10001a5a:	4770      	bx	lr

10001a5c <timer_busy_wait_until>:
10001a5c:	6a41      	ldr	r1, [r0, #36]	@ 0x24
10001a5e:	e000      	b.n	10001a62 <timer_busy_wait_until+0x6>
10001a60:	6a41      	ldr	r1, [r0, #36]	@ 0x24
10001a62:	4299      	cmp	r1, r3
10001a64:	d3fc      	bcc.n	10001a60 <timer_busy_wait_until+0x4>
10001a66:	e000      	b.n	10001a6a <timer_busy_wait_until+0xe>
10001a68:	6a41      	ldr	r1, [r0, #36]	@ 0x24
10001a6a:	4299      	cmp	r1, r3
10001a6c:	d102      	bne.n	10001a74 <timer_busy_wait_until+0x18>
10001a6e:	6a81      	ldr	r1, [r0, #40]	@ 0x28
10001a70:	4291      	cmp	r1, r2
10001a72:	d3f9      	bcc.n	10001a68 <timer_busy_wait_until+0xc>
10001a74:	4770      	bx	lr

10001a76 <timer_busy_wait_us>:
10001a76:	b570      	push	{r4, r5, r6, lr}
10001a78:	4606      	mov	r6, r0
10001a7a:	4614      	mov	r4, r2
10001a7c:	461d      	mov	r5, r3
10001a7e:	f7ff ffe5 	bl	10001a4c <timer_time_us_64>
10001a82:	1902      	adds	r2, r0, r4
10001a84:	eb41 0305 	adc.w	r3, r1, r5
10001a88:	4282      	cmp	r2, r0
10001a8a:	eb73 0101 	sbcs.w	r1, r3, r1
10001a8e:	d202      	bcs.n	10001a96 <timer_busy_wait_us+0x20>
10001a90:	f04f 32ff 	mov.w	r2, #4294967295
10001a94:	4613      	mov	r3, r2
10001a96:	4630      	mov	r0, r6
10001a98:	f7ff ffe0 	bl	10001a5c <timer_busy_wait_until>
10001a9c:	bd70      	pop	{r4, r5, r6, pc}
	...

10001aa0 <time_us_64>:
10001aa0:	b508      	push	{r3, lr}
10001aa2:	4802      	ldr	r0, [pc, #8]	@ (10001aac <time_us_64+0xc>)
10001aa4:	f7ff ffd2 	bl	10001a4c <timer_time_us_64>
10001aa8:	bd08      	pop	{r3, pc}
10001aaa:	bf00      	nop
10001aac:	400b0000 	.word	0x400b0000

10001ab0 <busy_wait_us>:
10001ab0:	b508      	push	{r3, lr}
10001ab2:	4602      	mov	r2, r0
10001ab4:	460b      	mov	r3, r1
10001ab6:	4802      	ldr	r0, [pc, #8]	@ (10001ac0 <busy_wait_us+0x10>)
10001ab8:	f7ff ffdd 	bl	10001a76 <timer_busy_wait_us>
10001abc:	bd08      	pop	{r3, pc}
10001abe:	bf00      	nop
10001ac0:	400b0000 	.word	0x400b0000

10001ac4 <uart_unreset>:
10001ac4:	4b07      	ldr	r3, [pc, #28]	@ (10001ae4 <uart_unreset+0x20>)
10001ac6:	4298      	cmp	r0, r3
10001ac8:	d00a      	beq.n	10001ae0 <uart_unreset+0x1c>
10001aca:	231a      	movs	r3, #26
10001acc:	2201      	movs	r2, #1
10001ace:	409a      	lsls	r2, r3
10001ad0:	4b05      	ldr	r3, [pc, #20]	@ (10001ae8 <uart_unreset+0x24>)
10001ad2:	601a      	str	r2, [r3, #0]
10001ad4:	4b05      	ldr	r3, [pc, #20]	@ (10001aec <uart_unreset+0x28>)
10001ad6:	689b      	ldr	r3, [r3, #8]
10001ad8:	ea32 0303 	bics.w	r3, r2, r3
10001adc:	d1fa      	bne.n	10001ad4 <uart_unreset+0x10>
10001ade:	4770      	bx	lr
10001ae0:	231b      	movs	r3, #27
10001ae2:	e7f3      	b.n	10001acc <uart_unreset+0x8>
10001ae4:	40078000 	.word	0x40078000
10001ae8:	40023000 	.word	0x40023000
10001aec:	40020000 	.word	0x40020000

10001af0 <uart_disable_before_lcr_write>:
10001af0:	b538      	push	{r3, r4, r5, lr}
10001af2:	6b04      	ldr	r4, [r0, #48]	@ 0x30
10001af4:	f014 0f01 	tst.w	r4, #1
10001af8:	d101      	bne.n	10001afe <uart_disable_before_lcr_write+0xe>
10001afa:	4620      	mov	r0, r4
10001afc:	bd38      	pop	{r3, r4, r5, pc}
10001afe:	f500 5340 	add.w	r3, r0, #12288	@ 0x3000
10001b02:	f240 3201 	movw	r2, #769	@ 0x301
10001b06:	631a      	str	r2, [r3, #48]	@ 0x30
10001b08:	6a43      	ldr	r3, [r0, #36]	@ 0x24
10001b0a:	6a85      	ldr	r5, [r0, #40]	@ 0x28
10001b0c:	eb05 1583 	add.w	r5, r5, r3, lsl #6
10001b10:	02ad      	lsls	r5, r5, #10
10001b12:	2006      	movs	r0, #6
10001b14:	f000 f8ea 	bl	10001cec <clock_get_hz>
10001b18:	4b04      	ldr	r3, [pc, #16]	@ (10001b2c <uart_disable_before_lcr_write+0x3c>)
10001b1a:	fba3 3000 	umull	r3, r0, r3, r0
10001b1e:	0ac0      	lsrs	r0, r0, #11
10001b20:	fbb5 f0f0 	udiv	r0, r5, r0
10001b24:	2100      	movs	r1, #0
10001b26:	f7ff ffc3 	bl	10001ab0 <busy_wait_us>
10001b2a:	e7e6      	b.n	10001afa <uart_disable_before_lcr_write+0xa>
10001b2c:	8f2b7b75 	.word	0x8f2b7b75

10001b30 <uart_write_lcr_bits_masked>:
10001b30:	b570      	push	{r4, r5, r6, lr}
10001b32:	4605      	mov	r5, r0
10001b34:	460c      	mov	r4, r1
10001b36:	4616      	mov	r6, r2
10001b38:	f7ff ffda 	bl	10001af0 <uart_disable_before_lcr_write>
10001b3c:	6aeb      	ldr	r3, [r5, #44]	@ 0x2c
10001b3e:	405c      	eors	r4, r3
10001b40:	4034      	ands	r4, r6
10001b42:	f505 5381 	add.w	r3, r5, #4128	@ 0x1020
10001b46:	60dc      	str	r4, [r3, #12]
10001b48:	6328      	str	r0, [r5, #48]	@ 0x30
10001b4a:	bd70      	pop	{r4, r5, r6, pc}

10001b4c <uart_set_baudrate>:
10001b4c:	b570      	push	{r4, r5, r6, lr}
10001b4e:	4605      	mov	r5, r0
10001b50:	460c      	mov	r4, r1
10001b52:	2006      	movs	r0, #6
10001b54:	f000 f8ca 	bl	10001cec <clock_get_hz>
10001b58:	00c3      	lsls	r3, r0, #3
10001b5a:	fbb3 f3f4 	udiv	r3, r3, r4
10001b5e:	3301      	adds	r3, #1
10001b60:	09dc      	lsrs	r4, r3, #7
10001b62:	d007      	beq.n	10001b74 <uart_set_baudrate+0x28>
10001b64:	f64f 72fe 	movw	r2, #65534	@ 0xfffe
10001b68:	4294      	cmp	r4, r2
10001b6a:	d814      	bhi.n	10001b96 <uart_set_baudrate+0x4a>
10001b6c:	4626      	mov	r6, r4
10001b6e:	f3c3 0445 	ubfx	r4, r3, #1, #6
10001b72:	e000      	b.n	10001b76 <uart_set_baudrate+0x2a>
10001b74:	2601      	movs	r6, #1
10001b76:	626e      	str	r6, [r5, #36]	@ 0x24
10001b78:	62ac      	str	r4, [r5, #40]	@ 0x28
10001b7a:	2200      	movs	r2, #0
10001b7c:	4611      	mov	r1, r2
10001b7e:	4628      	mov	r0, r5
10001b80:	f7ff ffd6 	bl	10001b30 <uart_write_lcr_bits_masked>
10001b84:	2006      	movs	r0, #6
10001b86:	f000 f8b1 	bl	10001cec <clock_get_hz>
10001b8a:	0080      	lsls	r0, r0, #2
10001b8c:	eb04 1486 	add.w	r4, r4, r6, lsl #6
10001b90:	fbb0 f0f4 	udiv	r0, r0, r4
10001b94:	bd70      	pop	{r4, r5, r6, pc}
10001b96:	2400      	movs	r4, #0
10001b98:	f64f 76ff 	movw	r6, #65535	@ 0xffff
10001b9c:	e7eb      	b.n	10001b76 <uart_set_baudrate+0x2a>
	...

10001ba0 <uart_set_translate_crlf>:
10001ba0:	b149      	cbz	r1, 10001bb6 <uart_set_translate_crlf+0x16>
10001ba2:	220a      	movs	r2, #10
10001ba4:	4b05      	ldr	r3, [pc, #20]	@ (10001bbc <uart_set_translate_crlf+0x1c>)
10001ba6:	4298      	cmp	r0, r3
10001ba8:	bf14      	ite	ne
10001baa:	2000      	movne	r0, #0
10001bac:	2001      	moveq	r0, #1
10001bae:	4b04      	ldr	r3, [pc, #16]	@ (10001bc0 <uart_set_translate_crlf+0x20>)
10001bb0:	f823 2010 	strh.w	r2, [r3, r0, lsl #1]
10001bb4:	4770      	bx	lr
10001bb6:	f44f 7280 	mov.w	r2, #256	@ 0x100
10001bba:	e7f3      	b.n	10001ba4 <uart_set_translate_crlf+0x4>
10001bbc:	40078000 	.word	0x40078000
10001bc0:	200010f0 	.word	0x200010f0

10001bc4 <uart_init>:
10001bc4:	b538      	push	{r3, r4, r5, lr}
10001bc6:	4604      	mov	r4, r0
10001bc8:	460d      	mov	r5, r1
10001bca:	2006      	movs	r0, #6
10001bcc:	f000 f88e 	bl	10001cec <clock_get_hz>
10001bd0:	b1f8      	cbz	r0, 10001c12 <uart_init+0x4e>
10001bd2:	4b11      	ldr	r3, [pc, #68]	@ (10001c18 <uart_init+0x54>)
10001bd4:	429c      	cmp	r4, r3
10001bd6:	d01d      	beq.n	10001c14 <uart_init+0x50>
10001bd8:	221a      	movs	r2, #26
10001bda:	2301      	movs	r3, #1
10001bdc:	4093      	lsls	r3, r2
10001bde:	4a0f      	ldr	r2, [pc, #60]	@ (10001c1c <uart_init+0x58>)
10001be0:	6013      	str	r3, [r2, #0]
10001be2:	4620      	mov	r0, r4
10001be4:	f7ff ff6e 	bl	10001ac4 <uart_unreset>
10001be8:	2100      	movs	r1, #0
10001bea:	4620      	mov	r0, r4
10001bec:	f7ff ffd8 	bl	10001ba0 <uart_set_translate_crlf>
10001bf0:	4629      	mov	r1, r5
10001bf2:	4620      	mov	r0, r4
10001bf4:	f7ff ffaa 	bl	10001b4c <uart_set_baudrate>
10001bf8:	6ae3      	ldr	r3, [r4, #44]	@ 0x2c
10001bfa:	f083 0370 	eor.w	r3, r3, #112	@ 0x70
10001bfe:	f003 037e 	and.w	r3, r3, #126	@ 0x7e
10001c02:	f504 5281 	add.w	r2, r4, #4128	@ 0x1020
10001c06:	60d3      	str	r3, [r2, #12]
10001c08:	f240 3301 	movw	r3, #769	@ 0x301
10001c0c:	6323      	str	r3, [r4, #48]	@ 0x30
10001c0e:	2303      	movs	r3, #3
10001c10:	64a3      	str	r3, [r4, #72]	@ 0x48
10001c12:	bd38      	pop	{r3, r4, r5, pc}
10001c14:	221b      	movs	r2, #27
10001c16:	e7e0      	b.n	10001bda <uart_init+0x16>
10001c18:	40078000 	.word	0x40078000
10001c1c:	40022000 	.word	0x40022000

10001c20 <clock_configure_internal>:
10001c20:	b570      	push	{r4, r5, r6, lr}
10001c22:	4616      	mov	r6, r2
10001c24:	9d04      	ldr	r5, [sp, #16]
10001c26:	eb00 0c40 	add.w	ip, r0, r0, lsl #1
10001c2a:	ea4f 0c8c 	mov.w	ip, ip, lsl #2
10001c2e:	f10c 4c80 	add.w	ip, ip, #1073741824	@ 0x40000000
10001c32:	f50c 3c80 	add.w	ip, ip, #65536	@ 0x10000
10001c36:	f8dc 2004 	ldr.w	r2, [ip, #4]
10001c3a:	42aa      	cmp	r2, r5
10001c3c:	d201      	bcs.n	10001c42 <clock_configure_internal+0x22>
10001c3e:	f8cc 5004 	str.w	r5, [ip, #4]
10001c42:	f1a0 0e04 	sub.w	lr, r0, #4
10001c46:	fa5f fe8e 	uxtb.w	lr, lr
10001c4a:	f1be 0f01 	cmp.w	lr, #1
10001c4e:	d928      	bls.n	10001ca2 <clock_configure_internal+0x82>
10001c50:	f50c 5240 	add.w	r2, ip, #12288	@ 0x3000
10001c54:	f44f 6400 	mov.w	r4, #2048	@ 0x800
10001c58:	6014      	str	r4, [r2, #0]
10001c5a:	4a1e      	ldr	r2, [pc, #120]	@ (10001cd4 <clock_configure_internal+0xb4>)
10001c5c:	f852 2020 	ldr.w	r2, [r2, r0, lsl #2]
10001c60:	b142      	cbz	r2, 10001c74 <clock_configure_internal+0x54>
10001c62:	4c1c      	ldr	r4, [pc, #112]	@ (10001cd4 <clock_configure_internal+0xb4>)
10001c64:	6964      	ldr	r4, [r4, #20]
10001c66:	fbb4 f4f2 	udiv	r4, r4, r2
10001c6a:	3401      	adds	r4, #1
10001c6c:	eb04 0444 	add.w	r4, r4, r4, lsl #1
10001c70:	3c03      	subs	r4, #3
10001c72:	d2fd      	bcs.n	10001c70 <clock_configure_internal+0x50>
10001c74:	f8dc 2000 	ldr.w	r2, [ip]
10001c78:	ea82 1246 	eor.w	r2, r2, r6, lsl #5
10001c7c:	f002 02e0 	and.w	r2, r2, #224	@ 0xe0
10001c80:	f50c 5480 	add.w	r4, ip, #4096	@ 0x1000
10001c84:	6022      	str	r2, [r4, #0]
10001c86:	f1be 0f01 	cmp.w	lr, #1
10001c8a:	d916      	bls.n	10001cba <clock_configure_internal+0x9a>
10001c8c:	f50c 5200 	add.w	r2, ip, #8192	@ 0x2000
10001c90:	f44f 6100 	mov.w	r1, #2048	@ 0x800
10001c94:	6011      	str	r1, [r2, #0]
10001c96:	f8cc 5004 	str.w	r5, [ip, #4]
10001c9a:	4a0e      	ldr	r2, [pc, #56]	@ (10001cd4 <clock_configure_internal+0xb4>)
10001c9c:	f842 3020 	str.w	r3, [r2, r0, lsl #2]
10001ca0:	bd70      	pop	{r4, r5, r6, pc}
10001ca2:	2901      	cmp	r1, #1
10001ca4:	d1d4      	bne.n	10001c50 <clock_configure_internal+0x30>
10001ca6:	f50c 5240 	add.w	r2, ip, #12288	@ 0x3000
10001caa:	2403      	movs	r4, #3
10001cac:	6014      	str	r4, [r2, #0]
10001cae:	f8dc 2008 	ldr.w	r2, [ip, #8]
10001cb2:	f012 0f01 	tst.w	r2, #1
10001cb6:	d0fa      	beq.n	10001cae <clock_configure_internal+0x8e>
10001cb8:	e7dc      	b.n	10001c74 <clock_configure_internal+0x54>
10001cba:	f8dc 2000 	ldr.w	r2, [ip]
10001cbe:	404a      	eors	r2, r1
10001cc0:	f002 0203 	and.w	r2, r2, #3
10001cc4:	6022      	str	r2, [r4, #0]
10001cc6:	f8dc 4008 	ldr.w	r4, [ip, #8]
10001cca:	2201      	movs	r2, #1
10001ccc:	408a      	lsls	r2, r1
10001cce:	4214      	tst	r4, r2
10001cd0:	d0f9      	beq.n	10001cc6 <clock_configure_internal+0xa6>
10001cd2:	e7db      	b.n	10001c8c <clock_configure_internal+0x6c>
10001cd4:	2000107c 	.word	0x2000107c

10001cd8 <clock_configure_undivided>:
10001cd8:	b510      	push	{r4, lr}
10001cda:	b082      	sub	sp, #8
10001cdc:	f44f 3480 	mov.w	r4, #65536	@ 0x10000
10001ce0:	9400      	str	r4, [sp, #0]
10001ce2:	f7ff ff9d 	bl	10001c20 <clock_configure_internal>
10001ce6:	b002      	add	sp, #8
10001ce8:	bd10      	pop	{r4, pc}
	...

10001cec <clock_get_hz>:
10001cec:	4b01      	ldr	r3, [pc, #4]	@ (10001cf4 <clock_get_hz+0x8>)
10001cee:	f853 0020 	ldr.w	r0, [r3, r0, lsl #2]
10001cf2:	4770      	bx	lr
10001cf4:	2000107c 	.word	0x2000107c

10001cf8 <pll_init>:
10001cf8:	b570      	push	{r4, r5, r6, lr}
10001cfa:	9c04      	ldr	r4, [sp, #16]
10001cfc:	4d34      	ldr	r5, [pc, #208]	@ (10001dd0 <pll_init+0xd8>)
10001cfe:	fbb5 fcf1 	udiv	ip, r5, r1
10001d02:	4d34      	ldr	r5, [pc, #208]	@ (10001dd4 <pll_init+0xdc>)
10001d04:	4415      	add	r5, r2
10001d06:	4e34      	ldr	r6, [pc, #208]	@ (10001dd8 <pll_init+0xe0>)
10001d08:	42b5      	cmp	r5, r6
10001d0a:	d837      	bhi.n	10001d7c <pll_init+0x84>
10001d0c:	fbb2 f5fc 	udiv	r5, r2, ip
10001d10:	f1a5 0e10 	sub.w	lr, r5, #16
10001d14:	f5be 7f98 	cmp.w	lr, #304	@ 0x130
10001d18:	d836      	bhi.n	10001d88 <pll_init+0x90>
10001d1a:	f103 3eff 	add.w	lr, r3, #4294967295
10001d1e:	f1be 0f06 	cmp.w	lr, #6
10001d22:	d837      	bhi.n	10001d94 <pll_init+0x9c>
10001d24:	f104 3eff 	add.w	lr, r4, #4294967295
10001d28:	f1be 0f06 	cmp.w	lr, #6
10001d2c:	d832      	bhi.n	10001d94 <pll_init+0x9c>
10001d2e:	ebbc 1f12 	cmp.w	ip, r2, lsr #4
10001d32:	d835      	bhi.n	10001da0 <pll_init+0xa8>
10001d34:	0324      	lsls	r4, r4, #12
10001d36:	ea44 4403 	orr.w	r4, r4, r3, lsl #16
10001d3a:	6803      	ldr	r3, [r0, #0]
10001d3c:	2b00      	cmp	r3, #0
10001d3e:	db35      	blt.n	10001dac <pll_init+0xb4>
10001d40:	4b26      	ldr	r3, [pc, #152]	@ (10001ddc <pll_init+0xe4>)
10001d42:	4298      	cmp	r0, r3
10001d44:	d042      	beq.n	10001dcc <pll_init+0xd4>
10001d46:	230e      	movs	r3, #14
10001d48:	2201      	movs	r2, #1
10001d4a:	409a      	lsls	r2, r3
10001d4c:	4b24      	ldr	r3, [pc, #144]	@ (10001de0 <pll_init+0xe8>)
10001d4e:	601a      	str	r2, [r3, #0]
10001d50:	f503 5380 	add.w	r3, r3, #4096	@ 0x1000
10001d54:	601a      	str	r2, [r3, #0]
10001d56:	4b23      	ldr	r3, [pc, #140]	@ (10001de4 <pll_init+0xec>)
10001d58:	689b      	ldr	r3, [r3, #8]
10001d5a:	ea32 0303 	bics.w	r3, r2, r3
10001d5e:	d1fa      	bne.n	10001d56 <pll_init+0x5e>
10001d60:	6001      	str	r1, [r0, #0]
10001d62:	6085      	str	r5, [r0, #8]
10001d64:	f500 5240 	add.w	r2, r0, #12288	@ 0x3000
10001d68:	3204      	adds	r2, #4
10001d6a:	2321      	movs	r3, #33	@ 0x21
10001d6c:	6013      	str	r3, [r2, #0]
10001d6e:	6803      	ldr	r3, [r0, #0]
10001d70:	2b00      	cmp	r3, #0
10001d72:	dafc      	bge.n	10001d6e <pll_init+0x76>
10001d74:	60c4      	str	r4, [r0, #12]
10001d76:	2308      	movs	r3, #8
10001d78:	6013      	str	r3, [r2, #0]
10001d7a:	bd70      	pop	{r4, r5, r6, pc}
10001d7c:	4b1a      	ldr	r3, [pc, #104]	@ (10001de8 <pll_init+0xf0>)
10001d7e:	4a1b      	ldr	r2, [pc, #108]	@ (10001dec <pll_init+0xf4>)
10001d80:	2111      	movs	r1, #17
10001d82:	481b      	ldr	r0, [pc, #108]	@ (10001df0 <pll_init+0xf8>)
10001d84:	f000 fb20 	bl	100023c8 <__assert_func>
10001d88:	4b1a      	ldr	r3, [pc, #104]	@ (10001df4 <pll_init+0xfc>)
10001d8a:	4a18      	ldr	r2, [pc, #96]	@ (10001dec <pll_init+0xf4>)
10001d8c:	2119      	movs	r1, #25
10001d8e:	4818      	ldr	r0, [pc, #96]	@ (10001df0 <pll_init+0xf8>)
10001d90:	f000 fb1a 	bl	100023c8 <__assert_func>
10001d94:	4b18      	ldr	r3, [pc, #96]	@ (10001df8 <pll_init+0x100>)
10001d96:	4a15      	ldr	r2, [pc, #84]	@ (10001dec <pll_init+0xf4>)
10001d98:	211c      	movs	r1, #28
10001d9a:	4815      	ldr	r0, [pc, #84]	@ (10001df0 <pll_init+0xf8>)
10001d9c:	f000 fb14 	bl	100023c8 <__assert_func>
10001da0:	4b16      	ldr	r3, [pc, #88]	@ (10001dfc <pll_init+0x104>)
10001da2:	4a12      	ldr	r2, [pc, #72]	@ (10001dec <pll_init+0xf4>)
10001da4:	2123      	movs	r1, #35	@ 0x23
10001da6:	4812      	ldr	r0, [pc, #72]	@ (10001df0 <pll_init+0xf8>)
10001da8:	f000 fb0e 	bl	100023c8 <__assert_func>
10001dac:	6803      	ldr	r3, [r0, #0]
10001dae:	f003 033f 	and.w	r3, r3, #63	@ 0x3f
10001db2:	428b      	cmp	r3, r1
10001db4:	d1c4      	bne.n	10001d40 <pll_init+0x48>
10001db6:	6883      	ldr	r3, [r0, #8]
10001db8:	f3c3 030b 	ubfx	r3, r3, #0, #12
10001dbc:	42ab      	cmp	r3, r5
10001dbe:	d1bf      	bne.n	10001d40 <pll_init+0x48>
10001dc0:	68c3      	ldr	r3, [r0, #12]
10001dc2:	f403 23ee 	and.w	r3, r3, #487424	@ 0x77000
10001dc6:	42a3      	cmp	r3, r4
10001dc8:	d1ba      	bne.n	10001d40 <pll_init+0x48>
10001dca:	e7d6      	b.n	10001d7a <pll_init+0x82>
10001dcc:	230f      	movs	r3, #15
10001dce:	e7bb      	b.n	10001d48 <pll_init+0x50>
10001dd0:	00b71b00 	.word	0x00b71b00
10001dd4:	d34be880 	.word	0xd34be880
10001dd8:	32a9f880 	.word	0x32a9f880
10001ddc:	40058000 	.word	0x40058000
10001de0:	40022000 	.word	0x40022000
10001de4:	40020000 	.word	0x40020000
10001de8:	10007f80 	.word	0x10007f80
10001dec:	10008490 	.word	0x10008490
10001df0:	10007fd0 	.word	0x10007fd0
10001df4:	10008018 	.word	0x10008018
10001df8:	10008034 	.word	0x10008034
10001dfc:	10008080 	.word	0x10008080

10001e00 <tick_start>:
10001e00:	4a05      	ldr	r2, [pc, #20]	@ (10001e18 <tick_start+0x18>)
10001e02:	eb00 0340 	add.w	r3, r0, r0, lsl #1
10001e06:	eb02 0383 	add.w	r3, r2, r3, lsl #2
10001e0a:	6059      	str	r1, [r3, #4]
10001e0c:	eb00 0040 	add.w	r0, r0, r0, lsl #1
10001e10:	0080      	lsls	r0, r0, #2
10001e12:	2301      	movs	r3, #1
10001e14:	5013      	str	r3, [r2, r0]
10001e16:	4770      	bx	lr
10001e18:	40108000 	.word	0x40108000

10001e1c <rom_func_lookup>:
10001e1c:	b508      	push	{r3, lr}
10001e1e:	2300      	movs	r3, #0
10001e20:	8adb      	ldrh	r3, [r3, #22]
10001e22:	2200      	movs	r2, #0
10001e24:	e842 f200 	tt	r2, r2
10001e28:	f412 0f80 	tst.w	r2, #4194304	@ 0x400000
10001e2c:	d102      	bne.n	10001e34 <rom_func_lookup+0x18>
10001e2e:	2110      	movs	r1, #16
10001e30:	4798      	blx	r3
10001e32:	bd08      	pop	{r3, pc}
10001e34:	2104      	movs	r1, #4
10001e36:	4798      	blx	r3
10001e38:	e7fb      	b.n	10001e32 <rom_func_lookup+0x16>
	...

10001e3c <runtime_init_bootrom_locking_enable>:
10001e3c:	4b03      	ldr	r3, [pc, #12]	@ (10001e4c <runtime_init_bootrom_locking_enable+0x10>)
10001e3e:	f8d3 3828 	ldr.w	r3, [r3, #2088]	@ 0x828
10001e42:	2b00      	cmp	r3, #0
10001e44:	d0fa      	beq.n	10001e3c <runtime_init_bootrom_locking_enable>
10001e46:	f3bf 8f5f 	dmb	sy
10001e4a:	4770      	bx	lr
10001e4c:	400e0000 	.word	0x400e0000

10001e50 <boot_locks_reset>:
10001e50:	2200      	movs	r2, #0
10001e52:	e007      	b.n	10001e64 <boot_locks_reset+0x14>
10001e54:	4b05      	ldr	r3, [pc, #20]	@ (10001e6c <boot_locks_reset+0x1c>)
10001e56:	4413      	add	r3, r2
10001e58:	009b      	lsls	r3, r3, #2
10001e5a:	f3bf 8f5f 	dmb	sy
10001e5e:	2100      	movs	r1, #0
10001e60:	6019      	str	r1, [r3, #0]
10001e62:	3201      	adds	r2, #1
10001e64:	2a07      	cmp	r2, #7
10001e66:	d9f5      	bls.n	10001e54 <boot_locks_reset+0x4>
10001e68:	4770      	bx	lr
10001e6a:	bf00      	nop
10001e6c:	10038203 	.word	0x10038203

10001e70 <runtime_init_boot_locks_reset>:
10001e70:	b508      	push	{r3, lr}
10001e72:	f7ff ffed 	bl	10001e50 <boot_locks_reset>
10001e76:	bd08      	pop	{r3, pc}

10001e78 <xosc_init>:
10001e78:	4b07      	ldr	r3, [pc, #28]	@ (10001e98 <xosc_init+0x20>)
10001e7a:	f44f 622a 	mov.w	r2, #2720	@ 0xaa0
10001e7e:	601a      	str	r2, [r3, #0]
10001e80:	222f      	movs	r2, #47	@ 0x2f
10001e82:	60da      	str	r2, [r3, #12]
10001e84:	f503 5300 	add.w	r3, r3, #8192	@ 0x2000
10001e88:	4a04      	ldr	r2, [pc, #16]	@ (10001e9c <xosc_init+0x24>)
10001e8a:	601a      	str	r2, [r3, #0]
10001e8c:	4b02      	ldr	r3, [pc, #8]	@ (10001e98 <xosc_init+0x20>)
10001e8e:	685b      	ldr	r3, [r3, #4]
10001e90:	2b00      	cmp	r3, #0
10001e92:	dafb      	bge.n	10001e8c <xosc_init+0x14>
10001e94:	4770      	bx	lr
10001e96:	bf00      	nop
10001e98:	40048000 	.word	0x40048000
10001e9c:	00fab000 	.word	0x00fab000

10001ea0 <runtime_run_initializers_from>:
10001ea0:	b510      	push	{r4, lr}
10001ea2:	4604      	mov	r4, r0
10001ea4:	e002      	b.n	10001eac <runtime_run_initializers_from+0xc>
10001ea6:	f854 3b04 	ldr.w	r3, [r4], #4
10001eaa:	4798      	blx	r3
10001eac:	4b01      	ldr	r3, [pc, #4]	@ (10001eb4 <runtime_run_initializers_from+0x14>)
10001eae:	429c      	cmp	r4, r3
10001eb0:	d3f9      	bcc.n	10001ea6 <runtime_run_initializers_from+0x6>
10001eb2:	bd10      	pop	{r4, pc}
10001eb4:	10007b00 	.word	0x10007b00

10001eb8 <first_per_core_initializer>:
10001eb8:	4770      	bx	lr
	...

10001ebc <runtime_run_initializers>:
10001ebc:	b508      	push	{r3, lr}
10001ebe:	4802      	ldr	r0, [pc, #8]	@ (10001ec8 <runtime_run_initializers+0xc>)
10001ec0:	f7ff ffee 	bl	10001ea0 <runtime_run_initializers_from>
10001ec4:	bd08      	pop	{r3, pc}
10001ec6:	bf00      	nop
10001ec8:	10007ac0 	.word	0x10007ac0

10001ecc <runtime_init_early_resets>:
10001ecc:	4b06      	ldr	r3, [pc, #24]	@ (10001ee8 <runtime_init_early_resets+0x1c>)
10001ece:	4a07      	ldr	r2, [pc, #28]	@ (10001eec <runtime_init_early_resets+0x20>)
10001ed0:	601a      	str	r2, [r3, #0]
10001ed2:	f503 5380 	add.w	r3, r3, #4096	@ 0x1000
10001ed6:	4a06      	ldr	r2, [pc, #24]	@ (10001ef0 <runtime_init_early_resets+0x24>)
10001ed8:	601a      	str	r2, [r3, #0]
10001eda:	4b06      	ldr	r3, [pc, #24]	@ (10001ef4 <runtime_init_early_resets+0x28>)
10001edc:	689a      	ldr	r2, [r3, #8]
10001ede:	4b04      	ldr	r3, [pc, #16]	@ (10001ef0 <runtime_init_early_resets+0x24>)
10001ee0:	4393      	bics	r3, r2
10001ee2:	d1fa      	bne.n	10001eda <runtime_init_early_resets+0xe>
10001ee4:	4770      	bx	lr
10001ee6:	bf00      	nop
10001ee8:	40022000 	.word	0x40022000
10001eec:	efef3b7f 	.word	0xefef3b7f
10001ef0:	03f3fff6 	.word	0x03f3fff6
10001ef4:	40020000 	.word	0x40020000

10001ef8 <runtime_init_usb_power_down>:
10001ef8:	4b05      	ldr	r3, [pc, #20]	@ (10001f10 <runtime_init_usb_power_down+0x18>)
10001efa:	6cdb      	ldr	r3, [r3, #76]	@ 0x4c
10001efc:	f5b3 4f00 	cmp.w	r3, #32768	@ 0x8000
10001f00:	d000      	beq.n	10001f04 <runtime_init_usb_power_down+0xc>
10001f02:	4770      	bx	lr
10001f04:	4b03      	ldr	r3, [pc, #12]	@ (10001f14 <runtime_init_usb_power_down+0x1c>)
10001f06:	f44f 2280 	mov.w	r2, #262144	@ 0x40000
10001f0a:	64da      	str	r2, [r3, #76]	@ 0x4c
10001f0c:	e7f9      	b.n	10001f02 <runtime_init_usb_power_down+0xa>
10001f0e:	bf00      	nop
10001f10:	50110000 	.word	0x50110000
10001f14:	50112000 	.word	0x50112000

10001f18 <runtime_init_per_core_enable_coprocessors>:
10001f18:	f04f 22e0 	mov.w	r2, #3758153728	@ 0xe000e000
10001f1c:	f8d2 1d88 	ldr.w	r1, [r2, #3464]	@ 0xd88
10001f20:	4b03      	ldr	r3, [pc, #12]	@ (10001f30 <runtime_init_per_core_enable_coprocessors+0x18>)
10001f22:	430b      	orrs	r3, r1
10001f24:	f8c2 3d88 	str.w	r3, [r2, #3464]	@ 0xd88
10001f28:	ee10 0430 	dcp_rcmp r0
10001f2c:	4770      	bx	lr
10001f2e:	bf00      	nop
10001f30:	00300303 	.word	0x00300303

10001f34 <runtime_init_post_clock_resets>:
10001f34:	4b05      	ldr	r3, [pc, #20]	@ (10001f4c <runtime_init_post_clock_resets+0x18>)
10001f36:	f06f 4260 	mvn.w	r2, #3758096384	@ 0xe0000000
10001f3a:	601a      	str	r2, [r3, #0]
10001f3c:	4b04      	ldr	r3, [pc, #16]	@ (10001f50 <runtime_init_post_clock_resets+0x1c>)
10001f3e:	689b      	ldr	r3, [r3, #8]
10001f40:	43db      	mvns	r3, r3
10001f42:	f033 4360 	bics.w	r3, r3, #3758096384	@ 0xe0000000
10001f46:	d1f9      	bne.n	10001f3c <runtime_init_post_clock_resets+0x8>
10001f48:	4770      	bx	lr
10001f4a:	bf00      	nop
10001f4c:	40023000 	.word	0x40023000
10001f50:	40020000 	.word	0x40020000

10001f54 <runtime_init_bootrom_reset>:
10001f54:	b508      	push	{r3, lr}
10001f56:	f245 2053 	movw	r0, #21075	@ 0x5253
10001f5a:	f7ff ff5f 	bl	10001e1c <rom_func_lookup>
10001f5e:	4603      	mov	r3, r0
10001f60:	2004      	movs	r0, #4
10001f62:	4798      	blx	r3
10001f64:	bd08      	pop	{r3, pc}

10001f66 <runtime_init_per_core_bootrom_reset>:
10001f66:	b508      	push	{r3, lr}
10001f68:	f245 2053 	movw	r0, #21075	@ 0x5253
10001f6c:	f7ff ff56 	bl	10001e1c <rom_func_lookup>
10001f70:	4603      	mov	r3, r0
10001f72:	2001      	movs	r0, #1
10001f74:	4798      	blx	r3
10001f76:	bd08      	pop	{r3, pc}

10001f78 <runtime_init_spin_locks_reset>:
10001f78:	b508      	push	{r3, lr}
10001f7a:	f7fe ff65 	bl	10000e48 <spin_locks_reset>
10001f7e:	bd08      	pop	{r3, pc}

10001f80 <runtime_init_install_ram_vector_table>:
10001f80:	b538      	push	{r3, r4, r5, lr}
10001f82:	4c05      	ldr	r4, [pc, #20]	@ (10001f98 <runtime_init_install_ram_vector_table+0x18>)
10001f84:	68a1      	ldr	r1, [r4, #8]
10001f86:	4d05      	ldr	r5, [pc, #20]	@ (10001f9c <runtime_init_install_ram_vector_table+0x1c>)
10001f88:	f44f 7288 	mov.w	r2, #272	@ 0x110
10001f8c:	4628      	mov	r0, r5
10001f8e:	f001 fa5d 	bl	1000344c <memcpy>
10001f92:	60a5      	str	r5, [r4, #8]
10001f94:	bd38      	pop	{r3, r4, r5, pc}
10001f96:	bf00      	nop
10001f98:	e000ed00 	.word	0xe000ed00
10001f9c:	20000000 	.word	0x20000000

10001fa0 <start_all_ticks>:
10001fa0:	b538      	push	{r3, r4, r5, lr}
10001fa2:	2004      	movs	r0, #4
10001fa4:	f7ff fea2 	bl	10001cec <clock_get_hz>
10001fa8:	4b06      	ldr	r3, [pc, #24]	@ (10001fc4 <start_all_ticks+0x24>)
10001faa:	fba3 3500 	umull	r3, r5, r3, r0
10001fae:	0cad      	lsrs	r5, r5, #18
10001fb0:	2400      	movs	r4, #0
10001fb2:	e004      	b.n	10001fbe <start_all_ticks+0x1e>
10001fb4:	4629      	mov	r1, r5
10001fb6:	b2e0      	uxtb	r0, r4
10001fb8:	f7ff ff22 	bl	10001e00 <tick_start>
10001fbc:	3401      	adds	r4, #1
10001fbe:	2c05      	cmp	r4, #5
10001fc0:	ddf8      	ble.n	10001fb4 <start_all_ticks+0x14>
10001fc2:	bd38      	pop	{r3, r4, r5, pc}
10001fc4:	431bde83 	.word	0x431bde83

10001fc8 <runtime_init_clocks>:
10001fc8:	b530      	push	{r4, r5, lr}
10001fca:	b083      	sub	sp, #12
10001fcc:	4b26      	ldr	r3, [pc, #152]	@ (10002068 <runtime_init_clocks+0xa0>)
10001fce:	2200      	movs	r2, #0
10001fd0:	f8c3 2084 	str.w	r2, [r3, #132]	@ 0x84
10001fd4:	f7ff ff50 	bl	10001e78 <xosc_init>
10001fd8:	4b24      	ldr	r3, [pc, #144]	@ (1000206c <runtime_init_clocks+0xa4>)
10001fda:	2201      	movs	r2, #1
10001fdc:	63da      	str	r2, [r3, #60]	@ 0x3c
10001fde:	4b22      	ldr	r3, [pc, #136]	@ (10002068 <runtime_init_clocks+0xa0>)
10001fe0:	6c5b      	ldr	r3, [r3, #68]	@ 0x44
10001fe2:	2b01      	cmp	r3, #1
10001fe4:	d1fb      	bne.n	10001fde <runtime_init_clocks+0x16>
10001fe6:	4b21      	ldr	r3, [pc, #132]	@ (1000206c <runtime_init_clocks+0xa4>)
10001fe8:	2203      	movs	r2, #3
10001fea:	631a      	str	r2, [r3, #48]	@ 0x30
10001fec:	4b1e      	ldr	r3, [pc, #120]	@ (10002068 <runtime_init_clocks+0xa0>)
10001fee:	6b9b      	ldr	r3, [r3, #56]	@ 0x38
10001ff0:	2b01      	cmp	r3, #1
10001ff2:	d1fb      	bne.n	10001fec <runtime_init_clocks+0x24>
10001ff4:	2402      	movs	r4, #2
10001ff6:	9400      	str	r4, [sp, #0]
10001ff8:	2305      	movs	r3, #5
10001ffa:	4a1d      	ldr	r2, [pc, #116]	@ (10002070 <runtime_init_clocks+0xa8>)
10001ffc:	2101      	movs	r1, #1
10001ffe:	481d      	ldr	r0, [pc, #116]	@ (10002074 <runtime_init_clocks+0xac>)
10002000:	f7ff fe7a 	bl	10001cf8 <pll_init>
10002004:	2505      	movs	r5, #5
10002006:	9500      	str	r5, [sp, #0]
10002008:	462b      	mov	r3, r5
1000200a:	4a1b      	ldr	r2, [pc, #108]	@ (10002078 <runtime_init_clocks+0xb0>)
1000200c:	2101      	movs	r1, #1
1000200e:	481b      	ldr	r0, [pc, #108]	@ (1000207c <runtime_init_clocks+0xb4>)
10002010:	f7ff fe72 	bl	10001cf8 <pll_init>
10002014:	4b1a      	ldr	r3, [pc, #104]	@ (10002080 <runtime_init_clocks+0xb8>)
10002016:	2200      	movs	r2, #0
10002018:	4621      	mov	r1, r4
1000201a:	2004      	movs	r0, #4
1000201c:	f7ff fe5c 	bl	10001cd8 <clock_configure_undivided>
10002020:	4c18      	ldr	r4, [pc, #96]	@ (10002084 <runtime_init_clocks+0xbc>)
10002022:	4623      	mov	r3, r4
10002024:	2200      	movs	r2, #0
10002026:	2101      	movs	r1, #1
10002028:	4628      	mov	r0, r5
1000202a:	f7ff fe55 	bl	10001cd8 <clock_configure_undivided>
1000202e:	4d16      	ldr	r5, [pc, #88]	@ (10002088 <runtime_init_clocks+0xc0>)
10002030:	462b      	mov	r3, r5
10002032:	2200      	movs	r2, #0
10002034:	4611      	mov	r1, r2
10002036:	2008      	movs	r0, #8
10002038:	f7ff fe4e 	bl	10001cd8 <clock_configure_undivided>
1000203c:	462b      	mov	r3, r5
1000203e:	2200      	movs	r2, #0
10002040:	4611      	mov	r1, r2
10002042:	2009      	movs	r0, #9
10002044:	f7ff fe48 	bl	10001cd8 <clock_configure_undivided>
10002048:	4623      	mov	r3, r4
1000204a:	2200      	movs	r2, #0
1000204c:	4611      	mov	r1, r2
1000204e:	2006      	movs	r0, #6
10002050:	f7ff fe42 	bl	10001cd8 <clock_configure_undivided>
10002054:	4623      	mov	r3, r4
10002056:	2200      	movs	r2, #0
10002058:	4611      	mov	r1, r2
1000205a:	2007      	movs	r0, #7
1000205c:	f7ff fe3c 	bl	10001cd8 <clock_configure_undivided>
10002060:	f7ff ff9e 	bl	10001fa0 <start_all_ticks>
10002064:	b003      	add	sp, #12
10002066:	bd30      	pop	{r4, r5, pc}
10002068:	40010000 	.word	0x40010000
1000206c:	40013000 	.word	0x40013000
10002070:	59682f00 	.word	0x59682f00
10002074:	40050000 	.word	0x40050000
10002078:	47868c00 	.word	0x47868c00
1000207c:	40058000 	.word	0x40058000
10002080:	00b71b00 	.word	0x00b71b00
10002084:	08f0d180 	.word	0x08f0d180
10002088:	02dc6c00 	.word	0x02dc6c00

1000208c <generic_save_state>:
1000208c:	b086      	sub	sp, #24
1000208e:	b403      	push	{r0, r1}
10002090:	fc51 0408 	dcp_pxmd r0, r1
10002094:	e9cd 0102 	strd	r0, r1, [sp, #8]
10002098:	fc51 0409 	dcp_pymd r0, r1
1000209c:	e9cd 0104 	strd	r0, r1, [sp, #16]
100020a0:	ec51 040a 	dcp_refd r0, r1
100020a4:	e9cd 0106 	strd	r0, r1, [sp, #24]
100020a8:	bc03      	pop	{r0, r1}
100020aa:	47f0      	blx	lr

100020ac <generic_restore_state>:
100020ac:	e8bd 5000 	ldmia.w	sp!, {ip, lr}
100020b0:	ec4e c400 	dcp_wxmd ip, lr
100020b4:	e8bd 5000 	ldmia.w	sp!, {ip, lr}
100020b8:	ec4e c401 	dcp_wymd ip, lr
100020bc:	e8bd 5000 	ldmia.w	sp!, {ip, lr}
100020c0:	ec4e c402 	dcp_wefd ip, lr
100020c4:	bd00      	pop	{pc}
100020c6:	0000      	movs	r0, r0
100020c8:	b500      	push	{lr}
100020ca:	f7ff ffdf 	bl	1000208c <generic_save_state>
100020ce:	e002      	b.n	100020d6 <__wrap___aeabi_dadd+0x6>

100020d0 <__wrap___aeabi_dadd>:
100020d0:	fe10 f430 	dcp_pcmp APSR_nzcv
100020d4:	d4f8      	bmi.n	100020c8 <generic_restore_state+0x1c>
100020d6:	ec41 0410 	dcp_wxup r0, r1
100020da:	ec43 2411 	dcp_wyup r2, r3
100020de:	ee00 0401 	dcp_add0
100020e2:	ee10 0401 	dcp_add1
100020e6:	ee80 0420 	dcp_nrdd
100020ea:	ec51 0410 	dcp_rdda r0, r1
100020ee:	4770      	bx	lr
100020f0:	b500      	push	{lr}
100020f2:	f7ff ffcb 	bl	1000208c <generic_save_state>
100020f6:	e002      	b.n	100020fe <__wrap___aeabi_dsub+0x6>

100020f8 <__wrap___aeabi_dsub>:
100020f8:	fe10 f430 	dcp_pcmp APSR_nzcv
100020fc:	d4f8      	bmi.n	100020f0 <__wrap___aeabi_dadd+0x20>
100020fe:	ec41 0410 	dcp_wxup r0, r1
10002102:	ec43 2411 	dcp_wyup r2, r3
10002106:	ee00 0401 	dcp_add0
1000210a:	ee10 0421 	dcp_sub1
1000210e:	ee80 0420 	dcp_nrdd
10002112:	ec51 0430 	dcp_rdds r0, r1
10002116:	4770      	bx	lr
10002118:	b500      	push	{lr}
1000211a:	f7ff ffb7 	bl	1000208c <generic_save_state>
1000211e:	e002      	b.n	10002126 <__wrap___aeabi_dmul+0x6>

10002120 <__wrap___aeabi_dmul>:
10002120:	fe10 f430 	dcp_pcmp APSR_nzcv
10002124:	d4f8      	bmi.n	10002118 <__wrap___aeabi_dsub+0x20>
10002126:	b510      	push	{r4, lr}
10002128:	ec41 0410 	dcp_wxup r0, r1
1000212c:	ec43 2411 	dcp_wyup r2, r3
10002130:	ec51 0404 	dcp_rxms r0, r1, #0x0
10002134:	ec53 2405 	dcp_ryms r2, r3, #0x0
10002138:	fba0 4c02 	umull	r4, ip, r0, r2
1000213c:	f05f 0e00 	movs.w	lr, #0
10002140:	fbe0 ce03 	umlal	ip, lr, r0, r3
10002144:	fbe1 ce02 	umlal	ip, lr, r1, r2
10002148:	ec4c 4420 	dcp_wxms r4, ip
1000214c:	2400      	movs	r4, #0
1000214e:	fbe1 e403 	umlal	lr, r4, r1, r3
10002152:	ec44 e430 	dcp_wxmo lr, r4
10002156:	ee80 0420 	dcp_nrdd
1000215a:	ec51 0450 	dcp_rddm r0, r1
1000215e:	e8bd 4010 	ldmia.w	sp!, {r4, lr}
10002162:	4770      	bx	lr
10002164:	b500      	push	{lr}
10002166:	f7ff ff91 	bl	1000208c <generic_save_state>
1000216a:	e002      	b.n	10002172 <__wrap___aeabi_ddiv+0x6>

1000216c <__wrap___aeabi_ddiv>:
1000216c:	fe10 f430 	dcp_pcmp APSR_nzcv
10002170:	d4f8      	bmi.n	10002164 <__wrap___aeabi_dmul+0x44>
10002172:	ec41 0410 	dcp_wxup r0, r1
10002176:	ec43 2411 	dcp_wyup r2, r3
1000217a:	ec51 0421 	dcp_rymr r0, r1
1000217e:	fba0 1201 	umull	r1, r2, r0, r1
10002182:	ea6f 0282 	mvn.w	r2, r2, lsl #2
10002186:	fb52 0010 	smmlar	r0, r2, r0, r0
1000218a:	fb52 f212 	smmulr	r2, r2, r2
1000218e:	fb52 0010 	smmlar	r0, r2, r0, r0
10002192:	eba0 7cd0 	sub.w	ip, r0, r0, lsr #31
10002196:	ec53 2404 	dcp_rxms r2, r3, #0x0
1000219a:	fb5c f113 	smmulr	r1, ip, r3
1000219e:	ec53 2415 	dcp_ryms r2, r3, #0x1
100021a2:	fba1 2002 	umull	r2, r0, r1, r2
100021a6:	fb01 0003 	mla	r0, r1, r3, r0
100021aa:	ec53 2444 	dcp_rxms r2, r3, #0x4
100021ae:	eba2 0000 	sub.w	r0, r2, r0
100021b2:	fb50 f21c 	smmulr	r2, r0, ip
100021b6:	ea4f 1311 	mov.w	r3, r1, lsr #4
100021ba:	eb12 7001 	adds.w	r0, r2, r1, lsl #28
100021be:	eb43 71e2 	adc.w	r1, r3, r2, asr #31
100021c2:	ea40 5051 	orr.w	r0, r0, r1, lsr #21
100021c6:	ea20 5091 	bic.w	r0, r0, r1, lsr #22
100021ca:	f020 0007 	bic.w	r0, r0, #7
100021ce:	ec53 2475 	dcp_ryms r2, r3, #0x7
100021d2:	fba0 3c02 	umull	r3, ip, r0, r2
100021d6:	ec53 2475 	dcp_ryms r2, r3, #0x7
100021da:	fb00 cc03 	mla	ip, r0, r3, ip
100021de:	fb01 cc02 	mla	ip, r1, r2, ip
100021e2:	ec53 2404 	dcp_rxms r2, r3, #0x0
100021e6:	ebac 4c82 	sub.w	ip, ip, r2, lsl #18
100021ea:	ea40 705c 	orr.w	r0, r0, ip, lsr #29
100021ee:	f1a0 0001 	sub.w	r0, r0, #1
100021f2:	ec41 0440 	dcp_wxdd r0, r1
100021f6:	ee80 0420 	dcp_nrdd
100021fa:	ec51 0470 	dcp_rddd r0, r1
100021fe:	4770      	bx	lr
10002200:	b500      	push	{lr}
10002202:	f7ff ff43 	bl	1000208c <generic_save_state>
10002206:	e002      	b.n	1000220e <__wrap___aeabi_i2d+0x6>

10002208 <__wrap___aeabi_i2d>:
10002208:	fe10 f430 	dcp_pcmp APSR_nzcv
1000220c:	d4f8      	bmi.n	10002200 <__wrap___aeabi_ddiv+0x94>
1000220e:	ec40 0470 	dcp_wxic r0, r0
10002212:	ee00 0401 	dcp_add0
10002216:	ee10 0421 	dcp_sub1
1000221a:	ee80 0420 	dcp_nrdd
1000221e:	ec51 0430 	dcp_rdds r0, r1
10002222:	4770      	bx	lr
10002224:	b500      	push	{lr}
10002226:	f7ff ff31 	bl	1000208c <generic_save_state>
1000222a:	e002      	b.n	10002232 <__wrap___aeabi_ui2d+0x6>

1000222c <__wrap___aeabi_ui2d>:
1000222c:	fe10 f430 	dcp_pcmp APSR_nzcv
10002230:	d4f8      	bmi.n	10002224 <__wrap___aeabi_i2d+0x1c>
10002232:	ec40 0460 	dcp_wxuc r0, r0
10002236:	ee00 0401 	dcp_add0
1000223a:	ee10 0421 	dcp_sub1
1000223e:	ee80 0420 	dcp_nrdd
10002242:	ec51 0430 	dcp_rdds r0, r1
10002246:	4770      	bx	lr
10002248:	b500      	push	{lr}
1000224a:	f7ff ff1f 	bl	1000208c <generic_save_state>
1000224e:	e002      	b.n	10002256 <__wrap___aeabi_d2iz+0x6>

10002250 <__wrap___aeabi_d2iz>:
10002250:	fe10 f430 	dcp_pcmp APSR_nzcv
10002254:	d4f8      	bmi.n	10002248 <__wrap___aeabi_ui2d+0x1c>
10002256:	ec41 0480 	dcp_wxdc r0, r1
1000225a:	ee00 0401 	dcp_add0
1000225e:	ee10 0401 	dcp_add1
10002262:	ee80 0440 	dcp_ntdc
10002266:	ee10 0413 	dcp_rdic r0
1000226a:	4770      	bx	lr
1000226c:	b500      	push	{lr}
1000226e:	f7ff ff0d 	bl	1000208c <generic_save_state>
10002272:	e002      	b.n	1000227a <__wrap___aeabi_dcmpun+0x6>

10002274 <__wrap___aeabi_dcmpun>:
10002274:	fe10 f430 	dcp_pcmp APSR_nzcv
10002278:	d4f8      	bmi.n	1000226c <__wrap___aeabi_d2iz+0x1c>
1000227a:	ec41 0410 	dcp_wxup r0, r1
1000227e:	ec43 2411 	dcp_wyup r2, r3
10002282:	ee00 0401 	dcp_add0
10002286:	ee10 0430 	dcp_rcmp r0
1000228a:	f3c0 7000 	ubfx	r0, r0, #28, #1
1000228e:	4770      	bx	lr
10002290:	b500      	push	{lr}
10002292:	f7ff fefb 	bl	1000208c <generic_save_state>
10002296:	e002      	b.n	1000229e <__wrap___aeabi_dcmpeq+0x6>

10002298 <__wrap___aeabi_dcmpeq>:
10002298:	fe10 f430 	dcp_pcmp APSR_nzcv
1000229c:	d4f8      	bmi.n	10002290 <__wrap___aeabi_dcmpun+0x1c>
1000229e:	ec41 0410 	dcp_wxup r0, r1
100022a2:	ec43 2411 	dcp_wyup r2, r3
100022a6:	ee00 0401 	dcp_add0
100022aa:	ee10 0430 	dcp_rcmp r0
100022ae:	f3c0 7080 	ubfx	r0, r0, #30, #1
100022b2:	4770      	bx	lr
100022b4:	b500      	push	{lr}
100022b6:	f7ff fee9 	bl	1000208c <generic_save_state>
100022ba:	e002      	b.n	100022c2 <__wrap___aeabi_dcmplt+0x6>

100022bc <__wrap___aeabi_dcmplt>:
100022bc:	fe10 f430 	dcp_pcmp APSR_nzcv
100022c0:	d4f8      	bmi.n	100022b4 <__wrap___aeabi_dcmpeq+0x1c>
100022c2:	ec43 2410 	dcp_wxup r2, r3
100022c6:	ec41 0411 	dcp_wyup r0, r1
100022ca:	ee00 0401 	dcp_add0
100022ce:	ee10 f430 	dcp_rcmp APSR_nzcv
100022d2:	bf8c      	ite	hi
100022d4:	2001      	movhi	r0, #1
100022d6:	2000      	movls	r0, #0
100022d8:	4770      	bx	lr
100022da:	bf00      	nop
100022dc:	b500      	push	{lr}
100022de:	f7ff fed5 	bl	1000208c <generic_save_state>
100022e2:	e002      	b.n	100022ea <__wrap___aeabi_dcmple+0x6>

100022e4 <__wrap___aeabi_dcmple>:
100022e4:	fe10 f430 	dcp_pcmp APSR_nzcv
100022e8:	d4f8      	bmi.n	100022dc <__wrap___aeabi_dcmplt+0x20>
100022ea:	ec43 2410 	dcp_wxup r2, r3
100022ee:	ec41 0411 	dcp_wyup r0, r1
100022f2:	ee00 0401 	dcp_add0
100022f6:	ee10 f430 	dcp_rcmp APSR_nzcv
100022fa:	bf2c      	ite	cs
100022fc:	2001      	movcs	r0, #1
100022fe:	2000      	movcc	r0, #0
10002300:	4770      	bx	lr
10002302:	bf00      	nop
10002304:	b500      	push	{lr}
10002306:	f7ff fec1 	bl	1000208c <generic_save_state>
1000230a:	e002      	b.n	10002312 <__wrap___aeabi_dcmpgt+0x6>

1000230c <__wrap___aeabi_dcmpgt>:
1000230c:	fe10 f430 	dcp_pcmp APSR_nzcv
10002310:	d4f8      	bmi.n	10002304 <__wrap___aeabi_dcmple+0x20>
10002312:	ec41 0410 	dcp_wxup r0, r1
10002316:	ec43 2411 	dcp_wyup r2, r3
1000231a:	ee00 0401 	dcp_add0
1000231e:	ee10 f430 	dcp_rcmp APSR_nzcv
10002322:	bf8c      	ite	hi
10002324:	2001      	movhi	r0, #1
10002326:	2000      	movls	r0, #0
10002328:	4770      	bx	lr
1000232a:	bf00      	nop

1000232c <_exit>:
1000232c:	be00      	bkpt	0x0000
1000232e:	e7fd      	b.n	1000232c <_exit>

10002330 <_sbrk>:
10002330:	4603      	mov	r3, r0
10002332:	4a09      	ldr	r2, [pc, #36]	@ (10002358 <_sbrk+0x28>)
10002334:	6812      	ldr	r2, [r2, #0]
10002336:	b142      	cbz	r2, 1000234a <_sbrk+0x1a>
10002338:	4a07      	ldr	r2, [pc, #28]	@ (10002358 <_sbrk+0x28>)
1000233a:	6810      	ldr	r0, [r2, #0]
1000233c:	4403      	add	r3, r0
1000233e:	4a07      	ldr	r2, [pc, #28]	@ (1000235c <_sbrk+0x2c>)
10002340:	4293      	cmp	r3, r2
10002342:	d806      	bhi.n	10002352 <_sbrk+0x22>
10002344:	4a04      	ldr	r2, [pc, #16]	@ (10002358 <_sbrk+0x28>)
10002346:	6013      	str	r3, [r2, #0]
10002348:	4770      	bx	lr
1000234a:	4a03      	ldr	r2, [pc, #12]	@ (10002358 <_sbrk+0x28>)
1000234c:	4904      	ldr	r1, [pc, #16]	@ (10002360 <_sbrk+0x30>)
1000234e:	6011      	str	r1, [r2, #0]
10002350:	e7f2      	b.n	10002338 <_sbrk+0x8>
10002352:	f04f 30ff 	mov.w	r0, #4294967295
10002356:	4770      	bx	lr
10002358:	200010b0 	.word	0x200010b0
1000235c:	20080000 	.word	0x20080000
10002360:	200010fc 	.word	0x200010fc

10002364 <_read>:
10002364:	b508      	push	{r3, lr}
10002366:	b938      	cbnz	r0, 10002378 <_read+0x14>
10002368:	4608      	mov	r0, r1
1000236a:	4611      	mov	r1, r2
1000236c:	4b04      	ldr	r3, [pc, #16]	@ (10002380 <_read+0x1c>)
1000236e:	e9d3 2300 	ldrd	r2, r3, [r3]
10002372:	f000 f905 	bl	10002580 <stdio_get_until>
10002376:	bd08      	pop	{r3, pc}
10002378:	f04f 30ff 	mov.w	r0, #4294967295
1000237c:	e7fb      	b.n	10002376 <_read+0x12>
1000237e:	bf00      	nop
10002380:	10008488 	.word	0x10008488

10002384 <_write>:
10002384:	1e43      	subs	r3, r0, #1
10002386:	2b01      	cmp	r3, #1
10002388:	d809      	bhi.n	1000239e <_write+0x1a>
1000238a:	b510      	push	{r4, lr}
1000238c:	4608      	mov	r0, r1
1000238e:	4614      	mov	r4, r2
10002390:	2301      	movs	r3, #1
10002392:	2200      	movs	r2, #0
10002394:	4621      	mov	r1, r4
10002396:	f000 f8ad 	bl	100024f4 <stdio_put_string>
1000239a:	4620      	mov	r0, r4
1000239c:	bd10      	pop	{r4, pc}
1000239e:	f04f 30ff 	mov.w	r0, #4294967295
100023a2:	4770      	bx	lr

100023a4 <_close>:
100023a4:	f04f 30ff 	mov.w	r0, #4294967295
100023a8:	4770      	bx	lr

100023aa <_lseek>:
100023aa:	f04f 30ff 	mov.w	r0, #4294967295
100023ae:	4770      	bx	lr

100023b0 <_fstat>:
100023b0:	f04f 30ff 	mov.w	r0, #4294967295
100023b4:	4770      	bx	lr

100023b6 <_isatty>:
100023b6:	2802      	cmp	r0, #2
100023b8:	bf8c      	ite	hi
100023ba:	2000      	movhi	r0, #0
100023bc:	2001      	movls	r0, #1
100023be:	4770      	bx	lr

100023c0 <exit>:
100023c0:	b508      	push	{r3, lr}
100023c2:	f7ff ffb3 	bl	1000232c <_exit>
	...

100023c8 <__assert_func>:
100023c8:	b500      	push	{lr}
100023ca:	b083      	sub	sp, #12
100023cc:	468c      	mov	ip, r1
100023ce:	4619      	mov	r1, r3
100023d0:	b15a      	cbz	r2, 100023ea <__assert_func+0x22>
100023d2:	4614      	mov	r4, r2
100023d4:	4b06      	ldr	r3, [pc, #24]	@ (100023f0 <__assert_func+0x28>)
100023d6:	9401      	str	r4, [sp, #4]
100023d8:	9300      	str	r3, [sp, #0]
100023da:	4663      	mov	r3, ip
100023dc:	4602      	mov	r2, r0
100023de:	4805      	ldr	r0, [pc, #20]	@ (100023f4 <__assert_func+0x2c>)
100023e0:	f000 f94b 	bl	1000267a <__wrap_printf>
100023e4:	2001      	movs	r0, #1
100023e6:	f7ff ffa1 	bl	1000232c <_exit>
100023ea:	4b03      	ldr	r3, [pc, #12]	@ (100023f8 <__assert_func+0x30>)
100023ec:	461c      	mov	r4, r3
100023ee:	e7f2      	b.n	100023d6 <__assert_func+0xe>
100023f0:	10008124 	.word	0x10008124
100023f4:	10008134 	.word	0x10008134
100023f8:	10007c00 	.word	0x10007c00

100023fc <runtime_init>:
100023fc:	b510      	push	{r4, lr}
100023fe:	f3ef 8305 	mrs	r3, IPSR
10002402:	b2db      	uxtb	r3, r3
10002404:	b103      	cbz	r3, 10002408 <runtime_init+0xc>
10002406:	be00      	bkpt	0x0000
10002408:	f7ff fd58 	bl	10001ebc <runtime_run_initializers>
1000240c:	4c04      	ldr	r4, [pc, #16]	@ (10002420 <runtime_init+0x24>)
1000240e:	e002      	b.n	10002416 <runtime_init+0x1a>
10002410:	f854 3b04 	ldr.w	r3, [r4], #4
10002414:	4798      	blx	r3
10002416:	4b03      	ldr	r3, [pc, #12]	@ (10002424 <runtime_init+0x28>)
10002418:	429c      	cmp	r4, r3
1000241a:	d3f9      	bcc.n	10002410 <runtime_init+0x14>
1000241c:	bd10      	pop	{r4, pc}
1000241e:	bf00      	nop
10002420:	10007b00 	.word	0x10007b00
10002424:	10007b04 	.word	0x10007b04

10002428 <stdio_out_chars_no_crlf>:
10002428:	b508      	push	{r3, lr}
1000242a:	4603      	mov	r3, r0
1000242c:	4608      	mov	r0, r1
1000242e:	681b      	ldr	r3, [r3, #0]
10002430:	4611      	mov	r1, r2
10002432:	4798      	blx	r3
10002434:	bd08      	pop	{r3, pc}
	...

10002438 <stdio_out_chars_crlf>:
10002438:	b5f8      	push	{r3, r4, r5, r6, r7, lr}
1000243a:	4607      	mov	r7, r0
1000243c:	460d      	mov	r5, r1
1000243e:	4616      	mov	r6, r2
10002440:	7d43      	ldrb	r3, [r0, #21]
10002442:	b113      	cbz	r3, 1000244a <stdio_out_chars_crlf+0x12>
10002444:	2400      	movs	r4, #0
10002446:	4620      	mov	r0, r4
10002448:	e00c      	b.n	10002464 <stdio_out_chars_crlf+0x2c>
1000244a:	6803      	ldr	r3, [r0, #0]
1000244c:	4611      	mov	r1, r2
1000244e:	4628      	mov	r0, r5
10002450:	4798      	blx	r3
10002452:	e02e      	b.n	100024b2 <stdio_out_chars_crlf+0x7a>
10002454:	7d3b      	ldrb	r3, [r7, #20]
10002456:	e010      	b.n	1000247a <stdio_out_chars_crlf+0x42>
10002458:	683b      	ldr	r3, [r7, #0]
1000245a:	2102      	movs	r1, #2
1000245c:	4815      	ldr	r0, [pc, #84]	@ (100024b4 <stdio_out_chars_crlf+0x7c>)
1000245e:	4798      	blx	r3
10002460:	1c60      	adds	r0, r4, #1
10002462:	3401      	adds	r4, #1
10002464:	42b4      	cmp	r4, r6
10002466:	da14      	bge.n	10002492 <stdio_out_chars_crlf+0x5a>
10002468:	2c00      	cmp	r4, #0
1000246a:	ddf3      	ble.n	10002454 <stdio_out_chars_crlf+0x1c>
1000246c:	192b      	adds	r3, r5, r4
1000246e:	f813 3c01 	ldrb.w	r3, [r3, #-1]
10002472:	2b0d      	cmp	r3, #13
10002474:	bf14      	ite	ne
10002476:	2300      	movne	r3, #0
10002478:	2301      	moveq	r3, #1
1000247a:	5d2a      	ldrb	r2, [r5, r4]
1000247c:	2a0a      	cmp	r2, #10
1000247e:	d1f0      	bne.n	10002462 <stdio_out_chars_crlf+0x2a>
10002480:	2b00      	cmp	r3, #0
10002482:	d1ee      	bne.n	10002462 <stdio_out_chars_crlf+0x2a>
10002484:	42a0      	cmp	r0, r4
10002486:	dae7      	bge.n	10002458 <stdio_out_chars_crlf+0x20>
10002488:	683b      	ldr	r3, [r7, #0]
1000248a:	1a21      	subs	r1, r4, r0
1000248c:	4428      	add	r0, r5
1000248e:	4798      	blx	r3
10002490:	e7e2      	b.n	10002458 <stdio_out_chars_crlf+0x20>
10002492:	42b0      	cmp	r0, r6
10002494:	da03      	bge.n	1000249e <stdio_out_chars_crlf+0x66>
10002496:	683b      	ldr	r3, [r7, #0]
10002498:	1a31      	subs	r1, r6, r0
1000249a:	4428      	add	r0, r5
1000249c:	4798      	blx	r3
1000249e:	2e00      	cmp	r6, #0
100024a0:	dd07      	ble.n	100024b2 <stdio_out_chars_crlf+0x7a>
100024a2:	4435      	add	r5, r6
100024a4:	f815 3c01 	ldrb.w	r3, [r5, #-1]
100024a8:	2b0d      	cmp	r3, #13
100024aa:	bf14      	ite	ne
100024ac:	2300      	movne	r3, #0
100024ae:	2301      	moveq	r3, #1
100024b0:	753b      	strb	r3, [r7, #20]
100024b2:	bdf8      	pop	{r3, r4, r5, r6, r7, pc}
100024b4:	100084fc 	.word	0x100084fc

100024b8 <stdout_serialize_begin>:
100024b8:	b508      	push	{r3, lr}
100024ba:	f7ff faf1 	bl	10001aa0 <time_us_64>
100024be:	4a07      	ldr	r2, [pc, #28]	@ (100024dc <stdout_serialize_begin+0x24>)
100024c0:	1882      	adds	r2, r0, r2
100024c2:	f141 0300 	adc.w	r3, r1, #0
100024c6:	2b00      	cmp	r3, #0
100024c8:	db03      	blt.n	100024d2 <stdout_serialize_begin+0x1a>
100024ca:	4805      	ldr	r0, [pc, #20]	@ (100024e0 <stdout_serialize_begin+0x28>)
100024cc:	f005 faf4 	bl	10007ab8 <__mutex_try_enter_block_until_veneer>
100024d0:	bd08      	pop	{r3, pc}
100024d2:	f04f 32ff 	mov.w	r2, #4294967295
100024d6:	f06f 4300 	mvn.w	r3, #2147483648	@ 0x80000000
100024da:	e7f6      	b.n	100024ca <stdout_serialize_begin+0x12>
100024dc:	000f4240 	.word	0x000f4240
100024e0:	20000d50 	.word	0x20000d50

100024e4 <stdout_serialize_end>:
100024e4:	b508      	push	{r3, lr}
100024e6:	4802      	ldr	r0, [pc, #8]	@ (100024f0 <stdout_serialize_end+0xc>)
100024e8:	f005 fae2 	bl	10007ab0 <__mutex_exit_veneer>
100024ec:	bd08      	pop	{r3, pc}
100024ee:	bf00      	nop
100024f0:	20000d50 	.word	0x20000d50

100024f4 <stdio_put_string>:
100024f4:	e92d 43f0 	stmdb	sp!, {r4, r5, r6, r7, r8, r9, lr}
100024f8:	b083      	sub	sp, #12
100024fa:	4606      	mov	r6, r0
100024fc:	460d      	mov	r5, r1
100024fe:	4690      	mov	r8, r2
10002500:	461c      	mov	r4, r3
10002502:	f7ff ffd9 	bl	100024b8 <stdout_serialize_begin>
10002506:	4681      	mov	r9, r0
10002508:	f1b5 3fff 	cmp.w	r5, #4294967295
1000250c:	d004      	beq.n	10002518 <stdio_put_string+0x24>
1000250e:	b144      	cbz	r4, 10002522 <stdio_put_string+0x2e>
10002510:	4f17      	ldr	r7, [pc, #92]	@ (10002570 <stdio_put_string+0x7c>)
10002512:	4b18      	ldr	r3, [pc, #96]	@ (10002574 <stdio_put_string+0x80>)
10002514:	681c      	ldr	r4, [r3, #0]
10002516:	e007      	b.n	10002528 <stdio_put_string+0x34>
10002518:	4630      	mov	r0, r6
1000251a:	f001 f80d 	bl	10003538 <strlen>
1000251e:	4605      	mov	r5, r0
10002520:	e7f5      	b.n	1000250e <stdio_put_string+0x1a>
10002522:	4f15      	ldr	r7, [pc, #84]	@ (10002578 <stdio_put_string+0x84>)
10002524:	e7f5      	b.n	10002512 <stdio_put_string+0x1e>
10002526:	6924      	ldr	r4, [r4, #16]
10002528:	b1bc      	cbz	r4, 1000255a <stdio_put_string+0x66>
1000252a:	6823      	ldr	r3, [r4, #0]
1000252c:	2b00      	cmp	r3, #0
1000252e:	d0fa      	beq.n	10002526 <stdio_put_string+0x32>
10002530:	4b12      	ldr	r3, [pc, #72]	@ (1000257c <stdio_put_string+0x88>)
10002532:	681b      	ldr	r3, [r3, #0]
10002534:	b10b      	cbz	r3, 1000253a <stdio_put_string+0x46>
10002536:	42a3      	cmp	r3, r4
10002538:	d1f5      	bne.n	10002526 <stdio_put_string+0x32>
1000253a:	462a      	mov	r2, r5
1000253c:	4631      	mov	r1, r6
1000253e:	4620      	mov	r0, r4
10002540:	47b8      	blx	r7
10002542:	f1b8 0f00 	cmp.w	r8, #0
10002546:	d0ee      	beq.n	10002526 <stdio_put_string+0x32>
10002548:	230a      	movs	r3, #10
1000254a:	f88d 3007 	strb.w	r3, [sp, #7]
1000254e:	2201      	movs	r2, #1
10002550:	f10d 0107 	add.w	r1, sp, #7
10002554:	4620      	mov	r0, r4
10002556:	47b8      	blx	r7
10002558:	e7e5      	b.n	10002526 <stdio_put_string+0x32>
1000255a:	f1b9 0f00 	cmp.w	r9, #0
1000255e:	d103      	bne.n	10002568 <stdio_put_string+0x74>
10002560:	4628      	mov	r0, r5
10002562:	b003      	add	sp, #12
10002564:	e8bd 83f0 	ldmia.w	sp!, {r4, r5, r6, r7, r8, r9, pc}
10002568:	f7ff ffbc 	bl	100024e4 <stdout_serialize_end>
1000256c:	e7f8      	b.n	10002560 <stdio_put_string+0x6c>
1000256e:	bf00      	nop
10002570:	10002439 	.word	0x10002439
10002574:	200010a4 	.word	0x200010a4
10002578:	10002429 	.word	0x10002429
1000257c:	200010ac 	.word	0x200010ac

10002580 <stdio_get_until>:
10002580:	e92d 43f8 	stmdb	sp!, {r3, r4, r5, r6, r7, r8, r9, lr}
10002584:	4607      	mov	r7, r0
10002586:	460e      	mov	r6, r1
10002588:	4691      	mov	r9, r2
1000258a:	4698      	mov	r8, r3
1000258c:	4b14      	ldr	r3, [pc, #80]	@ (100025e0 <stdio_get_until+0x60>)
1000258e:	681c      	ldr	r4, [r3, #0]
10002590:	e007      	b.n	100025a2 <stdio_get_until+0x22>
10002592:	68a3      	ldr	r3, [r4, #8]
10002594:	b123      	cbz	r3, 100025a0 <stdio_get_until+0x20>
10002596:	4631      	mov	r1, r6
10002598:	4638      	mov	r0, r7
1000259a:	4798      	blx	r3
1000259c:	2800      	cmp	r0, #0
1000259e:	dc1c      	bgt.n	100025da <stdio_get_until+0x5a>
100025a0:	6924      	ldr	r4, [r4, #16]
100025a2:	b134      	cbz	r4, 100025b2 <stdio_get_until+0x32>
100025a4:	4d0f      	ldr	r5, [pc, #60]	@ (100025e4 <stdio_get_until+0x64>)
100025a6:	682d      	ldr	r5, [r5, #0]
100025a8:	2d00      	cmp	r5, #0
100025aa:	d0f2      	beq.n	10002592 <stdio_get_until+0x12>
100025ac:	42a5      	cmp	r5, r4
100025ae:	d1f7      	bne.n	100025a0 <stdio_get_until+0x20>
100025b0:	e7ef      	b.n	10002592 <stdio_get_until+0x12>
100025b2:	4b0d      	ldr	r3, [pc, #52]	@ (100025e8 <stdio_get_until+0x68>)
100025b4:	6a5b      	ldr	r3, [r3, #36]	@ 0x24
100025b6:	4598      	cmp	r8, r3
100025b8:	d808      	bhi.n	100025cc <stdio_get_until+0x4c>
100025ba:	4a0b      	ldr	r2, [pc, #44]	@ (100025e8 <stdio_get_until+0x68>)
100025bc:	6a92      	ldr	r2, [r2, #40]	@ 0x28
100025be:	454a      	cmp	r2, r9
100025c0:	d209      	bcs.n	100025d6 <stdio_get_until+0x56>
100025c2:	4598      	cmp	r8, r3
100025c4:	d002      	beq.n	100025cc <stdio_get_until+0x4c>
100025c6:	f06f 0001 	mvn.w	r0, #1
100025ca:	e006      	b.n	100025da <stdio_get_until+0x5a>
100025cc:	2001      	movs	r0, #1
100025ce:	2100      	movs	r1, #0
100025d0:	f7ff fa6e 	bl	10001ab0 <busy_wait_us>
100025d4:	e7da      	b.n	1000258c <stdio_get_until+0xc>
100025d6:	f06f 0001 	mvn.w	r0, #1
100025da:	e8bd 83f8 	ldmia.w	sp!, {r3, r4, r5, r6, r7, r8, r9, pc}
100025de:	bf00      	nop
100025e0:	200010a4 	.word	0x200010a4
100025e4:	200010ac 	.word	0x200010ac
100025e8:	400b0000 	.word	0x400b0000

100025ec <stdio_set_driver_enabled>:
100025ec:	4a08      	ldr	r2, [pc, #32]	@ (10002610 <stdio_set_driver_enabled+0x24>)
100025ee:	e001      	b.n	100025f4 <stdio_set_driver_enabled+0x8>
100025f0:	f103 0210 	add.w	r2, r3, #16
100025f4:	6813      	ldr	r3, [r2, #0]
100025f6:	b13b      	cbz	r3, 10002608 <stdio_set_driver_enabled+0x1c>
100025f8:	4283      	cmp	r3, r0
100025fa:	d1f9      	bne.n	100025f0 <stdio_set_driver_enabled+0x4>
100025fc:	b931      	cbnz	r1, 1000260c <stdio_set_driver_enabled+0x20>
100025fe:	6903      	ldr	r3, [r0, #16]
10002600:	6013      	str	r3, [r2, #0]
10002602:	2300      	movs	r3, #0
10002604:	6103      	str	r3, [r0, #16]
10002606:	4770      	bx	lr
10002608:	b101      	cbz	r1, 1000260c <stdio_set_driver_enabled+0x20>
1000260a:	6010      	str	r0, [r2, #0]
1000260c:	4770      	bx	lr
1000260e:	bf00      	nop
10002610:	200010a4 	.word	0x200010a4

10002614 <stdio_flush>:
10002614:	b510      	push	{r4, lr}
10002616:	4b05      	ldr	r3, [pc, #20]	@ (1000262c <stdio_flush+0x18>)
10002618:	681c      	ldr	r4, [r3, #0]
1000261a:	e001      	b.n	10002620 <stdio_flush+0xc>
1000261c:	4798      	blx	r3
1000261e:	6924      	ldr	r4, [r4, #16]
10002620:	b11c      	cbz	r4, 1000262a <stdio_flush+0x16>
10002622:	6863      	ldr	r3, [r4, #4]
10002624:	2b00      	cmp	r3, #0
10002626:	d1f9      	bne.n	1000261c <stdio_flush+0x8>
10002628:	e7f9      	b.n	1000261e <stdio_flush+0xa>
1000262a:	bd10      	pop	{r4, pc}
1000262c:	200010a4 	.word	0x200010a4

10002630 <stdio_init_all>:
10002630:	b508      	push	{r3, lr}
10002632:	f000 f941 	bl	100028b8 <stdio_uart_init>
10002636:	2001      	movs	r0, #1
10002638:	bd08      	pop	{r3, pc}

1000263a <__wrap_puts>:
1000263a:	b538      	push	{r3, r4, r5, lr}
1000263c:	4605      	mov	r5, r0
1000263e:	f000 ff7b 	bl	10003538 <strlen>
10002642:	4604      	mov	r4, r0
10002644:	2301      	movs	r3, #1
10002646:	461a      	mov	r2, r3
10002648:	4601      	mov	r1, r0
1000264a:	4628      	mov	r0, r5
1000264c:	f7ff ff52 	bl	100024f4 <stdio_put_string>
10002650:	f7ff ffe0 	bl	10002614 <stdio_flush>
10002654:	4620      	mov	r0, r4
10002656:	bd38      	pop	{r3, r4, r5, pc}

10002658 <__wrap_vprintf>:
10002658:	b570      	push	{r4, r5, r6, lr}
1000265a:	4604      	mov	r4, r0
1000265c:	460e      	mov	r6, r1
1000265e:	f7ff ff2b 	bl	100024b8 <stdout_serialize_begin>
10002662:	4605      	mov	r5, r0
10002664:	4631      	mov	r1, r6
10002666:	4620      	mov	r0, r4
10002668:	f000 fde4 	bl	10003234 <vprintf>
1000266c:	4604      	mov	r4, r0
1000266e:	b90d      	cbnz	r5, 10002674 <__wrap_vprintf+0x1c>
10002670:	4620      	mov	r0, r4
10002672:	bd70      	pop	{r4, r5, r6, pc}
10002674:	f7ff ff36 	bl	100024e4 <stdout_serialize_end>
10002678:	e7fa      	b.n	10002670 <__wrap_vprintf+0x18>

1000267a <__wrap_printf>:
1000267a:	b40f      	push	{r0, r1, r2, r3}
1000267c:	b500      	push	{lr}
1000267e:	b083      	sub	sp, #12
10002680:	a904      	add	r1, sp, #16
10002682:	f851 0b04 	ldr.w	r0, [r1], #4
10002686:	9101      	str	r1, [sp, #4]
10002688:	f7ff ffe6 	bl	10002658 <__wrap_vprintf>
1000268c:	b003      	add	sp, #12
1000268e:	f85d eb04 	ldr.w	lr, [sp], #4
10002692:	b004      	add	sp, #16
10002694:	4770      	bx	lr
	...

10002698 <uart_putc>:
10002698:	b082      	sub	sp, #8
1000269a:	468c      	mov	ip, r1
1000269c:	4b18      	ldr	r3, [pc, #96]	@ (10002700 <uart_putc+0x68>)
1000269e:	4298      	cmp	r0, r3
100026a0:	bf14      	ite	ne
100026a2:	2300      	movne	r3, #0
100026a4:	2301      	moveq	r3, #1
100026a6:	4a17      	ldr	r2, [pc, #92]	@ (10002704 <uart_putc+0x6c>)
100026a8:	f932 3013 	ldrsh.w	r3, [r2, r3, lsl #1]
100026ac:	428b      	cmp	r3, r1
100026ae:	d005      	beq.n	100026bc <uart_putc+0x24>
100026b0:	f88d c007 	strb.w	ip, [sp, #7]
100026b4:	2100      	movs	r1, #0
100026b6:	f10d 0207 	add.w	r2, sp, #7
100026ba:	e01c      	b.n	100026f6 <uart_putc+0x5e>
100026bc:	230d      	movs	r3, #13
100026be:	f88d 3007 	strb.w	r3, [sp, #7]
100026c2:	2100      	movs	r1, #0
100026c4:	f10d 0207 	add.w	r2, sp, #7
100026c8:	2900      	cmp	r1, #0
100026ca:	d1f1      	bne.n	100026b0 <uart_putc+0x18>
100026cc:	6983      	ldr	r3, [r0, #24]
100026ce:	f013 0f20 	tst.w	r3, #32
100026d2:	d1fb      	bne.n	100026cc <uart_putc+0x34>
100026d4:	4613      	mov	r3, r2
100026d6:	f813 2b01 	ldrb.w	r2, [r3], #1
100026da:	6002      	str	r2, [r0, #0]
100026dc:	3101      	adds	r1, #1
100026de:	461a      	mov	r2, r3
100026e0:	e7f2      	b.n	100026c8 <uart_putc+0x30>
100026e2:	6983      	ldr	r3, [r0, #24]
100026e4:	f013 0f20 	tst.w	r3, #32
100026e8:	d1fb      	bne.n	100026e2 <uart_putc+0x4a>
100026ea:	4613      	mov	r3, r2
100026ec:	f813 2b01 	ldrb.w	r2, [r3], #1
100026f0:	6002      	str	r2, [r0, #0]
100026f2:	3101      	adds	r1, #1
100026f4:	461a      	mov	r2, r3
100026f6:	2900      	cmp	r1, #0
100026f8:	d0f3      	beq.n	100026e2 <uart_putc+0x4a>
100026fa:	b002      	add	sp, #8
100026fc:	4770      	bx	lr
100026fe:	bf00      	nop
10002700:	40078000 	.word	0x40078000
10002704:	200010f0 	.word	0x200010f0

10002708 <uart_getc>:
10002708:	b410      	push	{r4}
1000270a:	b083      	sub	sp, #12
1000270c:	2100      	movs	r1, #0
1000270e:	f10d 0207 	add.w	r2, sp, #7
10002712:	e009      	b.n	10002728 <uart_getc+0x20>
10002714:	6983      	ldr	r3, [r0, #24]
10002716:	f013 0f10 	tst.w	r3, #16
1000271a:	d1fb      	bne.n	10002714 <uart_getc+0xc>
1000271c:	6804      	ldr	r4, [r0, #0]
1000271e:	4613      	mov	r3, r2
10002720:	f803 4b01 	strb.w	r4, [r3], #1
10002724:	3101      	adds	r1, #1
10002726:	461a      	mov	r2, r3
10002728:	2900      	cmp	r1, #0
1000272a:	d0f3      	beq.n	10002714 <uart_getc+0xc>
1000272c:	f89d 0007 	ldrb.w	r0, [sp, #7]
10002730:	b003      	add	sp, #12
10002732:	f85d 4b04 	ldr.w	r4, [sp], #4
10002736:	4770      	bx	lr

10002738 <stdio_uart_out_chars>:
10002738:	b570      	push	{r4, r5, r6, lr}
1000273a:	4606      	mov	r6, r0
1000273c:	460d      	mov	r5, r1
1000273e:	2400      	movs	r4, #0
10002740:	e005      	b.n	1000274e <stdio_uart_out_chars+0x16>
10002742:	5d31      	ldrb	r1, [r6, r4]
10002744:	4b03      	ldr	r3, [pc, #12]	@ (10002754 <stdio_uart_out_chars+0x1c>)
10002746:	6818      	ldr	r0, [r3, #0]
10002748:	f7ff ffa6 	bl	10002698 <uart_putc>
1000274c:	3401      	adds	r4, #1
1000274e:	42ac      	cmp	r4, r5
10002750:	dbf7      	blt.n	10002742 <stdio_uart_out_chars+0xa>
10002752:	bd70      	pop	{r4, r5, r6, pc}
10002754:	200010f4 	.word	0x200010f4

10002758 <stdio_uart_in_chars>:
10002758:	b5f8      	push	{r3, r4, r5, r6, r7, lr}
1000275a:	4607      	mov	r7, r0
1000275c:	460e      	mov	r6, r1
1000275e:	2400      	movs	r4, #0
10002760:	e004      	b.n	1000276c <stdio_uart_in_chars+0x14>
10002762:	1c65      	adds	r5, r4, #1
10002764:	f7ff ffd0 	bl	10002708 <uart_getc>
10002768:	5538      	strb	r0, [r7, r4]
1000276a:	462c      	mov	r4, r5
1000276c:	42b4      	cmp	r4, r6
1000276e:	da05      	bge.n	1000277c <stdio_uart_in_chars+0x24>
10002770:	4b0c      	ldr	r3, [pc, #48]	@ (100027a4 <stdio_uart_in_chars+0x4c>)
10002772:	6818      	ldr	r0, [r3, #0]
10002774:	6983      	ldr	r3, [r0, #24]
10002776:	f013 0f10 	tst.w	r3, #16
1000277a:	d0f2      	beq.n	10002762 <stdio_uart_in_chars+0xa>
1000277c:	4b0a      	ldr	r3, [pc, #40]	@ (100027a8 <stdio_uart_in_chars+0x50>)
1000277e:	681b      	ldr	r3, [r3, #0]
10002780:	b14b      	cbz	r3, 10002796 <stdio_uart_in_chars+0x3e>
10002782:	4b08      	ldr	r3, [pc, #32]	@ (100027a4 <stdio_uart_in_chars+0x4c>)
10002784:	681b      	ldr	r3, [r3, #0]
10002786:	2250      	movs	r2, #80	@ 0x50
10002788:	639a      	str	r2, [r3, #56]	@ 0x38
1000278a:	6b5a      	ldr	r2, [r3, #52]	@ 0x34
1000278c:	f002 0238 	and.w	r2, r2, #56	@ 0x38
10002790:	f503 5381 	add.w	r3, r3, #4128	@ 0x1020
10002794:	615a      	str	r2, [r3, #20]
10002796:	b10c      	cbz	r4, 1000279c <stdio_uart_in_chars+0x44>
10002798:	4620      	mov	r0, r4
1000279a:	bdf8      	pop	{r3, r4, r5, r6, r7, pc}
1000279c:	f06f 0402 	mvn.w	r4, #2
100027a0:	e7fa      	b.n	10002798 <stdio_uart_in_chars+0x40>
100027a2:	bf00      	nop
100027a4:	200010f4 	.word	0x200010f4
100027a8:	20001070 	.word	0x20001070

100027ac <on_uart_rx>:
100027ac:	b508      	push	{r3, lr}
100027ae:	4b05      	ldr	r3, [pc, #20]	@ (100027c4 <on_uart_rx+0x18>)
100027b0:	681b      	ldr	r3, [r3, #0]
100027b2:	b133      	cbz	r3, 100027c2 <on_uart_rx+0x16>
100027b4:	4a04      	ldr	r2, [pc, #16]	@ (100027c8 <on_uart_rx+0x1c>)
100027b6:	6812      	ldr	r2, [r2, #0]
100027b8:	2100      	movs	r1, #0
100027ba:	6391      	str	r1, [r2, #56]	@ 0x38
100027bc:	4a03      	ldr	r2, [pc, #12]	@ (100027cc <on_uart_rx+0x20>)
100027be:	6810      	ldr	r0, [r2, #0]
100027c0:	4798      	blx	r3
100027c2:	bd08      	pop	{r3, pc}
100027c4:	20001070 	.word	0x20001070
100027c8:	200010f4 	.word	0x200010f4
100027cc:	20001074 	.word	0x20001074

100027d0 <stdio_uart_out_flush>:
100027d0:	4b03      	ldr	r3, [pc, #12]	@ (100027e0 <stdio_uart_out_flush+0x10>)
100027d2:	681a      	ldr	r2, [r3, #0]
100027d4:	6993      	ldr	r3, [r2, #24]
100027d6:	f013 0f08 	tst.w	r3, #8
100027da:	d1fb      	bne.n	100027d4 <stdio_uart_out_flush+0x4>
100027dc:	4770      	bx	lr
100027de:	bf00      	nop
100027e0:	200010f4 	.word	0x200010f4

100027e4 <stdio_uart_set_chars_available_callback>:
100027e4:	b538      	push	{r3, r4, r5, lr}
100027e6:	4b1b      	ldr	r3, [pc, #108]	@ (10002854 <stdio_uart_set_chars_available_callback+0x70>)
100027e8:	681b      	ldr	r3, [r3, #0]
100027ea:	4a1b      	ldr	r2, [pc, #108]	@ (10002858 <stdio_uart_set_chars_available_callback+0x74>)
100027ec:	4293      	cmp	r3, r2
100027ee:	d005      	beq.n	100027fc <stdio_uart_set_chars_available_callback+0x18>
100027f0:	2421      	movs	r4, #33	@ 0x21
100027f2:	b1e0      	cbz	r0, 1000282e <stdio_uart_set_chars_available_callback+0x4a>
100027f4:	4b19      	ldr	r3, [pc, #100]	@ (1000285c <stdio_uart_set_chars_available_callback+0x78>)
100027f6:	681b      	ldr	r3, [r3, #0]
100027f8:	b113      	cbz	r3, 10002800 <stdio_uart_set_chars_available_callback+0x1c>
100027fa:	bd38      	pop	{r3, r4, r5, pc}
100027fc:	2422      	movs	r4, #34	@ 0x22
100027fe:	e7f8      	b.n	100027f2 <stdio_uart_set_chars_available_callback+0xe>
10002800:	4b16      	ldr	r3, [pc, #88]	@ (1000285c <stdio_uart_set_chars_available_callback+0x78>)
10002802:	6018      	str	r0, [r3, #0]
10002804:	4b16      	ldr	r3, [pc, #88]	@ (10002860 <stdio_uart_set_chars_available_callback+0x7c>)
10002806:	6019      	str	r1, [r3, #0]
10002808:	4916      	ldr	r1, [pc, #88]	@ (10002864 <stdio_uart_set_chars_available_callback+0x80>)
1000280a:	4620      	mov	r0, r4
1000280c:	f7fe fbdc 	bl	10000fc8 <irq_set_exclusive_handler>
10002810:	2101      	movs	r1, #1
10002812:	4620      	mov	r0, r4
10002814:	f7fe fbc6 	bl	10000fa4 <irq_set_enabled>
10002818:	4b0e      	ldr	r3, [pc, #56]	@ (10002854 <stdio_uart_set_chars_available_callback+0x70>)
1000281a:	681b      	ldr	r3, [r3, #0]
1000281c:	2250      	movs	r2, #80	@ 0x50
1000281e:	639a      	str	r2, [r3, #56]	@ 0x38
10002820:	6b5a      	ldr	r2, [r3, #52]	@ 0x34
10002822:	f002 0238 	and.w	r2, r2, #56	@ 0x38
10002826:	f503 5381 	add.w	r3, r3, #4128	@ 0x1020
1000282a:	615a      	str	r2, [r3, #20]
1000282c:	e7e5      	b.n	100027fa <stdio_uart_set_chars_available_callback+0x16>
1000282e:	4a0b      	ldr	r2, [pc, #44]	@ (1000285c <stdio_uart_set_chars_available_callback+0x78>)
10002830:	6812      	ldr	r2, [r2, #0]
10002832:	2a00      	cmp	r2, #0
10002834:	d0e1      	beq.n	100027fa <stdio_uart_set_chars_available_callback+0x16>
10002836:	2500      	movs	r5, #0
10002838:	639d      	str	r5, [r3, #56]	@ 0x38
1000283a:	4629      	mov	r1, r5
1000283c:	4620      	mov	r0, r4
1000283e:	f7fe fbb1 	bl	10000fa4 <irq_set_enabled>
10002842:	4908      	ldr	r1, [pc, #32]	@ (10002864 <stdio_uart_set_chars_available_callback+0x80>)
10002844:	4620      	mov	r0, r4
10002846:	f7fe fbef 	bl	10001028 <irq_remove_handler>
1000284a:	4b04      	ldr	r3, [pc, #16]	@ (1000285c <stdio_uart_set_chars_available_callback+0x78>)
1000284c:	601d      	str	r5, [r3, #0]
1000284e:	4b04      	ldr	r3, [pc, #16]	@ (10002860 <stdio_uart_set_chars_available_callback+0x7c>)
10002850:	601d      	str	r5, [r3, #0]
10002852:	e7d2      	b.n	100027fa <stdio_uart_set_chars_available_callback+0x16>
10002854:	200010f4 	.word	0x200010f4
10002858:	40078000 	.word	0x40078000
1000285c:	20001070 	.word	0x20001070
10002860:	20001074 	.word	0x20001074
10002864:	100027ad 	.word	0x100027ad

10002868 <stdio_uart_init_full>:
10002868:	b538      	push	{r3, r4, r5, lr}
1000286a:	460d      	mov	r5, r1
1000286c:	461c      	mov	r4, r3
1000286e:	4b10      	ldr	r3, [pc, #64]	@ (100028b0 <stdio_uart_init_full+0x48>)
10002870:	6018      	str	r0, [r3, #0]
10002872:	1e10      	subs	r0, r2, #0
10002874:	db05      	blt.n	10002882 <stdio_uart_init_full+0x1a>
10002876:	f010 0f02 	tst.w	r0, #2
1000287a:	d015      	beq.n	100028a8 <stdio_uart_init_full+0x40>
1000287c:	210b      	movs	r1, #11
1000287e:	f7fe fa63 	bl	10000d48 <gpio_set_function>
10002882:	2c00      	cmp	r4, #0
10002884:	db06      	blt.n	10002894 <stdio_uart_init_full+0x2c>
10002886:	f014 0f02 	tst.w	r4, #2
1000288a:	d00f      	beq.n	100028ac <stdio_uart_init_full+0x44>
1000288c:	210b      	movs	r1, #11
1000288e:	4620      	mov	r0, r4
10002890:	f7fe fa5a 	bl	10000d48 <gpio_set_function>
10002894:	4629      	mov	r1, r5
10002896:	4b06      	ldr	r3, [pc, #24]	@ (100028b0 <stdio_uart_init_full+0x48>)
10002898:	6818      	ldr	r0, [r3, #0]
1000289a:	f7ff f993 	bl	10001bc4 <uart_init>
1000289e:	2101      	movs	r1, #1
100028a0:	4804      	ldr	r0, [pc, #16]	@ (100028b4 <stdio_uart_init_full+0x4c>)
100028a2:	f7ff fea3 	bl	100025ec <stdio_set_driver_enabled>
100028a6:	bd38      	pop	{r3, r4, r5, pc}
100028a8:	2102      	movs	r1, #2
100028aa:	e7e8      	b.n	1000287e <stdio_uart_init_full+0x16>
100028ac:	2102      	movs	r1, #2
100028ae:	e7ee      	b.n	1000288e <stdio_uart_init_full+0x26>
100028b0:	200010f4 	.word	0x200010f4
100028b4:	20000664 	.word	0x20000664

100028b8 <stdio_uart_init>:
100028b8:	b508      	push	{r3, lr}
100028ba:	4b07      	ldr	r3, [pc, #28]	@ (100028d8 <stdio_uart_init+0x20>)
100028bc:	781b      	ldrb	r3, [r3, #0]
100028be:	4b07      	ldr	r3, [pc, #28]	@ (100028dc <stdio_uart_init+0x24>)
100028c0:	781b      	ldrb	r3, [r3, #0]
100028c2:	4b07      	ldr	r3, [pc, #28]	@ (100028e0 <stdio_uart_init+0x28>)
100028c4:	781b      	ldrb	r3, [r3, #0]
100028c6:	2301      	movs	r3, #1
100028c8:	2200      	movs	r2, #0
100028ca:	f44f 31e1 	mov.w	r1, #115200	@ 0x1c200
100028ce:	4805      	ldr	r0, [pc, #20]	@ (100028e4 <stdio_uart_init+0x2c>)
100028d0:	f7ff ffca 	bl	10002868 <stdio_uart_init_full>
100028d4:	bd08      	pop	{r3, pc}
100028d6:	bf00      	nop
100028d8:	10008770 	.word	0x10008770
100028dc:	1000876c 	.word	0x1000876c
100028e0:	10008768 	.word	0x10008768
100028e4:	40070000 	.word	0x40070000

100028e8 <_calloc_r>:
100028e8:	b538      	push	{r3, r4, r5, lr}
100028ea:	fba1 1402 	umull	r1, r4, r1, r2
100028ee:	bb34      	cbnz	r4, 1000293e <_calloc_r+0x56>
100028f0:	f000 f832 	bl	10002958 <_malloc_r>
100028f4:	4605      	mov	r5, r0
100028f6:	b330      	cbz	r0, 10002946 <_calloc_r+0x5e>
100028f8:	f850 2c04 	ldr.w	r2, [r0, #-4]
100028fc:	f022 0203 	bic.w	r2, r2, #3
10002900:	3a04      	subs	r2, #4
10002902:	2a24      	cmp	r2, #36	@ 0x24
10002904:	d80c      	bhi.n	10002920 <_calloc_r+0x38>
10002906:	2a13      	cmp	r2, #19
10002908:	d90f      	bls.n	1000292a <_calloc_r+0x42>
1000290a:	2a1b      	cmp	r2, #27
1000290c:	e9c0 4400 	strd	r4, r4, [r0]
10002910:	d912      	bls.n	10002938 <_calloc_r+0x50>
10002912:	2a24      	cmp	r2, #36	@ 0x24
10002914:	e9c0 4402 	strd	r4, r4, [r0, #8]
10002918:	d018      	beq.n	1000294c <_calloc_r+0x64>
1000291a:	f100 0210 	add.w	r2, r0, #16
1000291e:	e005      	b.n	1000292c <_calloc_r+0x44>
10002920:	4621      	mov	r1, r4
10002922:	f000 fd13 	bl	1000334c <memset>
10002926:	4628      	mov	r0, r5
10002928:	bd38      	pop	{r3, r4, r5, pc}
1000292a:	4602      	mov	r2, r0
1000292c:	2300      	movs	r3, #0
1000292e:	4628      	mov	r0, r5
10002930:	e9c2 3300 	strd	r3, r3, [r2]
10002934:	6093      	str	r3, [r2, #8]
10002936:	bd38      	pop	{r3, r4, r5, pc}
10002938:	f100 0208 	add.w	r2, r0, #8
1000293c:	e7f6      	b.n	1000292c <_calloc_r+0x44>
1000293e:	f000 fd69 	bl	10003414 <__errno>
10002942:	230c      	movs	r3, #12
10002944:	6003      	str	r3, [r0, #0]
10002946:	2500      	movs	r5, #0
10002948:	4628      	mov	r0, r5
1000294a:	bd38      	pop	{r3, r4, r5, pc}
1000294c:	f100 0218 	add.w	r2, r0, #24
10002950:	e9c0 4404 	strd	r4, r4, [r0, #16]
10002954:	e7ea      	b.n	1000292c <_calloc_r+0x44>
10002956:	bf00      	nop

10002958 <_malloc_r>:
10002958:	f101 030b 	add.w	r3, r1, #11
1000295c:	2b16      	cmp	r3, #22
1000295e:	e92d 4ff0 	stmdb	sp!, {r4, r5, r6, r7, r8, r9, sl, fp, lr}
10002962:	4607      	mov	r7, r0
10002964:	b083      	sub	sp, #12
10002966:	d823      	bhi.n	100029b0 <_malloc_r+0x58>
10002968:	2910      	cmp	r1, #16
1000296a:	f200 80af 	bhi.w	10002acc <_malloc_r+0x174>
1000296e:	f000 fa9d 	bl	10002eac <__malloc_lock>
10002972:	2510      	movs	r5, #16
10002974:	2318      	movs	r3, #24
10002976:	2002      	movs	r0, #2
10002978:	4ebc      	ldr	r6, [pc, #752]	@ (10002c6c <_malloc_r+0x314>)
1000297a:	4433      	add	r3, r6
1000297c:	685c      	ldr	r4, [r3, #4]
1000297e:	f1a3 0208 	sub.w	r2, r3, #8
10002982:	4294      	cmp	r4, r2
10002984:	f000 8180 	beq.w	10002c88 <_malloc_r+0x330>
10002988:	6863      	ldr	r3, [r4, #4]
1000298a:	4638      	mov	r0, r7
1000298c:	f023 0303 	bic.w	r3, r3, #3
10002990:	e9d4 1202 	ldrd	r1, r2, [r4, #8]
10002994:	4423      	add	r3, r4
10002996:	60ca      	str	r2, [r1, #12]
10002998:	6091      	str	r1, [r2, #8]
1000299a:	685a      	ldr	r2, [r3, #4]
1000299c:	3408      	adds	r4, #8
1000299e:	f042 0201 	orr.w	r2, r2, #1
100029a2:	605a      	str	r2, [r3, #4]
100029a4:	f000 fa88 	bl	10002eb8 <__malloc_unlock>
100029a8:	4620      	mov	r0, r4
100029aa:	b003      	add	sp, #12
100029ac:	e8bd 8ff0 	ldmia.w	sp!, {r4, r5, r6, r7, r8, r9, sl, fp, pc}
100029b0:	2b00      	cmp	r3, #0
100029b2:	f023 0507 	bic.w	r5, r3, #7
100029b6:	f2c0 8089 	blt.w	10002acc <_malloc_r+0x174>
100029ba:	42a9      	cmp	r1, r5
100029bc:	f200 8086 	bhi.w	10002acc <_malloc_r+0x174>
100029c0:	f000 fa74 	bl	10002eac <__malloc_lock>
100029c4:	f5b5 7ffc 	cmp.w	r5, #504	@ 0x1f8
100029c8:	f0c0 81b4 	bcc.w	10002d34 <_malloc_r+0x3dc>
100029cc:	0a6b      	lsrs	r3, r5, #9
100029ce:	f000 8081 	beq.w	10002ad4 <_malloc_r+0x17c>
100029d2:	2b04      	cmp	r3, #4
100029d4:	f200 817e 	bhi.w	10002cd4 <_malloc_r+0x37c>
100029d8:	09ab      	lsrs	r3, r5, #6
100029da:	f103 0039 	add.w	r0, r3, #57	@ 0x39
100029de:	f103 0e38 	add.w	lr, r3, #56	@ 0x38
100029e2:	00c3      	lsls	r3, r0, #3
100029e4:	4ea1      	ldr	r6, [pc, #644]	@ (10002c6c <_malloc_r+0x314>)
100029e6:	4433      	add	r3, r6
100029e8:	f1a3 0c08 	sub.w	ip, r3, #8
100029ec:	685c      	ldr	r4, [r3, #4]
100029ee:	45a4      	cmp	ip, r4
100029f0:	d107      	bne.n	10002a02 <_malloc_r+0xaa>
100029f2:	e00d      	b.n	10002a10 <_malloc_r+0xb8>
100029f4:	2a00      	cmp	r2, #0
100029f6:	68e1      	ldr	r1, [r4, #12]
100029f8:	f280 8132 	bge.w	10002c60 <_malloc_r+0x308>
100029fc:	458c      	cmp	ip, r1
100029fe:	460c      	mov	r4, r1
10002a00:	d006      	beq.n	10002a10 <_malloc_r+0xb8>
10002a02:	6863      	ldr	r3, [r4, #4]
10002a04:	f023 0303 	bic.w	r3, r3, #3
10002a08:	1b5a      	subs	r2, r3, r5
10002a0a:	2a0f      	cmp	r2, #15
10002a0c:	ddf2      	ble.n	100029f4 <_malloc_r+0x9c>
10002a0e:	4670      	mov	r0, lr
10002a10:	f8df 8270 	ldr.w	r8, [pc, #624]	@ 10002c84 <_malloc_r+0x32c>
10002a14:	6934      	ldr	r4, [r6, #16]
10002a16:	4544      	cmp	r4, r8
10002a18:	f000 80e7 	beq.w	10002bea <_malloc_r+0x292>
10002a1c:	6863      	ldr	r3, [r4, #4]
10002a1e:	f023 0c03 	bic.w	ip, r3, #3
10002a22:	ebac 0305 	sub.w	r3, ip, r5
10002a26:	2b0f      	cmp	r3, #15
10002a28:	f300 8194 	bgt.w	10002d54 <_malloc_r+0x3fc>
10002a2c:	2b00      	cmp	r3, #0
10002a2e:	e9c6 8804 	strd	r8, r8, [r6, #16]
10002a32:	f280 8183 	bge.w	10002d3c <_malloc_r+0x3e4>
10002a36:	f5bc 7f00 	cmp.w	ip, #512	@ 0x200
10002a3a:	f8d6 e004 	ldr.w	lr, [r6, #4]
10002a3e:	f080 8129 	bcs.w	10002c94 <_malloc_r+0x33c>
10002a42:	ea4f 03dc 	mov.w	r3, ip, lsr #3
10002a46:	2201      	movs	r2, #1
10002a48:	ea4f 1c5c 	mov.w	ip, ip, lsr #5
10002a4c:	3301      	adds	r3, #1
10002a4e:	fa02 f20c 	lsl.w	r2, r2, ip
10002a52:	f856 1033 	ldr.w	r1, [r6, r3, lsl #3]
10002a56:	ea4e 0e02 	orr.w	lr, lr, r2
10002a5a:	eb06 02c3 	add.w	r2, r6, r3, lsl #3
10002a5e:	3a08      	subs	r2, #8
10002a60:	f8c6 e004 	str.w	lr, [r6, #4]
10002a64:	e9c4 1202 	strd	r1, r2, [r4, #8]
10002a68:	f846 4033 	str.w	r4, [r6, r3, lsl #3]
10002a6c:	60cc      	str	r4, [r1, #12]
10002a6e:	1083      	asrs	r3, r0, #2
10002a70:	f04f 0c01 	mov.w	ip, #1
10002a74:	fa0c fc03 	lsl.w	ip, ip, r3
10002a78:	45f4      	cmp	ip, lr
10002a7a:	d831      	bhi.n	10002ae0 <_malloc_r+0x188>
10002a7c:	ea1c 0f0e 	tst.w	ip, lr
10002a80:	d107      	bne.n	10002a92 <_malloc_r+0x13a>
10002a82:	f020 0003 	bic.w	r0, r0, #3
10002a86:	ea4f 0c4c 	mov.w	ip, ip, lsl #1
10002a8a:	3004      	adds	r0, #4
10002a8c:	ea1c 0f0e 	tst.w	ip, lr
10002a90:	d0f9      	beq.n	10002a86 <_malloc_r+0x12e>
10002a92:	eb06 0ac0 	add.w	sl, r6, r0, lsl #3
10002a96:	4681      	mov	r9, r0
10002a98:	46d6      	mov	lr, sl
10002a9a:	f8de 300c 	ldr.w	r3, [lr, #12]
10002a9e:	e00b      	b.n	10002ab8 <_malloc_r+0x160>
10002aa0:	685a      	ldr	r2, [r3, #4]
10002aa2:	461c      	mov	r4, r3
10002aa4:	68db      	ldr	r3, [r3, #12]
10002aa6:	f022 0203 	bic.w	r2, r2, #3
10002aaa:	1b51      	subs	r1, r2, r5
10002aac:	290f      	cmp	r1, #15
10002aae:	f300 811d 	bgt.w	10002cec <_malloc_r+0x394>
10002ab2:	2900      	cmp	r1, #0
10002ab4:	f280 8131 	bge.w	10002d1a <_malloc_r+0x3c2>
10002ab8:	459e      	cmp	lr, r3
10002aba:	d1f1      	bne.n	10002aa0 <_malloc_r+0x148>
10002abc:	f109 0901 	add.w	r9, r9, #1
10002ac0:	f10e 0e08 	add.w	lr, lr, #8
10002ac4:	f019 0f03 	tst.w	r9, #3
10002ac8:	d1e7      	bne.n	10002a9a <_malloc_r+0x142>
10002aca:	e167      	b.n	10002d9c <_malloc_r+0x444>
10002acc:	230c      	movs	r3, #12
10002ace:	603b      	str	r3, [r7, #0]
10002ad0:	2400      	movs	r4, #0
10002ad2:	e769      	b.n	100029a8 <_malloc_r+0x50>
10002ad4:	f44f 7300 	mov.w	r3, #512	@ 0x200
10002ad8:	2040      	movs	r0, #64	@ 0x40
10002ada:	f04f 0e3f 	mov.w	lr, #63	@ 0x3f
10002ade:	e781      	b.n	100029e4 <_malloc_r+0x8c>
10002ae0:	68b4      	ldr	r4, [r6, #8]
10002ae2:	6863      	ldr	r3, [r4, #4]
10002ae4:	f023 0903 	bic.w	r9, r3, #3
10002ae8:	eba9 0305 	sub.w	r3, r9, r5
10002aec:	2b0f      	cmp	r3, #15
10002aee:	dd02      	ble.n	10002af6 <_malloc_r+0x19e>
10002af0:	45a9      	cmp	r9, r5
10002af2:	f080 80a4 	bcs.w	10002c3e <_malloc_r+0x2e6>
10002af6:	4b5e      	ldr	r3, [pc, #376]	@ (10002c70 <_malloc_r+0x318>)
10002af8:	2008      	movs	r0, #8
10002afa:	681b      	ldr	r3, [r3, #0]
10002afc:	f103 0810 	add.w	r8, r3, #16
10002b00:	eb04 0309 	add.w	r3, r4, r9
10002b04:	9300      	str	r3, [sp, #0]
10002b06:	f000 fc93 	bl	10003430 <sysconf>
10002b0a:	4a5a      	ldr	r2, [pc, #360]	@ (10002c74 <_malloc_r+0x31c>)
10002b0c:	44a8      	add	r8, r5
10002b0e:	4683      	mov	fp, r0
10002b10:	6813      	ldr	r3, [r2, #0]
10002b12:	3301      	adds	r3, #1
10002b14:	d005      	beq.n	10002b22 <_malloc_r+0x1ca>
10002b16:	f108 38ff 	add.w	r8, r8, #4294967295
10002b1a:	4243      	negs	r3, r0
10002b1c:	4480      	add	r8, r0
10002b1e:	ea03 0808 	and.w	r8, r3, r8
10002b22:	4641      	mov	r1, r8
10002b24:	4638      	mov	r0, r7
10002b26:	f000 fc63 	bl	100033f0 <_sbrk_r>
10002b2a:	f1b0 3fff 	cmp.w	r0, #4294967295
10002b2e:	4682      	mov	sl, r0
10002b30:	4a50      	ldr	r2, [pc, #320]	@ (10002c74 <_malloc_r+0x31c>)
10002b32:	d079      	beq.n	10002c28 <_malloc_r+0x2d0>
10002b34:	9b00      	ldr	r3, [sp, #0]
10002b36:	4283      	cmp	r3, r0
10002b38:	d95a      	bls.n	10002bf0 <_malloc_r+0x298>
10002b3a:	42b4      	cmp	r4, r6
10002b3c:	d174      	bne.n	10002c28 <_malloc_r+0x2d0>
10002b3e:	4b4e      	ldr	r3, [pc, #312]	@ (10002c78 <_malloc_r+0x320>)
10002b40:	f10b 3cff 	add.w	ip, fp, #4294967295
10002b44:	6818      	ldr	r0, [r3, #0]
10002b46:	eb00 0e08 	add.w	lr, r0, r8
10002b4a:	f8c3 e000 	str.w	lr, [r3]
10002b4e:	6811      	ldr	r1, [r2, #0]
10002b50:	3101      	adds	r1, #1
10002b52:	f000 8173 	beq.w	10002e3c <_malloc_r+0x4e4>
10002b56:	9a00      	ldr	r2, [sp, #0]
10002b58:	ebaa 0202 	sub.w	r2, sl, r2
10002b5c:	4472      	add	r2, lr
10002b5e:	601a      	str	r2, [r3, #0]
10002b60:	f01a 0207 	ands.w	r2, sl, #7
10002b64:	e9cd 2300 	strd	r2, r3, [sp]
10002b68:	f000 8142 	beq.w	10002df0 <_malloc_r+0x498>
10002b6c:	f1c2 0208 	rsb	r2, r2, #8
10002b70:	4638      	mov	r0, r7
10002b72:	4492      	add	sl, r2
10002b74:	445a      	add	r2, fp
10002b76:	44d0      	add	r8, sl
10002b78:	ea08 010c 	and.w	r1, r8, ip
10002b7c:	1a52      	subs	r2, r2, r1
10002b7e:	ea02 0b0c 	and.w	fp, r2, ip
10002b82:	4659      	mov	r1, fp
10002b84:	f000 fc34 	bl	100033f0 <_sbrk_r>
10002b88:	1c42      	adds	r2, r0, #1
10002b8a:	9b01      	ldr	r3, [sp, #4]
10002b8c:	f000 816e 	beq.w	10002e6c <_malloc_r+0x514>
10002b90:	eba0 000a 	sub.w	r0, r0, sl
10002b94:	eb00 080b 	add.w	r8, r0, fp
10002b98:	6819      	ldr	r1, [r3, #0]
10002b9a:	f048 0201 	orr.w	r2, r8, #1
10002b9e:	42b4      	cmp	r4, r6
10002ba0:	f8c6 a008 	str.w	sl, [r6, #8]
10002ba4:	4459      	add	r1, fp
10002ba6:	f8ca 2004 	str.w	r2, [sl, #4]
10002baa:	6019      	str	r1, [r3, #0]
10002bac:	d032      	beq.n	10002c14 <_malloc_r+0x2bc>
10002bae:	f1b9 0f0f 	cmp.w	r9, #15
10002bb2:	f240 810c 	bls.w	10002dce <_malloc_r+0x476>
10002bb6:	6860      	ldr	r0, [r4, #4]
10002bb8:	f1a9 020c 	sub.w	r2, r9, #12
10002bbc:	f04f 0c05 	mov.w	ip, #5
10002bc0:	f022 0207 	bic.w	r2, r2, #7
10002bc4:	f000 0001 	and.w	r0, r0, #1
10002bc8:	4310      	orrs	r0, r2
10002bca:	2a0f      	cmp	r2, #15
10002bcc:	6060      	str	r0, [r4, #4]
10002bce:	eb04 0002 	add.w	r0, r4, r2
10002bd2:	e9c0 cc01 	strd	ip, ip, [r0, #4]
10002bd6:	d91d      	bls.n	10002c14 <_malloc_r+0x2bc>
10002bd8:	f104 0108 	add.w	r1, r4, #8
10002bdc:	4638      	mov	r0, r7
10002bde:	9300      	str	r3, [sp, #0]
10002be0:	f000 fd34 	bl	1000364c <_free_r>
10002be4:	9b00      	ldr	r3, [sp, #0]
10002be6:	6819      	ldr	r1, [r3, #0]
10002be8:	e014      	b.n	10002c14 <_malloc_r+0x2bc>
10002bea:	f8d6 e004 	ldr.w	lr, [r6, #4]
10002bee:	e73e      	b.n	10002a6e <_malloc_r+0x116>
10002bf0:	4b21      	ldr	r3, [pc, #132]	@ (10002c78 <_malloc_r+0x320>)
10002bf2:	f10b 3cff 	add.w	ip, fp, #4294967295
10002bf6:	6819      	ldr	r1, [r3, #0]
10002bf8:	4441      	add	r1, r8
10002bfa:	468e      	mov	lr, r1
10002bfc:	6019      	str	r1, [r3, #0]
10002bfe:	d1a6      	bne.n	10002b4e <_malloc_r+0x1f6>
10002c00:	9800      	ldr	r0, [sp, #0]
10002c02:	ea10 0f0c 	tst.w	r0, ip
10002c06:	d1a2      	bne.n	10002b4e <_malloc_r+0x1f6>
10002c08:	eb09 0308 	add.w	r3, r9, r8
10002c0c:	68b2      	ldr	r2, [r6, #8]
10002c0e:	f043 0301 	orr.w	r3, r3, #1
10002c12:	6053      	str	r3, [r2, #4]
10002c14:	4b19      	ldr	r3, [pc, #100]	@ (10002c7c <_malloc_r+0x324>)
10002c16:	681a      	ldr	r2, [r3, #0]
10002c18:	428a      	cmp	r2, r1
10002c1a:	bf38      	it	cc
10002c1c:	6019      	strcc	r1, [r3, #0]
10002c1e:	4b18      	ldr	r3, [pc, #96]	@ (10002c80 <_malloc_r+0x328>)
10002c20:	681a      	ldr	r2, [r3, #0]
10002c22:	428a      	cmp	r2, r1
10002c24:	bf38      	it	cc
10002c26:	6019      	strcc	r1, [r3, #0]
10002c28:	68b4      	ldr	r4, [r6, #8]
10002c2a:	6862      	ldr	r2, [r4, #4]
10002c2c:	f022 0203 	bic.w	r2, r2, #3
10002c30:	1b53      	subs	r3, r2, r5
10002c32:	2b0f      	cmp	r3, #15
10002c34:	f340 80ce 	ble.w	10002dd4 <_malloc_r+0x47c>
10002c38:	4295      	cmp	r5, r2
10002c3a:	f200 80cb 	bhi.w	10002dd4 <_malloc_r+0x47c>
10002c3e:	1962      	adds	r2, r4, r5
10002c40:	f045 0501 	orr.w	r5, r5, #1
10002c44:	f043 0301 	orr.w	r3, r3, #1
10002c48:	3408      	adds	r4, #8
10002c4a:	f844 5c04 	str.w	r5, [r4, #-4]
10002c4e:	4638      	mov	r0, r7
10002c50:	60b2      	str	r2, [r6, #8]
10002c52:	6053      	str	r3, [r2, #4]
10002c54:	f000 f930 	bl	10002eb8 <__malloc_unlock>
10002c58:	4620      	mov	r0, r4
10002c5a:	b003      	add	sp, #12
10002c5c:	e8bd 8ff0 	ldmia.w	sp!, {r4, r5, r6, r7, r8, r9, sl, fp, pc}
10002c60:	68a2      	ldr	r2, [r4, #8]
10002c62:	4423      	add	r3, r4
10002c64:	4638      	mov	r0, r7
10002c66:	60d1      	str	r1, [r2, #12]
10002c68:	608a      	str	r2, [r1, #8]
10002c6a:	e696      	b.n	1000299a <_malloc_r+0x42>
10002c6c:	20000688 	.word	0x20000688
10002c70:	20000f10 	.word	0x20000f10
10002c74:	2000067c 	.word	0x2000067c
10002c78:	20000ee0 	.word	0x20000ee0
10002c7c:	20000f08 	.word	0x20000f08
10002c80:	20000f0c 	.word	0x20000f0c
10002c84:	20000690 	.word	0x20000690
10002c88:	68dc      	ldr	r4, [r3, #12]
10002c8a:	42a3      	cmp	r3, r4
10002c8c:	f47f ae7c 	bne.w	10002988 <_malloc_r+0x30>
10002c90:	3002      	adds	r0, #2
10002c92:	e6bd      	b.n	10002a10 <_malloc_r+0xb8>
10002c94:	f5bc 6f20 	cmp.w	ip, #2560	@ 0xa00
10002c98:	ea4f 225c 	mov.w	r2, ip, lsr #9
10002c9c:	d36c      	bcc.n	10002d78 <_malloc_r+0x420>
10002c9e:	2a14      	cmp	r2, #20
10002ca0:	f200 80b9 	bhi.w	10002e16 <_malloc_r+0x4be>
10002ca4:	f102 035c 	add.w	r3, r2, #92	@ 0x5c
10002ca8:	325b      	adds	r2, #91	@ 0x5b
10002caa:	00db      	lsls	r3, r3, #3
10002cac:	18f1      	adds	r1, r6, r3
10002cae:	58f3      	ldr	r3, [r6, r3]
10002cb0:	3908      	subs	r1, #8
10002cb2:	4299      	cmp	r1, r3
10002cb4:	d103      	bne.n	10002cbe <_malloc_r+0x366>
10002cb6:	e091      	b.n	10002ddc <_malloc_r+0x484>
10002cb8:	689b      	ldr	r3, [r3, #8]
10002cba:	4299      	cmp	r1, r3
10002cbc:	d004      	beq.n	10002cc8 <_malloc_r+0x370>
10002cbe:	685a      	ldr	r2, [r3, #4]
10002cc0:	f022 0203 	bic.w	r2, r2, #3
10002cc4:	4562      	cmp	r2, ip
10002cc6:	d8f7      	bhi.n	10002cb8 <_malloc_r+0x360>
10002cc8:	68d9      	ldr	r1, [r3, #12]
10002cca:	e9c4 3102 	strd	r3, r1, [r4, #8]
10002cce:	608c      	str	r4, [r1, #8]
10002cd0:	60dc      	str	r4, [r3, #12]
10002cd2:	e6cc      	b.n	10002a6e <_malloc_r+0x116>
10002cd4:	2b14      	cmp	r3, #20
10002cd6:	d956      	bls.n	10002d86 <_malloc_r+0x42e>
10002cd8:	2b54      	cmp	r3, #84	@ 0x54
10002cda:	f200 80a5 	bhi.w	10002e28 <_malloc_r+0x4d0>
10002cde:	0b2b      	lsrs	r3, r5, #12
10002ce0:	f103 006f 	add.w	r0, r3, #111	@ 0x6f
10002ce4:	f103 0e6e 	add.w	lr, r3, #110	@ 0x6e
10002ce8:	00c3      	lsls	r3, r0, #3
10002cea:	e67b      	b.n	100029e4 <_malloc_r+0x8c>
10002cec:	f8d4 c008 	ldr.w	ip, [r4, #8]
10002cf0:	4638      	mov	r0, r7
10002cf2:	1967      	adds	r7, r4, r5
10002cf4:	f045 0501 	orr.w	r5, r5, #1
10002cf8:	6065      	str	r5, [r4, #4]
10002cfa:	f8cc 300c 	str.w	r3, [ip, #12]
10002cfe:	f8c3 c008 	str.w	ip, [r3, #8]
10002d02:	f041 0301 	orr.w	r3, r1, #1
10002d06:	e9c6 7704 	strd	r7, r7, [r6, #16]
10002d0a:	e9c7 8802 	strd	r8, r8, [r7, #8]
10002d0e:	607b      	str	r3, [r7, #4]
10002d10:	50a1      	str	r1, [r4, r2]
10002d12:	3408      	adds	r4, #8
10002d14:	f000 f8d0 	bl	10002eb8 <__malloc_unlock>
10002d18:	e646      	b.n	100029a8 <_malloc_r+0x50>
10002d1a:	4422      	add	r2, r4
10002d1c:	4638      	mov	r0, r7
10002d1e:	6851      	ldr	r1, [r2, #4]
10002d20:	f041 0101 	orr.w	r1, r1, #1
10002d24:	6051      	str	r1, [r2, #4]
10002d26:	f854 2f08 	ldr.w	r2, [r4, #8]!
10002d2a:	60d3      	str	r3, [r2, #12]
10002d2c:	609a      	str	r2, [r3, #8]
10002d2e:	f000 f8c3 	bl	10002eb8 <__malloc_unlock>
10002d32:	e639      	b.n	100029a8 <_malloc_r+0x50>
10002d34:	08e8      	lsrs	r0, r5, #3
10002d36:	f105 0308 	add.w	r3, r5, #8
10002d3a:	e61d      	b.n	10002978 <_malloc_r+0x20>
10002d3c:	44a4      	add	ip, r4
10002d3e:	4638      	mov	r0, r7
10002d40:	3408      	adds	r4, #8
10002d42:	f8dc 3004 	ldr.w	r3, [ip, #4]
10002d46:	f043 0301 	orr.w	r3, r3, #1
10002d4a:	f8cc 3004 	str.w	r3, [ip, #4]
10002d4e:	f000 f8b3 	bl	10002eb8 <__malloc_unlock>
10002d52:	e629      	b.n	100029a8 <_malloc_r+0x50>
10002d54:	1962      	adds	r2, r4, r5
10002d56:	f043 0101 	orr.w	r1, r3, #1
10002d5a:	f045 0501 	orr.w	r5, r5, #1
10002d5e:	4638      	mov	r0, r7
10002d60:	6065      	str	r5, [r4, #4]
10002d62:	e9c6 2204 	strd	r2, r2, [r6, #16]
10002d66:	e9c2 8802 	strd	r8, r8, [r2, #8]
10002d6a:	6051      	str	r1, [r2, #4]
10002d6c:	f844 300c 	str.w	r3, [r4, ip]
10002d70:	3408      	adds	r4, #8
10002d72:	f000 f8a1 	bl	10002eb8 <__malloc_unlock>
10002d76:	e617      	b.n	100029a8 <_malloc_r+0x50>
10002d78:	ea4f 129c 	mov.w	r2, ip, lsr #6
10002d7c:	f102 0339 	add.w	r3, r2, #57	@ 0x39
10002d80:	3238      	adds	r2, #56	@ 0x38
10002d82:	00db      	lsls	r3, r3, #3
10002d84:	e792      	b.n	10002cac <_malloc_r+0x354>
10002d86:	f103 005c 	add.w	r0, r3, #92	@ 0x5c
10002d8a:	f103 0e5b 	add.w	lr, r3, #91	@ 0x5b
10002d8e:	00c3      	lsls	r3, r0, #3
10002d90:	e628      	b.n	100029e4 <_malloc_r+0x8c>
10002d92:	f85a 3908 	ldr.w	r3, [sl], #-8
10002d96:	4553      	cmp	r3, sl
10002d98:	f040 8085 	bne.w	10002ea6 <_malloc_r+0x54e>
10002d9c:	f010 0f03 	tst.w	r0, #3
10002da0:	f100 30ff 	add.w	r0, r0, #4294967295
10002da4:	d1f5      	bne.n	10002d92 <_malloc_r+0x43a>
10002da6:	6873      	ldr	r3, [r6, #4]
10002da8:	ea23 030c 	bic.w	r3, r3, ip
10002dac:	6073      	str	r3, [r6, #4]
10002dae:	ea4f 0c4c 	mov.w	ip, ip, lsl #1
10002db2:	f10c 32ff 	add.w	r2, ip, #4294967295
10002db6:	429a      	cmp	r2, r3
10002db8:	d304      	bcc.n	10002dc4 <_malloc_r+0x46c>
10002dba:	e691      	b.n	10002ae0 <_malloc_r+0x188>
10002dbc:	ea4f 0c4c 	mov.w	ip, ip, lsl #1
10002dc0:	f109 0904 	add.w	r9, r9, #4
10002dc4:	ea1c 0f03 	tst.w	ip, r3
10002dc8:	d0f8      	beq.n	10002dbc <_malloc_r+0x464>
10002dca:	4648      	mov	r0, r9
10002dcc:	e661      	b.n	10002a92 <_malloc_r+0x13a>
10002dce:	2301      	movs	r3, #1
10002dd0:	f8ca 3004 	str.w	r3, [sl, #4]
10002dd4:	4638      	mov	r0, r7
10002dd6:	f000 f86f 	bl	10002eb8 <__malloc_unlock>
10002dda:	e679      	b.n	10002ad0 <_malloc_r+0x178>
10002ddc:	1092      	asrs	r2, r2, #2
10002dde:	f04f 0c01 	mov.w	ip, #1
10002de2:	fa0c f202 	lsl.w	r2, ip, r2
10002de6:	ea4e 0e02 	orr.w	lr, lr, r2
10002dea:	f8c6 e004 	str.w	lr, [r6, #4]
10002dee:	e76c      	b.n	10002cca <_malloc_r+0x372>
10002df0:	eb0a 0208 	add.w	r2, sl, r8
10002df4:	4638      	mov	r0, r7
10002df6:	ea02 020c 	and.w	r2, r2, ip
10002dfa:	ebab 0b02 	sub.w	fp, fp, r2
10002dfe:	ea0b 0b0c 	and.w	fp, fp, ip
10002e02:	4659      	mov	r1, fp
10002e04:	f000 faf4 	bl	100033f0 <_sbrk_r>
10002e08:	1c43      	adds	r3, r0, #1
10002e0a:	9b01      	ldr	r3, [sp, #4]
10002e0c:	f47f aec0 	bne.w	10002b90 <_malloc_r+0x238>
10002e10:	f8dd b000 	ldr.w	fp, [sp]
10002e14:	e6c0      	b.n	10002b98 <_malloc_r+0x240>
10002e16:	2a54      	cmp	r2, #84	@ 0x54
10002e18:	d813      	bhi.n	10002e42 <_malloc_r+0x4ea>
10002e1a:	ea4f 321c 	mov.w	r2, ip, lsr #12
10002e1e:	f102 036f 	add.w	r3, r2, #111	@ 0x6f
10002e22:	326e      	adds	r2, #110	@ 0x6e
10002e24:	00db      	lsls	r3, r3, #3
10002e26:	e741      	b.n	10002cac <_malloc_r+0x354>
10002e28:	f5b3 7faa 	cmp.w	r3, #340	@ 0x154
10002e2c:	d813      	bhi.n	10002e56 <_malloc_r+0x4fe>
10002e2e:	0beb      	lsrs	r3, r5, #15
10002e30:	f103 0078 	add.w	r0, r3, #120	@ 0x78
10002e34:	f103 0e77 	add.w	lr, r3, #119	@ 0x77
10002e38:	00c3      	lsls	r3, r0, #3
10002e3a:	e5d3      	b.n	100029e4 <_malloc_r+0x8c>
10002e3c:	f8c2 a000 	str.w	sl, [r2]
10002e40:	e68e      	b.n	10002b60 <_malloc_r+0x208>
10002e42:	f5b2 7faa 	cmp.w	r2, #340	@ 0x154
10002e46:	d819      	bhi.n	10002e7c <_malloc_r+0x524>
10002e48:	ea4f 32dc 	mov.w	r2, ip, lsr #15
10002e4c:	f102 0378 	add.w	r3, r2, #120	@ 0x78
10002e50:	3277      	adds	r2, #119	@ 0x77
10002e52:	00db      	lsls	r3, r3, #3
10002e54:	e72a      	b.n	10002cac <_malloc_r+0x354>
10002e56:	f240 5254 	movw	r2, #1364	@ 0x554
10002e5a:	4293      	cmp	r3, r2
10002e5c:	d819      	bhi.n	10002e92 <_malloc_r+0x53a>
10002e5e:	0cab      	lsrs	r3, r5, #18
10002e60:	f103 007d 	add.w	r0, r3, #125	@ 0x7d
10002e64:	f103 0e7c 	add.w	lr, r3, #124	@ 0x7c
10002e68:	00c3      	lsls	r3, r0, #3
10002e6a:	e5bb      	b.n	100029e4 <_malloc_r+0x8c>
10002e6c:	9a00      	ldr	r2, [sp, #0]
10002e6e:	f04f 0b00 	mov.w	fp, #0
10002e72:	3a08      	subs	r2, #8
10002e74:	4490      	add	r8, r2
10002e76:	eba8 080a 	sub.w	r8, r8, sl
10002e7a:	e68d      	b.n	10002b98 <_malloc_r+0x240>
10002e7c:	f240 5354 	movw	r3, #1364	@ 0x554
10002e80:	429a      	cmp	r2, r3
10002e82:	d80c      	bhi.n	10002e9e <_malloc_r+0x546>
10002e84:	ea4f 429c 	mov.w	r2, ip, lsr #18
10002e88:	f102 037d 	add.w	r3, r2, #125	@ 0x7d
10002e8c:	327c      	adds	r2, #124	@ 0x7c
10002e8e:	00db      	lsls	r3, r3, #3
10002e90:	e70c      	b.n	10002cac <_malloc_r+0x354>
10002e92:	f44f 737e 	mov.w	r3, #1016	@ 0x3f8
10002e96:	207f      	movs	r0, #127	@ 0x7f
10002e98:	f04f 0e7e 	mov.w	lr, #126	@ 0x7e
10002e9c:	e5a2      	b.n	100029e4 <_malloc_r+0x8c>
10002e9e:	f44f 737e 	mov.w	r3, #1016	@ 0x3f8
10002ea2:	227e      	movs	r2, #126	@ 0x7e
10002ea4:	e702      	b.n	10002cac <_malloc_r+0x354>
10002ea6:	6873      	ldr	r3, [r6, #4]
10002ea8:	e781      	b.n	10002dae <_malloc_r+0x456>
10002eaa:	bf00      	nop

10002eac <__malloc_lock>:
10002eac:	4801      	ldr	r0, [pc, #4]	@ (10002eb4 <__malloc_lock+0x8>)
10002eae:	f000 babb 	b.w	10003428 <__retarget_lock_acquire_recursive>
10002eb2:	bf00      	nop
10002eb4:	20000ed8 	.word	0x20000ed8

10002eb8 <__malloc_unlock>:
10002eb8:	4801      	ldr	r0, [pc, #4]	@ (10002ec0 <__malloc_unlock+0x8>)
10002eba:	f000 bab7 	b.w	1000342c <__retarget_lock_release_recursive>
10002ebe:	bf00      	nop
10002ec0:	20000ed8 	.word	0x20000ed8

10002ec4 <_realloc_r>:
10002ec4:	e92d 4ff0 	stmdb	sp!, {r4, r5, r6, r7, r8, r9, sl, fp, lr}
10002ec8:	4616      	mov	r6, r2
10002eca:	b083      	sub	sp, #12
10002ecc:	2900      	cmp	r1, #0
10002ece:	f000 809e 	beq.w	1000300e <_realloc_r+0x14a>
10002ed2:	460c      	mov	r4, r1
10002ed4:	f106 050b 	add.w	r5, r6, #11
10002ed8:	4680      	mov	r8, r0
10002eda:	f7ff ffe7 	bl	10002eac <__malloc_lock>
10002ede:	f854 0c04 	ldr.w	r0, [r4, #-4]
10002ee2:	2d16      	cmp	r5, #22
10002ee4:	f1a4 0908 	sub.w	r9, r4, #8
10002ee8:	f020 0703 	bic.w	r7, r0, #3
10002eec:	d862      	bhi.n	10002fb4 <_realloc_r+0xf0>
10002eee:	2210      	movs	r2, #16
10002ef0:	2300      	movs	r3, #0
10002ef2:	4615      	mov	r5, r2
10002ef4:	42b5      	cmp	r5, r6
10002ef6:	f0c0 80a2 	bcc.w	1000303e <_realloc_r+0x17a>
10002efa:	2b00      	cmp	r3, #0
10002efc:	f040 809f 	bne.w	1000303e <_realloc_r+0x17a>
10002f00:	4297      	cmp	r7, r2
10002f02:	da61      	bge.n	10002fc8 <_realloc_r+0x104>
10002f04:	f8df b328 	ldr.w	fp, [pc, #808]	@ 10003230 <_realloc_r+0x36c>
10002f08:	eb09 0107 	add.w	r1, r9, r7
10002f0c:	f8db 3008 	ldr.w	r3, [fp, #8]
10002f10:	f8d1 c004 	ldr.w	ip, [r1, #4]
10002f14:	428b      	cmp	r3, r1
10002f16:	f000 8097 	beq.w	10003048 <_realloc_r+0x184>
10002f1a:	f02c 0301 	bic.w	r3, ip, #1
10002f1e:	440b      	add	r3, r1
10002f20:	685b      	ldr	r3, [r3, #4]
10002f22:	07db      	lsls	r3, r3, #31
10002f24:	d468      	bmi.n	10002ff8 <_realloc_r+0x134>
10002f26:	f02c 0c03 	bic.w	ip, ip, #3
10002f2a:	eb07 030c 	add.w	r3, r7, ip
10002f2e:	4293      	cmp	r3, r2
10002f30:	da45      	bge.n	10002fbe <_realloc_r+0xfa>
10002f32:	07c3      	lsls	r3, r0, #31
10002f34:	d412      	bmi.n	10002f5c <_realloc_r+0x98>
10002f36:	f854 3c08 	ldr.w	r3, [r4, #-8]
10002f3a:	eba9 0a03 	sub.w	sl, r9, r3
10002f3e:	f8da 3004 	ldr.w	r3, [sl, #4]
10002f42:	f023 0003 	bic.w	r0, r3, #3
10002f46:	4484      	add	ip, r0
10002f48:	eb0c 0b07 	add.w	fp, ip, r7
10002f4c:	455a      	cmp	r2, fp
10002f4e:	f340 80fe 	ble.w	1000314e <_realloc_r+0x28a>
10002f52:	eb07 0b00 	add.w	fp, r7, r0
10002f56:	455a      	cmp	r2, fp
10002f58:	f340 80d4 	ble.w	10003104 <_realloc_r+0x240>
10002f5c:	4631      	mov	r1, r6
10002f5e:	4640      	mov	r0, r8
10002f60:	f7ff fcfa 	bl	10002958 <_malloc_r>
10002f64:	4606      	mov	r6, r0
10002f66:	2800      	cmp	r0, #0
10002f68:	f000 8129 	beq.w	100031be <_realloc_r+0x2fa>
10002f6c:	f854 3c04 	ldr.w	r3, [r4, #-4]
10002f70:	f1a0 0208 	sub.w	r2, r0, #8
10002f74:	f023 0301 	bic.w	r3, r3, #1
10002f78:	444b      	add	r3, r9
10002f7a:	4293      	cmp	r3, r2
10002f7c:	f000 80b1 	beq.w	100030e2 <_realloc_r+0x21e>
10002f80:	1f3a      	subs	r2, r7, #4
10002f82:	2a24      	cmp	r2, #36	@ 0x24
10002f84:	f200 80df 	bhi.w	10003146 <_realloc_r+0x282>
10002f88:	2a13      	cmp	r2, #19
10002f8a:	f200 80b0 	bhi.w	100030ee <_realloc_r+0x22a>
10002f8e:	4603      	mov	r3, r0
10002f90:	4622      	mov	r2, r4
10002f92:	6811      	ldr	r1, [r2, #0]
10002f94:	6019      	str	r1, [r3, #0]
10002f96:	6851      	ldr	r1, [r2, #4]
10002f98:	6059      	str	r1, [r3, #4]
10002f9a:	6892      	ldr	r2, [r2, #8]
10002f9c:	609a      	str	r2, [r3, #8]
10002f9e:	4621      	mov	r1, r4
10002fa0:	4640      	mov	r0, r8
10002fa2:	f000 fb53 	bl	1000364c <_free_r>
10002fa6:	4640      	mov	r0, r8
10002fa8:	f7ff ff86 	bl	10002eb8 <__malloc_unlock>
10002fac:	4630      	mov	r0, r6
10002fae:	b003      	add	sp, #12
10002fb0:	e8bd 8ff0 	ldmia.w	sp!, {r4, r5, r6, r7, r8, r9, sl, fp, pc}
10002fb4:	f025 0507 	bic.w	r5, r5, #7
10002fb8:	462a      	mov	r2, r5
10002fba:	0feb      	lsrs	r3, r5, #31
10002fbc:	e79a      	b.n	10002ef4 <_realloc_r+0x30>
10002fbe:	461f      	mov	r7, r3
10002fc0:	e9d1 2302 	ldrd	r2, r3, [r1, #8]
10002fc4:	60d3      	str	r3, [r2, #12]
10002fc6:	609a      	str	r2, [r3, #8]
10002fc8:	1b78      	subs	r0, r7, r5
10002fca:	f8d9 3004 	ldr.w	r3, [r9, #4]
10002fce:	eb09 0207 	add.w	r2, r9, r7
10002fd2:	280f      	cmp	r0, #15
10002fd4:	f003 0301 	and.w	r3, r3, #1
10002fd8:	d81f      	bhi.n	1000301a <_realloc_r+0x156>
10002fda:	433b      	orrs	r3, r7
10002fdc:	f8c9 3004 	str.w	r3, [r9, #4]
10002fe0:	6853      	ldr	r3, [r2, #4]
10002fe2:	f043 0301 	orr.w	r3, r3, #1
10002fe6:	6053      	str	r3, [r2, #4]
10002fe8:	4626      	mov	r6, r4
10002fea:	4640      	mov	r0, r8
10002fec:	f7ff ff64 	bl	10002eb8 <__malloc_unlock>
10002ff0:	4630      	mov	r0, r6
10002ff2:	b003      	add	sp, #12
10002ff4:	e8bd 8ff0 	ldmia.w	sp!, {r4, r5, r6, r7, r8, r9, sl, fp, pc}
10002ff8:	07c3      	lsls	r3, r0, #31
10002ffa:	d4af      	bmi.n	10002f5c <_realloc_r+0x98>
10002ffc:	f854 3c08 	ldr.w	r3, [r4, #-8]
10003000:	eba9 0a03 	sub.w	sl, r9, r3
10003004:	f8da 3004 	ldr.w	r3, [sl, #4]
10003008:	f023 0003 	bic.w	r0, r3, #3
1000300c:	e7a1      	b.n	10002f52 <_realloc_r+0x8e>
1000300e:	4611      	mov	r1, r2
10003010:	b003      	add	sp, #12
10003012:	e8bd 4ff0 	ldmia.w	sp!, {r4, r5, r6, r7, r8, r9, sl, fp, lr}
10003016:	f7ff bc9f 	b.w	10002958 <_malloc_r>
1000301a:	432b      	orrs	r3, r5
1000301c:	eb09 0105 	add.w	r1, r9, r5
10003020:	f040 0001 	orr.w	r0, r0, #1
10003024:	f8c9 3004 	str.w	r3, [r9, #4]
10003028:	3108      	adds	r1, #8
1000302a:	f841 0c04 	str.w	r0, [r1, #-4]
1000302e:	4640      	mov	r0, r8
10003030:	6853      	ldr	r3, [r2, #4]
10003032:	f043 0301 	orr.w	r3, r3, #1
10003036:	6053      	str	r3, [r2, #4]
10003038:	f000 fb08 	bl	1000364c <_free_r>
1000303c:	e7d4      	b.n	10002fe8 <_realloc_r+0x124>
1000303e:	230c      	movs	r3, #12
10003040:	f8c8 3000 	str.w	r3, [r8]
10003044:	2600      	movs	r6, #0
10003046:	e7d3      	b.n	10002ff0 <_realloc_r+0x12c>
10003048:	f02c 0c03 	bic.w	ip, ip, #3
1000304c:	f105 0110 	add.w	r1, r5, #16
10003050:	eb0c 0307 	add.w	r3, ip, r7
10003054:	428b      	cmp	r3, r1
10003056:	f280 8092 	bge.w	1000317e <_realloc_r+0x2ba>
1000305a:	07c0      	lsls	r0, r0, #31
1000305c:	f53f af7e 	bmi.w	10002f5c <_realloc_r+0x98>
10003060:	f854 3c08 	ldr.w	r3, [r4, #-8]
10003064:	eba9 0a03 	sub.w	sl, r9, r3
10003068:	f8da 3004 	ldr.w	r3, [sl, #4]
1000306c:	f023 0003 	bic.w	r0, r3, #3
10003070:	4484      	add	ip, r0
10003072:	eb0c 0307 	add.w	r3, ip, r7
10003076:	4299      	cmp	r1, r3
10003078:	f73f af6b 	bgt.w	10002f52 <_realloc_r+0x8e>
1000307c:	1f3a      	subs	r2, r7, #4
1000307e:	4656      	mov	r6, sl
10003080:	f8da 100c 	ldr.w	r1, [sl, #12]
10003084:	f856 0f08 	ldr.w	r0, [r6, #8]!
10003088:	2a24      	cmp	r2, #36	@ 0x24
1000308a:	60c1      	str	r1, [r0, #12]
1000308c:	6088      	str	r0, [r1, #8]
1000308e:	f200 80b0 	bhi.w	100031f2 <_realloc_r+0x32e>
10003092:	2a13      	cmp	r2, #19
10003094:	f240 80ab 	bls.w	100031ee <_realloc_r+0x32a>
10003098:	6821      	ldr	r1, [r4, #0]
1000309a:	2a1b      	cmp	r2, #27
1000309c:	f8ca 1008 	str.w	r1, [sl, #8]
100030a0:	6861      	ldr	r1, [r4, #4]
100030a2:	f8ca 100c 	str.w	r1, [sl, #12]
100030a6:	f200 80ab 	bhi.w	10003200 <_realloc_r+0x33c>
100030aa:	3408      	adds	r4, #8
100030ac:	f10a 0210 	add.w	r2, sl, #16
100030b0:	6821      	ldr	r1, [r4, #0]
100030b2:	6011      	str	r1, [r2, #0]
100030b4:	6861      	ldr	r1, [r4, #4]
100030b6:	6051      	str	r1, [r2, #4]
100030b8:	68a1      	ldr	r1, [r4, #8]
100030ba:	6091      	str	r1, [r2, #8]
100030bc:	1b5b      	subs	r3, r3, r5
100030be:	eb0a 0205 	add.w	r2, sl, r5
100030c2:	4640      	mov	r0, r8
100030c4:	f043 0301 	orr.w	r3, r3, #1
100030c8:	f8cb 2008 	str.w	r2, [fp, #8]
100030cc:	6053      	str	r3, [r2, #4]
100030ce:	f8da 3004 	ldr.w	r3, [sl, #4]
100030d2:	f003 0301 	and.w	r3, r3, #1
100030d6:	432b      	orrs	r3, r5
100030d8:	f8ca 3004 	str.w	r3, [sl, #4]
100030dc:	f7ff feec 	bl	10002eb8 <__malloc_unlock>
100030e0:	e786      	b.n	10002ff0 <_realloc_r+0x12c>
100030e2:	f850 3c04 	ldr.w	r3, [r0, #-4]
100030e6:	f023 0303 	bic.w	r3, r3, #3
100030ea:	441f      	add	r7, r3
100030ec:	e76c      	b.n	10002fc8 <_realloc_r+0x104>
100030ee:	6823      	ldr	r3, [r4, #0]
100030f0:	2a1b      	cmp	r2, #27
100030f2:	6003      	str	r3, [r0, #0]
100030f4:	6863      	ldr	r3, [r4, #4]
100030f6:	6043      	str	r3, [r0, #4]
100030f8:	d836      	bhi.n	10003168 <_realloc_r+0x2a4>
100030fa:	f104 0208 	add.w	r2, r4, #8
100030fe:	f100 0308 	add.w	r3, r0, #8
10003102:	e746      	b.n	10002f92 <_realloc_r+0xce>
10003104:	1f3a      	subs	r2, r7, #4
10003106:	4656      	mov	r6, sl
10003108:	f8da 300c 	ldr.w	r3, [sl, #12]
1000310c:	2a24      	cmp	r2, #36	@ 0x24
1000310e:	f856 1f08 	ldr.w	r1, [r6, #8]!
10003112:	60cb      	str	r3, [r1, #12]
10003114:	6099      	str	r1, [r3, #8]
10003116:	d822      	bhi.n	1000315e <_realloc_r+0x29a>
10003118:	2a13      	cmp	r2, #19
1000311a:	d91e      	bls.n	1000315a <_realloc_r+0x296>
1000311c:	6823      	ldr	r3, [r4, #0]
1000311e:	2a1b      	cmp	r2, #27
10003120:	f8ca 3008 	str.w	r3, [sl, #8]
10003124:	6863      	ldr	r3, [r4, #4]
10003126:	f8ca 300c 	str.w	r3, [sl, #12]
1000312a:	d83c      	bhi.n	100031a6 <_realloc_r+0x2e2>
1000312c:	3408      	adds	r4, #8
1000312e:	f10a 0310 	add.w	r3, sl, #16
10003132:	6822      	ldr	r2, [r4, #0]
10003134:	601a      	str	r2, [r3, #0]
10003136:	6862      	ldr	r2, [r4, #4]
10003138:	605a      	str	r2, [r3, #4]
1000313a:	68a2      	ldr	r2, [r4, #8]
1000313c:	609a      	str	r2, [r3, #8]
1000313e:	4634      	mov	r4, r6
10003140:	465f      	mov	r7, fp
10003142:	46d1      	mov	r9, sl
10003144:	e740      	b.n	10002fc8 <_realloc_r+0x104>
10003146:	4621      	mov	r1, r4
10003148:	f000 f880 	bl	1000324c <memmove>
1000314c:	e727      	b.n	10002f9e <_realloc_r+0xda>
1000314e:	e9d1 1302 	ldrd	r1, r3, [r1, #8]
10003152:	1f3a      	subs	r2, r7, #4
10003154:	60cb      	str	r3, [r1, #12]
10003156:	6099      	str	r1, [r3, #8]
10003158:	e7d5      	b.n	10003106 <_realloc_r+0x242>
1000315a:	4633      	mov	r3, r6
1000315c:	e7e9      	b.n	10003132 <_realloc_r+0x26e>
1000315e:	4621      	mov	r1, r4
10003160:	4630      	mov	r0, r6
10003162:	f000 f873 	bl	1000324c <memmove>
10003166:	e7ea      	b.n	1000313e <_realloc_r+0x27a>
10003168:	68a3      	ldr	r3, [r4, #8]
1000316a:	2a24      	cmp	r2, #36	@ 0x24
1000316c:	6083      	str	r3, [r0, #8]
1000316e:	68e3      	ldr	r3, [r4, #12]
10003170:	60c3      	str	r3, [r0, #12]
10003172:	d028      	beq.n	100031c6 <_realloc_r+0x302>
10003174:	f104 0210 	add.w	r2, r4, #16
10003178:	f100 0310 	add.w	r3, r0, #16
1000317c:	e709      	b.n	10002f92 <_realloc_r+0xce>
1000317e:	1b5b      	subs	r3, r3, r5
10003180:	eb09 0205 	add.w	r2, r9, r5
10003184:	4640      	mov	r0, r8
10003186:	4626      	mov	r6, r4
10003188:	f043 0301 	orr.w	r3, r3, #1
1000318c:	f8cb 2008 	str.w	r2, [fp, #8]
10003190:	6053      	str	r3, [r2, #4]
10003192:	f854 3c04 	ldr.w	r3, [r4, #-4]
10003196:	f003 0301 	and.w	r3, r3, #1
1000319a:	432b      	orrs	r3, r5
1000319c:	f844 3c04 	str.w	r3, [r4, #-4]
100031a0:	f7ff fe8a 	bl	10002eb8 <__malloc_unlock>
100031a4:	e724      	b.n	10002ff0 <_realloc_r+0x12c>
100031a6:	68a3      	ldr	r3, [r4, #8]
100031a8:	2a24      	cmp	r2, #36	@ 0x24
100031aa:	f8ca 3010 	str.w	r3, [sl, #16]
100031ae:	68e3      	ldr	r3, [r4, #12]
100031b0:	f8ca 3014 	str.w	r3, [sl, #20]
100031b4:	d010      	beq.n	100031d8 <_realloc_r+0x314>
100031b6:	3410      	adds	r4, #16
100031b8:	f10a 0318 	add.w	r3, sl, #24
100031bc:	e7b9      	b.n	10003132 <_realloc_r+0x26e>
100031be:	4640      	mov	r0, r8
100031c0:	f7ff fe7a 	bl	10002eb8 <__malloc_unlock>
100031c4:	e73e      	b.n	10003044 <_realloc_r+0x180>
100031c6:	6923      	ldr	r3, [r4, #16]
100031c8:	f104 0218 	add.w	r2, r4, #24
100031cc:	6103      	str	r3, [r0, #16]
100031ce:	6963      	ldr	r3, [r4, #20]
100031d0:	6143      	str	r3, [r0, #20]
100031d2:	f100 0318 	add.w	r3, r0, #24
100031d6:	e6dc      	b.n	10002f92 <_realloc_r+0xce>
100031d8:	6923      	ldr	r3, [r4, #16]
100031da:	3418      	adds	r4, #24
100031dc:	f8ca 3018 	str.w	r3, [sl, #24]
100031e0:	f854 3c04 	ldr.w	r3, [r4, #-4]
100031e4:	f8ca 301c 	str.w	r3, [sl, #28]
100031e8:	f10a 0320 	add.w	r3, sl, #32
100031ec:	e7a1      	b.n	10003132 <_realloc_r+0x26e>
100031ee:	4632      	mov	r2, r6
100031f0:	e75e      	b.n	100030b0 <_realloc_r+0x1ec>
100031f2:	4621      	mov	r1, r4
100031f4:	4630      	mov	r0, r6
100031f6:	9301      	str	r3, [sp, #4]
100031f8:	f000 f828 	bl	1000324c <memmove>
100031fc:	9b01      	ldr	r3, [sp, #4]
100031fe:	e75d      	b.n	100030bc <_realloc_r+0x1f8>
10003200:	68a1      	ldr	r1, [r4, #8]
10003202:	2a24      	cmp	r2, #36	@ 0x24
10003204:	f8ca 1010 	str.w	r1, [sl, #16]
10003208:	68e1      	ldr	r1, [r4, #12]
1000320a:	f8ca 1014 	str.w	r1, [sl, #20]
1000320e:	d003      	beq.n	10003218 <_realloc_r+0x354>
10003210:	3410      	adds	r4, #16
10003212:	f10a 0218 	add.w	r2, sl, #24
10003216:	e74b      	b.n	100030b0 <_realloc_r+0x1ec>
10003218:	6922      	ldr	r2, [r4, #16]
1000321a:	3418      	adds	r4, #24
1000321c:	f8ca 2018 	str.w	r2, [sl, #24]
10003220:	f854 2c04 	ldr.w	r2, [r4, #-4]
10003224:	f8ca 201c 	str.w	r2, [sl, #28]
10003228:	f10a 0220 	add.w	r2, sl, #32
1000322c:	e740      	b.n	100030b0 <_realloc_r+0x1ec>
1000322e:	bf00      	nop
10003230:	20000688 	.word	0x20000688

10003234 <vprintf>:
10003234:	b410      	push	{r4}
10003236:	4c04      	ldr	r4, [pc, #16]	@ (10003248 <vprintf+0x14>)
10003238:	4602      	mov	r2, r0
1000323a:	460b      	mov	r3, r1
1000323c:	6820      	ldr	r0, [r4, #0]
1000323e:	f85d 4b04 	ldr.w	r4, [sp], #4
10003242:	6881      	ldr	r1, [r0, #8]
10003244:	f000 bb00 	b.w	10003848 <_vfprintf_r>
10003248:	20000a90 	.word	0x20000a90

1000324c <memmove>:
1000324c:	4288      	cmp	r0, r1
1000324e:	d90e      	bls.n	1000326e <memmove+0x22>
10003250:	188b      	adds	r3, r1, r2
10003252:	4283      	cmp	r3, r0
10003254:	d90b      	bls.n	1000326e <memmove+0x22>
10003256:	eb00 0c02 	add.w	ip, r0, r2
1000325a:	2a00      	cmp	r2, #0
1000325c:	d06e      	beq.n	1000333c <memmove+0xf0>
1000325e:	4662      	mov	r2, ip
10003260:	f813 cd01 	ldrb.w	ip, [r3, #-1]!
10003264:	4299      	cmp	r1, r3
10003266:	f802 cd01 	strb.w	ip, [r2, #-1]!
1000326a:	d1f9      	bne.n	10003260 <memmove+0x14>
1000326c:	4770      	bx	lr
1000326e:	2a0f      	cmp	r2, #15
10003270:	d80f      	bhi.n	10003292 <memmove+0x46>
10003272:	4603      	mov	r3, r0
10003274:	f102 3cff 	add.w	ip, r2, #4294967295
10003278:	2a00      	cmp	r2, #0
1000327a:	d05f      	beq.n	1000333c <memmove+0xf0>
1000327c:	f10c 0c01 	add.w	ip, ip, #1
10003280:	3b01      	subs	r3, #1
10003282:	448c      	add	ip, r1
10003284:	f811 2b01 	ldrb.w	r2, [r1], #1
10003288:	4561      	cmp	r1, ip
1000328a:	f803 2f01 	strb.w	r2, [r3, #1]!
1000328e:	d1f9      	bne.n	10003284 <memmove+0x38>
10003290:	4770      	bx	lr
10003292:	ea40 0301 	orr.w	r3, r0, r1
10003296:	079b      	lsls	r3, r3, #30
10003298:	d151      	bne.n	1000333e <memmove+0xf2>
1000329a:	f1a2 0310 	sub.w	r3, r2, #16
1000329e:	f101 0c20 	add.w	ip, r1, #32
100032a2:	b570      	push	{r4, r5, r6, lr}
100032a4:	f023 050f 	bic.w	r5, r3, #15
100032a8:	f101 0e10 	add.w	lr, r1, #16
100032ac:	f100 0410 	add.w	r4, r0, #16
100032b0:	091b      	lsrs	r3, r3, #4
100032b2:	44ac      	add	ip, r5
100032b4:	f85e 5c10 	ldr.w	r5, [lr, #-16]
100032b8:	f10e 0e10 	add.w	lr, lr, #16
100032bc:	3410      	adds	r4, #16
100032be:	f844 5c20 	str.w	r5, [r4, #-32]
100032c2:	f85e 5c1c 	ldr.w	r5, [lr, #-28]
100032c6:	f844 5c1c 	str.w	r5, [r4, #-28]
100032ca:	f85e 5c18 	ldr.w	r5, [lr, #-24]
100032ce:	f844 5c18 	str.w	r5, [r4, #-24]
100032d2:	f85e 5c14 	ldr.w	r5, [lr, #-20]
100032d6:	45e6      	cmp	lr, ip
100032d8:	f844 5c14 	str.w	r5, [r4, #-20]
100032dc:	d1ea      	bne.n	100032b4 <memmove+0x68>
100032de:	3301      	adds	r3, #1
100032e0:	f012 0f0c 	tst.w	r2, #12
100032e4:	f002 0c0f 	and.w	ip, r2, #15
100032e8:	eb01 1103 	add.w	r1, r1, r3, lsl #4
100032ec:	eb00 1303 	add.w	r3, r0, r3, lsl #4
100032f0:	d029      	beq.n	10003346 <memmove+0xfa>
100032f2:	f1ac 0c04 	sub.w	ip, ip, #4
100032f6:	1f1c      	subs	r4, r3, #4
100032f8:	468e      	mov	lr, r1
100032fa:	f02c 0603 	bic.w	r6, ip, #3
100032fe:	ea4f 0c9c 	mov.w	ip, ip, lsr #2
10003302:	441e      	add	r6, r3
10003304:	f85e 5b04 	ldr.w	r5, [lr], #4
10003308:	f844 5f04 	str.w	r5, [r4, #4]!
1000330c:	42b4      	cmp	r4, r6
1000330e:	d1f9      	bne.n	10003304 <memmove+0xb8>
10003310:	f10c 0401 	add.w	r4, ip, #1
10003314:	f002 0203 	and.w	r2, r2, #3
10003318:	eb03 0384 	add.w	r3, r3, r4, lsl #2
1000331c:	eb01 0184 	add.w	r1, r1, r4, lsl #2
10003320:	f102 3cff 	add.w	ip, r2, #4294967295
10003324:	b14a      	cbz	r2, 1000333a <memmove+0xee>
10003326:	f10c 0c01 	add.w	ip, ip, #1
1000332a:	3b01      	subs	r3, #1
1000332c:	448c      	add	ip, r1
1000332e:	f811 2b01 	ldrb.w	r2, [r1], #1
10003332:	4561      	cmp	r1, ip
10003334:	f803 2f01 	strb.w	r2, [r3, #1]!
10003338:	d1f9      	bne.n	1000332e <memmove+0xe2>
1000333a:	bd70      	pop	{r4, r5, r6, pc}
1000333c:	4770      	bx	lr
1000333e:	f102 3cff 	add.w	ip, r2, #4294967295
10003342:	4603      	mov	r3, r0
10003344:	e79a      	b.n	1000327c <memmove+0x30>
10003346:	4662      	mov	r2, ip
10003348:	e7ea      	b.n	10003320 <memmove+0xd4>
1000334a:	bf00      	nop

1000334c <memset>:
1000334c:	b570      	push	{r4, r5, r6, lr}
1000334e:	0786      	lsls	r6, r0, #30
10003350:	d047      	beq.n	100033e2 <memset+0x96>
10003352:	1e54      	subs	r4, r2, #1
10003354:	2a00      	cmp	r2, #0
10003356:	d03e      	beq.n	100033d6 <memset+0x8a>
10003358:	b2ca      	uxtb	r2, r1
1000335a:	4603      	mov	r3, r0
1000335c:	e001      	b.n	10003362 <memset+0x16>
1000335e:	3c01      	subs	r4, #1
10003360:	d339      	bcc.n	100033d6 <memset+0x8a>
10003362:	f803 2b01 	strb.w	r2, [r3], #1
10003366:	079d      	lsls	r5, r3, #30
10003368:	d1f9      	bne.n	1000335e <memset+0x12>
1000336a:	2c03      	cmp	r4, #3
1000336c:	d92c      	bls.n	100033c8 <memset+0x7c>
1000336e:	b2cd      	uxtb	r5, r1
10003370:	2c0f      	cmp	r4, #15
10003372:	eb05 2505 	add.w	r5, r5, r5, lsl #8
10003376:	eb05 4505 	add.w	r5, r5, r5, lsl #16
1000337a:	d935      	bls.n	100033e8 <memset+0x9c>
1000337c:	f1a4 0c10 	sub.w	ip, r4, #16
10003380:	f103 0e10 	add.w	lr, r3, #16
10003384:	461a      	mov	r2, r3
10003386:	f02c 060f 	bic.w	r6, ip, #15
1000338a:	ea4f 1c1c 	mov.w	ip, ip, lsr #4
1000338e:	44b6      	add	lr, r6
10003390:	e9c2 5500 	strd	r5, r5, [r2]
10003394:	e9c2 5502 	strd	r5, r5, [r2, #8]
10003398:	3210      	adds	r2, #16
1000339a:	4572      	cmp	r2, lr
1000339c:	d1f8      	bne.n	10003390 <memset+0x44>
1000339e:	f10c 0201 	add.w	r2, ip, #1
100033a2:	f014 0f0c 	tst.w	r4, #12
100033a6:	f004 0c0f 	and.w	ip, r4, #15
100033aa:	eb03 1202 	add.w	r2, r3, r2, lsl #4
100033ae:	d013      	beq.n	100033d8 <memset+0x8c>
100033b0:	f1ac 0304 	sub.w	r3, ip, #4
100033b4:	f023 0303 	bic.w	r3, r3, #3
100033b8:	3304      	adds	r3, #4
100033ba:	4413      	add	r3, r2
100033bc:	f842 5b04 	str.w	r5, [r2], #4
100033c0:	4293      	cmp	r3, r2
100033c2:	d1fb      	bne.n	100033bc <memset+0x70>
100033c4:	f00c 0403 	and.w	r4, ip, #3
100033c8:	b12c      	cbz	r4, 100033d6 <memset+0x8a>
100033ca:	b2c9      	uxtb	r1, r1
100033cc:	441c      	add	r4, r3
100033ce:	f803 1b01 	strb.w	r1, [r3], #1
100033d2:	42a3      	cmp	r3, r4
100033d4:	d1fb      	bne.n	100033ce <memset+0x82>
100033d6:	bd70      	pop	{r4, r5, r6, pc}
100033d8:	4664      	mov	r4, ip
100033da:	4613      	mov	r3, r2
100033dc:	2c00      	cmp	r4, #0
100033de:	d1f4      	bne.n	100033ca <memset+0x7e>
100033e0:	e7f9      	b.n	100033d6 <memset+0x8a>
100033e2:	4603      	mov	r3, r0
100033e4:	4614      	mov	r4, r2
100033e6:	e7c0      	b.n	1000336a <memset+0x1e>
100033e8:	461a      	mov	r2, r3
100033ea:	46a4      	mov	ip, r4
100033ec:	e7e0      	b.n	100033b0 <memset+0x64>
100033ee:	bf00      	nop

100033f0 <_sbrk_r>:
100033f0:	b538      	push	{r3, r4, r5, lr}
100033f2:	2200      	movs	r2, #0
100033f4:	4d06      	ldr	r5, [pc, #24]	@ (10003410 <_sbrk_r+0x20>)
100033f6:	4604      	mov	r4, r0
100033f8:	4608      	mov	r0, r1
100033fa:	602a      	str	r2, [r5, #0]
100033fc:	f7fe ff98 	bl	10002330 <_sbrk>
10003400:	1c43      	adds	r3, r0, #1
10003402:	d000      	beq.n	10003406 <_sbrk_r+0x16>
10003404:	bd38      	pop	{r3, r4, r5, pc}
10003406:	682b      	ldr	r3, [r5, #0]
10003408:	2b00      	cmp	r3, #0
1000340a:	d0fb      	beq.n	10003404 <_sbrk_r+0x14>
1000340c:	6023      	str	r3, [r4, #0]
1000340e:	bd38      	pop	{r3, r4, r5, pc}
10003410:	200010a8 	.word	0x200010a8

10003414 <__errno>:
10003414:	4b01      	ldr	r3, [pc, #4]	@ (1000341c <__errno+0x8>)
10003416:	6818      	ldr	r0, [r3, #0]
10003418:	4770      	bx	lr
1000341a:	bf00      	nop
1000341c:	20000a90 	.word	0x20000a90

10003420 <__retarget_lock_init_recursive>:
10003420:	4770      	bx	lr
10003422:	bf00      	nop

10003424 <__retarget_lock_close_recursive>:
10003424:	4770      	bx	lr
10003426:	bf00      	nop

10003428 <__retarget_lock_acquire_recursive>:
10003428:	4770      	bx	lr
1000342a:	bf00      	nop

1000342c <__retarget_lock_release_recursive>:
1000342c:	4770      	bx	lr
1000342e:	bf00      	nop

10003430 <sysconf>:
10003430:	2808      	cmp	r0, #8
10003432:	d102      	bne.n	1000343a <sysconf+0xa>
10003434:	f44f 5080 	mov.w	r0, #4096	@ 0x1000
10003438:	4770      	bx	lr
1000343a:	b508      	push	{r3, lr}
1000343c:	f7ff ffea 	bl	10003414 <__errno>
10003440:	2216      	movs	r2, #22
10003442:	4603      	mov	r3, r0
10003444:	f04f 30ff 	mov.w	r0, #4294967295
10003448:	601a      	str	r2, [r3, #0]
1000344a:	bd08      	pop	{r3, pc}

1000344c <memcpy>:
1000344c:	4684      	mov	ip, r0
1000344e:	ea41 0300 	orr.w	r3, r1, r0
10003452:	f013 0303 	ands.w	r3, r3, #3
10003456:	d149      	bne.n	100034ec <memcpy+0xa0>
10003458:	3a40      	subs	r2, #64	@ 0x40
1000345a:	d323      	bcc.n	100034a4 <memcpy+0x58>
1000345c:	680b      	ldr	r3, [r1, #0]
1000345e:	6003      	str	r3, [r0, #0]
10003460:	684b      	ldr	r3, [r1, #4]
10003462:	6043      	str	r3, [r0, #4]
10003464:	688b      	ldr	r3, [r1, #8]
10003466:	6083      	str	r3, [r0, #8]
10003468:	68cb      	ldr	r3, [r1, #12]
1000346a:	60c3      	str	r3, [r0, #12]
1000346c:	690b      	ldr	r3, [r1, #16]
1000346e:	6103      	str	r3, [r0, #16]
10003470:	694b      	ldr	r3, [r1, #20]
10003472:	6143      	str	r3, [r0, #20]
10003474:	698b      	ldr	r3, [r1, #24]
10003476:	6183      	str	r3, [r0, #24]
10003478:	69cb      	ldr	r3, [r1, #28]
1000347a:	61c3      	str	r3, [r0, #28]
1000347c:	6a0b      	ldr	r3, [r1, #32]
1000347e:	6203      	str	r3, [r0, #32]
10003480:	6a4b      	ldr	r3, [r1, #36]	@ 0x24
10003482:	6243      	str	r3, [r0, #36]	@ 0x24
10003484:	6a8b      	ldr	r3, [r1, #40]	@ 0x28
10003486:	6283      	str	r3, [r0, #40]	@ 0x28
10003488:	6acb      	ldr	r3, [r1, #44]	@ 0x2c
1000348a:	62c3      	str	r3, [r0, #44]	@ 0x2c
1000348c:	6b0b      	ldr	r3, [r1, #48]	@ 0x30
1000348e:	6303      	str	r3, [r0, #48]	@ 0x30
10003490:	6b4b      	ldr	r3, [r1, #52]	@ 0x34
10003492:	6343      	str	r3, [r0, #52]	@ 0x34
10003494:	6b8b      	ldr	r3, [r1, #56]	@ 0x38
10003496:	6383      	str	r3, [r0, #56]	@ 0x38
10003498:	6bcb      	ldr	r3, [r1, #60]	@ 0x3c
1000349a:	63c3      	str	r3, [r0, #60]	@ 0x3c
1000349c:	3040      	adds	r0, #64	@ 0x40
1000349e:	3140      	adds	r1, #64	@ 0x40
100034a0:	3a40      	subs	r2, #64	@ 0x40
100034a2:	d2db      	bcs.n	1000345c <memcpy+0x10>
100034a4:	3230      	adds	r2, #48	@ 0x30
100034a6:	d30b      	bcc.n	100034c0 <memcpy+0x74>
100034a8:	680b      	ldr	r3, [r1, #0]
100034aa:	6003      	str	r3, [r0, #0]
100034ac:	684b      	ldr	r3, [r1, #4]
100034ae:	6043      	str	r3, [r0, #4]
100034b0:	688b      	ldr	r3, [r1, #8]
100034b2:	6083      	str	r3, [r0, #8]
100034b4:	68cb      	ldr	r3, [r1, #12]
100034b6:	60c3      	str	r3, [r0, #12]
100034b8:	3010      	adds	r0, #16
100034ba:	3110      	adds	r1, #16
100034bc:	3a10      	subs	r2, #16
100034be:	d2f3      	bcs.n	100034a8 <memcpy+0x5c>
100034c0:	320c      	adds	r2, #12
100034c2:	d305      	bcc.n	100034d0 <memcpy+0x84>
100034c4:	f851 3b04 	ldr.w	r3, [r1], #4
100034c8:	f840 3b04 	str.w	r3, [r0], #4
100034cc:	3a04      	subs	r2, #4
100034ce:	d2f9      	bcs.n	100034c4 <memcpy+0x78>
100034d0:	3204      	adds	r2, #4
100034d2:	d008      	beq.n	100034e6 <memcpy+0x9a>
100034d4:	07d2      	lsls	r2, r2, #31
100034d6:	bf1c      	itt	ne
100034d8:	f811 3b01 	ldrbne.w	r3, [r1], #1
100034dc:	f800 3b01 	strbne.w	r3, [r0], #1
100034e0:	d301      	bcc.n	100034e6 <memcpy+0x9a>
100034e2:	880b      	ldrh	r3, [r1, #0]
100034e4:	8003      	strh	r3, [r0, #0]
100034e6:	4660      	mov	r0, ip
100034e8:	4770      	bx	lr
100034ea:	bf00      	nop
100034ec:	2a08      	cmp	r2, #8
100034ee:	d313      	bcc.n	10003518 <memcpy+0xcc>
100034f0:	078b      	lsls	r3, r1, #30
100034f2:	d0b1      	beq.n	10003458 <memcpy+0xc>
100034f4:	f010 0303 	ands.w	r3, r0, #3
100034f8:	d0ae      	beq.n	10003458 <memcpy+0xc>
100034fa:	f1c3 0304 	rsb	r3, r3, #4
100034fe:	1ad2      	subs	r2, r2, r3
10003500:	07db      	lsls	r3, r3, #31
10003502:	bf1c      	itt	ne
10003504:	f811 3b01 	ldrbne.w	r3, [r1], #1
10003508:	f800 3b01 	strbne.w	r3, [r0], #1
1000350c:	d3a4      	bcc.n	10003458 <memcpy+0xc>
1000350e:	f831 3b02 	ldrh.w	r3, [r1], #2
10003512:	f820 3b02 	strh.w	r3, [r0], #2
10003516:	e79f      	b.n	10003458 <memcpy+0xc>
10003518:	3a04      	subs	r2, #4
1000351a:	d3d9      	bcc.n	100034d0 <memcpy+0x84>
1000351c:	3a01      	subs	r2, #1
1000351e:	f811 3b01 	ldrb.w	r3, [r1], #1
10003522:	f800 3b01 	strb.w	r3, [r0], #1
10003526:	d2f9      	bcs.n	1000351c <memcpy+0xd0>
10003528:	780b      	ldrb	r3, [r1, #0]
1000352a:	7003      	strb	r3, [r0, #0]
1000352c:	784b      	ldrb	r3, [r1, #1]
1000352e:	7043      	strb	r3, [r0, #1]
10003530:	788b      	ldrb	r3, [r1, #2]
10003532:	7083      	strb	r3, [r0, #2]
10003534:	4660      	mov	r0, ip
10003536:	4770      	bx	lr

10003538 <strlen>:
10003538:	f020 0103 	bic.w	r1, r0, #3
1000353c:	f010 0003 	ands.w	r0, r0, #3
10003540:	f1c0 0000 	rsb	r0, r0, #0
10003544:	f851 3b04 	ldr.w	r3, [r1], #4
10003548:	f100 0c04 	add.w	ip, r0, #4
1000354c:	ea4f 0ccc 	mov.w	ip, ip, lsl #3
10003550:	f06f 0200 	mvn.w	r2, #0
10003554:	bf1c      	itt	ne
10003556:	fa22 f20c 	lsrne.w	r2, r2, ip
1000355a:	4313      	orrne	r3, r2
1000355c:	f04f 0c01 	mov.w	ip, #1
10003560:	ea4c 2c0c 	orr.w	ip, ip, ip, lsl #8
10003564:	ea4c 4c0c 	orr.w	ip, ip, ip, lsl #16
10003568:	eba3 020c 	sub.w	r2, r3, ip
1000356c:	ea22 0203 	bic.w	r2, r2, r3
10003570:	ea12 12cc 	ands.w	r2, r2, ip, lsl #7
10003574:	bf04      	itt	eq
10003576:	f851 3b04 	ldreq.w	r3, [r1], #4
1000357a:	3004      	addeq	r0, #4
1000357c:	d0f4      	beq.n	10003568 <strlen+0x30>
1000357e:	f1c2 0100 	rsb	r1, r2, #0
10003582:	ea02 0201 	and.w	r2, r2, r1
10003586:	fab2 f282 	clz	r2, r2
1000358a:	f1c2 021f 	rsb	r2, r2, #31
1000358e:	eb00 00d2 	add.w	r0, r0, r2, lsr #3
10003592:	4770      	bx	lr

10003594 <_malloc_trim_r>:
10003594:	e92d 43f8 	stmdb	sp!, {r3, r4, r5, r6, r7, r8, r9, lr}
10003598:	4606      	mov	r6, r0
1000359a:	f8df 80ac 	ldr.w	r8, [pc, #172]	@ 10003648 <_malloc_trim_r+0xb4>
1000359e:	2008      	movs	r0, #8
100035a0:	4689      	mov	r9, r1
100035a2:	f7ff ff45 	bl	10003430 <sysconf>
100035a6:	4605      	mov	r5, r0
100035a8:	4630      	mov	r0, r6
100035aa:	f7ff fc7f 	bl	10002eac <__malloc_lock>
100035ae:	f8d8 3008 	ldr.w	r3, [r8, #8]
100035b2:	685f      	ldr	r7, [r3, #4]
100035b4:	f027 0703 	bic.w	r7, r7, #3
100035b8:	f1a7 0411 	sub.w	r4, r7, #17
100035bc:	eba4 0409 	sub.w	r4, r4, r9
100035c0:	442c      	add	r4, r5
100035c2:	fbb4 f4f5 	udiv	r4, r4, r5
100035c6:	3c01      	subs	r4, #1
100035c8:	fb05 f404 	mul.w	r4, r5, r4
100035cc:	42a5      	cmp	r5, r4
100035ce:	dc08      	bgt.n	100035e2 <_malloc_trim_r+0x4e>
100035d0:	2100      	movs	r1, #0
100035d2:	4630      	mov	r0, r6
100035d4:	f7ff ff0c 	bl	100033f0 <_sbrk_r>
100035d8:	f8d8 3008 	ldr.w	r3, [r8, #8]
100035dc:	443b      	add	r3, r7
100035de:	4298      	cmp	r0, r3
100035e0:	d005      	beq.n	100035ee <_malloc_trim_r+0x5a>
100035e2:	4630      	mov	r0, r6
100035e4:	f7ff fc68 	bl	10002eb8 <__malloc_unlock>
100035e8:	2000      	movs	r0, #0
100035ea:	e8bd 83f8 	ldmia.w	sp!, {r3, r4, r5, r6, r7, r8, r9, pc}
100035ee:	4261      	negs	r1, r4
100035f0:	4630      	mov	r0, r6
100035f2:	f7ff fefd 	bl	100033f0 <_sbrk_r>
100035f6:	3001      	adds	r0, #1
100035f8:	d00f      	beq.n	1000361a <_malloc_trim_r+0x86>
100035fa:	1b3f      	subs	r7, r7, r4
100035fc:	4a10      	ldr	r2, [pc, #64]	@ (10003640 <_malloc_trim_r+0xac>)
100035fe:	f8d8 3008 	ldr.w	r3, [r8, #8]
10003602:	4630      	mov	r0, r6
10003604:	f047 0701 	orr.w	r7, r7, #1
10003608:	605f      	str	r7, [r3, #4]
1000360a:	6813      	ldr	r3, [r2, #0]
1000360c:	1b1b      	subs	r3, r3, r4
1000360e:	6013      	str	r3, [r2, #0]
10003610:	f7ff fc52 	bl	10002eb8 <__malloc_unlock>
10003614:	2001      	movs	r0, #1
10003616:	e8bd 83f8 	ldmia.w	sp!, {r3, r4, r5, r6, r7, r8, r9, pc}
1000361a:	2100      	movs	r1, #0
1000361c:	4630      	mov	r0, r6
1000361e:	f7ff fee7 	bl	100033f0 <_sbrk_r>
10003622:	f8d8 2008 	ldr.w	r2, [r8, #8]
10003626:	1a83      	subs	r3, r0, r2
10003628:	2b0f      	cmp	r3, #15
1000362a:	ddda      	ble.n	100035e2 <_malloc_trim_r+0x4e>
1000362c:	f043 0301 	orr.w	r3, r3, #1
10003630:	4903      	ldr	r1, [pc, #12]	@ (10003640 <_malloc_trim_r+0xac>)
10003632:	6053      	str	r3, [r2, #4]
10003634:	4b03      	ldr	r3, [pc, #12]	@ (10003644 <_malloc_trim_r+0xb0>)
10003636:	681b      	ldr	r3, [r3, #0]
10003638:	1ac0      	subs	r0, r0, r3
1000363a:	6008      	str	r0, [r1, #0]
1000363c:	e7d1      	b.n	100035e2 <_malloc_trim_r+0x4e>
1000363e:	bf00      	nop
10003640:	20000ee0 	.word	0x20000ee0
10003644:	2000067c 	.word	0x2000067c
10003648:	20000688 	.word	0x20000688

1000364c <_free_r>:
1000364c:	2900      	cmp	r1, #0
1000364e:	d07c      	beq.n	1000374a <_free_r+0xfe>
10003650:	e92d 41f0 	stmdb	sp!, {r4, r5, r6, r7, r8, lr}
10003654:	460c      	mov	r4, r1
10003656:	4680      	mov	r8, r0
10003658:	f7ff fc28 	bl	10002eac <__malloc_lock>
1000365c:	4f76      	ldr	r7, [pc, #472]	@ (10003838 <_free_r+0x1ec>)
1000365e:	f854 3c04 	ldr.w	r3, [r4, #-4]
10003662:	f1a4 0508 	sub.w	r5, r4, #8
10003666:	68be      	ldr	r6, [r7, #8]
10003668:	f023 0101 	bic.w	r1, r3, #1
1000366c:	1868      	adds	r0, r5, r1
1000366e:	6842      	ldr	r2, [r0, #4]
10003670:	4286      	cmp	r6, r0
10003672:	f022 0203 	bic.w	r2, r2, #3
10003676:	f000 8083 	beq.w	10003780 <_free_r+0x134>
1000367a:	07de      	lsls	r6, r3, #31
1000367c:	eb00 0c02 	add.w	ip, r0, r2
10003680:	6042      	str	r2, [r0, #4]
10003682:	d433      	bmi.n	100036ec <_free_r+0xa0>
10003684:	f854 4c08 	ldr.w	r4, [r4, #-8]
10003688:	f8dc 3004 	ldr.w	r3, [ip, #4]
1000368c:	f107 0c08 	add.w	ip, r7, #8
10003690:	1b2d      	subs	r5, r5, r4
10003692:	4421      	add	r1, r4
10003694:	f003 0301 	and.w	r3, r3, #1
10003698:	68ac      	ldr	r4, [r5, #8]
1000369a:	4564      	cmp	r4, ip
1000369c:	d064      	beq.n	10003768 <_free_r+0x11c>
1000369e:	f8d5 e00c 	ldr.w	lr, [r5, #12]
100036a2:	f8c4 e00c 	str.w	lr, [r4, #12]
100036a6:	f8ce 4008 	str.w	r4, [lr, #8]
100036aa:	2b00      	cmp	r3, #0
100036ac:	f000 8081 	beq.w	100037b2 <_free_r+0x166>
100036b0:	f041 0301 	orr.w	r3, r1, #1
100036b4:	606b      	str	r3, [r5, #4]
100036b6:	6001      	str	r1, [r0, #0]
100036b8:	f5b1 7f00 	cmp.w	r1, #512	@ 0x200
100036bc:	d222      	bcs.n	10003704 <_free_r+0xb8>
100036be:	08cb      	lsrs	r3, r1, #3
100036c0:	2201      	movs	r2, #1
100036c2:	0949      	lsrs	r1, r1, #5
100036c4:	3301      	adds	r3, #1
100036c6:	408a      	lsls	r2, r1
100036c8:	6879      	ldr	r1, [r7, #4]
100036ca:	430a      	orrs	r2, r1
100036cc:	f857 1033 	ldr.w	r1, [r7, r3, lsl #3]
100036d0:	607a      	str	r2, [r7, #4]
100036d2:	eb07 02c3 	add.w	r2, r7, r3, lsl #3
100036d6:	3a08      	subs	r2, #8
100036d8:	e9c5 1202 	strd	r1, r2, [r5, #8]
100036dc:	f847 5033 	str.w	r5, [r7, r3, lsl #3]
100036e0:	60cd      	str	r5, [r1, #12]
100036e2:	4640      	mov	r0, r8
100036e4:	e8bd 41f0 	ldmia.w	sp!, {r4, r5, r6, r7, r8, lr}
100036e8:	f7ff bbe6 	b.w	10002eb8 <__malloc_unlock>
100036ec:	f8dc 3004 	ldr.w	r3, [ip, #4]
100036f0:	07db      	lsls	r3, r3, #31
100036f2:	d52b      	bpl.n	1000374c <_free_r+0x100>
100036f4:	f041 0301 	orr.w	r3, r1, #1
100036f8:	f5b1 7f00 	cmp.w	r1, #512	@ 0x200
100036fc:	f844 3c04 	str.w	r3, [r4, #-4]
10003700:	6001      	str	r1, [r0, #0]
10003702:	d3dc      	bcc.n	100036be <_free_r+0x72>
10003704:	f5b1 6f20 	cmp.w	r1, #2560	@ 0xa00
10003708:	ea4f 2351 	mov.w	r3, r1, lsr #9
1000370c:	d253      	bcs.n	100037b6 <_free_r+0x16a>
1000370e:	098b      	lsrs	r3, r1, #6
10003710:	f103 0039 	add.w	r0, r3, #57	@ 0x39
10003714:	f103 0238 	add.w	r2, r3, #56	@ 0x38
10003718:	00c3      	lsls	r3, r0, #3
1000371a:	18f8      	adds	r0, r7, r3
1000371c:	58fb      	ldr	r3, [r7, r3]
1000371e:	3808      	subs	r0, #8
10003720:	4298      	cmp	r0, r3
10003722:	d103      	bne.n	1000372c <_free_r+0xe0>
10003724:	e061      	b.n	100037ea <_free_r+0x19e>
10003726:	689b      	ldr	r3, [r3, #8]
10003728:	4298      	cmp	r0, r3
1000372a:	d004      	beq.n	10003736 <_free_r+0xea>
1000372c:	685a      	ldr	r2, [r3, #4]
1000372e:	f022 0203 	bic.w	r2, r2, #3
10003732:	428a      	cmp	r2, r1
10003734:	d8f7      	bhi.n	10003726 <_free_r+0xda>
10003736:	68d8      	ldr	r0, [r3, #12]
10003738:	e9c5 3002 	strd	r3, r0, [r5, #8]
1000373c:	6085      	str	r5, [r0, #8]
1000373e:	4640      	mov	r0, r8
10003740:	60dd      	str	r5, [r3, #12]
10003742:	e8bd 41f0 	ldmia.w	sp!, {r4, r5, r6, r7, r8, lr}
10003746:	f7ff bbb7 	b.w	10002eb8 <__malloc_unlock>
1000374a:	4770      	bx	lr
1000374c:	4411      	add	r1, r2
1000374e:	f107 0c08 	add.w	ip, r7, #8
10003752:	6883      	ldr	r3, [r0, #8]
10003754:	4563      	cmp	r3, ip
10003756:	d03f      	beq.n	100037d8 <_free_r+0x18c>
10003758:	68c2      	ldr	r2, [r0, #12]
1000375a:	60da      	str	r2, [r3, #12]
1000375c:	6093      	str	r3, [r2, #8]
1000375e:	f041 0301 	orr.w	r3, r1, #1
10003762:	606b      	str	r3, [r5, #4]
10003764:	5069      	str	r1, [r5, r1]
10003766:	e7a7      	b.n	100036b8 <_free_r+0x6c>
10003768:	2b00      	cmp	r3, #0
1000376a:	d15f      	bne.n	1000382c <_free_r+0x1e0>
1000376c:	440a      	add	r2, r1
1000376e:	e9d0 1302 	ldrd	r1, r3, [r0, #8]
10003772:	60cb      	str	r3, [r1, #12]
10003774:	6099      	str	r1, [r3, #8]
10003776:	f042 0301 	orr.w	r3, r2, #1
1000377a:	606b      	str	r3, [r5, #4]
1000377c:	50aa      	str	r2, [r5, r2]
1000377e:	e7b0      	b.n	100036e2 <_free_r+0x96>
10003780:	07db      	lsls	r3, r3, #31
10003782:	440a      	add	r2, r1
10003784:	d407      	bmi.n	10003796 <_free_r+0x14a>
10003786:	f854 3c08 	ldr.w	r3, [r4, #-8]
1000378a:	1aed      	subs	r5, r5, r3
1000378c:	441a      	add	r2, r3
1000378e:	e9d5 1302 	ldrd	r1, r3, [r5, #8]
10003792:	60cb      	str	r3, [r1, #12]
10003794:	6099      	str	r1, [r3, #8]
10003796:	f042 0301 	orr.w	r3, r2, #1
1000379a:	606b      	str	r3, [r5, #4]
1000379c:	4b27      	ldr	r3, [pc, #156]	@ (1000383c <_free_r+0x1f0>)
1000379e:	60bd      	str	r5, [r7, #8]
100037a0:	681b      	ldr	r3, [r3, #0]
100037a2:	4293      	cmp	r3, r2
100037a4:	d89d      	bhi.n	100036e2 <_free_r+0x96>
100037a6:	4b26      	ldr	r3, [pc, #152]	@ (10003840 <_free_r+0x1f4>)
100037a8:	4640      	mov	r0, r8
100037aa:	6819      	ldr	r1, [r3, #0]
100037ac:	f7ff fef2 	bl	10003594 <_malloc_trim_r>
100037b0:	e797      	b.n	100036e2 <_free_r+0x96>
100037b2:	4411      	add	r1, r2
100037b4:	e7cd      	b.n	10003752 <_free_r+0x106>
100037b6:	2b14      	cmp	r3, #20
100037b8:	d908      	bls.n	100037cc <_free_r+0x180>
100037ba:	2b54      	cmp	r3, #84	@ 0x54
100037bc:	d81d      	bhi.n	100037fa <_free_r+0x1ae>
100037be:	0b0b      	lsrs	r3, r1, #12
100037c0:	f103 006f 	add.w	r0, r3, #111	@ 0x6f
100037c4:	f103 026e 	add.w	r2, r3, #110	@ 0x6e
100037c8:	00c3      	lsls	r3, r0, #3
100037ca:	e7a6      	b.n	1000371a <_free_r+0xce>
100037cc:	f103 005c 	add.w	r0, r3, #92	@ 0x5c
100037d0:	f103 025b 	add.w	r2, r3, #91	@ 0x5b
100037d4:	00c3      	lsls	r3, r0, #3
100037d6:	e7a0      	b.n	1000371a <_free_r+0xce>
100037d8:	f041 0301 	orr.w	r3, r1, #1
100037dc:	e9c7 5504 	strd	r5, r5, [r7, #16]
100037e0:	e9c5 cc02 	strd	ip, ip, [r5, #8]
100037e4:	606b      	str	r3, [r5, #4]
100037e6:	5069      	str	r1, [r5, r1]
100037e8:	e77b      	b.n	100036e2 <_free_r+0x96>
100037ea:	2101      	movs	r1, #1
100037ec:	1092      	asrs	r2, r2, #2
100037ee:	fa01 f202 	lsl.w	r2, r1, r2
100037f2:	6879      	ldr	r1, [r7, #4]
100037f4:	430a      	orrs	r2, r1
100037f6:	607a      	str	r2, [r7, #4]
100037f8:	e79e      	b.n	10003738 <_free_r+0xec>
100037fa:	f5b3 7faa 	cmp.w	r3, #340	@ 0x154
100037fe:	d806      	bhi.n	1000380e <_free_r+0x1c2>
10003800:	0bcb      	lsrs	r3, r1, #15
10003802:	f103 0078 	add.w	r0, r3, #120	@ 0x78
10003806:	f103 0277 	add.w	r2, r3, #119	@ 0x77
1000380a:	00c3      	lsls	r3, r0, #3
1000380c:	e785      	b.n	1000371a <_free_r+0xce>
1000380e:	f240 5254 	movw	r2, #1364	@ 0x554
10003812:	4293      	cmp	r3, r2
10003814:	d806      	bhi.n	10003824 <_free_r+0x1d8>
10003816:	0c8b      	lsrs	r3, r1, #18
10003818:	f103 007d 	add.w	r0, r3, #125	@ 0x7d
1000381c:	f103 027c 	add.w	r2, r3, #124	@ 0x7c
10003820:	00c3      	lsls	r3, r0, #3
10003822:	e77a      	b.n	1000371a <_free_r+0xce>
10003824:	f44f 737e 	mov.w	r3, #1016	@ 0x3f8
10003828:	227e      	movs	r2, #126	@ 0x7e
1000382a:	e776      	b.n	1000371a <_free_r+0xce>
1000382c:	f041 0301 	orr.w	r3, r1, #1
10003830:	606b      	str	r3, [r5, #4]
10003832:	6001      	str	r1, [r0, #0]
10003834:	e755      	b.n	100036e2 <_free_r+0x96>
10003836:	bf00      	nop
10003838:	20000688 	.word	0x20000688
1000383c:	20000680 	.word	0x20000680
10003840:	20000f10 	.word	0x20000f10
10003844:	00000000 	.word	0x00000000

10003848 <_vfprintf_r>:
10003848:	e92d 4ff0 	stmdb	sp!, {r4, r5, r6, r7, r8, r9, sl, fp, lr}
1000384c:	b0e1      	sub	sp, #388	@ 0x184
1000384e:	461c      	mov	r4, r3
10003850:	4683      	mov	fp, r0
10003852:	910b      	str	r1, [sp, #44]	@ 0x2c
10003854:	f10d 0ac0 	add.w	sl, sp, #192	@ 0xc0
10003858:	920d      	str	r2, [sp, #52]	@ 0x34
1000385a:	9312      	str	r3, [sp, #72]	@ 0x48
1000385c:	f002 fa98 	bl	10005d90 <_localeconv_r>
10003860:	6803      	ldr	r3, [r0, #0]
10003862:	4618      	mov	r0, r3
10003864:	931b      	str	r3, [sp, #108]	@ 0x6c
10003866:	f7ff fe67 	bl	10003538 <strlen>
1000386a:	2208      	movs	r2, #8
1000386c:	901a      	str	r0, [sp, #104]	@ 0x68
1000386e:	2100      	movs	r1, #0
10003870:	4650      	mov	r0, sl
10003872:	f7ff fd6b 	bl	1000334c <memset>
10003876:	f1bb 0f00 	cmp.w	fp, #0
1000387a:	d004      	beq.n	10003886 <_vfprintf_r+0x3e>
1000387c:	f8db 3034 	ldr.w	r3, [fp, #52]	@ 0x34
10003880:	2b00      	cmp	r3, #0
10003882:	f001 80c3 	beq.w	10004a0c <_vfprintf_r+0x11c4>
10003886:	9a0b      	ldr	r2, [sp, #44]	@ 0x2c
10003888:	6e53      	ldr	r3, [r2, #100]	@ 0x64
1000388a:	f9b2 200c 	ldrsh.w	r2, [r2, #12]
1000388e:	07dd      	lsls	r5, r3, #31
10003890:	d402      	bmi.n	10003898 <_vfprintf_r+0x50>
10003892:	0590      	lsls	r0, r2, #22
10003894:	f140 86b7 	bpl.w	10004606 <_vfprintf_r+0xdbe>
10003898:	0491      	lsls	r1, r2, #18
1000389a:	d406      	bmi.n	100038aa <_vfprintf_r+0x62>
1000389c:	990b      	ldr	r1, [sp, #44]	@ 0x2c
1000389e:	f442 5200 	orr.w	r2, r2, #8192	@ 0x2000
100038a2:	f423 5300 	bic.w	r3, r3, #8192	@ 0x2000
100038a6:	818a      	strh	r2, [r1, #12]
100038a8:	664b      	str	r3, [r1, #100]	@ 0x64
100038aa:	049a      	lsls	r2, r3, #18
100038ac:	f101 844f 	bmi.w	1000514e <_vfprintf_r+0x1906>
100038b0:	9a0b      	ldr	r2, [sp, #44]	@ 0x2c
100038b2:	f9b2 300c 	ldrsh.w	r3, [r2, #12]
100038b6:	071d      	lsls	r5, r3, #28
100038b8:	f140 80cd 	bpl.w	10003a56 <_vfprintf_r+0x20e>
100038bc:	6912      	ldr	r2, [r2, #16]
100038be:	2a00      	cmp	r2, #0
100038c0:	f000 80c9 	beq.w	10003a56 <_vfprintf_r+0x20e>
100038c4:	f003 021a 	and.w	r2, r3, #26
100038c8:	2a0a      	cmp	r2, #10
100038ca:	f000 80d3 	beq.w	10003a74 <_vfprintf_r+0x22c>
100038ce:	2300      	movs	r3, #0
100038d0:	ed9f 7b9d 	vldr	d7, [pc, #628]	@ 10003b48 <_vfprintf_r+0x300>
100038d4:	469e      	mov	lr, r3
100038d6:	e9cd 3335 	strd	r3, r3, [sp, #212]	@ 0xd4
100038da:	ab37      	add	r3, sp, #220	@ 0xdc
100038dc:	f8cd e070 	str.w	lr, [sp, #112]	@ 0x70
100038e0:	f8cd e038 	str.w	lr, [sp, #56]	@ 0x38
100038e4:	9334      	str	r3, [sp, #208]	@ 0xd0
100038e6:	930a      	str	r3, [sp, #40]	@ 0x28
100038e8:	f8cd e058 	str.w	lr, [sp, #88]	@ 0x58
100038ec:	e9cd ee1d 	strd	lr, lr, [sp, #116]	@ 0x74
100038f0:	e9cd ee1f 	strd	lr, lr, [sp, #124]	@ 0x7c
100038f4:	ed8d 7b18 	vstr	d7, [sp, #96]	@ 0x60
100038f8:	9e0d      	ldr	r6, [sp, #52]	@ 0x34
100038fa:	4b95      	ldr	r3, [pc, #596]	@ (10003b50 <_vfprintf_r+0x308>)
100038fc:	f8d3 40e4 	ldr.w	r4, [r3, #228]	@ 0xe4
10003900:	f002 fa40 	bl	10005d84 <__locale_mb_cur_max>
10003904:	4632      	mov	r2, r6
10003906:	4603      	mov	r3, r0
10003908:	a92c      	add	r1, sp, #176	@ 0xb0
1000390a:	4658      	mov	r0, fp
1000390c:	f8cd a000 	str.w	sl, [sp]
10003910:	47a0      	blx	r4
10003912:	2800      	cmp	r0, #0
10003914:	4603      	mov	r3, r0
10003916:	f000 80cc 	beq.w	10003ab2 <_vfprintf_r+0x26a>
1000391a:	f2c0 80c2 	blt.w	10003aa2 <_vfprintf_r+0x25a>
1000391e:	9a2c      	ldr	r2, [sp, #176]	@ 0xb0
10003920:	2a25      	cmp	r2, #37	@ 0x25
10003922:	d001      	beq.n	10003928 <_vfprintf_r+0xe0>
10003924:	441e      	add	r6, r3
10003926:	e7e8      	b.n	100038fa <_vfprintf_r+0xb2>
10003928:	9b0d      	ldr	r3, [sp, #52]	@ 0x34
1000392a:	4605      	mov	r5, r0
1000392c:	1af7      	subs	r7, r6, r3
1000392e:	f040 80c4 	bne.w	10003aba <_vfprintf_r+0x272>
10003932:	2300      	movs	r3, #0
10003934:	f04f 32ff 	mov.w	r2, #4294967295
10003938:	1c74      	adds	r4, r6, #1
1000393a:	4619      	mov	r1, r3
1000393c:	f88d 30a7 	strb.w	r3, [sp, #167]	@ 0xa7
10003940:	9310      	str	r3, [sp, #64]	@ 0x40
10003942:	7873      	ldrb	r3, [r6, #1]
10003944:	920c      	str	r2, [sp, #48]	@ 0x30
10003946:	9107      	str	r1, [sp, #28]
10003948:	3401      	adds	r4, #1
1000394a:	461f      	mov	r7, r3
1000394c:	f1a7 0320 	sub.w	r3, r7, #32
10003950:	2b5a      	cmp	r3, #90	@ 0x5a
10003952:	f200 80ff 	bhi.w	10003b54 <_vfprintf_r+0x30c>
10003956:	e8df f013 	tbh	[pc, r3, lsl #1]
1000395a:	0341      	.short	0x0341
1000395c:	00fd00fd 	.word	0x00fd00fd
10003960:	00fd033b 	.word	0x00fd033b
10003964:	00fd00fd 	.word	0x00fd00fd
10003968:	00fd006a 	.word	0x00fd006a
1000396c:	029000fd 	.word	0x029000fd
10003970:	00fd02a1 	.word	0x00fd02a1
10003974:	0320029b 	.word	0x0320029b
10003978:	031a00fd 	.word	0x031a00fd
1000397c:	005b005b 	.word	0x005b005b
10003980:	005b005b 	.word	0x005b005b
10003984:	005b005b 	.word	0x005b005b
10003988:	005b005b 	.word	0x005b005b
1000398c:	00fd005b 	.word	0x00fd005b
10003990:	00fd00fd 	.word	0x00fd00fd
10003994:	00fd00fd 	.word	0x00fd00fd
10003998:	00fd00fd 	.word	0x00fd00fd
1000399c:	00fd017d 	.word	0x00fd017d
100039a0:	02b50219 	.word	0x02b50219
100039a4:	017d017d 	.word	0x017d017d
100039a8:	00fd017d 	.word	0x00fd017d
100039ac:	00fd00fd 	.word	0x00fd00fd
100039b0:	02af00fd 	.word	0x02af00fd
100039b4:	00fd00fd 	.word	0x00fd00fd
100039b8:	00fd034b 	.word	0x00fd034b
100039bc:	00fd00fd 	.word	0x00fd00fd
100039c0:	00fd0237 	.word	0x00fd0237
100039c4:	00fd02d7 	.word	0x00fd02d7
100039c8:	077e00fd 	.word	0x077e00fd
100039cc:	00fd00fd 	.word	0x00fd00fd
100039d0:	00fd00fd 	.word	0x00fd00fd
100039d4:	00fd00fd 	.word	0x00fd00fd
100039d8:	00fd00fd 	.word	0x00fd00fd
100039dc:	00fd017d 	.word	0x00fd017d
100039e0:	02690219 	.word	0x02690219
100039e4:	017d017d 	.word	0x017d017d
100039e8:	0363017d 	.word	0x0363017d
100039ec:	02130269 	.word	0x02130269
100039f0:	02a600fd 	.word	0x02a600fd
100039f4:	037e00fd 	.word	0x037e00fd
100039f8:	036c07a3 	.word	0x036c07a3
100039fc:	00fd0213 	.word	0x00fd0213
10003a00:	007c0237 	.word	0x007c0237
10003a04:	00fd07a6 	.word	0x00fd07a6
10003a08:	07aa00fd 	.word	0x07aa00fd
10003a0c:	007c00fd 	.word	0x007c00fd
10003a10:	f1a7 0330 	sub.w	r3, r7, #48	@ 0x30
10003a14:	2200      	movs	r2, #0
10003a16:	eb02 0282 	add.w	r2, r2, r2, lsl #2
10003a1a:	f814 7b01 	ldrb.w	r7, [r4], #1
10003a1e:	eb03 0242 	add.w	r2, r3, r2, lsl #1
10003a22:	f1a7 0330 	sub.w	r3, r7, #48	@ 0x30
10003a26:	2b09      	cmp	r3, #9
10003a28:	d9f5      	bls.n	10003a16 <_vfprintf_r+0x1ce>
10003a2a:	9210      	str	r2, [sp, #64]	@ 0x40
10003a2c:	e78e      	b.n	1000394c <_vfprintf_r+0x104>
10003a2e:	4658      	mov	r0, fp
10003a30:	f002 f9ae 	bl	10005d90 <_localeconv_r>
10003a34:	6843      	ldr	r3, [r0, #4]
10003a36:	4618      	mov	r0, r3
10003a38:	931f      	str	r3, [sp, #124]	@ 0x7c
10003a3a:	f7ff fd7d 	bl	10003538 <strlen>
10003a3e:	9020      	str	r0, [sp, #128]	@ 0x80
10003a40:	4605      	mov	r5, r0
10003a42:	4658      	mov	r0, fp
10003a44:	f002 f9a4 	bl	10005d90 <_localeconv_r>
10003a48:	6883      	ldr	r3, [r0, #8]
10003a4a:	931c      	str	r3, [sp, #112]	@ 0x70
10003a4c:	2d00      	cmp	r5, #0
10003a4e:	f040 85cb 	bne.w	100045e8 <_vfprintf_r+0xda0>
10003a52:	7823      	ldrb	r3, [r4, #0]
10003a54:	e778      	b.n	10003948 <_vfprintf_r+0x100>
10003a56:	9d0b      	ldr	r5, [sp, #44]	@ 0x2c
10003a58:	4658      	mov	r0, fp
10003a5a:	4629      	mov	r1, r5
10003a5c:	f002 f8fe 	bl	10005c5c <__swsetup_r>
10003a60:	2800      	cmp	r0, #0
10003a62:	f041 84e1 	bne.w	10005428 <_vfprintf_r+0x1be0>
10003a66:	f9b5 300c 	ldrsh.w	r3, [r5, #12]
10003a6a:	f003 021a 	and.w	r2, r3, #26
10003a6e:	2a0a      	cmp	r2, #10
10003a70:	f47f af2d 	bne.w	100038ce <_vfprintf_r+0x86>
10003a74:	990b      	ldr	r1, [sp, #44]	@ 0x2c
10003a76:	f9b1 200e 	ldrsh.w	r2, [r1, #14]
10003a7a:	2a00      	cmp	r2, #0
10003a7c:	f6ff af27 	blt.w	100038ce <_vfprintf_r+0x86>
10003a80:	6e4a      	ldr	r2, [r1, #100]	@ 0x64
10003a82:	07d2      	lsls	r2, r2, #31
10003a84:	d402      	bmi.n	10003a8c <_vfprintf_r+0x244>
10003a86:	059f      	lsls	r7, r3, #22
10003a88:	f141 81c3 	bpl.w	10004e12 <_vfprintf_r+0x15ca>
10003a8c:	4623      	mov	r3, r4
10003a8e:	9a0d      	ldr	r2, [sp, #52]	@ 0x34
10003a90:	990b      	ldr	r1, [sp, #44]	@ 0x2c
10003a92:	4658      	mov	r0, fp
10003a94:	f001 fd12 	bl	100054bc <__sbprintf>
10003a98:	900e      	str	r0, [sp, #56]	@ 0x38
10003a9a:	980e      	ldr	r0, [sp, #56]	@ 0x38
10003a9c:	b061      	add	sp, #388	@ 0x184
10003a9e:	e8bd 8ff0 	ldmia.w	sp!, {r4, r5, r6, r7, r8, r9, sl, fp, pc}
10003aa2:	2208      	movs	r2, #8
10003aa4:	2100      	movs	r1, #0
10003aa6:	4650      	mov	r0, sl
10003aa8:	f7ff fc50 	bl	1000334c <memset>
10003aac:	2301      	movs	r3, #1
10003aae:	441e      	add	r6, r3
10003ab0:	e723      	b.n	100038fa <_vfprintf_r+0xb2>
10003ab2:	9b0d      	ldr	r3, [sp, #52]	@ 0x34
10003ab4:	4605      	mov	r5, r0
10003ab6:	1af7      	subs	r7, r6, r3
10003ab8:	d013      	beq.n	10003ae2 <_vfprintf_r+0x29a>
10003aba:	9b0d      	ldr	r3, [sp, #52]	@ 0x34
10003abc:	9a0a      	ldr	r2, [sp, #40]	@ 0x28
10003abe:	e9c2 3700 	strd	r3, r7, [r2]
10003ac2:	9b36      	ldr	r3, [sp, #216]	@ 0xd8
10003ac4:	443b      	add	r3, r7
10003ac6:	9336      	str	r3, [sp, #216]	@ 0xd8
10003ac8:	9b35      	ldr	r3, [sp, #212]	@ 0xd4
10003aca:	3301      	adds	r3, #1
10003acc:	2b07      	cmp	r3, #7
10003ace:	9335      	str	r3, [sp, #212]	@ 0xd4
10003ad0:	dc11      	bgt.n	10003af6 <_vfprintf_r+0x2ae>
10003ad2:	3208      	adds	r2, #8
10003ad4:	920a      	str	r2, [sp, #40]	@ 0x28
10003ad6:	9b0e      	ldr	r3, [sp, #56]	@ 0x38
10003ad8:	443b      	add	r3, r7
10003ada:	930e      	str	r3, [sp, #56]	@ 0x38
10003adc:	2d00      	cmp	r5, #0
10003ade:	f47f af28 	bne.w	10003932 <_vfprintf_r+0xea>
10003ae2:	9b36      	ldr	r3, [sp, #216]	@ 0xd8
10003ae4:	2b00      	cmp	r3, #0
10003ae6:	f041 818a 	bne.w	10004dfe <_vfprintf_r+0x15b6>
10003aea:	2200      	movs	r2, #0
10003aec:	9b0b      	ldr	r3, [sp, #44]	@ 0x2c
10003aee:	9235      	str	r2, [sp, #212]	@ 0xd4
10003af0:	f9b3 300c 	ldrsh.w	r3, [r3, #12]
10003af4:	e019      	b.n	10003b2a <_vfprintf_r+0x2e2>
10003af6:	aa34      	add	r2, sp, #208	@ 0xd0
10003af8:	990b      	ldr	r1, [sp, #44]	@ 0x2c
10003afa:	4658      	mov	r0, fp
10003afc:	f001 fd1e 	bl	1000553c <__sprint_r>
10003b00:	b980      	cbnz	r0, 10003b24 <_vfprintf_r+0x2dc>
10003b02:	ab37      	add	r3, sp, #220	@ 0xdc
10003b04:	930a      	str	r3, [sp, #40]	@ 0x28
10003b06:	e7e6      	b.n	10003ad6 <_vfprintf_r+0x28e>
10003b08:	aa34      	add	r2, sp, #208	@ 0xd0
10003b0a:	990b      	ldr	r1, [sp, #44]	@ 0x2c
10003b0c:	4658      	mov	r0, fp
10003b0e:	f001 fd15 	bl	1000553c <__sprint_r>
10003b12:	2800      	cmp	r0, #0
10003b14:	f000 8093 	beq.w	10003c3e <_vfprintf_r+0x3f6>
10003b18:	9b11      	ldr	r3, [sp, #68]	@ 0x44
10003b1a:	b11b      	cbz	r3, 10003b24 <_vfprintf_r+0x2dc>
10003b1c:	9911      	ldr	r1, [sp, #68]	@ 0x44
10003b1e:	4658      	mov	r0, fp
10003b20:	f7ff fd94 	bl	1000364c <_free_r>
10003b24:	9b0b      	ldr	r3, [sp, #44]	@ 0x2c
10003b26:	f9b3 300c 	ldrsh.w	r3, [r3, #12]
10003b2a:	9a0b      	ldr	r2, [sp, #44]	@ 0x2c
10003b2c:	6e52      	ldr	r2, [r2, #100]	@ 0x64
10003b2e:	07d0      	lsls	r0, r2, #31
10003b30:	f140 811c 	bpl.w	10003d6c <_vfprintf_r+0x524>
10003b34:	065a      	lsls	r2, r3, #25
10003b36:	f101 8314 	bmi.w	10005162 <_vfprintf_r+0x191a>
10003b3a:	980e      	ldr	r0, [sp, #56]	@ 0x38
10003b3c:	b061      	add	sp, #388	@ 0x184
10003b3e:	e8bd 8ff0 	ldmia.w	sp!, {r4, r5, r6, r7, r8, r9, sl, fp, pc}
10003b42:	bf00      	nop
10003b44:	f3af 8000 	nop.w
	...
10003b50:	20000be4 	.word	0x20000be4
10003b54:	940d      	str	r4, [sp, #52]	@ 0x34
10003b56:	2f00      	cmp	r7, #0
10003b58:	d0c3      	beq.n	10003ae2 <_vfprintf_r+0x29a>
10003b5a:	2200      	movs	r2, #0
10003b5c:	2301      	movs	r3, #1
10003b5e:	a947      	add	r1, sp, #284	@ 0x11c
10003b60:	f88d 711c 	strb.w	r7, [sp, #284]	@ 0x11c
10003b64:	f88d 20a7 	strb.w	r2, [sp, #167]	@ 0xa7
10003b68:	9308      	str	r3, [sp, #32]
10003b6a:	9113      	str	r1, [sp, #76]	@ 0x4c
10003b6c:	9211      	str	r2, [sp, #68]	@ 0x44
10003b6e:	920c      	str	r2, [sp, #48]	@ 0x30
10003b70:	930f      	str	r3, [sp, #60]	@ 0x3c
10003b72:	9217      	str	r2, [sp, #92]	@ 0x5c
10003b74:	e9cd 2214 	strd	r2, r2, [sp, #80]	@ 0x50
10003b78:	9b07      	ldr	r3, [sp, #28]
10003b7a:	f013 0302 	ands.w	r3, r3, #2
10003b7e:	d002      	beq.n	10003b86 <_vfprintf_r+0x33e>
10003b80:	9908      	ldr	r1, [sp, #32]
10003b82:	3102      	adds	r1, #2
10003b84:	9108      	str	r1, [sp, #32]
10003b86:	9907      	ldr	r1, [sp, #28]
10003b88:	9d36      	ldr	r5, [sp, #216]	@ 0xd8
10003b8a:	f011 0484 	ands.w	r4, r1, #132	@ 0x84
10003b8e:	d105      	bne.n	10003b9c <_vfprintf_r+0x354>
10003b90:	9910      	ldr	r1, [sp, #64]	@ 0x40
10003b92:	9808      	ldr	r0, [sp, #32]
10003b94:	1a0e      	subs	r6, r1, r0
10003b96:	2e00      	cmp	r6, #0
10003b98:	f300 80a8 	bgt.w	10003cec <_vfprintf_r+0x4a4>
10003b9c:	b17a      	cbz	r2, 10003bbe <_vfprintf_r+0x376>
10003b9e:	980a      	ldr	r0, [sp, #40]	@ 0x28
10003ba0:	2201      	movs	r2, #1
10003ba2:	3501      	adds	r5, #1
10003ba4:	f10d 01a7 	add.w	r1, sp, #167	@ 0xa7
10003ba8:	6042      	str	r2, [r0, #4]
10003baa:	9a35      	ldr	r2, [sp, #212]	@ 0xd4
10003bac:	9536      	str	r5, [sp, #216]	@ 0xd8
10003bae:	3201      	adds	r2, #1
10003bb0:	6001      	str	r1, [r0, #0]
10003bb2:	2a07      	cmp	r2, #7
10003bb4:	9235      	str	r2, [sp, #212]	@ 0xd4
10003bb6:	f300 83c1 	bgt.w	1000433c <_vfprintf_r+0xaf4>
10003bba:	3008      	adds	r0, #8
10003bbc:	900a      	str	r0, [sp, #40]	@ 0x28
10003bbe:	b173      	cbz	r3, 10003bde <_vfprintf_r+0x396>
10003bc0:	9b35      	ldr	r3, [sp, #212]	@ 0xd4
10003bc2:	aa2a      	add	r2, sp, #168	@ 0xa8
10003bc4:	990a      	ldr	r1, [sp, #40]	@ 0x28
10003bc6:	3502      	adds	r5, #2
10003bc8:	3301      	adds	r3, #1
10003bca:	600a      	str	r2, [r1, #0]
10003bcc:	2202      	movs	r2, #2
10003bce:	2b07      	cmp	r3, #7
10003bd0:	9536      	str	r5, [sp, #216]	@ 0xd8
10003bd2:	9335      	str	r3, [sp, #212]	@ 0xd4
10003bd4:	604a      	str	r2, [r1, #4]
10003bd6:	f300 83a5 	bgt.w	10004324 <_vfprintf_r+0xadc>
10003bda:	3108      	adds	r1, #8
10003bdc:	910a      	str	r1, [sp, #40]	@ 0x28
10003bde:	2c80      	cmp	r4, #128	@ 0x80
10003be0:	f000 82a2 	beq.w	10004128 <_vfprintf_r+0x8e0>
10003be4:	9b0c      	ldr	r3, [sp, #48]	@ 0x30
10003be6:	9a0f      	ldr	r2, [sp, #60]	@ 0x3c
10003be8:	1a9e      	subs	r6, r3, r2
10003bea:	2e00      	cmp	r6, #0
10003bec:	f300 82df 	bgt.w	100041ae <_vfprintf_r+0x966>
10003bf0:	9b07      	ldr	r3, [sp, #28]
10003bf2:	05de      	lsls	r6, r3, #23
10003bf4:	f100 823e 	bmi.w	10004074 <_vfprintf_r+0x82c>
10003bf8:	9a0a      	ldr	r2, [sp, #40]	@ 0x28
10003bfa:	9b13      	ldr	r3, [sp, #76]	@ 0x4c
10003bfc:	6013      	str	r3, [r2, #0]
10003bfe:	9b0f      	ldr	r3, [sp, #60]	@ 0x3c
10003c00:	441d      	add	r5, r3
10003c02:	6053      	str	r3, [r2, #4]
10003c04:	9b35      	ldr	r3, [sp, #212]	@ 0xd4
10003c06:	9536      	str	r5, [sp, #216]	@ 0xd8
10003c08:	3301      	adds	r3, #1
10003c0a:	2b07      	cmp	r3, #7
10003c0c:	9335      	str	r3, [sp, #212]	@ 0xd4
10003c0e:	f300 8330 	bgt.w	10004272 <_vfprintf_r+0xa2a>
10003c12:	3208      	adds	r2, #8
10003c14:	920a      	str	r2, [sp, #40]	@ 0x28
10003c16:	9b07      	ldr	r3, [sp, #28]
10003c18:	075c      	lsls	r4, r3, #29
10003c1a:	d505      	bpl.n	10003c28 <_vfprintf_r+0x3e0>
10003c1c:	9b10      	ldr	r3, [sp, #64]	@ 0x40
10003c1e:	9a08      	ldr	r2, [sp, #32]
10003c20:	1a9e      	subs	r6, r3, r2
10003c22:	2e00      	cmp	r6, #0
10003c24:	f300 8398 	bgt.w	10004358 <_vfprintf_r+0xb10>
10003c28:	9b0e      	ldr	r3, [sp, #56]	@ 0x38
10003c2a:	9a10      	ldr	r2, [sp, #64]	@ 0x40
10003c2c:	9908      	ldr	r1, [sp, #32]
10003c2e:	428a      	cmp	r2, r1
10003c30:	bfac      	ite	ge
10003c32:	189b      	addge	r3, r3, r2
10003c34:	185b      	addlt	r3, r3, r1
10003c36:	930e      	str	r3, [sp, #56]	@ 0x38
10003c38:	2d00      	cmp	r5, #0
10003c3a:	f47f af65 	bne.w	10003b08 <_vfprintf_r+0x2c0>
10003c3e:	2300      	movs	r3, #0
10003c40:	9335      	str	r3, [sp, #212]	@ 0xd4
10003c42:	9b11      	ldr	r3, [sp, #68]	@ 0x44
10003c44:	b11b      	cbz	r3, 10003c4e <_vfprintf_r+0x406>
10003c46:	9911      	ldr	r1, [sp, #68]	@ 0x44
10003c48:	4658      	mov	r0, fp
10003c4a:	f7ff fcff 	bl	1000364c <_free_r>
10003c4e:	ab37      	add	r3, sp, #220	@ 0xdc
10003c50:	930a      	str	r3, [sp, #40]	@ 0x28
10003c52:	e651      	b.n	100038f8 <_vfprintf_r+0xb0>
10003c54:	9b12      	ldr	r3, [sp, #72]	@ 0x48
10003c56:	f04f 32ff 	mov.w	r2, #4294967295
10003c5a:	940d      	str	r4, [sp, #52]	@ 0x34
10003c5c:	3307      	adds	r3, #7
10003c5e:	f023 0107 	bic.w	r1, r3, #7
10003c62:	4ba5      	ldr	r3, [pc, #660]	@ (10003ef8 <_vfprintf_r+0x6b0>)
10003c64:	ecb1 7b02 	vldmia	r1!, {d7}
10003c68:	ec55 4b17 	vmov	r4, r5, d7
10003c6c:	9112      	str	r1, [sp, #72]	@ 0x48
10003c6e:	f025 4100 	bic.w	r1, r5, #2147483648	@ 0x80000000
10003c72:	ed8d 7a22 	vstr	s14, [sp, #136]	@ 0x88
10003c76:	9123      	str	r1, [sp, #140]	@ 0x8c
10003c78:	e9dd 8922 	ldrd	r8, r9, [sp, #136]	@ 0x88
10003c7c:	ed8d 7b18 	vstr	d7, [sp, #96]	@ 0x60
10003c80:	4640      	mov	r0, r8
10003c82:	4649      	mov	r1, r9
10003c84:	f7fe faf6 	bl	10002274 <__wrap___aeabi_dcmpun>
10003c88:	2800      	cmp	r0, #0
10003c8a:	f040 852e 	bne.w	100046ea <_vfprintf_r+0xea2>
10003c8e:	f04f 32ff 	mov.w	r2, #4294967295
10003c92:	4b99      	ldr	r3, [pc, #612]	@ (10003ef8 <_vfprintf_r+0x6b0>)
10003c94:	4640      	mov	r0, r8
10003c96:	4649      	mov	r1, r9
10003c98:	f7fe fb24 	bl	100022e4 <__wrap___aeabi_dcmple>
10003c9c:	2800      	cmp	r0, #0
10003c9e:	f040 8524 	bne.w	100046ea <_vfprintf_r+0xea2>
10003ca2:	2200      	movs	r2, #0
10003ca4:	2300      	movs	r3, #0
10003ca6:	4620      	mov	r0, r4
10003ca8:	4629      	mov	r1, r5
10003caa:	f7fe fb07 	bl	100022bc <__wrap___aeabi_dcmplt>
10003cae:	2800      	cmp	r0, #0
10003cb0:	f041 81b6 	bne.w	10005020 <_vfprintf_r+0x17d8>
10003cb4:	f89d 20a7 	ldrb.w	r2, [sp, #167]	@ 0xa7
10003cb8:	9b07      	ldr	r3, [sp, #28]
10003cba:	2000      	movs	r0, #0
10003cbc:	498f      	ldr	r1, [pc, #572]	@ (10003efc <_vfprintf_r+0x6b4>)
10003cbe:	f023 0380 	bic.w	r3, r3, #128	@ 0x80
10003cc2:	9011      	str	r0, [sp, #68]	@ 0x44
10003cc4:	9307      	str	r3, [sp, #28]
10003cc6:	4b8e      	ldr	r3, [pc, #568]	@ (10003f00 <_vfprintf_r+0x6b8>)
10003cc8:	2f47      	cmp	r7, #71	@ 0x47
10003cca:	bfd8      	it	le
10003ccc:	4619      	movle	r1, r3
10003cce:	2303      	movs	r3, #3
10003cd0:	900c      	str	r0, [sp, #48]	@ 0x30
10003cd2:	9113      	str	r1, [sp, #76]	@ 0x4c
10003cd4:	9308      	str	r3, [sp, #32]
10003cd6:	9017      	str	r0, [sp, #92]	@ 0x5c
10003cd8:	930f      	str	r3, [sp, #60]	@ 0x3c
10003cda:	e9cd 0014 	strd	r0, r0, [sp, #80]	@ 0x50
10003cde:	2a00      	cmp	r2, #0
10003ce0:	f43f af4a 	beq.w	10003b78 <_vfprintf_r+0x330>
10003ce4:	9b08      	ldr	r3, [sp, #32]
10003ce6:	3301      	adds	r3, #1
10003ce8:	9308      	str	r3, [sp, #32]
10003cea:	e745      	b.n	10003b78 <_vfprintf_r+0x330>
10003cec:	2e10      	cmp	r6, #16
10003cee:	9a35      	ldr	r2, [sp, #212]	@ 0xd4
10003cf0:	f8df 9210 	ldr.w	r9, [pc, #528]	@ 10003f04 <_vfprintf_r+0x6bc>
10003cf4:	dd2a      	ble.n	10003d4c <_vfprintf_r+0x504>
10003cf6:	4628      	mov	r0, r5
10003cf8:	f04f 0810 	mov.w	r8, #16
10003cfc:	464d      	mov	r5, r9
10003cfe:	990a      	ldr	r1, [sp, #40]	@ 0x28
10003d00:	46b9      	mov	r9, r7
10003d02:	9321      	str	r3, [sp, #132]	@ 0x84
10003d04:	4627      	mov	r7, r4
10003d06:	9c0b      	ldr	r4, [sp, #44]	@ 0x2c
10003d08:	e002      	b.n	10003d10 <_vfprintf_r+0x4c8>
10003d0a:	3e10      	subs	r6, #16
10003d0c:	2e10      	cmp	r6, #16
10003d0e:	dd17      	ble.n	10003d40 <_vfprintf_r+0x4f8>
10003d10:	3201      	adds	r2, #1
10003d12:	3010      	adds	r0, #16
10003d14:	2a07      	cmp	r2, #7
10003d16:	e9c1 5800 	strd	r5, r8, [r1]
10003d1a:	e9cd 2035 	strd	r2, r0, [sp, #212]	@ 0xd4
10003d1e:	f101 0108 	add.w	r1, r1, #8
10003d22:	ddf2      	ble.n	10003d0a <_vfprintf_r+0x4c2>
10003d24:	4621      	mov	r1, r4
10003d26:	aa34      	add	r2, sp, #208	@ 0xd0
10003d28:	4658      	mov	r0, fp
10003d2a:	f001 fc07 	bl	1000553c <__sprint_r>
10003d2e:	a937      	add	r1, sp, #220	@ 0xdc
10003d30:	2800      	cmp	r0, #0
10003d32:	f47f aef1 	bne.w	10003b18 <_vfprintf_r+0x2d0>
10003d36:	3e10      	subs	r6, #16
10003d38:	2e10      	cmp	r6, #16
10003d3a:	e9dd 2035 	ldrd	r2, r0, [sp, #212]	@ 0xd4
10003d3e:	dce7      	bgt.n	10003d10 <_vfprintf_r+0x4c8>
10003d40:	463c      	mov	r4, r7
10003d42:	9b21      	ldr	r3, [sp, #132]	@ 0x84
10003d44:	464f      	mov	r7, r9
10003d46:	46a9      	mov	r9, r5
10003d48:	4605      	mov	r5, r0
10003d4a:	910a      	str	r1, [sp, #40]	@ 0x28
10003d4c:	3201      	adds	r2, #1
10003d4e:	990a      	ldr	r1, [sp, #40]	@ 0x28
10003d50:	4435      	add	r5, r6
10003d52:	2a07      	cmp	r2, #7
10003d54:	f8c1 9000 	str.w	r9, [r1]
10003d58:	604e      	str	r6, [r1, #4]
10003d5a:	e9cd 2535 	strd	r2, r5, [sp, #212]	@ 0xd4
10003d5e:	f300 8644 	bgt.w	100049ea <_vfprintf_r+0x11a2>
10003d62:	3108      	adds	r1, #8
10003d64:	f89d 20a7 	ldrb.w	r2, [sp, #167]	@ 0xa7
10003d68:	910a      	str	r1, [sp, #40]	@ 0x28
10003d6a:	e717      	b.n	10003b9c <_vfprintf_r+0x354>
10003d6c:	0599      	lsls	r1, r3, #22
10003d6e:	f53f aee1 	bmi.w	10003b34 <_vfprintf_r+0x2ec>
10003d72:	9c0b      	ldr	r4, [sp, #44]	@ 0x2c
10003d74:	6da0      	ldr	r0, [r4, #88]	@ 0x58
10003d76:	f7ff fb59 	bl	1000342c <__retarget_lock_release_recursive>
10003d7a:	f9b4 300c 	ldrsh.w	r3, [r4, #12]
10003d7e:	e6d9      	b.n	10003b34 <_vfprintf_r+0x2ec>
10003d80:	9b07      	ldr	r3, [sp, #28]
10003d82:	f043 0320 	orr.w	r3, r3, #32
10003d86:	9307      	str	r3, [sp, #28]
10003d88:	7823      	ldrb	r3, [r4, #0]
10003d8a:	e5dd      	b.n	10003948 <_vfprintf_r+0x100>
10003d8c:	9b12      	ldr	r3, [sp, #72]	@ 0x48
10003d8e:	2f43      	cmp	r7, #67	@ 0x43
10003d90:	940d      	str	r4, [sp, #52]	@ 0x34
10003d92:	f103 0504 	add.w	r5, r3, #4
10003d96:	f000 85d7 	beq.w	10004948 <_vfprintf_r+0x1100>
10003d9a:	9b07      	ldr	r3, [sp, #28]
10003d9c:	06de      	lsls	r6, r3, #27
10003d9e:	f100 85d3 	bmi.w	10004948 <_vfprintf_r+0x1100>
10003da2:	9b12      	ldr	r3, [sp, #72]	@ 0x48
10003da4:	ae47      	add	r6, sp, #284	@ 0x11c
10003da6:	681b      	ldr	r3, [r3, #0]
10003da8:	f88d 311c 	strb.w	r3, [sp, #284]	@ 0x11c
10003dac:	2301      	movs	r3, #1
10003dae:	9308      	str	r3, [sp, #32]
10003db0:	930f      	str	r3, [sp, #60]	@ 0x3c
10003db2:	2200      	movs	r2, #0
10003db4:	e9cd 5612 	strd	r5, r6, [sp, #72]	@ 0x48
10003db8:	f88d 20a7 	strb.w	r2, [sp, #167]	@ 0xa7
10003dbc:	9211      	str	r2, [sp, #68]	@ 0x44
10003dbe:	920c      	str	r2, [sp, #48]	@ 0x30
10003dc0:	9217      	str	r2, [sp, #92]	@ 0x5c
10003dc2:	e9cd 2214 	strd	r2, r2, [sp, #80]	@ 0x50
10003dc6:	e6d7      	b.n	10003b78 <_vfprintf_r+0x330>
10003dc8:	2300      	movs	r3, #0
10003dca:	9e12      	ldr	r6, [sp, #72]	@ 0x48
10003dcc:	940d      	str	r4, [sp, #52]	@ 0x34
10003dce:	f88d 30a7 	strb.w	r3, [sp, #167]	@ 0xa7
10003dd2:	f856 3b04 	ldr.w	r3, [r6], #4
10003dd6:	9313      	str	r3, [sp, #76]	@ 0x4c
10003dd8:	2b00      	cmp	r3, #0
10003dda:	f000 85a4 	beq.w	10004926 <_vfprintf_r+0x10de>
10003dde:	2f53      	cmp	r7, #83	@ 0x53
10003de0:	f000 8626 	beq.w	10004a30 <_vfprintf_r+0x11e8>
10003de4:	9b07      	ldr	r3, [sp, #28]
10003de6:	f013 0310 	ands.w	r3, r3, #16
10003dea:	9314      	str	r3, [sp, #80]	@ 0x50
10003dec:	f040 8620 	bne.w	10004a30 <_vfprintf_r+0x11e8>
10003df0:	9b0c      	ldr	r3, [sp, #48]	@ 0x30
10003df2:	2b00      	cmp	r3, #0
10003df4:	f2c0 87f1 	blt.w	10004dda <_vfprintf_r+0x1592>
10003df8:	461a      	mov	r2, r3
10003dfa:	e9dd 0113 	ldrd	r0, r1, [sp, #76]	@ 0x4c
10003dfe:	f002 f81f 	bl	10005e40 <memchr>
10003e02:	9011      	str	r0, [sp, #68]	@ 0x44
10003e04:	2800      	cmp	r0, #0
10003e06:	f001 82c2 	beq.w	1000538e <_vfprintf_r+0x1b46>
10003e0a:	9b11      	ldr	r3, [sp, #68]	@ 0x44
10003e0c:	2773      	movs	r7, #115	@ 0x73
10003e0e:	9a13      	ldr	r2, [sp, #76]	@ 0x4c
10003e10:	9612      	str	r6, [sp, #72]	@ 0x48
10003e12:	1a99      	subs	r1, r3, r2
10003e14:	9b14      	ldr	r3, [sp, #80]	@ 0x50
10003e16:	f89d 20a7 	ldrb.w	r2, [sp, #167]	@ 0xa7
10003e1a:	910f      	str	r1, [sp, #60]	@ 0x3c
10003e1c:	ea21 71e1 	bic.w	r1, r1, r1, asr #31
10003e20:	930c      	str	r3, [sp, #48]	@ 0x30
10003e22:	9108      	str	r1, [sp, #32]
10003e24:	9317      	str	r3, [sp, #92]	@ 0x5c
10003e26:	9315      	str	r3, [sp, #84]	@ 0x54
10003e28:	9311      	str	r3, [sp, #68]	@ 0x44
10003e2a:	e758      	b.n	10003cde <_vfprintf_r+0x496>
10003e2c:	9b07      	ldr	r3, [sp, #28]
10003e2e:	940d      	str	r4, [sp, #52]	@ 0x34
10003e30:	069d      	lsls	r5, r3, #26
10003e32:	d54f      	bpl.n	10003ed4 <_vfprintf_r+0x68c>
10003e34:	9b12      	ldr	r3, [sp, #72]	@ 0x48
10003e36:	3307      	adds	r3, #7
10003e38:	f023 0307 	bic.w	r3, r3, #7
10003e3c:	461a      	mov	r2, r3
10003e3e:	6859      	ldr	r1, [r3, #4]
10003e40:	f852 3b08 	ldr.w	r3, [r2], #8
10003e44:	9212      	str	r2, [sp, #72]	@ 0x48
10003e46:	460a      	mov	r2, r1
10003e48:	2900      	cmp	r1, #0
10003e4a:	f2c0 8434 	blt.w	100046b6 <_vfprintf_r+0xe6e>
10003e4e:	990c      	ldr	r1, [sp, #48]	@ 0x30
10003e50:	2900      	cmp	r1, #0
10003e52:	f2c0 82d5 	blt.w	10004400 <_vfprintf_r+0xbb8>
10003e56:	9907      	ldr	r1, [sp, #28]
10003e58:	f021 0180 	bic.w	r1, r1, #128	@ 0x80
10003e5c:	9107      	str	r1, [sp, #28]
10003e5e:	f040 82cf 	bne.w	10004400 <_vfprintf_r+0xbb8>
10003e62:	ea53 0102 	orrs.w	r1, r3, r2
10003e66:	bf14      	ite	ne
10003e68:	2101      	movne	r1, #1
10003e6a:	2100      	moveq	r1, #0
10003e6c:	f040 82c8 	bne.w	10004400 <_vfprintf_r+0xbb8>
10003e70:	ab60      	add	r3, sp, #384	@ 0x180
10003e72:	910c      	str	r1, [sp, #48]	@ 0x30
10003e74:	910f      	str	r1, [sp, #60]	@ 0x3c
10003e76:	9313      	str	r3, [sp, #76]	@ 0x4c
10003e78:	e07b      	b.n	10003f72 <_vfprintf_r+0x72a>
10003e7a:	9b12      	ldr	r3, [sp, #72]	@ 0x48
10003e7c:	f853 2b04 	ldr.w	r2, [r3], #4
10003e80:	2a00      	cmp	r2, #0
10003e82:	9210      	str	r2, [sp, #64]	@ 0x40
10003e84:	f280 83cd 	bge.w	10004622 <_vfprintf_r+0xdda>
10003e88:	9a10      	ldr	r2, [sp, #64]	@ 0x40
10003e8a:	9312      	str	r3, [sp, #72]	@ 0x48
10003e8c:	4252      	negs	r2, r2
10003e8e:	9210      	str	r2, [sp, #64]	@ 0x40
10003e90:	9b07      	ldr	r3, [sp, #28]
10003e92:	f043 0304 	orr.w	r3, r3, #4
10003e96:	9307      	str	r3, [sp, #28]
10003e98:	7823      	ldrb	r3, [r4, #0]
10003e9a:	e555      	b.n	10003948 <_vfprintf_r+0x100>
10003e9c:	232b      	movs	r3, #43	@ 0x2b
10003e9e:	f88d 30a7 	strb.w	r3, [sp, #167]	@ 0xa7
10003ea2:	7823      	ldrb	r3, [r4, #0]
10003ea4:	e550      	b.n	10003948 <_vfprintf_r+0x100>
10003ea6:	7823      	ldrb	r3, [r4, #0]
10003ea8:	2b6c      	cmp	r3, #108	@ 0x6c
10003eaa:	f000 8511 	beq.w	100048d0 <_vfprintf_r+0x1088>
10003eae:	9a07      	ldr	r2, [sp, #28]
10003eb0:	f042 0210 	orr.w	r2, r2, #16
10003eb4:	9207      	str	r2, [sp, #28]
10003eb6:	e547      	b.n	10003948 <_vfprintf_r+0x100>
10003eb8:	9b07      	ldr	r3, [sp, #28]
10003eba:	f043 0308 	orr.w	r3, r3, #8
10003ebe:	9307      	str	r3, [sp, #28]
10003ec0:	7823      	ldrb	r3, [r4, #0]
10003ec2:	e541      	b.n	10003948 <_vfprintf_r+0x100>
10003ec4:	9b07      	ldr	r3, [sp, #28]
10003ec6:	940d      	str	r4, [sp, #52]	@ 0x34
10003ec8:	f043 0310 	orr.w	r3, r3, #16
10003ecc:	9307      	str	r3, [sp, #28]
10003ece:	9b07      	ldr	r3, [sp, #28]
10003ed0:	069d      	lsls	r5, r3, #26
10003ed2:	d4af      	bmi.n	10003e34 <_vfprintf_r+0x5ec>
10003ed4:	9a12      	ldr	r2, [sp, #72]	@ 0x48
10003ed6:	f852 3b04 	ldr.w	r3, [r2], #4
10003eda:	9212      	str	r2, [sp, #72]	@ 0x48
10003edc:	9a07      	ldr	r2, [sp, #28]
10003ede:	06d4      	lsls	r4, r2, #27
10003ee0:	f100 83e4 	bmi.w	100046ac <_vfprintf_r+0xe64>
10003ee4:	9a07      	ldr	r2, [sp, #28]
10003ee6:	0650      	lsls	r0, r2, #25
10003ee8:	f140 83dc 	bpl.w	100046a4 <_vfprintf_r+0xe5c>
10003eec:	f343 32c0 	sbfx	r2, r3, #15, #1
10003ef0:	b21b      	sxth	r3, r3
10003ef2:	4611      	mov	r1, r2
10003ef4:	e7a8      	b.n	10003e48 <_vfprintf_r+0x600>
10003ef6:	bf00      	nop
10003ef8:	7fefffff 	.word	0x7fefffff
10003efc:	10008194 	.word	0x10008194
10003f00:	10008190 	.word	0x10008190
10003f04:	10008630 	.word	0x10008630
10003f08:	9b07      	ldr	r3, [sp, #28]
10003f0a:	940d      	str	r4, [sp, #52]	@ 0x34
10003f0c:	f043 0410 	orr.w	r4, r3, #16
10003f10:	f014 0220 	ands.w	r2, r4, #32
10003f14:	f000 8349 	beq.w	100045aa <_vfprintf_r+0xd62>
10003f18:	9b12      	ldr	r3, [sp, #72]	@ 0x48
10003f1a:	2101      	movs	r1, #1
10003f1c:	3307      	adds	r3, #7
10003f1e:	f023 0307 	bic.w	r3, r3, #7
10003f22:	4618      	mov	r0, r3
10003f24:	685a      	ldr	r2, [r3, #4]
10003f26:	f850 3b08 	ldr.w	r3, [r0], #8
10003f2a:	9012      	str	r0, [sp, #72]	@ 0x48
10003f2c:	2000      	movs	r0, #0
10003f2e:	9d0c      	ldr	r5, [sp, #48]	@ 0x30
10003f30:	f88d 00a7 	strb.w	r0, [sp, #167]	@ 0xa7
10003f34:	2d00      	cmp	r5, #0
10003f36:	f2c0 816f 	blt.w	10004218 <_vfprintf_r+0x9d0>
10003f3a:	f024 0080 	bic.w	r0, r4, #128	@ 0x80
10003f3e:	9007      	str	r0, [sp, #28]
10003f40:	ea53 0002 	orrs.w	r0, r3, r2
10003f44:	f040 8167 	bne.w	10004216 <_vfprintf_r+0x9ce>
10003f48:	1e28      	subs	r0, r5, #0
10003f4a:	bf18      	it	ne
10003f4c:	2001      	movne	r0, #1
10003f4e:	2d00      	cmp	r5, #0
10003f50:	f040 8161 	bne.w	10004216 <_vfprintf_r+0x9ce>
10003f54:	2900      	cmp	r1, #0
10003f56:	f040 823a 	bne.w	100043ce <_vfprintf_r+0xb86>
10003f5a:	f014 0301 	ands.w	r3, r4, #1
10003f5e:	910c      	str	r1, [sp, #48]	@ 0x30
10003f60:	930f      	str	r3, [sp, #60]	@ 0x3c
10003f62:	f000 82d2 	beq.w	1000450a <_vfprintf_r+0xcc2>
10003f66:	2330      	movs	r3, #48	@ 0x30
10003f68:	f88d 317f 	strb.w	r3, [sp, #383]	@ 0x17f
10003f6c:	f20d 137f 	addw	r3, sp, #383	@ 0x17f
10003f70:	9313      	str	r3, [sp, #76]	@ 0x4c
10003f72:	990f      	ldr	r1, [sp, #60]	@ 0x3c
10003f74:	2300      	movs	r3, #0
10003f76:	980c      	ldr	r0, [sp, #48]	@ 0x30
10003f78:	f89d 20a7 	ldrb.w	r2, [sp, #167]	@ 0xa7
10003f7c:	4281      	cmp	r1, r0
10003f7e:	9311      	str	r3, [sp, #68]	@ 0x44
10003f80:	9317      	str	r3, [sp, #92]	@ 0x5c
10003f82:	bfb8      	it	lt
10003f84:	4601      	movlt	r1, r0
10003f86:	e9cd 3314 	strd	r3, r3, [sp, #80]	@ 0x50
10003f8a:	9108      	str	r1, [sp, #32]
10003f8c:	e6a7      	b.n	10003cde <_vfprintf_r+0x496>
10003f8e:	9b07      	ldr	r3, [sp, #28]
10003f90:	f043 0380 	orr.w	r3, r3, #128	@ 0x80
10003f94:	9307      	str	r3, [sp, #28]
10003f96:	7823      	ldrb	r3, [r4, #0]
10003f98:	e4d6      	b.n	10003948 <_vfprintf_r+0x100>
10003f9a:	4621      	mov	r1, r4
10003f9c:	f811 7b01 	ldrb.w	r7, [r1], #1
10003fa0:	2f2a      	cmp	r7, #42	@ 0x2a
10003fa2:	f001 822a 	beq.w	100053fa <_vfprintf_r+0x1bb2>
10003fa6:	f1a7 0330 	sub.w	r3, r7, #48	@ 0x30
10003faa:	2b09      	cmp	r3, #9
10003fac:	f201 80e7 	bhi.w	1000517e <_vfprintf_r+0x1936>
10003fb0:	2200      	movs	r2, #0
10003fb2:	eb02 0282 	add.w	r2, r2, r2, lsl #2
10003fb6:	f811 7b01 	ldrb.w	r7, [r1], #1
10003fba:	eb03 0242 	add.w	r2, r3, r2, lsl #1
10003fbe:	f1a7 0330 	sub.w	r3, r7, #48	@ 0x30
10003fc2:	2b09      	cmp	r3, #9
10003fc4:	d9f5      	bls.n	10003fb2 <_vfprintf_r+0x76a>
10003fc6:	ea42 73e2 	orr.w	r3, r2, r2, asr #31
10003fca:	460c      	mov	r4, r1
10003fcc:	930c      	str	r3, [sp, #48]	@ 0x30
10003fce:	e4bd      	b.n	1000394c <_vfprintf_r+0x104>
10003fd0:	9b07      	ldr	r3, [sp, #28]
10003fd2:	f043 0301 	orr.w	r3, r3, #1
10003fd6:	9307      	str	r3, [sp, #28]
10003fd8:	7823      	ldrb	r3, [r4, #0]
10003fda:	e4b5      	b.n	10003948 <_vfprintf_r+0x100>
10003fdc:	f89d 20a7 	ldrb.w	r2, [sp, #167]	@ 0xa7
10003fe0:	7823      	ldrb	r3, [r4, #0]
10003fe2:	2a00      	cmp	r2, #0
10003fe4:	f47f acb0 	bne.w	10003948 <_vfprintf_r+0x100>
10003fe8:	2220      	movs	r2, #32
10003fea:	f88d 20a7 	strb.w	r2, [sp, #167]	@ 0xa7
10003fee:	e4ab      	b.n	10003948 <_vfprintf_r+0x100>
10003ff0:	9b07      	ldr	r3, [sp, #28]
10003ff2:	940d      	str	r4, [sp, #52]	@ 0x34
10003ff4:	f043 0310 	orr.w	r3, r3, #16
10003ff8:	9307      	str	r3, [sp, #28]
10003ffa:	9b07      	ldr	r3, [sp, #28]
10003ffc:	f013 0220 	ands.w	r2, r3, #32
10004000:	f000 82e1 	beq.w	100045c6 <_vfprintf_r+0xd7e>
10004004:	9b12      	ldr	r3, [sp, #72]	@ 0x48
10004006:	3307      	adds	r3, #7
10004008:	f023 0307 	bic.w	r3, r3, #7
1000400c:	4619      	mov	r1, r3
1000400e:	685a      	ldr	r2, [r3, #4]
10004010:	f851 3b08 	ldr.w	r3, [r1], #8
10004014:	9112      	str	r1, [sp, #72]	@ 0x48
10004016:	9907      	ldr	r1, [sp, #28]
10004018:	f421 6480 	bic.w	r4, r1, #1024	@ 0x400
1000401c:	2100      	movs	r1, #0
1000401e:	e785      	b.n	10003f2c <_vfprintf_r+0x6e4>
10004020:	7823      	ldrb	r3, [r4, #0]
10004022:	2b68      	cmp	r3, #104	@ 0x68
10004024:	f000 846a 	beq.w	100048fc <_vfprintf_r+0x10b4>
10004028:	9a07      	ldr	r2, [sp, #28]
1000402a:	f042 0240 	orr.w	r2, r2, #64	@ 0x40
1000402e:	9207      	str	r2, [sp, #28]
10004030:	e48a      	b.n	10003948 <_vfprintf_r+0x100>
10004032:	9b07      	ldr	r3, [sp, #28]
10004034:	2778      	movs	r7, #120	@ 0x78
10004036:	9a12      	ldr	r2, [sp, #72]	@ 0x48
10004038:	940d      	str	r4, [sp, #52]	@ 0x34
1000403a:	f043 0402 	orr.w	r4, r3, #2
1000403e:	f647 0330 	movw	r3, #30768	@ 0x7830
10004042:	4992      	ldr	r1, [pc, #584]	@ (1000428c <_vfprintf_r+0xa44>)
10004044:	f8ad 30a8 	strh.w	r3, [sp, #168]	@ 0xa8
10004048:	f852 3b04 	ldr.w	r3, [r2], #4
1000404c:	911e      	str	r1, [sp, #120]	@ 0x78
1000404e:	2102      	movs	r1, #2
10004050:	9212      	str	r2, [sp, #72]	@ 0x48
10004052:	2200      	movs	r2, #0
10004054:	e76a      	b.n	10003f2c <_vfprintf_r+0x6e4>
10004056:	9b07      	ldr	r3, [sp, #28]
10004058:	940d      	str	r4, [sp, #52]	@ 0x34
1000405a:	069c      	lsls	r4, r3, #26
1000405c:	f140 8334 	bpl.w	100046c8 <_vfprintf_r+0xe80>
10004060:	9b12      	ldr	r3, [sp, #72]	@ 0x48
10004062:	9a0e      	ldr	r2, [sp, #56]	@ 0x38
10004064:	681b      	ldr	r3, [r3, #0]
10004066:	601a      	str	r2, [r3, #0]
10004068:	17d2      	asrs	r2, r2, #31
1000406a:	605a      	str	r2, [r3, #4]
1000406c:	9b12      	ldr	r3, [sp, #72]	@ 0x48
1000406e:	3304      	adds	r3, #4
10004070:	9312      	str	r3, [sp, #72]	@ 0x48
10004072:	e441      	b.n	100038f8 <_vfprintf_r+0xb0>
10004074:	2f65      	cmp	r7, #101	@ 0x65
10004076:	f340 810f 	ble.w	10004298 <_vfprintf_r+0xa50>
1000407a:	2200      	movs	r2, #0
1000407c:	2300      	movs	r3, #0
1000407e:	e9dd 0118 	ldrd	r0, r1, [sp, #96]	@ 0x60
10004082:	f7fe f909 	bl	10002298 <__wrap___aeabi_dcmpeq>
10004086:	2800      	cmp	r0, #0
10004088:	f000 81ca 	beq.w	10004420 <_vfprintf_r+0xbd8>
1000408c:	9b35      	ldr	r3, [sp, #212]	@ 0xd4
1000408e:	3501      	adds	r5, #1
10004090:	4a7f      	ldr	r2, [pc, #508]	@ (10004290 <_vfprintf_r+0xa48>)
10004092:	3301      	adds	r3, #1
10004094:	990a      	ldr	r1, [sp, #40]	@ 0x28
10004096:	9536      	str	r5, [sp, #216]	@ 0xd8
10004098:	600a      	str	r2, [r1, #0]
1000409a:	2b07      	cmp	r3, #7
1000409c:	f04f 0201 	mov.w	r2, #1
100040a0:	9335      	str	r3, [sp, #212]	@ 0xd4
100040a2:	604a      	str	r2, [r1, #4]
100040a4:	f300 84b7 	bgt.w	10004a16 <_vfprintf_r+0x11ce>
100040a8:	3108      	adds	r1, #8
100040aa:	910a      	str	r1, [sp, #40]	@ 0x28
100040ac:	9b2b      	ldr	r3, [sp, #172]	@ 0xac
100040ae:	9a16      	ldr	r2, [sp, #88]	@ 0x58
100040b0:	4293      	cmp	r3, r2
100040b2:	f280 82b1 	bge.w	10004618 <_vfprintf_r+0xdd0>
100040b6:	9b1a      	ldr	r3, [sp, #104]	@ 0x68
100040b8:	9a0a      	ldr	r2, [sp, #40]	@ 0x28
100040ba:	991b      	ldr	r1, [sp, #108]	@ 0x6c
100040bc:	441d      	add	r5, r3
100040be:	e9c2 1300 	strd	r1, r3, [r2]
100040c2:	9b35      	ldr	r3, [sp, #212]	@ 0xd4
100040c4:	9536      	str	r5, [sp, #216]	@ 0xd8
100040c6:	3301      	adds	r3, #1
100040c8:	2b07      	cmp	r3, #7
100040ca:	9335      	str	r3, [sp, #212]	@ 0xd4
100040cc:	f300 841e 	bgt.w	1000490c <_vfprintf_r+0x10c4>
100040d0:	3208      	adds	r2, #8
100040d2:	920a      	str	r2, [sp, #40]	@ 0x28
100040d4:	9b16      	ldr	r3, [sp, #88]	@ 0x58
100040d6:	1e5e      	subs	r6, r3, #1
100040d8:	2e00      	cmp	r6, #0
100040da:	f77f ad9c 	ble.w	10003c16 <_vfprintf_r+0x3ce>
100040de:	2e10      	cmp	r6, #16
100040e0:	9b35      	ldr	r3, [sp, #212]	@ 0xd4
100040e2:	f8df 91b0 	ldr.w	r9, [pc, #432]	@ 10004294 <_vfprintf_r+0xa4c>
100040e6:	f340 80b9 	ble.w	1000425c <_vfprintf_r+0xa14>
100040ea:	2710      	movs	r7, #16
100040ec:	464c      	mov	r4, r9
100040ee:	e9dd 280a 	ldrd	r2, r8, [sp, #40]	@ 0x28
100040f2:	e003      	b.n	100040fc <_vfprintf_r+0x8b4>
100040f4:	3e10      	subs	r6, #16
100040f6:	2e10      	cmp	r6, #16
100040f8:	f340 80ae 	ble.w	10004258 <_vfprintf_r+0xa10>
100040fc:	3301      	adds	r3, #1
100040fe:	3510      	adds	r5, #16
10004100:	2b07      	cmp	r3, #7
10004102:	e9c2 4700 	strd	r4, r7, [r2]
10004106:	e9cd 3535 	strd	r3, r5, [sp, #212]	@ 0xd4
1000410a:	f102 0208 	add.w	r2, r2, #8
1000410e:	ddf1      	ble.n	100040f4 <_vfprintf_r+0x8ac>
10004110:	aa34      	add	r2, sp, #208	@ 0xd0
10004112:	4641      	mov	r1, r8
10004114:	4658      	mov	r0, fp
10004116:	f001 fa11 	bl	1000553c <__sprint_r>
1000411a:	2800      	cmp	r0, #0
1000411c:	f47f acfc 	bne.w	10003b18 <_vfprintf_r+0x2d0>
10004120:	aa37      	add	r2, sp, #220	@ 0xdc
10004122:	e9dd 3535 	ldrd	r3, r5, [sp, #212]	@ 0xd4
10004126:	e7e5      	b.n	100040f4 <_vfprintf_r+0x8ac>
10004128:	9b10      	ldr	r3, [sp, #64]	@ 0x40
1000412a:	9a08      	ldr	r2, [sp, #32]
1000412c:	1a9e      	subs	r6, r3, r2
1000412e:	2e00      	cmp	r6, #0
10004130:	f77f ad58 	ble.w	10003be4 <_vfprintf_r+0x39c>
10004134:	2e10      	cmp	r6, #16
10004136:	9b35      	ldr	r3, [sp, #212]	@ 0xd4
10004138:	f8df 9158 	ldr.w	r9, [pc, #344]	@ 10004294 <_vfprintf_r+0xa4c>
1000413c:	dd24      	ble.n	10004188 <_vfprintf_r+0x940>
1000413e:	4629      	mov	r1, r5
10004140:	2410      	movs	r4, #16
10004142:	9a0a      	ldr	r2, [sp, #40]	@ 0x28
10004144:	464d      	mov	r5, r9
10004146:	f8dd 802c 	ldr.w	r8, [sp, #44]	@ 0x2c
1000414a:	e002      	b.n	10004152 <_vfprintf_r+0x90a>
1000414c:	3e10      	subs	r6, #16
1000414e:	2e10      	cmp	r6, #16
10004150:	dd17      	ble.n	10004182 <_vfprintf_r+0x93a>
10004152:	3301      	adds	r3, #1
10004154:	3110      	adds	r1, #16
10004156:	2b07      	cmp	r3, #7
10004158:	e9c2 5400 	strd	r5, r4, [r2]
1000415c:	e9cd 3135 	strd	r3, r1, [sp, #212]	@ 0xd4
10004160:	f102 0208 	add.w	r2, r2, #8
10004164:	ddf2      	ble.n	1000414c <_vfprintf_r+0x904>
10004166:	aa34      	add	r2, sp, #208	@ 0xd0
10004168:	4641      	mov	r1, r8
1000416a:	4658      	mov	r0, fp
1000416c:	f001 f9e6 	bl	1000553c <__sprint_r>
10004170:	2800      	cmp	r0, #0
10004172:	f47f acd1 	bne.w	10003b18 <_vfprintf_r+0x2d0>
10004176:	3e10      	subs	r6, #16
10004178:	aa37      	add	r2, sp, #220	@ 0xdc
1000417a:	2e10      	cmp	r6, #16
1000417c:	e9dd 3135 	ldrd	r3, r1, [sp, #212]	@ 0xd4
10004180:	dce7      	bgt.n	10004152 <_vfprintf_r+0x90a>
10004182:	46a9      	mov	r9, r5
10004184:	460d      	mov	r5, r1
10004186:	920a      	str	r2, [sp, #40]	@ 0x28
10004188:	3301      	adds	r3, #1
1000418a:	9a0a      	ldr	r2, [sp, #40]	@ 0x28
1000418c:	4435      	add	r5, r6
1000418e:	2b07      	cmp	r3, #7
10004190:	f8c2 9000 	str.w	r9, [r2]
10004194:	6056      	str	r6, [r2, #4]
10004196:	e9cd 3535 	strd	r3, r5, [sp, #212]	@ 0xd4
1000419a:	f300 838c 	bgt.w	100048b6 <_vfprintf_r+0x106e>
1000419e:	3208      	adds	r2, #8
100041a0:	9b0c      	ldr	r3, [sp, #48]	@ 0x30
100041a2:	920a      	str	r2, [sp, #40]	@ 0x28
100041a4:	9a0f      	ldr	r2, [sp, #60]	@ 0x3c
100041a6:	1a9e      	subs	r6, r3, r2
100041a8:	2e00      	cmp	r6, #0
100041aa:	f77f ad21 	ble.w	10003bf0 <_vfprintf_r+0x3a8>
100041ae:	2e10      	cmp	r6, #16
100041b0:	9b35      	ldr	r3, [sp, #212]	@ 0xd4
100041b2:	f8df 90e0 	ldr.w	r9, [pc, #224]	@ 10004294 <_vfprintf_r+0xa4c>
100041b6:	dd20      	ble.n	100041fa <_vfprintf_r+0x9b2>
100041b8:	2410      	movs	r4, #16
100041ba:	e9dd 280a 	ldrd	r2, r8, [sp, #40]	@ 0x28
100041be:	e002      	b.n	100041c6 <_vfprintf_r+0x97e>
100041c0:	3e10      	subs	r6, #16
100041c2:	2e10      	cmp	r6, #16
100041c4:	dd18      	ble.n	100041f8 <_vfprintf_r+0x9b0>
100041c6:	3301      	adds	r3, #1
100041c8:	3510      	adds	r5, #16
100041ca:	4932      	ldr	r1, [pc, #200]	@ (10004294 <_vfprintf_r+0xa4c>)
100041cc:	2b07      	cmp	r3, #7
100041ce:	e9c2 1400 	strd	r1, r4, [r2]
100041d2:	e9cd 3535 	strd	r3, r5, [sp, #212]	@ 0xd4
100041d6:	f102 0208 	add.w	r2, r2, #8
100041da:	ddf1      	ble.n	100041c0 <_vfprintf_r+0x978>
100041dc:	aa34      	add	r2, sp, #208	@ 0xd0
100041de:	4641      	mov	r1, r8
100041e0:	4658      	mov	r0, fp
100041e2:	f001 f9ab 	bl	1000553c <__sprint_r>
100041e6:	aa37      	add	r2, sp, #220	@ 0xdc
100041e8:	2800      	cmp	r0, #0
100041ea:	f47f ac95 	bne.w	10003b18 <_vfprintf_r+0x2d0>
100041ee:	3e10      	subs	r6, #16
100041f0:	2e10      	cmp	r6, #16
100041f2:	e9dd 3535 	ldrd	r3, r5, [sp, #212]	@ 0xd4
100041f6:	dce6      	bgt.n	100041c6 <_vfprintf_r+0x97e>
100041f8:	920a      	str	r2, [sp, #40]	@ 0x28
100041fa:	3301      	adds	r3, #1
100041fc:	9a0a      	ldr	r2, [sp, #40]	@ 0x28
100041fe:	4435      	add	r5, r6
10004200:	2b07      	cmp	r3, #7
10004202:	f8c2 9000 	str.w	r9, [r2]
10004206:	6056      	str	r6, [r2, #4]
10004208:	e9cd 3535 	strd	r3, r5, [sp, #212]	@ 0xd4
1000420c:	f300 81c0 	bgt.w	10004590 <_vfprintf_r+0xd48>
10004210:	3208      	adds	r2, #8
10004212:	920a      	str	r2, [sp, #40]	@ 0x28
10004214:	e4ec      	b.n	10003bf0 <_vfprintf_r+0x3a8>
10004216:	9c07      	ldr	r4, [sp, #28]
10004218:	2901      	cmp	r1, #1
1000421a:	f000 80f2 	beq.w	10004402 <_vfprintf_r+0xbba>
1000421e:	2902      	cmp	r1, #2
10004220:	f000 80da 	beq.w	100043d8 <_vfprintf_r+0xb90>
10004224:	ad60      	add	r5, sp, #384	@ 0x180
10004226:	f003 0107 	and.w	r1, r3, #7
1000422a:	08db      	lsrs	r3, r3, #3
1000422c:	4628      	mov	r0, r5
1000422e:	ea43 7342 	orr.w	r3, r3, r2, lsl #29
10004232:	3130      	adds	r1, #48	@ 0x30
10004234:	08d2      	lsrs	r2, r2, #3
10004236:	f805 1d01 	strb.w	r1, [r5, #-1]!
1000423a:	ea53 0602 	orrs.w	r6, r3, r2
1000423e:	d1f2      	bne.n	10004226 <_vfprintf_r+0x9de>
10004240:	2930      	cmp	r1, #48	@ 0x30
10004242:	9513      	str	r5, [sp, #76]	@ 0x4c
10004244:	d002      	beq.n	1000424c <_vfprintf_r+0xa04>
10004246:	07e3      	lsls	r3, r4, #31
10004248:	f100 82f9 	bmi.w	1000483e <_vfprintf_r+0xff6>
1000424c:	ab60      	add	r3, sp, #384	@ 0x180
1000424e:	9a13      	ldr	r2, [sp, #76]	@ 0x4c
10004250:	9407      	str	r4, [sp, #28]
10004252:	1a9b      	subs	r3, r3, r2
10004254:	930f      	str	r3, [sp, #60]	@ 0x3c
10004256:	e68c      	b.n	10003f72 <_vfprintf_r+0x72a>
10004258:	46a1      	mov	r9, r4
1000425a:	920a      	str	r2, [sp, #40]	@ 0x28
1000425c:	3301      	adds	r3, #1
1000425e:	9a0a      	ldr	r2, [sp, #40]	@ 0x28
10004260:	4435      	add	r5, r6
10004262:	2b07      	cmp	r3, #7
10004264:	f8c2 9000 	str.w	r9, [r2]
10004268:	6056      	str	r6, [r2, #4]
1000426a:	e9cd 3535 	strd	r3, r5, [sp, #212]	@ 0xd4
1000426e:	f77f acd0 	ble.w	10003c12 <_vfprintf_r+0x3ca>
10004272:	aa34      	add	r2, sp, #208	@ 0xd0
10004274:	990b      	ldr	r1, [sp, #44]	@ 0x2c
10004276:	4658      	mov	r0, fp
10004278:	f001 f960 	bl	1000553c <__sprint_r>
1000427c:	2800      	cmp	r0, #0
1000427e:	f47f ac4b 	bne.w	10003b18 <_vfprintf_r+0x2d0>
10004282:	ab37      	add	r3, sp, #220	@ 0xdc
10004284:	9d36      	ldr	r5, [sp, #216]	@ 0xd8
10004286:	930a      	str	r3, [sp, #40]	@ 0x28
10004288:	e4c5      	b.n	10003c16 <_vfprintf_r+0x3ce>
1000428a:	bf00      	nop
1000428c:	100081a0 	.word	0x100081a0
10004290:	10008100 	.word	0x10008100
10004294:	10008620 	.word	0x10008620
10004298:	9b0a      	ldr	r3, [sp, #40]	@ 0x28
1000429a:	3501      	adds	r5, #1
1000429c:	9e35      	ldr	r6, [sp, #212]	@ 0xd4
1000429e:	f103 0708 	add.w	r7, r3, #8
100042a2:	9b16      	ldr	r3, [sp, #88]	@ 0x58
100042a4:	3601      	adds	r6, #1
100042a6:	9a0a      	ldr	r2, [sp, #40]	@ 0x28
100042a8:	2b01      	cmp	r3, #1
100042aa:	f340 8131 	ble.w	10004510 <_vfprintf_r+0xcc8>
100042ae:	9b13      	ldr	r3, [sp, #76]	@ 0x4c
100042b0:	2e07      	cmp	r6, #7
100042b2:	6013      	str	r3, [r2, #0]
100042b4:	f04f 0301 	mov.w	r3, #1
100042b8:	e9cd 6535 	strd	r6, r5, [sp, #212]	@ 0xd4
100042bc:	6053      	str	r3, [r2, #4]
100042be:	f300 8388 	bgt.w	100049d2 <_vfprintf_r+0x118a>
100042c2:	9b1a      	ldr	r3, [sp, #104]	@ 0x68
100042c4:	3601      	adds	r6, #1
100042c6:	9a1b      	ldr	r2, [sp, #108]	@ 0x6c
100042c8:	441d      	add	r5, r3
100042ca:	2e07      	cmp	r6, #7
100042cc:	e9c7 2300 	strd	r2, r3, [r7]
100042d0:	e9cd 6535 	strd	r6, r5, [sp, #212]	@ 0xd4
100042d4:	f300 8371 	bgt.w	100049ba <_vfprintf_r+0x1172>
100042d8:	3708      	adds	r7, #8
100042da:	9b16      	ldr	r3, [sp, #88]	@ 0x58
100042dc:	2200      	movs	r2, #0
100042de:	1e5c      	subs	r4, r3, #1
100042e0:	2300      	movs	r3, #0
100042e2:	e9dd 0118 	ldrd	r0, r1, [sp, #96]	@ 0x60
100042e6:	f7fd ffd7 	bl	10002298 <__wrap___aeabi_dcmpeq>
100042ea:	2800      	cmp	r0, #0
100042ec:	f040 812a 	bne.w	10004544 <_vfprintf_r+0xcfc>
100042f0:	3601      	adds	r6, #1
100042f2:	9b13      	ldr	r3, [sp, #76]	@ 0x4c
100042f4:	4425      	add	r5, r4
100042f6:	607c      	str	r4, [r7, #4]
100042f8:	3301      	adds	r3, #1
100042fa:	2e07      	cmp	r6, #7
100042fc:	603b      	str	r3, [r7, #0]
100042fe:	e9cd 6535 	strd	r6, r5, [sp, #212]	@ 0xd4
10004302:	f300 8113 	bgt.w	1000452c <_vfprintf_r+0xce4>
10004306:	3708      	adds	r7, #8
10004308:	9b1d      	ldr	r3, [sp, #116]	@ 0x74
1000430a:	3601      	adds	r6, #1
1000430c:	441d      	add	r5, r3
1000430e:	607b      	str	r3, [r7, #4]
10004310:	2e07      	cmp	r6, #7
10004312:	ab2e      	add	r3, sp, #184	@ 0xb8
10004314:	e9cd 6535 	strd	r6, r5, [sp, #212]	@ 0xd4
10004318:	603b      	str	r3, [r7, #0]
1000431a:	dcaa      	bgt.n	10004272 <_vfprintf_r+0xa2a>
1000431c:	f107 0308 	add.w	r3, r7, #8
10004320:	930a      	str	r3, [sp, #40]	@ 0x28
10004322:	e478      	b.n	10003c16 <_vfprintf_r+0x3ce>
10004324:	aa34      	add	r2, sp, #208	@ 0xd0
10004326:	990b      	ldr	r1, [sp, #44]	@ 0x2c
10004328:	4658      	mov	r0, fp
1000432a:	f001 f907 	bl	1000553c <__sprint_r>
1000432e:	2800      	cmp	r0, #0
10004330:	f47f abf2 	bne.w	10003b18 <_vfprintf_r+0x2d0>
10004334:	ab37      	add	r3, sp, #220	@ 0xdc
10004336:	9d36      	ldr	r5, [sp, #216]	@ 0xd8
10004338:	930a      	str	r3, [sp, #40]	@ 0x28
1000433a:	e450      	b.n	10003bde <_vfprintf_r+0x396>
1000433c:	aa34      	add	r2, sp, #208	@ 0xd0
1000433e:	990b      	ldr	r1, [sp, #44]	@ 0x2c
10004340:	4658      	mov	r0, fp
10004342:	9321      	str	r3, [sp, #132]	@ 0x84
10004344:	f001 f8fa 	bl	1000553c <__sprint_r>
10004348:	2800      	cmp	r0, #0
1000434a:	f47f abe5 	bne.w	10003b18 <_vfprintf_r+0x2d0>
1000434e:	ab37      	add	r3, sp, #220	@ 0xdc
10004350:	9d36      	ldr	r5, [sp, #216]	@ 0xd8
10004352:	930a      	str	r3, [sp, #40]	@ 0x28
10004354:	9b21      	ldr	r3, [sp, #132]	@ 0x84
10004356:	e432      	b.n	10003bbe <_vfprintf_r+0x376>
10004358:	2e10      	cmp	r6, #16
1000435a:	9b35      	ldr	r3, [sp, #212]	@ 0xd4
1000435c:	f8df 9594 	ldr.w	r9, [pc, #1428]	@ 100048f4 <_vfprintf_r+0x10ac>
10004360:	dd21      	ble.n	100043a6 <_vfprintf_r+0xb5e>
10004362:	2710      	movs	r7, #16
10004364:	464c      	mov	r4, r9
10004366:	e9dd 280a 	ldrd	r2, r8, [sp, #40]	@ 0x28
1000436a:	e002      	b.n	10004372 <_vfprintf_r+0xb2a>
1000436c:	3e10      	subs	r6, #16
1000436e:	2e10      	cmp	r6, #16
10004370:	dd17      	ble.n	100043a2 <_vfprintf_r+0xb5a>
10004372:	3301      	adds	r3, #1
10004374:	3510      	adds	r5, #16
10004376:	2b07      	cmp	r3, #7
10004378:	e9c2 4700 	strd	r4, r7, [r2]
1000437c:	e9cd 3535 	strd	r3, r5, [sp, #212]	@ 0xd4
10004380:	f102 0208 	add.w	r2, r2, #8
10004384:	ddf2      	ble.n	1000436c <_vfprintf_r+0xb24>
10004386:	aa34      	add	r2, sp, #208	@ 0xd0
10004388:	4641      	mov	r1, r8
1000438a:	4658      	mov	r0, fp
1000438c:	f001 f8d6 	bl	1000553c <__sprint_r>
10004390:	2800      	cmp	r0, #0
10004392:	f47f abc1 	bne.w	10003b18 <_vfprintf_r+0x2d0>
10004396:	3e10      	subs	r6, #16
10004398:	aa37      	add	r2, sp, #220	@ 0xdc
1000439a:	2e10      	cmp	r6, #16
1000439c:	e9dd 3535 	ldrd	r3, r5, [sp, #212]	@ 0xd4
100043a0:	dce7      	bgt.n	10004372 <_vfprintf_r+0xb2a>
100043a2:	46a1      	mov	r9, r4
100043a4:	920a      	str	r2, [sp, #40]	@ 0x28
100043a6:	3301      	adds	r3, #1
100043a8:	9a0a      	ldr	r2, [sp, #40]	@ 0x28
100043aa:	4435      	add	r5, r6
100043ac:	2b07      	cmp	r3, #7
100043ae:	e9c2 9600 	strd	r9, r6, [r2]
100043b2:	e9cd 3535 	strd	r3, r5, [sp, #212]	@ 0xd4
100043b6:	f77f ac37 	ble.w	10003c28 <_vfprintf_r+0x3e0>
100043ba:	aa34      	add	r2, sp, #208	@ 0xd0
100043bc:	990b      	ldr	r1, [sp, #44]	@ 0x2c
100043be:	4658      	mov	r0, fp
100043c0:	f001 f8bc 	bl	1000553c <__sprint_r>
100043c4:	2800      	cmp	r0, #0
100043c6:	f47f aba7 	bne.w	10003b18 <_vfprintf_r+0x2d0>
100043ca:	9d36      	ldr	r5, [sp, #216]	@ 0xd8
100043cc:	e42c      	b.n	10003c28 <_vfprintf_r+0x3e0>
100043ce:	ab60      	add	r3, sp, #384	@ 0x180
100043d0:	900c      	str	r0, [sp, #48]	@ 0x30
100043d2:	900f      	str	r0, [sp, #60]	@ 0x3c
100043d4:	9313      	str	r3, [sp, #76]	@ 0x4c
100043d6:	e5cc      	b.n	10003f72 <_vfprintf_r+0x72a>
100043d8:	a960      	add	r1, sp, #384	@ 0x180
100043da:	9d1e      	ldr	r5, [sp, #120]	@ 0x78
100043dc:	f003 000f 	and.w	r0, r3, #15
100043e0:	091b      	lsrs	r3, r3, #4
100043e2:	5c28      	ldrb	r0, [r5, r0]
100043e4:	ea43 7302 	orr.w	r3, r3, r2, lsl #28
100043e8:	0912      	lsrs	r2, r2, #4
100043ea:	f801 0d01 	strb.w	r0, [r1, #-1]!
100043ee:	ea53 0002 	orrs.w	r0, r3, r2
100043f2:	d1f3      	bne.n	100043dc <_vfprintf_r+0xb94>
100043f4:	ab60      	add	r3, sp, #384	@ 0x180
100043f6:	9113      	str	r1, [sp, #76]	@ 0x4c
100043f8:	9407      	str	r4, [sp, #28]
100043fa:	1a5b      	subs	r3, r3, r1
100043fc:	930f      	str	r3, [sp, #60]	@ 0x3c
100043fe:	e5b8      	b.n	10003f72 <_vfprintf_r+0x72a>
10004400:	9c07      	ldr	r4, [sp, #28]
10004402:	2b0a      	cmp	r3, #10
10004404:	f172 0100 	sbcs.w	r1, r2, #0
10004408:	f080 8369 	bcs.w	10004ade <_vfprintf_r+0x1296>
1000440c:	3330      	adds	r3, #48	@ 0x30
1000440e:	9407      	str	r4, [sp, #28]
10004410:	f88d 317f 	strb.w	r3, [sp, #383]	@ 0x17f
10004414:	2301      	movs	r3, #1
10004416:	930f      	str	r3, [sp, #60]	@ 0x3c
10004418:	f20d 137f 	addw	r3, sp, #383	@ 0x17f
1000441c:	9313      	str	r3, [sp, #76]	@ 0x4c
1000441e:	e5a8      	b.n	10003f72 <_vfprintf_r+0x72a>
10004420:	9a2b      	ldr	r2, [sp, #172]	@ 0xac
10004422:	2a00      	cmp	r2, #0
10004424:	f340 8101 	ble.w	1000462a <_vfprintf_r+0xde2>
10004428:	9f14      	ldr	r7, [sp, #80]	@ 0x50
1000442a:	9b16      	ldr	r3, [sp, #88]	@ 0x58
1000442c:	429f      	cmp	r7, r3
1000442e:	bfa8      	it	ge
10004430:	461f      	movge	r7, r3
10004432:	2f00      	cmp	r7, #0
10004434:	dd0d      	ble.n	10004452 <_vfprintf_r+0xc0a>
10004436:	9b13      	ldr	r3, [sp, #76]	@ 0x4c
10004438:	443d      	add	r5, r7
1000443a:	9a0a      	ldr	r2, [sp, #40]	@ 0x28
1000443c:	9536      	str	r5, [sp, #216]	@ 0xd8
1000443e:	e9c2 3700 	strd	r3, r7, [r2]
10004442:	9b35      	ldr	r3, [sp, #212]	@ 0xd4
10004444:	3301      	adds	r3, #1
10004446:	2b07      	cmp	r3, #7
10004448:	9335      	str	r3, [sp, #212]	@ 0xd4
1000444a:	f300 8640 	bgt.w	100050ce <_vfprintf_r+0x1886>
1000444e:	3208      	adds	r2, #8
10004450:	920a      	str	r2, [sp, #40]	@ 0x28
10004452:	9e14      	ldr	r6, [sp, #80]	@ 0x50
10004454:	2f00      	cmp	r7, #0
10004456:	bfa8      	it	ge
10004458:	1bf6      	subge	r6, r6, r7
1000445a:	2e00      	cmp	r6, #0
1000445c:	f300 83ac 	bgt.w	10004bb8 <_vfprintf_r+0x1370>
10004460:	e9dd 2313 	ldrd	r2, r3, [sp, #76]	@ 0x4c
10004464:	4413      	add	r3, r2
10004466:	4699      	mov	r9, r3
10004468:	9b07      	ldr	r3, [sp, #28]
1000446a:	0559      	lsls	r1, r3, #21
1000446c:	f100 8537 	bmi.w	10004ede <_vfprintf_r+0x1696>
10004470:	9e2b      	ldr	r6, [sp, #172]	@ 0xac
10004472:	9b16      	ldr	r3, [sp, #88]	@ 0x58
10004474:	429e      	cmp	r6, r3
10004476:	f2c0 827f 	blt.w	10004978 <_vfprintf_r+0x1130>
1000447a:	9b07      	ldr	r3, [sp, #28]
1000447c:	07da      	lsls	r2, r3, #31
1000447e:	f100 827b 	bmi.w	10004978 <_vfprintf_r+0x1130>
10004482:	9b16      	ldr	r3, [sp, #88]	@ 0x58
10004484:	9f13      	ldr	r7, [sp, #76]	@ 0x4c
10004486:	1b9e      	subs	r6, r3, r6
10004488:	441f      	add	r7, r3
1000448a:	eba7 0709 	sub.w	r7, r7, r9
1000448e:	42b7      	cmp	r7, r6
10004490:	bfa8      	it	ge
10004492:	4637      	movge	r7, r6
10004494:	2f00      	cmp	r7, #0
10004496:	dd0d      	ble.n	100044b4 <_vfprintf_r+0xc6c>
10004498:	9b35      	ldr	r3, [sp, #212]	@ 0xd4
1000449a:	443d      	add	r5, r7
1000449c:	9a0a      	ldr	r2, [sp, #40]	@ 0x28
1000449e:	3301      	adds	r3, #1
100044a0:	9536      	str	r5, [sp, #216]	@ 0xd8
100044a2:	f8c2 9000 	str.w	r9, [r2]
100044a6:	2b07      	cmp	r3, #7
100044a8:	6057      	str	r7, [r2, #4]
100044aa:	9335      	str	r3, [sp, #212]	@ 0xd4
100044ac:	f300 866c 	bgt.w	10005188 <_vfprintf_r+0x1940>
100044b0:	3208      	adds	r2, #8
100044b2:	920a      	str	r2, [sp, #40]	@ 0x28
100044b4:	2f00      	cmp	r7, #0
100044b6:	bfa8      	it	ge
100044b8:	1bf6      	subge	r6, r6, r7
100044ba:	2e00      	cmp	r6, #0
100044bc:	f77f abab 	ble.w	10003c16 <_vfprintf_r+0x3ce>
100044c0:	2e10      	cmp	r6, #16
100044c2:	9b35      	ldr	r3, [sp, #212]	@ 0xd4
100044c4:	f8df 9430 	ldr.w	r9, [pc, #1072]	@ 100048f8 <_vfprintf_r+0x10b0>
100044c8:	f77f aec8 	ble.w	1000425c <_vfprintf_r+0xa14>
100044cc:	2710      	movs	r7, #16
100044ce:	464c      	mov	r4, r9
100044d0:	e9dd 280a 	ldrd	r2, r8, [sp, #40]	@ 0x28
100044d4:	e003      	b.n	100044de <_vfprintf_r+0xc96>
100044d6:	3e10      	subs	r6, #16
100044d8:	2e10      	cmp	r6, #16
100044da:	f77f aebd 	ble.w	10004258 <_vfprintf_r+0xa10>
100044de:	3301      	adds	r3, #1
100044e0:	3510      	adds	r5, #16
100044e2:	2b07      	cmp	r3, #7
100044e4:	e9c2 4700 	strd	r4, r7, [r2]
100044e8:	e9cd 3535 	strd	r3, r5, [sp, #212]	@ 0xd4
100044ec:	f102 0208 	add.w	r2, r2, #8
100044f0:	ddf1      	ble.n	100044d6 <_vfprintf_r+0xc8e>
100044f2:	aa34      	add	r2, sp, #208	@ 0xd0
100044f4:	4641      	mov	r1, r8
100044f6:	4658      	mov	r0, fp
100044f8:	f001 f820 	bl	1000553c <__sprint_r>
100044fc:	2800      	cmp	r0, #0
100044fe:	f47f ab0b 	bne.w	10003b18 <_vfprintf_r+0x2d0>
10004502:	aa37      	add	r2, sp, #220	@ 0xdc
10004504:	e9dd 3535 	ldrd	r3, r5, [sp, #212]	@ 0xd4
10004508:	e7e5      	b.n	100044d6 <_vfprintf_r+0xc8e>
1000450a:	ab60      	add	r3, sp, #384	@ 0x180
1000450c:	9313      	str	r3, [sp, #76]	@ 0x4c
1000450e:	e530      	b.n	10003f72 <_vfprintf_r+0x72a>
10004510:	9b07      	ldr	r3, [sp, #28]
10004512:	07db      	lsls	r3, r3, #31
10004514:	f53f aecb 	bmi.w	100042ae <_vfprintf_r+0xa66>
10004518:	9b13      	ldr	r3, [sp, #76]	@ 0x4c
1000451a:	2e07      	cmp	r6, #7
1000451c:	6013      	str	r3, [r2, #0]
1000451e:	f04f 0301 	mov.w	r3, #1
10004522:	e9cd 6535 	strd	r6, r5, [sp, #212]	@ 0xd4
10004526:	6053      	str	r3, [r2, #4]
10004528:	f77f aeee 	ble.w	10004308 <_vfprintf_r+0xac0>
1000452c:	aa34      	add	r2, sp, #208	@ 0xd0
1000452e:	990b      	ldr	r1, [sp, #44]	@ 0x2c
10004530:	4658      	mov	r0, fp
10004532:	f001 f803 	bl	1000553c <__sprint_r>
10004536:	2800      	cmp	r0, #0
10004538:	f47f aaee 	bne.w	10003b18 <_vfprintf_r+0x2d0>
1000453c:	af37      	add	r7, sp, #220	@ 0xdc
1000453e:	e9dd 6535 	ldrd	r6, r5, [sp, #212]	@ 0xd4
10004542:	e6e1      	b.n	10004308 <_vfprintf_r+0xac0>
10004544:	9b16      	ldr	r3, [sp, #88]	@ 0x58
10004546:	2b01      	cmp	r3, #1
10004548:	f77f aede 	ble.w	10004308 <_vfprintf_r+0xac0>
1000454c:	2b11      	cmp	r3, #17
1000454e:	f8df 93a8 	ldr.w	r9, [pc, #936]	@ 100048f8 <_vfprintf_r+0x10b0>
10004552:	f340 8326 	ble.w	10004ba2 <_vfprintf_r+0x135a>
10004556:	f04f 0810 	mov.w	r8, #16
1000455a:	e003      	b.n	10004564 <_vfprintf_r+0xd1c>
1000455c:	3c10      	subs	r4, #16
1000455e:	2c10      	cmp	r4, #16
10004560:	f340 831f 	ble.w	10004ba2 <_vfprintf_r+0x135a>
10004564:	3601      	adds	r6, #1
10004566:	3510      	adds	r5, #16
10004568:	2e07      	cmp	r6, #7
1000456a:	e9c7 9800 	strd	r9, r8, [r7]
1000456e:	e9cd 6535 	strd	r6, r5, [sp, #212]	@ 0xd4
10004572:	f107 0708 	add.w	r7, r7, #8
10004576:	ddf1      	ble.n	1000455c <_vfprintf_r+0xd14>
10004578:	aa34      	add	r2, sp, #208	@ 0xd0
1000457a:	990b      	ldr	r1, [sp, #44]	@ 0x2c
1000457c:	4658      	mov	r0, fp
1000457e:	f000 ffdd 	bl	1000553c <__sprint_r>
10004582:	2800      	cmp	r0, #0
10004584:	f47f aac8 	bne.w	10003b18 <_vfprintf_r+0x2d0>
10004588:	af37      	add	r7, sp, #220	@ 0xdc
1000458a:	e9dd 6535 	ldrd	r6, r5, [sp, #212]	@ 0xd4
1000458e:	e7e5      	b.n	1000455c <_vfprintf_r+0xd14>
10004590:	aa34      	add	r2, sp, #208	@ 0xd0
10004592:	990b      	ldr	r1, [sp, #44]	@ 0x2c
10004594:	4658      	mov	r0, fp
10004596:	f000 ffd1 	bl	1000553c <__sprint_r>
1000459a:	2800      	cmp	r0, #0
1000459c:	f47f aabc 	bne.w	10003b18 <_vfprintf_r+0x2d0>
100045a0:	ab37      	add	r3, sp, #220	@ 0xdc
100045a2:	9d36      	ldr	r5, [sp, #216]	@ 0xd8
100045a4:	930a      	str	r3, [sp, #40]	@ 0x28
100045a6:	f7ff bb23 	b.w	10003bf0 <_vfprintf_r+0x3a8>
100045aa:	9912      	ldr	r1, [sp, #72]	@ 0x48
100045ac:	f851 3b04 	ldr.w	r3, [r1], #4
100045b0:	9112      	str	r1, [sp, #72]	@ 0x48
100045b2:	f014 0110 	ands.w	r1, r4, #16
100045b6:	d173      	bne.n	100046a0 <_vfprintf_r+0xe58>
100045b8:	f014 0040 	ands.w	r0, r4, #64	@ 0x40
100045bc:	d06b      	beq.n	10004696 <_vfprintf_r+0xe4e>
100045be:	460a      	mov	r2, r1
100045c0:	b29b      	uxth	r3, r3
100045c2:	2101      	movs	r1, #1
100045c4:	e4b2      	b.n	10003f2c <_vfprintf_r+0x6e4>
100045c6:	9912      	ldr	r1, [sp, #72]	@ 0x48
100045c8:	f851 3b04 	ldr.w	r3, [r1], #4
100045cc:	9112      	str	r1, [sp, #72]	@ 0x48
100045ce:	9907      	ldr	r1, [sp, #28]
100045d0:	f011 0110 	ands.w	r1, r1, #16
100045d4:	f47f ad1f 	bne.w	10004016 <_vfprintf_r+0x7ce>
100045d8:	9a07      	ldr	r2, [sp, #28]
100045da:	f012 0040 	ands.w	r0, r2, #64	@ 0x40
100045de:	f000 8310 	beq.w	10004c02 <_vfprintf_r+0x13ba>
100045e2:	b29b      	uxth	r3, r3
100045e4:	460a      	mov	r2, r1
100045e6:	e516      	b.n	10004016 <_vfprintf_r+0x7ce>
100045e8:	2b00      	cmp	r3, #0
100045ea:	f43f aa32 	beq.w	10003a52 <_vfprintf_r+0x20a>
100045ee:	9b1c      	ldr	r3, [sp, #112]	@ 0x70
100045f0:	781a      	ldrb	r2, [r3, #0]
100045f2:	7823      	ldrb	r3, [r4, #0]
100045f4:	2a00      	cmp	r2, #0
100045f6:	f43f a9a7 	beq.w	10003948 <_vfprintf_r+0x100>
100045fa:	9a07      	ldr	r2, [sp, #28]
100045fc:	f442 6280 	orr.w	r2, r2, #1024	@ 0x400
10004600:	9207      	str	r2, [sp, #28]
10004602:	f7ff b9a1 	b.w	10003948 <_vfprintf_r+0x100>
10004606:	9d0b      	ldr	r5, [sp, #44]	@ 0x2c
10004608:	6da8      	ldr	r0, [r5, #88]	@ 0x58
1000460a:	f7fe ff0d 	bl	10003428 <__retarget_lock_acquire_recursive>
1000460e:	f9b5 200c 	ldrsh.w	r2, [r5, #12]
10004612:	6e6b      	ldr	r3, [r5, #100]	@ 0x64
10004614:	f7ff b940 	b.w	10003898 <_vfprintf_r+0x50>
10004618:	9b07      	ldr	r3, [sp, #28]
1000461a:	07dc      	lsls	r4, r3, #31
1000461c:	f57f aafb 	bpl.w	10003c16 <_vfprintf_r+0x3ce>
10004620:	e549      	b.n	100040b6 <_vfprintf_r+0x86e>
10004622:	9312      	str	r3, [sp, #72]	@ 0x48
10004624:	7823      	ldrb	r3, [r4, #0]
10004626:	f7ff b98f 	b.w	10003948 <_vfprintf_r+0x100>
1000462a:	9b35      	ldr	r3, [sp, #212]	@ 0xd4
1000462c:	3501      	adds	r5, #1
1000462e:	49ac      	ldr	r1, [pc, #688]	@ (100048e0 <_vfprintf_r+0x1098>)
10004630:	3301      	adds	r3, #1
10004632:	980a      	ldr	r0, [sp, #40]	@ 0x28
10004634:	9536      	str	r5, [sp, #216]	@ 0xd8
10004636:	6001      	str	r1, [r0, #0]
10004638:	2b07      	cmp	r3, #7
1000463a:	f04f 0101 	mov.w	r1, #1
1000463e:	9335      	str	r3, [sp, #212]	@ 0xd4
10004640:	6041      	str	r1, [r0, #4]
10004642:	f300 850d 	bgt.w	10005060 <_vfprintf_r+0x1818>
10004646:	3008      	adds	r0, #8
10004648:	900a      	str	r0, [sp, #40]	@ 0x28
1000464a:	9b16      	ldr	r3, [sp, #88]	@ 0x58
1000464c:	4313      	orrs	r3, r2
1000464e:	f000 856a 	beq.w	10005126 <_vfprintf_r+0x18de>
10004652:	9b1a      	ldr	r3, [sp, #104]	@ 0x68
10004654:	990a      	ldr	r1, [sp, #40]	@ 0x28
10004656:	981b      	ldr	r0, [sp, #108]	@ 0x6c
10004658:	441d      	add	r5, r3
1000465a:	e9c1 0300 	strd	r0, r3, [r1]
1000465e:	9b35      	ldr	r3, [sp, #212]	@ 0xd4
10004660:	9536      	str	r5, [sp, #216]	@ 0xd8
10004662:	3301      	adds	r3, #1
10004664:	2b07      	cmp	r3, #7
10004666:	9335      	str	r3, [sp, #212]	@ 0xd4
10004668:	f300 8514 	bgt.w	10005094 <_vfprintf_r+0x184c>
1000466c:	3108      	adds	r1, #8
1000466e:	460c      	mov	r4, r1
10004670:	2a00      	cmp	r2, #0
10004672:	f2c0 85d8 	blt.w	10005226 <_vfprintf_r+0x19de>
10004676:	9a13      	ldr	r2, [sp, #76]	@ 0x4c
10004678:	3301      	adds	r3, #1
1000467a:	6022      	str	r2, [r4, #0]
1000467c:	2b07      	cmp	r3, #7
1000467e:	9a16      	ldr	r2, [sp, #88]	@ 0x58
10004680:	4415      	add	r5, r2
10004682:	6062      	str	r2, [r4, #4]
10004684:	e9cd 3535 	strd	r3, r5, [sp, #212]	@ 0xd4
10004688:	f73f adf3 	bgt.w	10004272 <_vfprintf_r+0xa2a>
1000468c:	f104 0308 	add.w	r3, r4, #8
10004690:	930a      	str	r3, [sp, #40]	@ 0x28
10004692:	f7ff bac0 	b.w	10003c16 <_vfprintf_r+0x3ce>
10004696:	f414 7200 	ands.w	r2, r4, #512	@ 0x200
1000469a:	d001      	beq.n	100046a0 <_vfprintf_r+0xe58>
1000469c:	b2db      	uxtb	r3, r3
1000469e:	4602      	mov	r2, r0
100046a0:	2101      	movs	r1, #1
100046a2:	e443      	b.n	10003f2c <_vfprintf_r+0x6e4>
100046a4:	9a07      	ldr	r2, [sp, #28]
100046a6:	0591      	lsls	r1, r2, #22
100046a8:	f100 838b 	bmi.w	10004dc2 <_vfprintf_r+0x157a>
100046ac:	17da      	asrs	r2, r3, #31
100046ae:	4611      	mov	r1, r2
100046b0:	2900      	cmp	r1, #0
100046b2:	f6bf abcc 	bge.w	10003e4e <_vfprintf_r+0x606>
100046b6:	425b      	negs	r3, r3
100046b8:	9c07      	ldr	r4, [sp, #28]
100046ba:	f04f 002d 	mov.w	r0, #45	@ 0x2d
100046be:	f04f 0101 	mov.w	r1, #1
100046c2:	eb62 0242 	sbc.w	r2, r2, r2, lsl #1
100046c6:	e432      	b.n	10003f2e <_vfprintf_r+0x6e6>
100046c8:	9b07      	ldr	r3, [sp, #28]
100046ca:	06d8      	lsls	r0, r3, #27
100046cc:	f100 8263 	bmi.w	10004b96 <_vfprintf_r+0x134e>
100046d0:	9b07      	ldr	r3, [sp, #28]
100046d2:	0659      	lsls	r1, r3, #25
100046d4:	f100 837b 	bmi.w	10004dce <_vfprintf_r+0x1586>
100046d8:	9b07      	ldr	r3, [sp, #28]
100046da:	059a      	lsls	r2, r3, #22
100046dc:	f140 825b 	bpl.w	10004b96 <_vfprintf_r+0x134e>
100046e0:	9b12      	ldr	r3, [sp, #72]	@ 0x48
100046e2:	9a0e      	ldr	r2, [sp, #56]	@ 0x38
100046e4:	681b      	ldr	r3, [r3, #0]
100046e6:	701a      	strb	r2, [r3, #0]
100046e8:	e4c0      	b.n	1000406c <_vfprintf_r+0x824>
100046ea:	e9dd 0118 	ldrd	r0, r1, [sp, #96]	@ 0x60
100046ee:	4602      	mov	r2, r0
100046f0:	460b      	mov	r3, r1
100046f2:	f7fd fdbf 	bl	10002274 <__wrap___aeabi_dcmpun>
100046f6:	2800      	cmp	r0, #0
100046f8:	f040 85e9 	bne.w	100052ce <_vfprintf_r+0x1a86>
100046fc:	f027 0620 	bic.w	r6, r7, #32
10004700:	2e41      	cmp	r6, #65	@ 0x41
10004702:	f040 8295 	bne.w	10004c30 <_vfprintf_r+0x13e8>
10004706:	2330      	movs	r3, #48	@ 0x30
10004708:	2f61      	cmp	r7, #97	@ 0x61
1000470a:	f88d 30a8 	strb.w	r3, [sp, #168]	@ 0xa8
1000470e:	bf14      	ite	ne
10004710:	2358      	movne	r3, #88	@ 0x58
10004712:	2378      	moveq	r3, #120	@ 0x78
10004714:	f88d 30a9 	strb.w	r3, [sp, #169]	@ 0xa9
10004718:	9b0c      	ldr	r3, [sp, #48]	@ 0x30
1000471a:	2b63      	cmp	r3, #99	@ 0x63
1000471c:	f300 838e 	bgt.w	10004e3c <_vfprintf_r+0x15f4>
10004720:	ab47      	add	r3, sp, #284	@ 0x11c
10004722:	9011      	str	r0, [sp, #68]	@ 0x44
10004724:	9313      	str	r3, [sp, #76]	@ 0x4c
10004726:	e9dd 1218 	ldrd	r1, r2, [sp, #96]	@ 0x60
1000472a:	2a00      	cmp	r2, #0
1000472c:	f280 856e 	bge.w	1000520c <_vfprintf_r+0x19c4>
10004730:	f102 4300 	add.w	r3, r2, #2147483648	@ 0x80000000
10004734:	f04f 092d 	mov.w	r9, #45	@ 0x2d
10004738:	9126      	str	r1, [sp, #152]	@ 0x98
1000473a:	9327      	str	r3, [sp, #156]	@ 0x9c
1000473c:	aa2b      	add	r2, sp, #172	@ 0xac
1000473e:	e9dd 0126 	ldrd	r0, r1, [sp, #152]	@ 0x98
10004742:	f001 fbc9 	bl	10005ed8 <frexp>
10004746:	2200      	movs	r2, #0
10004748:	f04f 537f 	mov.w	r3, #1069547520	@ 0x3fc00000
1000474c:	f7fd fce8 	bl	10002120 <__wrap___aeabi_dmul>
10004750:	4602      	mov	r2, r0
10004752:	460b      	mov	r3, r1
10004754:	e9cd 2308 	strd	r2, r3, [sp, #32]
10004758:	2200      	movs	r2, #0
1000475a:	2300      	movs	r3, #0
1000475c:	f7fd fd9c 	bl	10002298 <__wrap___aeabi_dcmpeq>
10004760:	b108      	cbz	r0, 10004766 <_vfprintf_r+0xf1e>
10004762:	2301      	movs	r3, #1
10004764:	932b      	str	r3, [sp, #172]	@ 0xac
10004766:	9b0c      	ldr	r3, [sp, #48]	@ 0x30
10004768:	4a5e      	ldr	r2, [pc, #376]	@ (100048e4 <_vfprintf_r+0x109c>)
1000476a:	1e59      	subs	r1, r3, #1
1000476c:	4b5e      	ldr	r3, [pc, #376]	@ (100048e8 <_vfprintf_r+0x10a0>)
1000476e:	4614      	mov	r4, r2
10004770:	970f      	str	r7, [sp, #60]	@ 0x3c
10004772:	f8cd 9050 	str.w	r9, [sp, #80]	@ 0x50
10004776:	2f61      	cmp	r7, #97	@ 0x61
10004778:	bf08      	it	eq
1000477a:	461c      	moveq	r4, r3
1000477c:	9e13      	ldr	r6, [sp, #76]	@ 0x4c
1000477e:	460f      	mov	r7, r1
10004780:	940c      	str	r4, [sp, #48]	@ 0x30
10004782:	e9dd 8908 	ldrd	r8, r9, [sp, #32]
10004786:	e008      	b.n	1000479a <_vfprintf_r+0xf52>
10004788:	2200      	movs	r2, #0
1000478a:	2300      	movs	r3, #0
1000478c:	1e7d      	subs	r5, r7, #1
1000478e:	f7fd fd83 	bl	10002298 <__wrap___aeabi_dcmpeq>
10004792:	2800      	cmp	r0, #0
10004794:	f040 85e4 	bne.w	10005360 <_vfprintf_r+0x1b18>
10004798:	462f      	mov	r7, r5
1000479a:	2200      	movs	r2, #0
1000479c:	4b53      	ldr	r3, [pc, #332]	@ (100048ec <_vfprintf_r+0x10a4>)
1000479e:	4640      	mov	r0, r8
100047a0:	4649      	mov	r1, r9
100047a2:	f7fd fcbd 	bl	10002120 <__wrap___aeabi_dmul>
100047a6:	4689      	mov	r9, r1
100047a8:	4680      	mov	r8, r0
100047aa:	f7fd fd51 	bl	10002250 <__wrap___aeabi_d2iz>
100047ae:	4605      	mov	r5, r0
100047b0:	f7fd fd2a 	bl	10002208 <__wrap___aeabi_i2d>
100047b4:	4602      	mov	r2, r0
100047b6:	460b      	mov	r3, r1
100047b8:	4640      	mov	r0, r8
100047ba:	4649      	mov	r1, r9
100047bc:	f7fd fc9c 	bl	100020f8 <__wrap___aeabi_dsub>
100047c0:	5d63      	ldrb	r3, [r4, r5]
100047c2:	4632      	mov	r2, r6
100047c4:	4680      	mov	r8, r0
100047c6:	f806 3b01 	strb.w	r3, [r6], #1
100047ca:	1c7b      	adds	r3, r7, #1
100047cc:	4689      	mov	r9, r1
100047ce:	d1db      	bne.n	10004788 <_vfprintf_r+0xf40>
100047d0:	4614      	mov	r4, r2
100047d2:	4b47      	ldr	r3, [pc, #284]	@ (100048f0 <_vfprintf_r+0x10a8>)
100047d4:	2200      	movs	r2, #0
100047d6:	9f0f      	ldr	r7, [sp, #60]	@ 0x3c
100047d8:	e9cd 8908 	strd	r8, r9, [sp, #32]
100047dc:	f8dd 9050 	ldr.w	r9, [sp, #80]	@ 0x50
100047e0:	f7fd fd94 	bl	1000230c <__wrap___aeabi_dcmpgt>
100047e4:	2800      	cmp	r0, #0
100047e6:	f000 863c 	beq.w	10005462 <_vfprintf_r+0x1c1a>
100047ea:	9b0c      	ldr	r3, [sp, #48]	@ 0x30
100047ec:	9432      	str	r4, [sp, #200]	@ 0xc8
100047ee:	7bd9      	ldrb	r1, [r3, #15]
100047f0:	4633      	mov	r3, r6
100047f2:	f816 2c01 	ldrb.w	r2, [r6, #-1]
100047f6:	4291      	cmp	r1, r2
100047f8:	d109      	bne.n	1000480e <_vfprintf_r+0xfc6>
100047fa:	2030      	movs	r0, #48	@ 0x30
100047fc:	f803 0c01 	strb.w	r0, [r3, #-1]
10004800:	9b32      	ldr	r3, [sp, #200]	@ 0xc8
10004802:	1e5a      	subs	r2, r3, #1
10004804:	9232      	str	r2, [sp, #200]	@ 0xc8
10004806:	f813 2c01 	ldrb.w	r2, [r3, #-1]
1000480a:	4291      	cmp	r1, r2
1000480c:	d0f6      	beq.n	100047fc <_vfprintf_r+0xfb4>
1000480e:	2a39      	cmp	r2, #57	@ 0x39
10004810:	f000 8606 	beq.w	10005420 <_vfprintf_r+0x1bd8>
10004814:	3201      	adds	r2, #1
10004816:	b2d2      	uxtb	r2, r2
10004818:	f803 2c01 	strb.w	r2, [r3, #-1]
1000481c:	4633      	mov	r3, r6
1000481e:	9a07      	ldr	r2, [sp, #28]
10004820:	2101      	movs	r1, #1
10004822:	f042 0202 	orr.w	r2, r2, #2
10004826:	9207      	str	r2, [sp, #28]
10004828:	9a13      	ldr	r2, [sp, #76]	@ 0x4c
1000482a:	1a9b      	subs	r3, r3, r2
1000482c:	f107 020f 	add.w	r2, r7, #15
10004830:	9316      	str	r3, [sp, #88]	@ 0x58
10004832:	b2d2      	uxtb	r2, r2
10004834:	9b2b      	ldr	r3, [sp, #172]	@ 0xac
10004836:	9314      	str	r3, [sp, #80]	@ 0x50
10004838:	3b01      	subs	r3, #1
1000483a:	932b      	str	r3, [sp, #172]	@ 0xac
1000483c:	e25a      	b.n	10004cf4 <_vfprintf_r+0x14ac>
1000483e:	2330      	movs	r3, #48	@ 0x30
10004840:	9a13      	ldr	r2, [sp, #76]	@ 0x4c
10004842:	3802      	subs	r0, #2
10004844:	9407      	str	r4, [sp, #28]
10004846:	f802 3c01 	strb.w	r3, [r2, #-1]
1000484a:	ab60      	add	r3, sp, #384	@ 0x180
1000484c:	9013      	str	r0, [sp, #76]	@ 0x4c
1000484e:	1a1b      	subs	r3, r3, r0
10004850:	930f      	str	r3, [sp, #60]	@ 0x3c
10004852:	f7ff bb8e 	b.w	10003f72 <_vfprintf_r+0x72a>
10004856:	4b23      	ldr	r3, [pc, #140]	@ (100048e4 <_vfprintf_r+0x109c>)
10004858:	940d      	str	r4, [sp, #52]	@ 0x34
1000485a:	931e      	str	r3, [sp, #120]	@ 0x78
1000485c:	9b07      	ldr	r3, [sp, #28]
1000485e:	f013 0220 	ands.w	r2, r3, #32
10004862:	f000 8099 	beq.w	10004998 <_vfprintf_r+0x1150>
10004866:	9b12      	ldr	r3, [sp, #72]	@ 0x48
10004868:	3307      	adds	r3, #7
1000486a:	f023 0307 	bic.w	r3, r3, #7
1000486e:	4619      	mov	r1, r3
10004870:	685a      	ldr	r2, [r3, #4]
10004872:	f851 3b08 	ldr.w	r3, [r1], #8
10004876:	9112      	str	r1, [sp, #72]	@ 0x48
10004878:	ea53 0102 	orrs.w	r1, r3, r2
1000487c:	d00a      	beq.n	10004894 <_vfprintf_r+0x104c>
1000487e:	9907      	ldr	r1, [sp, #28]
10004880:	07c8      	lsls	r0, r1, #31
10004882:	d507      	bpl.n	10004894 <_vfprintf_r+0x104c>
10004884:	f041 0102 	orr.w	r1, r1, #2
10004888:	f88d 70a9 	strb.w	r7, [sp, #169]	@ 0xa9
1000488c:	9107      	str	r1, [sp, #28]
1000488e:	2130      	movs	r1, #48	@ 0x30
10004890:	f88d 10a8 	strb.w	r1, [sp, #168]	@ 0xa8
10004894:	9907      	ldr	r1, [sp, #28]
10004896:	f421 6480 	bic.w	r4, r1, #1024	@ 0x400
1000489a:	2102      	movs	r1, #2
1000489c:	f7ff bb46 	b.w	10003f2c <_vfprintf_r+0x6e4>
100048a0:	940d      	str	r4, [sp, #52]	@ 0x34
100048a2:	f7ff bbaa 	b.w	10003ffa <_vfprintf_r+0x7b2>
100048a6:	940d      	str	r4, [sp, #52]	@ 0x34
100048a8:	9c07      	ldr	r4, [sp, #28]
100048aa:	f7ff bb31 	b.w	10003f10 <_vfprintf_r+0x6c8>
100048ae:	4b0e      	ldr	r3, [pc, #56]	@ (100048e8 <_vfprintf_r+0x10a0>)
100048b0:	940d      	str	r4, [sp, #52]	@ 0x34
100048b2:	931e      	str	r3, [sp, #120]	@ 0x78
100048b4:	e7d2      	b.n	1000485c <_vfprintf_r+0x1014>
100048b6:	aa34      	add	r2, sp, #208	@ 0xd0
100048b8:	990b      	ldr	r1, [sp, #44]	@ 0x2c
100048ba:	4658      	mov	r0, fp
100048bc:	f000 fe3e 	bl	1000553c <__sprint_r>
100048c0:	2800      	cmp	r0, #0
100048c2:	f47f a929 	bne.w	10003b18 <_vfprintf_r+0x2d0>
100048c6:	ab37      	add	r3, sp, #220	@ 0xdc
100048c8:	9d36      	ldr	r5, [sp, #216]	@ 0xd8
100048ca:	930a      	str	r3, [sp, #40]	@ 0x28
100048cc:	f7ff b98a 	b.w	10003be4 <_vfprintf_r+0x39c>
100048d0:	9b07      	ldr	r3, [sp, #28]
100048d2:	3401      	adds	r4, #1
100048d4:	f043 0320 	orr.w	r3, r3, #32
100048d8:	9307      	str	r3, [sp, #28]
100048da:	7823      	ldrb	r3, [r4, #0]
100048dc:	f7ff b834 	b.w	10003948 <_vfprintf_r+0x100>
100048e0:	10008100 	.word	0x10008100
100048e4:	100081b4 	.word	0x100081b4
100048e8:	100081a0 	.word	0x100081a0
100048ec:	40300000 	.word	0x40300000
100048f0:	3fe00000 	.word	0x3fe00000
100048f4:	10008630 	.word	0x10008630
100048f8:	10008620 	.word	0x10008620
100048fc:	9b07      	ldr	r3, [sp, #28]
100048fe:	3401      	adds	r4, #1
10004900:	f443 7300 	orr.w	r3, r3, #512	@ 0x200
10004904:	9307      	str	r3, [sp, #28]
10004906:	7823      	ldrb	r3, [r4, #0]
10004908:	f7ff b81e 	b.w	10003948 <_vfprintf_r+0x100>
1000490c:	aa34      	add	r2, sp, #208	@ 0xd0
1000490e:	990b      	ldr	r1, [sp, #44]	@ 0x2c
10004910:	4658      	mov	r0, fp
10004912:	f000 fe13 	bl	1000553c <__sprint_r>
10004916:	2800      	cmp	r0, #0
10004918:	f47f a8fe 	bne.w	10003b18 <_vfprintf_r+0x2d0>
1000491c:	ab37      	add	r3, sp, #220	@ 0xdc
1000491e:	9d36      	ldr	r5, [sp, #216]	@ 0xd8
10004920:	930a      	str	r3, [sp, #40]	@ 0x28
10004922:	f7ff bbd7 	b.w	100040d4 <_vfprintf_r+0x88c>
10004926:	990c      	ldr	r1, [sp, #48]	@ 0x30
10004928:	461a      	mov	r2, r3
1000492a:	930c      	str	r3, [sp, #48]	@ 0x30
1000492c:	2906      	cmp	r1, #6
1000492e:	9311      	str	r3, [sp, #68]	@ 0x44
10004930:	9317      	str	r3, [sp, #92]	@ 0x5c
10004932:	bf28      	it	cs
10004934:	2106      	movcs	r1, #6
10004936:	9612      	str	r6, [sp, #72]	@ 0x48
10004938:	e9cd 3314 	strd	r3, r3, [sp, #80]	@ 0x50
1000493c:	4bb9      	ldr	r3, [pc, #740]	@ (10004c24 <_vfprintf_r+0x13dc>)
1000493e:	9108      	str	r1, [sp, #32]
10004940:	910f      	str	r1, [sp, #60]	@ 0x3c
10004942:	9313      	str	r3, [sp, #76]	@ 0x4c
10004944:	f7ff b9cb 	b.w	10003cde <_vfprintf_r+0x496>
10004948:	2208      	movs	r2, #8
1000494a:	2100      	movs	r1, #0
1000494c:	a832      	add	r0, sp, #200	@ 0xc8
1000494e:	ae47      	add	r6, sp, #284	@ 0x11c
10004950:	f7fe fcfc 	bl	1000334c <memset>
10004954:	9a12      	ldr	r2, [sp, #72]	@ 0x48
10004956:	ab32      	add	r3, sp, #200	@ 0xc8
10004958:	4658      	mov	r0, fp
1000495a:	6812      	ldr	r2, [r2, #0]
1000495c:	4631      	mov	r1, r6
1000495e:	f002 fee9 	bl	10007734 <_wcrtomb_r>
10004962:	4603      	mov	r3, r0
10004964:	900f      	str	r0, [sp, #60]	@ 0x3c
10004966:	3301      	adds	r3, #1
10004968:	f000 8552 	beq.w	10005410 <_vfprintf_r+0x1bc8>
1000496c:	9b0f      	ldr	r3, [sp, #60]	@ 0x3c
1000496e:	ea23 73e3 	bic.w	r3, r3, r3, asr #31
10004972:	9308      	str	r3, [sp, #32]
10004974:	f7ff ba1d 	b.w	10003db2 <_vfprintf_r+0x56a>
10004978:	9b1a      	ldr	r3, [sp, #104]	@ 0x68
1000497a:	9a0a      	ldr	r2, [sp, #40]	@ 0x28
1000497c:	991b      	ldr	r1, [sp, #108]	@ 0x6c
1000497e:	441d      	add	r5, r3
10004980:	e9c2 1300 	strd	r1, r3, [r2]
10004984:	9b35      	ldr	r3, [sp, #212]	@ 0xd4
10004986:	9536      	str	r5, [sp, #216]	@ 0xd8
10004988:	3301      	adds	r3, #1
1000498a:	2b07      	cmp	r3, #7
1000498c:	9335      	str	r3, [sp, #212]	@ 0xd4
1000498e:	f300 83ab 	bgt.w	100050e8 <_vfprintf_r+0x18a0>
10004992:	3208      	adds	r2, #8
10004994:	920a      	str	r2, [sp, #40]	@ 0x28
10004996:	e574      	b.n	10004482 <_vfprintf_r+0xc3a>
10004998:	9912      	ldr	r1, [sp, #72]	@ 0x48
1000499a:	f851 3b04 	ldr.w	r3, [r1], #4
1000499e:	9112      	str	r1, [sp, #72]	@ 0x48
100049a0:	9907      	ldr	r1, [sp, #28]
100049a2:	f011 0110 	ands.w	r1, r1, #16
100049a6:	f47f af67 	bne.w	10004878 <_vfprintf_r+0x1030>
100049aa:	9a07      	ldr	r2, [sp, #28]
100049ac:	f012 0040 	ands.w	r0, r2, #64	@ 0x40
100049b0:	f000 8130 	beq.w	10004c14 <_vfprintf_r+0x13cc>
100049b4:	b29b      	uxth	r3, r3
100049b6:	460a      	mov	r2, r1
100049b8:	e75e      	b.n	10004878 <_vfprintf_r+0x1030>
100049ba:	aa34      	add	r2, sp, #208	@ 0xd0
100049bc:	990b      	ldr	r1, [sp, #44]	@ 0x2c
100049be:	4658      	mov	r0, fp
100049c0:	f000 fdbc 	bl	1000553c <__sprint_r>
100049c4:	2800      	cmp	r0, #0
100049c6:	f47f a8a7 	bne.w	10003b18 <_vfprintf_r+0x2d0>
100049ca:	af37      	add	r7, sp, #220	@ 0xdc
100049cc:	e9dd 6535 	ldrd	r6, r5, [sp, #212]	@ 0xd4
100049d0:	e483      	b.n	100042da <_vfprintf_r+0xa92>
100049d2:	aa34      	add	r2, sp, #208	@ 0xd0
100049d4:	990b      	ldr	r1, [sp, #44]	@ 0x2c
100049d6:	4658      	mov	r0, fp
100049d8:	f000 fdb0 	bl	1000553c <__sprint_r>
100049dc:	2800      	cmp	r0, #0
100049de:	f47f a89b 	bne.w	10003b18 <_vfprintf_r+0x2d0>
100049e2:	af37      	add	r7, sp, #220	@ 0xdc
100049e4:	e9dd 6535 	ldrd	r6, r5, [sp, #212]	@ 0xd4
100049e8:	e46b      	b.n	100042c2 <_vfprintf_r+0xa7a>
100049ea:	aa34      	add	r2, sp, #208	@ 0xd0
100049ec:	990b      	ldr	r1, [sp, #44]	@ 0x2c
100049ee:	4658      	mov	r0, fp
100049f0:	9321      	str	r3, [sp, #132]	@ 0x84
100049f2:	f000 fda3 	bl	1000553c <__sprint_r>
100049f6:	2800      	cmp	r0, #0
100049f8:	f47f a88e 	bne.w	10003b18 <_vfprintf_r+0x2d0>
100049fc:	ab37      	add	r3, sp, #220	@ 0xdc
100049fe:	f89d 20a7 	ldrb.w	r2, [sp, #167]	@ 0xa7
10004a02:	9d36      	ldr	r5, [sp, #216]	@ 0xd8
10004a04:	930a      	str	r3, [sp, #40]	@ 0x28
10004a06:	9b21      	ldr	r3, [sp, #132]	@ 0x84
10004a08:	f7ff b8c8 	b.w	10003b9c <_vfprintf_r+0x354>
10004a0c:	4658      	mov	r0, fp
10004a0e:	f000 ff0f 	bl	10005830 <__sinit>
10004a12:	f7fe bf38 	b.w	10003886 <_vfprintf_r+0x3e>
10004a16:	aa34      	add	r2, sp, #208	@ 0xd0
10004a18:	990b      	ldr	r1, [sp, #44]	@ 0x2c
10004a1a:	4658      	mov	r0, fp
10004a1c:	f000 fd8e 	bl	1000553c <__sprint_r>
10004a20:	2800      	cmp	r0, #0
10004a22:	f47f a879 	bne.w	10003b18 <_vfprintf_r+0x2d0>
10004a26:	ab37      	add	r3, sp, #220	@ 0xdc
10004a28:	9d36      	ldr	r5, [sp, #216]	@ 0xd8
10004a2a:	930a      	str	r3, [sp, #40]	@ 0x28
10004a2c:	f7ff bb3e 	b.w	100040ac <_vfprintf_r+0x864>
10004a30:	ac32      	add	r4, sp, #200	@ 0xc8
10004a32:	9b13      	ldr	r3, [sp, #76]	@ 0x4c
10004a34:	2208      	movs	r2, #8
10004a36:	2100      	movs	r1, #0
10004a38:	4620      	mov	r0, r4
10004a3a:	932d      	str	r3, [sp, #180]	@ 0xb4
10004a3c:	f7fe fc86 	bl	1000334c <memset>
10004a40:	9b0c      	ldr	r3, [sp, #48]	@ 0x30
10004a42:	2b00      	cmp	r3, #0
10004a44:	f2c0 821c 	blt.w	10004e80 <_vfprintf_r+0x1638>
10004a48:	2500      	movs	r5, #0
10004a4a:	4699      	mov	r9, r3
10004a4c:	46a8      	mov	r8, r5
10004a4e:	e00e      	b.n	10004a6e <_vfprintf_r+0x1226>
10004a50:	a947      	add	r1, sp, #284	@ 0x11c
10004a52:	4658      	mov	r0, fp
10004a54:	f002 fe6e 	bl	10007734 <_wcrtomb_r>
10004a58:	1c43      	adds	r3, r0, #1
10004a5a:	f105 0504 	add.w	r5, r5, #4
10004a5e:	4440      	add	r0, r8
10004a60:	f000 842a 	beq.w	100052b8 <_vfprintf_r+0x1a70>
10004a64:	4548      	cmp	r0, r9
10004a66:	dc07      	bgt.n	10004a78 <_vfprintf_r+0x1230>
10004a68:	f000 848a 	beq.w	10005380 <_vfprintf_r+0x1b38>
10004a6c:	4680      	mov	r8, r0
10004a6e:	9a2d      	ldr	r2, [sp, #180]	@ 0xb4
10004a70:	4623      	mov	r3, r4
10004a72:	5952      	ldr	r2, [r2, r5]
10004a74:	2a00      	cmp	r2, #0
10004a76:	d1eb      	bne.n	10004a50 <_vfprintf_r+0x1208>
10004a78:	f8cd 803c 	str.w	r8, [sp, #60]	@ 0x3c
10004a7c:	9b0f      	ldr	r3, [sp, #60]	@ 0x3c
10004a7e:	2b00      	cmp	r3, #0
10004a80:	f000 82fc 	beq.w	1000507c <_vfprintf_r+0x1834>
10004a84:	2b63      	cmp	r3, #99	@ 0x63
10004a86:	f340 83c9 	ble.w	1000521c <_vfprintf_r+0x19d4>
10004a8a:	1c59      	adds	r1, r3, #1
10004a8c:	4658      	mov	r0, fp
10004a8e:	f7fd ff63 	bl	10002958 <_malloc_r>
10004a92:	9013      	str	r0, [sp, #76]	@ 0x4c
10004a94:	2800      	cmp	r0, #0
10004a96:	f000 8504 	beq.w	100054a2 <_vfprintf_r+0x1c5a>
10004a9a:	9b13      	ldr	r3, [sp, #76]	@ 0x4c
10004a9c:	9311      	str	r3, [sp, #68]	@ 0x44
10004a9e:	2208      	movs	r2, #8
10004aa0:	2100      	movs	r1, #0
10004aa2:	4620      	mov	r0, r4
10004aa4:	f7fe fc52 	bl	1000334c <memset>
10004aa8:	9400      	str	r4, [sp, #0]
10004aaa:	9c0f      	ldr	r4, [sp, #60]	@ 0x3c
10004aac:	aa2d      	add	r2, sp, #180	@ 0xb4
10004aae:	9913      	ldr	r1, [sp, #76]	@ 0x4c
10004ab0:	4658      	mov	r0, fp
10004ab2:	4623      	mov	r3, r4
10004ab4:	f002 fe64 	bl	10007780 <_wcsrtombs_r>
10004ab8:	4284      	cmp	r4, r0
10004aba:	f040 84ec 	bne.w	10005496 <_vfprintf_r+0x1c4e>
10004abe:	2300      	movs	r3, #0
10004ac0:	9a13      	ldr	r2, [sp, #76]	@ 0x4c
10004ac2:	990f      	ldr	r1, [sp, #60]	@ 0x3c
10004ac4:	9612      	str	r6, [sp, #72]	@ 0x48
10004ac6:	5453      	strb	r3, [r2, r1]
10004ac8:	ea21 71e1 	bic.w	r1, r1, r1, asr #31
10004acc:	f89d 20a7 	ldrb.w	r2, [sp, #167]	@ 0xa7
10004ad0:	930c      	str	r3, [sp, #48]	@ 0x30
10004ad2:	9108      	str	r1, [sp, #32]
10004ad4:	9317      	str	r3, [sp, #92]	@ 0x5c
10004ad6:	e9cd 3314 	strd	r3, r3, [sp, #80]	@ 0x50
10004ada:	f7ff b900 	b.w	10003cde <_vfprintf_r+0x496>
10004ade:	f404 6180 	and.w	r1, r4, #1024	@ 0x400
10004ae2:	2000      	movs	r0, #0
10004ae4:	469e      	mov	lr, r3
10004ae6:	f50d 7cc0 	add.w	ip, sp, #384	@ 0x180
10004aea:	4e4f      	ldr	r6, [pc, #316]	@ (10004c28 <_vfprintf_r+0x13e0>)
10004aec:	f04f 0905 	mov.w	r9, #5
10004af0:	4680      	mov	r8, r0
10004af2:	460b      	mov	r3, r1
10004af4:	f8cd b03c 	str.w	fp, [sp, #60]	@ 0x3c
10004af8:	e9cd 7407 	strd	r7, r4, [sp, #28]
10004afc:	e007      	b.n	10004b0e <_vfprintf_r+0x12c6>
10004afe:	f1be 0f0a 	cmp.w	lr, #10
10004b02:	f172 0200 	sbcs.w	r2, r2, #0
10004b06:	d338      	bcc.n	10004b7a <_vfprintf_r+0x1332>
10004b08:	46ae      	mov	lr, r5
10004b0a:	4622      	mov	r2, r4
10004b0c:	46bc      	mov	ip, r7
10004b0e:	eb1e 0002 	adds.w	r0, lr, r2
10004b12:	f108 0801 	add.w	r8, r8, #1
10004b16:	f10c 37ff 	add.w	r7, ip, #4294967295
10004b1a:	f140 0000 	adc.w	r0, r0, #0
10004b1e:	fba6 1400 	umull	r1, r4, r6, r0
10004b22:	f024 0103 	bic.w	r1, r4, #3
10004b26:	eb01 0194 	add.w	r1, r1, r4, lsr #2
10004b2a:	f04f 34cc 	mov.w	r4, #3435973836	@ 0xcccccccc
10004b2e:	1a40      	subs	r0, r0, r1
10004b30:	ebbe 0100 	subs.w	r1, lr, r0
10004b34:	f162 0500 	sbc.w	r5, r2, #0
10004b38:	fb04 f401 	mul.w	r4, r4, r1
10004b3c:	fb06 4405 	mla	r4, r6, r5, r4
10004b40:	fba1 5106 	umull	r5, r1, r1, r6
10004b44:	440c      	add	r4, r1
10004b46:	f005 0101 	and.w	r1, r5, #1
10004b4a:	086d      	lsrs	r5, r5, #1
10004b4c:	fba1 1b09 	umull	r1, fp, r1, r9
10004b50:	ea45 75c4 	orr.w	r5, r5, r4, lsl #31
10004b54:	1809      	adds	r1, r1, r0
10004b56:	0864      	lsrs	r4, r4, #1
10004b58:	3130      	adds	r1, #48	@ 0x30
10004b5a:	f80c 1c01 	strb.w	r1, [ip, #-1]
10004b5e:	2b00      	cmp	r3, #0
10004b60:	d0cd      	beq.n	10004afe <_vfprintf_r+0x12b6>
10004b62:	991c      	ldr	r1, [sp, #112]	@ 0x70
10004b64:	7809      	ldrb	r1, [r1, #0]
10004b66:	4541      	cmp	r1, r8
10004b68:	d1c9      	bne.n	10004afe <_vfprintf_r+0x12b6>
10004b6a:	29ff      	cmp	r1, #255	@ 0xff
10004b6c:	d0c7      	beq.n	10004afe <_vfprintf_r+0x12b6>
10004b6e:	f1be 0f0a 	cmp.w	lr, #10
10004b72:	f172 0200 	sbcs.w	r2, r2, #0
10004b76:	f080 82c5 	bcs.w	10005104 <_vfprintf_r+0x18bc>
10004b7a:	463a      	mov	r2, r7
10004b7c:	ab60      	add	r3, sp, #384	@ 0x180
10004b7e:	9713      	str	r7, [sp, #76]	@ 0x4c
10004b80:	1a9b      	subs	r3, r3, r2
10004b82:	f8dd b03c 	ldr.w	fp, [sp, #60]	@ 0x3c
10004b86:	f8cd 8058 	str.w	r8, [sp, #88]	@ 0x58
10004b8a:	930f      	str	r3, [sp, #60]	@ 0x3c
10004b8c:	e9dd 7407 	ldrd	r7, r4, [sp, #28]
10004b90:	9407      	str	r4, [sp, #28]
10004b92:	f7ff b9ee 	b.w	10003f72 <_vfprintf_r+0x72a>
10004b96:	9b12      	ldr	r3, [sp, #72]	@ 0x48
10004b98:	9a0e      	ldr	r2, [sp, #56]	@ 0x38
10004b9a:	681b      	ldr	r3, [r3, #0]
10004b9c:	601a      	str	r2, [r3, #0]
10004b9e:	f7ff ba65 	b.w	1000406c <_vfprintf_r+0x824>
10004ba2:	3601      	adds	r6, #1
10004ba4:	4425      	add	r5, r4
10004ba6:	f8c7 9000 	str.w	r9, [r7]
10004baa:	2e07      	cmp	r6, #7
10004bac:	607c      	str	r4, [r7, #4]
10004bae:	e9cd 6535 	strd	r6, r5, [sp, #212]	@ 0xd4
10004bb2:	f77f aba8 	ble.w	10004306 <_vfprintf_r+0xabe>
10004bb6:	e4b9      	b.n	1000452c <_vfprintf_r+0xce4>
10004bb8:	2e10      	cmp	r6, #16
10004bba:	9b35      	ldr	r3, [sp, #212]	@ 0xd4
10004bbc:	f8df 906c 	ldr.w	r9, [pc, #108]	@ 10004c2c <_vfprintf_r+0x13e4>
10004bc0:	f340 80f1 	ble.w	10004da6 <_vfprintf_r+0x155e>
10004bc4:	2710      	movs	r7, #16
10004bc6:	464c      	mov	r4, r9
10004bc8:	e9dd 280a 	ldrd	r2, r8, [sp, #40]	@ 0x28
10004bcc:	e003      	b.n	10004bd6 <_vfprintf_r+0x138e>
10004bce:	3e10      	subs	r6, #16
10004bd0:	2e10      	cmp	r6, #16
10004bd2:	f340 80e6 	ble.w	10004da2 <_vfprintf_r+0x155a>
10004bd6:	3301      	adds	r3, #1
10004bd8:	3510      	adds	r5, #16
10004bda:	2b07      	cmp	r3, #7
10004bdc:	e9c2 4700 	strd	r4, r7, [r2]
10004be0:	e9cd 3535 	strd	r3, r5, [sp, #212]	@ 0xd4
10004be4:	f102 0208 	add.w	r2, r2, #8
10004be8:	ddf1      	ble.n	10004bce <_vfprintf_r+0x1386>
10004bea:	aa34      	add	r2, sp, #208	@ 0xd0
10004bec:	4641      	mov	r1, r8
10004bee:	4658      	mov	r0, fp
10004bf0:	f000 fca4 	bl	1000553c <__sprint_r>
10004bf4:	2800      	cmp	r0, #0
10004bf6:	f47e af8f 	bne.w	10003b18 <_vfprintf_r+0x2d0>
10004bfa:	aa37      	add	r2, sp, #220	@ 0xdc
10004bfc:	e9dd 3535 	ldrd	r3, r5, [sp, #212]	@ 0xd4
10004c00:	e7e5      	b.n	10004bce <_vfprintf_r+0x1386>
10004c02:	9a07      	ldr	r2, [sp, #28]
10004c04:	f412 7200 	ands.w	r2, r2, #512	@ 0x200
10004c08:	f43f aa05 	beq.w	10004016 <_vfprintf_r+0x7ce>
10004c0c:	b2db      	uxtb	r3, r3
10004c0e:	4602      	mov	r2, r0
10004c10:	f7ff ba01 	b.w	10004016 <_vfprintf_r+0x7ce>
10004c14:	9a07      	ldr	r2, [sp, #28]
10004c16:	f412 7200 	ands.w	r2, r2, #512	@ 0x200
10004c1a:	f43f ae2d 	beq.w	10004878 <_vfprintf_r+0x1030>
10004c1e:	b2db      	uxtb	r3, r3
10004c20:	4602      	mov	r2, r0
10004c22:	e629      	b.n	10004878 <_vfprintf_r+0x1030>
10004c24:	100081c8 	.word	0x100081c8
10004c28:	cccccccd 	.word	0xcccccccd
10004c2c:	10008620 	.word	0x10008620
10004c30:	9b0c      	ldr	r3, [sp, #48]	@ 0x30
10004c32:	1c5a      	adds	r2, r3, #1
10004c34:	f000 80f2 	beq.w	10004e1c <_vfprintf_r+0x15d4>
10004c38:	2e47      	cmp	r6, #71	@ 0x47
10004c3a:	d103      	bne.n	10004c44 <_vfprintf_r+0x13fc>
10004c3c:	2b00      	cmp	r3, #0
10004c3e:	bf08      	it	eq
10004c40:	2301      	moveq	r3, #1
10004c42:	930c      	str	r3, [sp, #48]	@ 0x30
10004c44:	9a07      	ldr	r2, [sp, #28]
10004c46:	e9dd 0118 	ldrd	r0, r1, [sp, #96]	@ 0x60
10004c4a:	f442 7480 	orr.w	r4, r2, #256	@ 0x100
10004c4e:	2900      	cmp	r1, #0
10004c50:	f2c0 834d 	blt.w	100052ee <_vfprintf_r+0x1aa6>
10004c54:	f04f 0900 	mov.w	r9, #0
10004c58:	e9cd 0124 	strd	r0, r1, [sp, #144]	@ 0x90
10004c5c:	2f65      	cmp	r7, #101	@ 0x65
10004c5e:	f000 8285 	beq.w	1000516c <_vfprintf_r+0x1924>
10004c62:	f300 81e2 	bgt.w	1000502a <_vfprintf_r+0x17e2>
10004c66:	2f45      	cmp	r7, #69	@ 0x45
10004c68:	f000 8280 	beq.w	1000516c <_vfprintf_r+0x1924>
10004c6c:	2f46      	cmp	r7, #70	@ 0x46
10004c6e:	f040 81df 	bne.w	10005030 <_vfprintf_r+0x17e8>
10004c72:	f8dd 8030 	ldr.w	r8, [sp, #48]	@ 0x30
10004c76:	2303      	movs	r3, #3
10004c78:	4658      	mov	r0, fp
10004c7a:	e9cd 3800 	strd	r3, r8, [sp]
10004c7e:	ab32      	add	r3, sp, #200	@ 0xc8
10004c80:	9304      	str	r3, [sp, #16]
10004c82:	ab2d      	add	r3, sp, #180	@ 0xb4
10004c84:	9303      	str	r3, [sp, #12]
10004c86:	ab2b      	add	r3, sp, #172	@ 0xac
10004c88:	9302      	str	r3, [sp, #8]
10004c8a:	e9dd 2324 	ldrd	r2, r3, [sp, #144]	@ 0x90
10004c8e:	f001 f9f7 	bl	10006080 <_dtoa_r>
10004c92:	2e46      	cmp	r6, #70	@ 0x46
10004c94:	eb00 0508 	add.w	r5, r0, r8
10004c98:	9013      	str	r0, [sp, #76]	@ 0x4c
10004c9a:	d106      	bne.n	10004caa <_vfprintf_r+0x1462>
10004c9c:	9b13      	ldr	r3, [sp, #76]	@ 0x4c
10004c9e:	781b      	ldrb	r3, [r3, #0]
10004ca0:	2b30      	cmp	r3, #48	@ 0x30
10004ca2:	f000 8281 	beq.w	100051a8 <_vfprintf_r+0x1960>
10004ca6:	9b2b      	ldr	r3, [sp, #172]	@ 0xac
10004ca8:	441d      	add	r5, r3
10004caa:	2200      	movs	r2, #0
10004cac:	2300      	movs	r3, #0
10004cae:	e9dd 0124 	ldrd	r0, r1, [sp, #144]	@ 0x90
10004cb2:	f7fd faf1 	bl	10002298 <__wrap___aeabi_dcmpeq>
10004cb6:	2800      	cmp	r0, #0
10004cb8:	f040 825d 	bne.w	10005176 <_vfprintf_r+0x192e>
10004cbc:	9b32      	ldr	r3, [sp, #200]	@ 0xc8
10004cbe:	42ab      	cmp	r3, r5
10004cc0:	d206      	bcs.n	10004cd0 <_vfprintf_r+0x1488>
10004cc2:	2130      	movs	r1, #48	@ 0x30
10004cc4:	1c5a      	adds	r2, r3, #1
10004cc6:	9232      	str	r2, [sp, #200]	@ 0xc8
10004cc8:	7019      	strb	r1, [r3, #0]
10004cca:	9b32      	ldr	r3, [sp, #200]	@ 0xc8
10004ccc:	429d      	cmp	r5, r3
10004cce:	d8f9      	bhi.n	10004cc4 <_vfprintf_r+0x147c>
10004cd0:	9a2b      	ldr	r2, [sp, #172]	@ 0xac
10004cd2:	9214      	str	r2, [sp, #80]	@ 0x50
10004cd4:	9a13      	ldr	r2, [sp, #76]	@ 0x4c
10004cd6:	2e47      	cmp	r6, #71	@ 0x47
10004cd8:	eba3 0302 	sub.w	r3, r3, r2
10004cdc:	9316      	str	r3, [sp, #88]	@ 0x58
10004cde:	f000 80be 	beq.w	10004e5e <_vfprintf_r+0x1616>
10004ce2:	2e46      	cmp	r6, #70	@ 0x46
10004ce4:	f000 826f 	beq.w	100051c6 <_vfprintf_r+0x197e>
10004ce8:	9b14      	ldr	r3, [sp, #80]	@ 0x50
10004cea:	3b01      	subs	r3, #1
10004cec:	2100      	movs	r1, #0
10004cee:	b2fa      	uxtb	r2, r7
10004cf0:	932b      	str	r3, [sp, #172]	@ 0xac
10004cf2:	9111      	str	r1, [sp, #68]	@ 0x44
10004cf4:	2b00      	cmp	r3, #0
10004cf6:	f88d 20b8 	strb.w	r2, [sp, #184]	@ 0xb8
10004cfa:	f2c0 82d8 	blt.w	100052ae <_vfprintf_r+0x1a66>
10004cfe:	222b      	movs	r2, #43	@ 0x2b
10004d00:	2b09      	cmp	r3, #9
10004d02:	f88d 20b9 	strb.w	r2, [sp, #185]	@ 0xb9
10004d06:	f340 82bf 	ble.w	10005288 <_vfprintf_r+0x1a40>
10004d0a:	f10d 04cf 	add.w	r4, sp, #207	@ 0xcf
10004d0e:	f8df c528 	ldr.w	ip, [pc, #1320]	@ 10005238 <_vfprintf_r+0x19f0>
10004d12:	4625      	mov	r5, r4
10004d14:	fbac 2103 	umull	r2, r1, ip, r3
10004d18:	461e      	mov	r6, r3
10004d1a:	4628      	mov	r0, r5
10004d1c:	3d01      	subs	r5, #1
10004d1e:	08c9      	lsrs	r1, r1, #3
10004d20:	2e63      	cmp	r6, #99	@ 0x63
10004d22:	eb01 0281 	add.w	r2, r1, r1, lsl #2
10004d26:	eba3 0242 	sub.w	r2, r3, r2, lsl #1
10004d2a:	460b      	mov	r3, r1
10004d2c:	f102 0230 	add.w	r2, r2, #48	@ 0x30
10004d30:	f800 2c01 	strb.w	r2, [r0, #-1]
10004d34:	dcee      	bgt.n	10004d14 <_vfprintf_r+0x14cc>
10004d36:	3330      	adds	r3, #48	@ 0x30
10004d38:	f805 3c01 	strb.w	r3, [r5, #-1]
10004d3c:	1e83      	subs	r3, r0, #2
10004d3e:	42a3      	cmp	r3, r4
10004d40:	f080 8358 	bcs.w	100053f4 <_vfprintf_r+0x1bac>
10004d44:	f10d 02b9 	add.w	r2, sp, #185	@ 0xb9
10004d48:	f813 1b01 	ldrb.w	r1, [r3], #1
10004d4c:	42a3      	cmp	r3, r4
10004d4e:	f802 1f01 	strb.w	r1, [r2, #1]!
10004d52:	d1f9      	bne.n	10004d48 <_vfprintf_r+0x1500>
10004d54:	ab60      	add	r3, sp, #384	@ 0x180
10004d56:	1a18      	subs	r0, r3, r0
10004d58:	f1a0 03ad 	sub.w	r3, r0, #173	@ 0xad
10004d5c:	931d      	str	r3, [sp, #116]	@ 0x74
10004d5e:	9b16      	ldr	r3, [sp, #88]	@ 0x58
10004d60:	9a1d      	ldr	r2, [sp, #116]	@ 0x74
10004d62:	2b01      	cmp	r3, #1
10004d64:	441a      	add	r2, r3
10004d66:	920f      	str	r2, [sp, #60]	@ 0x3c
10004d68:	f340 829c 	ble.w	100052a4 <_vfprintf_r+0x1a5c>
10004d6c:	9b0f      	ldr	r3, [sp, #60]	@ 0x3c
10004d6e:	9a1a      	ldr	r2, [sp, #104]	@ 0x68
10004d70:	4413      	add	r3, r2
10004d72:	930f      	str	r3, [sp, #60]	@ 0x3c
10004d74:	9b07      	ldr	r3, [sp, #28]
10004d76:	9a0f      	ldr	r2, [sp, #60]	@ 0x3c
10004d78:	f423 6380 	bic.w	r3, r3, #1024	@ 0x400
10004d7c:	ea22 72e2 	bic.w	r2, r2, r2, asr #31
10004d80:	f443 7380 	orr.w	r3, r3, #256	@ 0x100
10004d84:	9208      	str	r2, [sp, #32]
10004d86:	9307      	str	r3, [sp, #28]
10004d88:	2300      	movs	r3, #0
10004d8a:	9317      	str	r3, [sp, #92]	@ 0x5c
10004d8c:	e9cd 3314 	strd	r3, r3, [sp, #80]	@ 0x50
10004d90:	f1b9 0f00 	cmp.w	r9, #0
10004d94:	d16d      	bne.n	10004e72 <_vfprintf_r+0x162a>
10004d96:	f89d 20a7 	ldrb.w	r2, [sp, #167]	@ 0xa7
10004d9a:	f8cd 9030 	str.w	r9, [sp, #48]	@ 0x30
10004d9e:	f7fe bf9e 	b.w	10003cde <_vfprintf_r+0x496>
10004da2:	46a1      	mov	r9, r4
10004da4:	920a      	str	r2, [sp, #40]	@ 0x28
10004da6:	3301      	adds	r3, #1
10004da8:	9a0a      	ldr	r2, [sp, #40]	@ 0x28
10004daa:	4435      	add	r5, r6
10004dac:	2b07      	cmp	r3, #7
10004dae:	f8c2 9000 	str.w	r9, [r2]
10004db2:	6056      	str	r6, [r2, #4]
10004db4:	e9cd 3535 	strd	r3, r5, [sp, #212]	@ 0xd4
10004db8:	dc33      	bgt.n	10004e22 <_vfprintf_r+0x15da>
10004dba:	3208      	adds	r2, #8
10004dbc:	920a      	str	r2, [sp, #40]	@ 0x28
10004dbe:	f7ff bb4f 	b.w	10004460 <_vfprintf_r+0xc18>
10004dc2:	f343 12c0 	sbfx	r2, r3, #7, #1
10004dc6:	b25b      	sxtb	r3, r3
10004dc8:	4611      	mov	r1, r2
10004dca:	f7ff b83d 	b.w	10003e48 <_vfprintf_r+0x600>
10004dce:	9b12      	ldr	r3, [sp, #72]	@ 0x48
10004dd0:	9a0e      	ldr	r2, [sp, #56]	@ 0x38
10004dd2:	681b      	ldr	r3, [r3, #0]
10004dd4:	801a      	strh	r2, [r3, #0]
10004dd6:	f7ff b949 	b.w	1000406c <_vfprintf_r+0x824>
10004dda:	9813      	ldr	r0, [sp, #76]	@ 0x4c
10004ddc:	2773      	movs	r7, #115	@ 0x73
10004dde:	f7fe fbab 	bl	10003538 <strlen>
10004de2:	9b14      	ldr	r3, [sp, #80]	@ 0x50
10004de4:	ea20 71e0 	bic.w	r1, r0, r0, asr #31
10004de8:	f89d 20a7 	ldrb.w	r2, [sp, #167]	@ 0xa7
10004dec:	9612      	str	r6, [sp, #72]	@ 0x48
10004dee:	900f      	str	r0, [sp, #60]	@ 0x3c
10004df0:	930c      	str	r3, [sp, #48]	@ 0x30
10004df2:	9108      	str	r1, [sp, #32]
10004df4:	9317      	str	r3, [sp, #92]	@ 0x5c
10004df6:	9315      	str	r3, [sp, #84]	@ 0x54
10004df8:	9311      	str	r3, [sp, #68]	@ 0x44
10004dfa:	f7fe bf70 	b.w	10003cde <_vfprintf_r+0x496>
10004dfe:	aa34      	add	r2, sp, #208	@ 0xd0
10004e00:	990b      	ldr	r1, [sp, #44]	@ 0x2c
10004e02:	4658      	mov	r0, fp
10004e04:	f000 fb9a 	bl	1000553c <__sprint_r>
10004e08:	2800      	cmp	r0, #0
10004e0a:	f43e ae6e 	beq.w	10003aea <_vfprintf_r+0x2a2>
10004e0e:	f7fe be89 	b.w	10003b24 <_vfprintf_r+0x2dc>
10004e12:	6d88      	ldr	r0, [r1, #88]	@ 0x58
10004e14:	f7fe fb0a 	bl	1000342c <__retarget_lock_release_recursive>
10004e18:	f7fe be38 	b.w	10003a8c <_vfprintf_r+0x244>
10004e1c:	2306      	movs	r3, #6
10004e1e:	930c      	str	r3, [sp, #48]	@ 0x30
10004e20:	e710      	b.n	10004c44 <_vfprintf_r+0x13fc>
10004e22:	aa34      	add	r2, sp, #208	@ 0xd0
10004e24:	990b      	ldr	r1, [sp, #44]	@ 0x2c
10004e26:	4658      	mov	r0, fp
10004e28:	f000 fb88 	bl	1000553c <__sprint_r>
10004e2c:	2800      	cmp	r0, #0
10004e2e:	f47e ae73 	bne.w	10003b18 <_vfprintf_r+0x2d0>
10004e32:	ab37      	add	r3, sp, #220	@ 0xdc
10004e34:	9d36      	ldr	r5, [sp, #216]	@ 0xd8
10004e36:	930a      	str	r3, [sp, #40]	@ 0x28
10004e38:	f7ff bb12 	b.w	10004460 <_vfprintf_r+0xc18>
10004e3c:	1c59      	adds	r1, r3, #1
10004e3e:	4658      	mov	r0, fp
10004e40:	f7fd fd8a 	bl	10002958 <_malloc_r>
10004e44:	9013      	str	r0, [sp, #76]	@ 0x4c
10004e46:	2800      	cmp	r0, #0
10004e48:	f000 82e2 	beq.w	10005410 <_vfprintf_r+0x1bc8>
10004e4c:	9b13      	ldr	r3, [sp, #76]	@ 0x4c
10004e4e:	9311      	str	r3, [sp, #68]	@ 0x44
10004e50:	e469      	b.n	10004726 <_vfprintf_r+0xede>
10004e52:	9b32      	ldr	r3, [sp, #200]	@ 0xc8
10004e54:	9a13      	ldr	r2, [sp, #76]	@ 0x4c
10004e56:	1a9b      	subs	r3, r3, r2
10004e58:	9316      	str	r3, [sp, #88]	@ 0x58
10004e5a:	9b2b      	ldr	r3, [sp, #172]	@ 0xac
10004e5c:	9314      	str	r3, [sp, #80]	@ 0x50
10004e5e:	9a0c      	ldr	r2, [sp, #48]	@ 0x30
10004e60:	9b14      	ldr	r3, [sp, #80]	@ 0x50
10004e62:	429a      	cmp	r2, r3
10004e64:	db01      	blt.n	10004e6a <_vfprintf_r+0x1622>
10004e66:	3303      	adds	r3, #3
10004e68:	da19      	bge.n	10004e9e <_vfprintf_r+0x1656>
10004e6a:	9b14      	ldr	r3, [sp, #80]	@ 0x50
10004e6c:	3f02      	subs	r7, #2
10004e6e:	3b01      	subs	r3, #1
10004e70:	e73c      	b.n	10004cec <_vfprintf_r+0x14a4>
10004e72:	222d      	movs	r2, #45	@ 0x2d
10004e74:	2300      	movs	r3, #0
10004e76:	f88d 20a7 	strb.w	r2, [sp, #167]	@ 0xa7
10004e7a:	930c      	str	r3, [sp, #48]	@ 0x30
10004e7c:	f7fe bf32 	b.w	10003ce4 <_vfprintf_r+0x49c>
10004e80:	2300      	movs	r3, #0
10004e82:	aa2d      	add	r2, sp, #180	@ 0xb4
10004e84:	4658      	mov	r0, fp
10004e86:	9400      	str	r4, [sp, #0]
10004e88:	4619      	mov	r1, r3
10004e8a:	f002 fc79 	bl	10007780 <_wcsrtombs_r>
10004e8e:	4603      	mov	r3, r0
10004e90:	900f      	str	r0, [sp, #60]	@ 0x3c
10004e92:	3301      	adds	r3, #1
10004e94:	f000 8210 	beq.w	100052b8 <_vfprintf_r+0x1a70>
10004e98:	9b13      	ldr	r3, [sp, #76]	@ 0x4c
10004e9a:	932d      	str	r3, [sp, #180]	@ 0xb4
10004e9c:	e5ee      	b.n	10004a7c <_vfprintf_r+0x1234>
10004e9e:	9b16      	ldr	r3, [sp, #88]	@ 0x58
10004ea0:	9a14      	ldr	r2, [sp, #80]	@ 0x50
10004ea2:	4293      	cmp	r3, r2
10004ea4:	f300 81a8 	bgt.w	100051f8 <_vfprintf_r+0x19b0>
10004ea8:	9b07      	ldr	r3, [sp, #28]
10004eaa:	f013 0f01 	tst.w	r3, #1
10004eae:	9b14      	ldr	r3, [sp, #80]	@ 0x50
10004eb0:	f000 8279 	beq.w	100053a6 <_vfprintf_r+0x1b5e>
10004eb4:	9a1a      	ldr	r2, [sp, #104]	@ 0x68
10004eb6:	4413      	add	r3, r2
10004eb8:	930f      	str	r3, [sp, #60]	@ 0x3c
10004eba:	9b07      	ldr	r3, [sp, #28]
10004ebc:	055d      	lsls	r5, r3, #21
10004ebe:	d503      	bpl.n	10004ec8 <_vfprintf_r+0x1680>
10004ec0:	9b14      	ldr	r3, [sp, #80]	@ 0x50
10004ec2:	2b00      	cmp	r3, #0
10004ec4:	f300 821c 	bgt.w	10005300 <_vfprintf_r+0x1ab8>
10004ec8:	9b0f      	ldr	r3, [sp, #60]	@ 0x3c
10004eca:	2767      	movs	r7, #103	@ 0x67
10004ecc:	ea23 73e3 	bic.w	r3, r3, r3, asr #31
10004ed0:	9308      	str	r3, [sp, #32]
10004ed2:	2300      	movs	r3, #0
10004ed4:	9407      	str	r4, [sp, #28]
10004ed6:	9311      	str	r3, [sp, #68]	@ 0x44
10004ed8:	9317      	str	r3, [sp, #92]	@ 0x5c
10004eda:	9315      	str	r3, [sp, #84]	@ 0x54
10004edc:	e758      	b.n	10004d90 <_vfprintf_r+0x1548>
10004ede:	9b15      	ldr	r3, [sp, #84]	@ 0x54
10004ee0:	2b00      	cmp	r3, #0
10004ee2:	dc03      	bgt.n	10004eec <_vfprintf_r+0x16a4>
10004ee4:	9b17      	ldr	r3, [sp, #92]	@ 0x5c
10004ee6:	2b00      	cmp	r3, #0
10004ee8:	f340 82d1 	ble.w	1000548e <_vfprintf_r+0x1c46>
10004eec:	9b13      	ldr	r3, [sp, #76]	@ 0x4c
10004eee:	4629      	mov	r1, r5
10004ef0:	9a16      	ldr	r2, [sp, #88]	@ 0x58
10004ef2:	f8dd 8070 	ldr.w	r8, [sp, #112]	@ 0x70
10004ef6:	189c      	adds	r4, r3, r2
10004ef8:	9d20      	ldr	r5, [sp, #128]	@ 0x80
10004efa:	9a0a      	ldr	r2, [sp, #40]	@ 0x28
10004efc:	4623      	mov	r3, r4
10004efe:	464c      	mov	r4, r9
10004f00:	f8dd 905c 	ldr.w	r9, [sp, #92]	@ 0x5c
10004f04:	f1b9 0f00 	cmp.w	r9, #0
10004f08:	dc32      	bgt.n	10004f70 <_vfprintf_r+0x1728>
10004f0a:	9815      	ldr	r0, [sp, #84]	@ 0x54
10004f0c:	f108 38ff 	add.w	r8, r8, #4294967295
10004f10:	3801      	subs	r0, #1
10004f12:	9015      	str	r0, [sp, #84]	@ 0x54
10004f14:	981f      	ldr	r0, [sp, #124]	@ 0x7c
10004f16:	4429      	add	r1, r5
10004f18:	e9c2 0500 	strd	r0, r5, [r2]
10004f1c:	9835      	ldr	r0, [sp, #212]	@ 0xd4
10004f1e:	9136      	str	r1, [sp, #216]	@ 0xd8
10004f20:	3001      	adds	r0, #1
10004f22:	2807      	cmp	r0, #7
10004f24:	9035      	str	r0, [sp, #212]	@ 0xd4
10004f26:	dc4d      	bgt.n	10004fc4 <_vfprintf_r+0x177c>
10004f28:	3208      	adds	r2, #8
10004f2a:	1b1f      	subs	r7, r3, r4
10004f2c:	f898 0000 	ldrb.w	r0, [r8]
10004f30:	930a      	str	r3, [sp, #40]	@ 0x28
10004f32:	4287      	cmp	r7, r0
10004f34:	bfa8      	it	ge
10004f36:	4607      	movge	r7, r0
10004f38:	2f00      	cmp	r7, #0
10004f3a:	dd0b      	ble.n	10004f54 <_vfprintf_r+0x170c>
10004f3c:	9835      	ldr	r0, [sp, #212]	@ 0xd4
10004f3e:	4439      	add	r1, r7
10004f40:	3001      	adds	r0, #1
10004f42:	9136      	str	r1, [sp, #216]	@ 0xd8
10004f44:	2807      	cmp	r0, #7
10004f46:	9035      	str	r0, [sp, #212]	@ 0xd4
10004f48:	e9c2 4700 	strd	r4, r7, [r2]
10004f4c:	dc59      	bgt.n	10005002 <_vfprintf_r+0x17ba>
10004f4e:	3208      	adds	r2, #8
10004f50:	f898 0000 	ldrb.w	r0, [r8]
10004f54:	2f00      	cmp	r7, #0
10004f56:	bfac      	ite	ge
10004f58:	1bc6      	subge	r6, r0, r7
10004f5a:	4606      	movlt	r6, r0
10004f5c:	2e00      	cmp	r6, #0
10004f5e:	dc0a      	bgt.n	10004f76 <_vfprintf_r+0x172e>
10004f60:	4404      	add	r4, r0
10004f62:	9815      	ldr	r0, [sp, #84]	@ 0x54
10004f64:	2800      	cmp	r0, #0
10004f66:	dccd      	bgt.n	10004f04 <_vfprintf_r+0x16bc>
10004f68:	f1b9 0f00 	cmp.w	r9, #0
10004f6c:	f340 8233 	ble.w	100053d6 <_vfprintf_r+0x1b8e>
10004f70:	f109 39ff 	add.w	r9, r9, #4294967295
10004f74:	e7ce      	b.n	10004f14 <_vfprintf_r+0x16cc>
10004f76:	2e10      	cmp	r6, #16
10004f78:	9835      	ldr	r0, [sp, #212]	@ 0xd4
10004f7a:	f8df c2b8 	ldr.w	ip, [pc, #696]	@ 10005234 <_vfprintf_r+0x19ec>
10004f7e:	dd33      	ble.n	10004fe8 <_vfprintf_r+0x17a0>
10004f80:	950c      	str	r5, [sp, #48]	@ 0x30
10004f82:	2710      	movs	r7, #16
10004f84:	940f      	str	r4, [sp, #60]	@ 0x3c
10004f86:	4634      	mov	r4, r6
10004f88:	9d0b      	ldr	r5, [sp, #44]	@ 0x2c
10004f8a:	4666      	mov	r6, ip
10004f8c:	9314      	str	r3, [sp, #80]	@ 0x50
10004f8e:	e002      	b.n	10004f96 <_vfprintf_r+0x174e>
10004f90:	3c10      	subs	r4, #16
10004f92:	2c10      	cmp	r4, #16
10004f94:	dd23      	ble.n	10004fde <_vfprintf_r+0x1796>
10004f96:	3001      	adds	r0, #1
10004f98:	3110      	adds	r1, #16
10004f9a:	4ba6      	ldr	r3, [pc, #664]	@ (10005234 <_vfprintf_r+0x19ec>)
10004f9c:	2807      	cmp	r0, #7
10004f9e:	e9c2 3700 	strd	r3, r7, [r2]
10004fa2:	e9cd 0135 	strd	r0, r1, [sp, #212]	@ 0xd4
10004fa6:	f102 0208 	add.w	r2, r2, #8
10004faa:	ddf1      	ble.n	10004f90 <_vfprintf_r+0x1748>
10004fac:	aa34      	add	r2, sp, #208	@ 0xd0
10004fae:	4629      	mov	r1, r5
10004fb0:	4658      	mov	r0, fp
10004fb2:	f000 fac3 	bl	1000553c <__sprint_r>
10004fb6:	2800      	cmp	r0, #0
10004fb8:	f47e adae 	bne.w	10003b18 <_vfprintf_r+0x2d0>
10004fbc:	aa37      	add	r2, sp, #220	@ 0xdc
10004fbe:	e9dd 0135 	ldrd	r0, r1, [sp, #212]	@ 0xd4
10004fc2:	e7e5      	b.n	10004f90 <_vfprintf_r+0x1748>
10004fc4:	aa34      	add	r2, sp, #208	@ 0xd0
10004fc6:	990b      	ldr	r1, [sp, #44]	@ 0x2c
10004fc8:	4658      	mov	r0, fp
10004fca:	930a      	str	r3, [sp, #40]	@ 0x28
10004fcc:	f000 fab6 	bl	1000553c <__sprint_r>
10004fd0:	2800      	cmp	r0, #0
10004fd2:	f47e ada1 	bne.w	10003b18 <_vfprintf_r+0x2d0>
10004fd6:	9936      	ldr	r1, [sp, #216]	@ 0xd8
10004fd8:	aa37      	add	r2, sp, #220	@ 0xdc
10004fda:	9b0a      	ldr	r3, [sp, #40]	@ 0x28
10004fdc:	e7a5      	b.n	10004f2a <_vfprintf_r+0x16e2>
10004fde:	46b4      	mov	ip, r6
10004fe0:	9d0c      	ldr	r5, [sp, #48]	@ 0x30
10004fe2:	4626      	mov	r6, r4
10004fe4:	9b14      	ldr	r3, [sp, #80]	@ 0x50
10004fe6:	9c0f      	ldr	r4, [sp, #60]	@ 0x3c
10004fe8:	3001      	adds	r0, #1
10004fea:	4431      	add	r1, r6
10004fec:	f8c2 c000 	str.w	ip, [r2]
10004ff0:	2807      	cmp	r0, #7
10004ff2:	6056      	str	r6, [r2, #4]
10004ff4:	e9cd 0135 	strd	r0, r1, [sp, #212]	@ 0xd4
10004ff8:	dc5a      	bgt.n	100050b0 <_vfprintf_r+0x1868>
10004ffa:	3208      	adds	r2, #8
10004ffc:	f898 0000 	ldrb.w	r0, [r8]
10005000:	e7ae      	b.n	10004f60 <_vfprintf_r+0x1718>
10005002:	aa34      	add	r2, sp, #208	@ 0xd0
10005004:	990b      	ldr	r1, [sp, #44]	@ 0x2c
10005006:	4658      	mov	r0, fp
10005008:	930c      	str	r3, [sp, #48]	@ 0x30
1000500a:	f000 fa97 	bl	1000553c <__sprint_r>
1000500e:	2800      	cmp	r0, #0
10005010:	f47e ad82 	bne.w	10003b18 <_vfprintf_r+0x2d0>
10005014:	f898 0000 	ldrb.w	r0, [r8]
10005018:	aa37      	add	r2, sp, #220	@ 0xdc
1000501a:	9936      	ldr	r1, [sp, #216]	@ 0xd8
1000501c:	9b0c      	ldr	r3, [sp, #48]	@ 0x30
1000501e:	e799      	b.n	10004f54 <_vfprintf_r+0x170c>
10005020:	222d      	movs	r2, #45	@ 0x2d
10005022:	f88d 20a7 	strb.w	r2, [sp, #167]	@ 0xa7
10005026:	f7fe be47 	b.w	10003cb8 <_vfprintf_r+0x470>
1000502a:	2f66      	cmp	r7, #102	@ 0x66
1000502c:	f43f ae21 	beq.w	10004c72 <_vfprintf_r+0x142a>
10005030:	9b0c      	ldr	r3, [sp, #48]	@ 0x30
10005032:	4658      	mov	r0, fp
10005034:	9301      	str	r3, [sp, #4]
10005036:	ab32      	add	r3, sp, #200	@ 0xc8
10005038:	9304      	str	r3, [sp, #16]
1000503a:	ab2d      	add	r3, sp, #180	@ 0xb4
1000503c:	9303      	str	r3, [sp, #12]
1000503e:	ab2b      	add	r3, sp, #172	@ 0xac
10005040:	9302      	str	r3, [sp, #8]
10005042:	2302      	movs	r3, #2
10005044:	9300      	str	r3, [sp, #0]
10005046:	e9dd 2324 	ldrd	r2, r3, [sp, #144]	@ 0x90
1000504a:	f001 f819 	bl	10006080 <_dtoa_r>
1000504e:	9b07      	ldr	r3, [sp, #28]
10005050:	9013      	str	r0, [sp, #76]	@ 0x4c
10005052:	07db      	lsls	r3, r3, #31
10005054:	f57f aefd 	bpl.w	10004e52 <_vfprintf_r+0x160a>
10005058:	9b13      	ldr	r3, [sp, #76]	@ 0x4c
1000505a:	9a0c      	ldr	r2, [sp, #48]	@ 0x30
1000505c:	189d      	adds	r5, r3, r2
1000505e:	e624      	b.n	10004caa <_vfprintf_r+0x1462>
10005060:	aa34      	add	r2, sp, #208	@ 0xd0
10005062:	990b      	ldr	r1, [sp, #44]	@ 0x2c
10005064:	4658      	mov	r0, fp
10005066:	f000 fa69 	bl	1000553c <__sprint_r>
1000506a:	2800      	cmp	r0, #0
1000506c:	f47e ad54 	bne.w	10003b18 <_vfprintf_r+0x2d0>
10005070:	ab37      	add	r3, sp, #220	@ 0xdc
10005072:	9d36      	ldr	r5, [sp, #216]	@ 0xd8
10005074:	9a2b      	ldr	r2, [sp, #172]	@ 0xac
10005076:	930a      	str	r3, [sp, #40]	@ 0x28
10005078:	f7ff bae7 	b.w	1000464a <_vfprintf_r+0xe02>
1000507c:	9b0f      	ldr	r3, [sp, #60]	@ 0x3c
1000507e:	f89d 20a7 	ldrb.w	r2, [sp, #167]	@ 0xa7
10005082:	9612      	str	r6, [sp, #72]	@ 0x48
10005084:	9308      	str	r3, [sp, #32]
10005086:	930c      	str	r3, [sp, #48]	@ 0x30
10005088:	9317      	str	r3, [sp, #92]	@ 0x5c
1000508a:	9311      	str	r3, [sp, #68]	@ 0x44
1000508c:	e9cd 3314 	strd	r3, r3, [sp, #80]	@ 0x50
10005090:	f7fe be25 	b.w	10003cde <_vfprintf_r+0x496>
10005094:	aa34      	add	r2, sp, #208	@ 0xd0
10005096:	990b      	ldr	r1, [sp, #44]	@ 0x2c
10005098:	4658      	mov	r0, fp
1000509a:	f000 fa4f 	bl	1000553c <__sprint_r>
1000509e:	2800      	cmp	r0, #0
100050a0:	f47e ad3a 	bne.w	10003b18 <_vfprintf_r+0x2d0>
100050a4:	9a2b      	ldr	r2, [sp, #172]	@ 0xac
100050a6:	ac37      	add	r4, sp, #220	@ 0xdc
100050a8:	e9dd 3535 	ldrd	r3, r5, [sp, #212]	@ 0xd4
100050ac:	f7ff bae0 	b.w	10004670 <_vfprintf_r+0xe28>
100050b0:	aa34      	add	r2, sp, #208	@ 0xd0
100050b2:	990b      	ldr	r1, [sp, #44]	@ 0x2c
100050b4:	4658      	mov	r0, fp
100050b6:	930c      	str	r3, [sp, #48]	@ 0x30
100050b8:	f000 fa40 	bl	1000553c <__sprint_r>
100050bc:	2800      	cmp	r0, #0
100050be:	f47e ad2b 	bne.w	10003b18 <_vfprintf_r+0x2d0>
100050c2:	f898 0000 	ldrb.w	r0, [r8]
100050c6:	aa37      	add	r2, sp, #220	@ 0xdc
100050c8:	9936      	ldr	r1, [sp, #216]	@ 0xd8
100050ca:	9b0c      	ldr	r3, [sp, #48]	@ 0x30
100050cc:	e748      	b.n	10004f60 <_vfprintf_r+0x1718>
100050ce:	aa34      	add	r2, sp, #208	@ 0xd0
100050d0:	990b      	ldr	r1, [sp, #44]	@ 0x2c
100050d2:	4658      	mov	r0, fp
100050d4:	f000 fa32 	bl	1000553c <__sprint_r>
100050d8:	2800      	cmp	r0, #0
100050da:	f47e ad1d 	bne.w	10003b18 <_vfprintf_r+0x2d0>
100050de:	ab37      	add	r3, sp, #220	@ 0xdc
100050e0:	9d36      	ldr	r5, [sp, #216]	@ 0xd8
100050e2:	930a      	str	r3, [sp, #40]	@ 0x28
100050e4:	f7ff b9b5 	b.w	10004452 <_vfprintf_r+0xc0a>
100050e8:	aa34      	add	r2, sp, #208	@ 0xd0
100050ea:	990b      	ldr	r1, [sp, #44]	@ 0x2c
100050ec:	4658      	mov	r0, fp
100050ee:	f000 fa25 	bl	1000553c <__sprint_r>
100050f2:	2800      	cmp	r0, #0
100050f4:	f47e ad10 	bne.w	10003b18 <_vfprintf_r+0x2d0>
100050f8:	ab37      	add	r3, sp, #220	@ 0xdc
100050fa:	9e2b      	ldr	r6, [sp, #172]	@ 0xac
100050fc:	9d36      	ldr	r5, [sp, #216]	@ 0xd8
100050fe:	930a      	str	r3, [sp, #40]	@ 0x28
10005100:	f7ff b9bf 	b.w	10004482 <_vfprintf_r+0xc3a>
10005104:	9311      	str	r3, [sp, #68]	@ 0x44
10005106:	9b20      	ldr	r3, [sp, #128]	@ 0x80
10005108:	991f      	ldr	r1, [sp, #124]	@ 0x7c
1000510a:	1aff      	subs	r7, r7, r3
1000510c:	461a      	mov	r2, r3
1000510e:	4638      	mov	r0, r7
10005110:	f000 fe06 	bl	10005d20 <strncpy>
10005114:	991c      	ldr	r1, [sp, #112]	@ 0x70
10005116:	9b11      	ldr	r3, [sp, #68]	@ 0x44
10005118:	784a      	ldrb	r2, [r1, #1]
1000511a:	b10a      	cbz	r2, 10005120 <_vfprintf_r+0x18d8>
1000511c:	3101      	adds	r1, #1
1000511e:	911c      	str	r1, [sp, #112]	@ 0x70
10005120:	f04f 0800 	mov.w	r8, #0
10005124:	e4f0      	b.n	10004b08 <_vfprintf_r+0x12c0>
10005126:	9b07      	ldr	r3, [sp, #28]
10005128:	07d8      	lsls	r0, r3, #31
1000512a:	f57e ad74 	bpl.w	10003c16 <_vfprintf_r+0x3ce>
1000512e:	9b1a      	ldr	r3, [sp, #104]	@ 0x68
10005130:	9a0a      	ldr	r2, [sp, #40]	@ 0x28
10005132:	991b      	ldr	r1, [sp, #108]	@ 0x6c
10005134:	441d      	add	r5, r3
10005136:	e9c2 1300 	strd	r1, r3, [r2]
1000513a:	9b35      	ldr	r3, [sp, #212]	@ 0xd4
1000513c:	9536      	str	r5, [sp, #216]	@ 0xd8
1000513e:	3301      	adds	r3, #1
10005140:	2b07      	cmp	r3, #7
10005142:	9335      	str	r3, [sp, #212]	@ 0xd4
10005144:	dca6      	bgt.n	10005094 <_vfprintf_r+0x184c>
10005146:	3208      	adds	r2, #8
10005148:	4614      	mov	r4, r2
1000514a:	f7ff ba94 	b.w	10004676 <_vfprintf_r+0xe2e>
1000514e:	07df      	lsls	r7, r3, #31
10005150:	d407      	bmi.n	10005162 <_vfprintf_r+0x191a>
10005152:	9b0b      	ldr	r3, [sp, #44]	@ 0x2c
10005154:	899b      	ldrh	r3, [r3, #12]
10005156:	059e      	lsls	r6, r3, #22
10005158:	d403      	bmi.n	10005162 <_vfprintf_r+0x191a>
1000515a:	9b0b      	ldr	r3, [sp, #44]	@ 0x2c
1000515c:	6d98      	ldr	r0, [r3, #88]	@ 0x58
1000515e:	f7fe f965 	bl	1000342c <__retarget_lock_release_recursive>
10005162:	f04f 33ff 	mov.w	r3, #4294967295
10005166:	930e      	str	r3, [sp, #56]	@ 0x38
10005168:	f7fe bce7 	b.w	10003b3a <_vfprintf_r+0x2f2>
1000516c:	9b0c      	ldr	r3, [sp, #48]	@ 0x30
1000516e:	f103 0801 	add.w	r8, r3, #1
10005172:	2302      	movs	r3, #2
10005174:	e580      	b.n	10004c78 <_vfprintf_r+0x1430>
10005176:	9a2b      	ldr	r2, [sp, #172]	@ 0xac
10005178:	462b      	mov	r3, r5
1000517a:	9214      	str	r2, [sp, #80]	@ 0x50
1000517c:	e5aa      	b.n	10004cd4 <_vfprintf_r+0x148c>
1000517e:	2300      	movs	r3, #0
10005180:	460c      	mov	r4, r1
10005182:	930c      	str	r3, [sp, #48]	@ 0x30
10005184:	f7fe bbe2 	b.w	1000394c <_vfprintf_r+0x104>
10005188:	aa34      	add	r2, sp, #208	@ 0xd0
1000518a:	990b      	ldr	r1, [sp, #44]	@ 0x2c
1000518c:	4658      	mov	r0, fp
1000518e:	f000 f9d5 	bl	1000553c <__sprint_r>
10005192:	2800      	cmp	r0, #0
10005194:	f47e acc0 	bne.w	10003b18 <_vfprintf_r+0x2d0>
10005198:	9b16      	ldr	r3, [sp, #88]	@ 0x58
1000519a:	9e2b      	ldr	r6, [sp, #172]	@ 0xac
1000519c:	9d36      	ldr	r5, [sp, #216]	@ 0xd8
1000519e:	1b9e      	subs	r6, r3, r6
100051a0:	ab37      	add	r3, sp, #220	@ 0xdc
100051a2:	930a      	str	r3, [sp, #40]	@ 0x28
100051a4:	f7ff b986 	b.w	100044b4 <_vfprintf_r+0xc6c>
100051a8:	2200      	movs	r2, #0
100051aa:	2300      	movs	r3, #0
100051ac:	e9dd 0124 	ldrd	r0, r1, [sp, #144]	@ 0x90
100051b0:	f7fd f872 	bl	10002298 <__wrap___aeabi_dcmpeq>
100051b4:	2800      	cmp	r0, #0
100051b6:	f000 8162 	beq.w	1000547e <_vfprintf_r+0x1c36>
100051ba:	9b2b      	ldr	r3, [sp, #172]	@ 0xac
100051bc:	441d      	add	r5, r3
100051be:	9314      	str	r3, [sp, #80]	@ 0x50
100051c0:	9b13      	ldr	r3, [sp, #76]	@ 0x4c
100051c2:	1aeb      	subs	r3, r5, r3
100051c4:	9316      	str	r3, [sp, #88]	@ 0x58
100051c6:	9b07      	ldr	r3, [sp, #28]
100051c8:	9914      	ldr	r1, [sp, #80]	@ 0x50
100051ca:	f003 0301 	and.w	r3, r3, #1
100051ce:	9a0c      	ldr	r2, [sp, #48]	@ 0x30
100051d0:	2900      	cmp	r1, #0
100051d2:	ea43 0302 	orr.w	r3, r3, r2
100051d6:	f340 8134 	ble.w	10005442 <_vfprintf_r+0x1bfa>
100051da:	2b00      	cmp	r3, #0
100051dc:	f040 80ba 	bne.w	10005354 <_vfprintf_r+0x1b0c>
100051e0:	9b14      	ldr	r3, [sp, #80]	@ 0x50
100051e2:	2766      	movs	r7, #102	@ 0x66
100051e4:	930f      	str	r3, [sp, #60]	@ 0x3c
100051e6:	9b07      	ldr	r3, [sp, #28]
100051e8:	055b      	lsls	r3, r3, #21
100051ea:	f100 808a 	bmi.w	10005302 <_vfprintf_r+0x1aba>
100051ee:	9b0f      	ldr	r3, [sp, #60]	@ 0x3c
100051f0:	ea23 73e3 	bic.w	r3, r3, r3, asr #31
100051f4:	9308      	str	r3, [sp, #32]
100051f6:	e66c      	b.n	10004ed2 <_vfprintf_r+0x168a>
100051f8:	9b16      	ldr	r3, [sp, #88]	@ 0x58
100051fa:	9a1a      	ldr	r2, [sp, #104]	@ 0x68
100051fc:	189a      	adds	r2, r3, r2
100051fe:	9b14      	ldr	r3, [sp, #80]	@ 0x50
10005200:	2b00      	cmp	r3, #0
10005202:	920f      	str	r2, [sp, #60]	@ 0x3c
10005204:	f340 80d1 	ble.w	100053aa <_vfprintf_r+0x1b62>
10005208:	2767      	movs	r7, #103	@ 0x67
1000520a:	e7ec      	b.n	100051e6 <_vfprintf_r+0x199e>
1000520c:	ed9d 7b18 	vldr	d7, [sp, #96]	@ 0x60
10005210:	f04f 0900 	mov.w	r9, #0
10005214:	ed8d 7b26 	vstr	d7, [sp, #152]	@ 0x98
10005218:	f7ff ba90 	b.w	1000473c <_vfprintf_r+0xef4>
1000521c:	2300      	movs	r3, #0
1000521e:	9311      	str	r3, [sp, #68]	@ 0x44
10005220:	ab47      	add	r3, sp, #284	@ 0x11c
10005222:	9313      	str	r3, [sp, #76]	@ 0x4c
10005224:	e43b      	b.n	10004a9e <_vfprintf_r+0x1256>
10005226:	4256      	negs	r6, r2
10005228:	3210      	adds	r2, #16
1000522a:	f8df 9008 	ldr.w	r9, [pc, #8]	@ 10005234 <_vfprintf_r+0x19ec>
1000522e:	da1e      	bge.n	1000526e <_vfprintf_r+0x1a26>
10005230:	2710      	movs	r7, #16
10005232:	e006      	b.n	10005242 <_vfprintf_r+0x19fa>
10005234:	10008620 	.word	0x10008620
10005238:	cccccccd 	.word	0xcccccccd
1000523c:	3e10      	subs	r6, #16
1000523e:	2e10      	cmp	r6, #16
10005240:	dd15      	ble.n	1000526e <_vfprintf_r+0x1a26>
10005242:	3301      	adds	r3, #1
10005244:	3510      	adds	r5, #16
10005246:	2b07      	cmp	r3, #7
10005248:	e9c4 9700 	strd	r9, r7, [r4]
1000524c:	e9cd 3535 	strd	r3, r5, [sp, #212]	@ 0xd4
10005250:	f104 0408 	add.w	r4, r4, #8
10005254:	ddf2      	ble.n	1000523c <_vfprintf_r+0x19f4>
10005256:	aa34      	add	r2, sp, #208	@ 0xd0
10005258:	990b      	ldr	r1, [sp, #44]	@ 0x2c
1000525a:	4658      	mov	r0, fp
1000525c:	f000 f96e 	bl	1000553c <__sprint_r>
10005260:	2800      	cmp	r0, #0
10005262:	f47e ac59 	bne.w	10003b18 <_vfprintf_r+0x2d0>
10005266:	ac37      	add	r4, sp, #220	@ 0xdc
10005268:	e9dd 3535 	ldrd	r3, r5, [sp, #212]	@ 0xd4
1000526c:	e7e6      	b.n	1000523c <_vfprintf_r+0x19f4>
1000526e:	3301      	adds	r3, #1
10005270:	4435      	add	r5, r6
10005272:	f8c4 9000 	str.w	r9, [r4]
10005276:	2b07      	cmp	r3, #7
10005278:	6066      	str	r6, [r4, #4]
1000527a:	e9cd 3535 	strd	r3, r5, [sp, #212]	@ 0xd4
1000527e:	f300 809d 	bgt.w	100053bc <_vfprintf_r+0x1b74>
10005282:	3408      	adds	r4, #8
10005284:	f7ff b9f7 	b.w	10004676 <_vfprintf_r+0xe2e>
10005288:	2900      	cmp	r1, #0
1000528a:	d17d      	bne.n	10005388 <_vfprintf_r+0x1b40>
1000528c:	2230      	movs	r2, #48	@ 0x30
1000528e:	f88d 20ba 	strb.w	r2, [sp, #186]	@ 0xba
10005292:	f10d 02bb 	add.w	r2, sp, #187	@ 0xbb
10005296:	3330      	adds	r3, #48	@ 0x30
10005298:	f802 3b01 	strb.w	r3, [r2], #1
1000529c:	ab2e      	add	r3, sp, #184	@ 0xb8
1000529e:	1ad3      	subs	r3, r2, r3
100052a0:	931d      	str	r3, [sp, #116]	@ 0x74
100052a2:	e55c      	b.n	10004d5e <_vfprintf_r+0x1516>
100052a4:	9b07      	ldr	r3, [sp, #28]
100052a6:	07de      	lsls	r6, r3, #31
100052a8:	f57f ad64 	bpl.w	10004d74 <_vfprintf_r+0x152c>
100052ac:	e55e      	b.n	10004d6c <_vfprintf_r+0x1524>
100052ae:	9b14      	ldr	r3, [sp, #80]	@ 0x50
100052b0:	222d      	movs	r2, #45	@ 0x2d
100052b2:	f1c3 0301 	rsb	r3, r3, #1
100052b6:	e523      	b.n	10004d00 <_vfprintf_r+0x14b8>
100052b8:	9b0b      	ldr	r3, [sp, #44]	@ 0x2c
100052ba:	2200      	movs	r2, #0
100052bc:	f9b3 300c 	ldrsh.w	r3, [r3, #12]
100052c0:	9211      	str	r2, [sp, #68]	@ 0x44
100052c2:	f043 0340 	orr.w	r3, r3, #64	@ 0x40
100052c6:	9a0b      	ldr	r2, [sp, #44]	@ 0x2c
100052c8:	8193      	strh	r3, [r2, #12]
100052ca:	f7fe bc25 	b.w	10003b18 <_vfprintf_r+0x2d0>
100052ce:	9b19      	ldr	r3, [sp, #100]	@ 0x64
100052d0:	2b00      	cmp	r3, #0
100052d2:	f2c0 808b 	blt.w	100053ec <_vfprintf_r+0x1ba4>
100052d6:	f89d 20a7 	ldrb.w	r2, [sp, #167]	@ 0xa7
100052da:	9b07      	ldr	r3, [sp, #28]
100052dc:	2000      	movs	r0, #0
100052de:	4974      	ldr	r1, [pc, #464]	@ (100054b0 <_vfprintf_r+0x1c68>)
100052e0:	f023 0380 	bic.w	r3, r3, #128	@ 0x80
100052e4:	9011      	str	r0, [sp, #68]	@ 0x44
100052e6:	9307      	str	r3, [sp, #28]
100052e8:	4b72      	ldr	r3, [pc, #456]	@ (100054b4 <_vfprintf_r+0x1c6c>)
100052ea:	f7fe bced 	b.w	10003cc8 <_vfprintf_r+0x480>
100052ee:	e9dd 1218 	ldrd	r1, r2, [sp, #96]	@ 0x60
100052f2:	f04f 092d 	mov.w	r9, #45	@ 0x2d
100052f6:	f102 4300 	add.w	r3, r2, #2147483648	@ 0x80000000
100052fa:	9124      	str	r1, [sp, #144]	@ 0x90
100052fc:	9325      	str	r3, [sp, #148]	@ 0x94
100052fe:	e4ad      	b.n	10004c5c <_vfprintf_r+0x1414>
10005300:	2767      	movs	r7, #103	@ 0x67
10005302:	991c      	ldr	r1, [sp, #112]	@ 0x70
10005304:	780b      	ldrb	r3, [r1, #0]
10005306:	2bff      	cmp	r3, #255	@ 0xff
10005308:	f000 80bd 	beq.w	10005486 <_vfprintf_r+0x1c3e>
1000530c:	2500      	movs	r5, #0
1000530e:	9a14      	ldr	r2, [sp, #80]	@ 0x50
10005310:	4628      	mov	r0, r5
10005312:	e003      	b.n	1000531c <_vfprintf_r+0x1ad4>
10005314:	3001      	adds	r0, #1
10005316:	3101      	adds	r1, #1
10005318:	2bff      	cmp	r3, #255	@ 0xff
1000531a:	d008      	beq.n	1000532e <_vfprintf_r+0x1ae6>
1000531c:	4293      	cmp	r3, r2
1000531e:	da06      	bge.n	1000532e <_vfprintf_r+0x1ae6>
10005320:	1ad2      	subs	r2, r2, r3
10005322:	784b      	ldrb	r3, [r1, #1]
10005324:	2b00      	cmp	r3, #0
10005326:	d1f5      	bne.n	10005314 <_vfprintf_r+0x1acc>
10005328:	780b      	ldrb	r3, [r1, #0]
1000532a:	3501      	adds	r5, #1
1000532c:	e7f4      	b.n	10005318 <_vfprintf_r+0x1ad0>
1000532e:	911c      	str	r1, [sp, #112]	@ 0x70
10005330:	9015      	str	r0, [sp, #84]	@ 0x54
10005332:	9517      	str	r5, [sp, #92]	@ 0x5c
10005334:	9214      	str	r2, [sp, #80]	@ 0x50
10005336:	9a15      	ldr	r2, [sp, #84]	@ 0x54
10005338:	9b17      	ldr	r3, [sp, #92]	@ 0x5c
1000533a:	9920      	ldr	r1, [sp, #128]	@ 0x80
1000533c:	4413      	add	r3, r2
1000533e:	9a0f      	ldr	r2, [sp, #60]	@ 0x3c
10005340:	9407      	str	r4, [sp, #28]
10005342:	fb01 2303 	mla	r3, r1, r3, r2
10005346:	2200      	movs	r2, #0
10005348:	930f      	str	r3, [sp, #60]	@ 0x3c
1000534a:	ea23 73e3 	bic.w	r3, r3, r3, asr #31
1000534e:	9211      	str	r2, [sp, #68]	@ 0x44
10005350:	9308      	str	r3, [sp, #32]
10005352:	e51d      	b.n	10004d90 <_vfprintf_r+0x1548>
10005354:	9b1a      	ldr	r3, [sp, #104]	@ 0x68
10005356:	2766      	movs	r7, #102	@ 0x66
10005358:	441a      	add	r2, r3
1000535a:	1853      	adds	r3, r2, r1
1000535c:	930f      	str	r3, [sp, #60]	@ 0x3c
1000535e:	e742      	b.n	100051e6 <_vfprintf_r+0x199e>
10005360:	4639      	mov	r1, r7
10005362:	f8dd 9050 	ldr.w	r9, [sp, #80]	@ 0x50
10005366:	9f0f      	ldr	r7, [sp, #60]	@ 0x3c
10005368:	2900      	cmp	r1, #0
1000536a:	f6ff aa57 	blt.w	1000481c <_vfprintf_r+0xfd4>
1000536e:	1c4b      	adds	r3, r1, #1
10005370:	2230      	movs	r2, #48	@ 0x30
10005372:	4433      	add	r3, r6
10005374:	f806 2b01 	strb.w	r2, [r6], #1
10005378:	42b3      	cmp	r3, r6
1000537a:	d1fb      	bne.n	10005374 <_vfprintf_r+0x1b2c>
1000537c:	f7ff ba4f 	b.w	1000481e <_vfprintf_r+0xfd6>
10005380:	9b0c      	ldr	r3, [sp, #48]	@ 0x30
10005382:	930f      	str	r3, [sp, #60]	@ 0x3c
10005384:	f7ff bb7a 	b.w	10004a7c <_vfprintf_r+0x1234>
10005388:	f10d 02ba 	add.w	r2, sp, #186	@ 0xba
1000538c:	e783      	b.n	10005296 <_vfprintf_r+0x1a4e>
1000538e:	9b0c      	ldr	r3, [sp, #48]	@ 0x30
10005390:	2773      	movs	r7, #115	@ 0x73
10005392:	f89d 20a7 	ldrb.w	r2, [sp, #167]	@ 0xa7
10005396:	9612      	str	r6, [sp, #72]	@ 0x48
10005398:	9308      	str	r3, [sp, #32]
1000539a:	930f      	str	r3, [sp, #60]	@ 0x3c
1000539c:	900c      	str	r0, [sp, #48]	@ 0x30
1000539e:	9017      	str	r0, [sp, #92]	@ 0x5c
100053a0:	9015      	str	r0, [sp, #84]	@ 0x54
100053a2:	f7fe bc9c 	b.w	10003cde <_vfprintf_r+0x496>
100053a6:	930f      	str	r3, [sp, #60]	@ 0x3c
100053a8:	e587      	b.n	10004eba <_vfprintf_r+0x1672>
100053aa:	f1c3 0301 	rsb	r3, r3, #1
100053ae:	2767      	movs	r7, #103	@ 0x67
100053b0:	441a      	add	r2, r3
100053b2:	ea22 73e2 	bic.w	r3, r2, r2, asr #31
100053b6:	920f      	str	r2, [sp, #60]	@ 0x3c
100053b8:	9308      	str	r3, [sp, #32]
100053ba:	e58a      	b.n	10004ed2 <_vfprintf_r+0x168a>
100053bc:	aa34      	add	r2, sp, #208	@ 0xd0
100053be:	990b      	ldr	r1, [sp, #44]	@ 0x2c
100053c0:	4658      	mov	r0, fp
100053c2:	f000 f8bb 	bl	1000553c <__sprint_r>
100053c6:	2800      	cmp	r0, #0
100053c8:	f47e aba6 	bne.w	10003b18 <_vfprintf_r+0x2d0>
100053cc:	ac37      	add	r4, sp, #220	@ 0xdc
100053ce:	e9dd 3535 	ldrd	r3, r5, [sp, #212]	@ 0xd4
100053d2:	f7ff b950 	b.w	10004676 <_vfprintf_r+0xe2e>
100053d6:	46a1      	mov	r9, r4
100053d8:	460d      	mov	r5, r1
100053da:	9b0a      	ldr	r3, [sp, #40]	@ 0x28
100053dc:	f8cd 8070 	str.w	r8, [sp, #112]	@ 0x70
100053e0:	920a      	str	r2, [sp, #40]	@ 0x28
100053e2:	4599      	cmp	r9, r3
100053e4:	bf28      	it	cs
100053e6:	4699      	movcs	r9, r3
100053e8:	f7ff b842 	b.w	10004470 <_vfprintf_r+0xc28>
100053ec:	222d      	movs	r2, #45	@ 0x2d
100053ee:	f88d 20a7 	strb.w	r2, [sp, #167]	@ 0xa7
100053f2:	e772      	b.n	100052da <_vfprintf_r+0x1a92>
100053f4:	2302      	movs	r3, #2
100053f6:	931d      	str	r3, [sp, #116]	@ 0x74
100053f8:	e4b1      	b.n	10004d5e <_vfprintf_r+0x1516>
100053fa:	9a12      	ldr	r2, [sp, #72]	@ 0x48
100053fc:	7863      	ldrb	r3, [r4, #1]
100053fe:	460c      	mov	r4, r1
10005400:	f852 1b04 	ldr.w	r1, [r2], #4
10005404:	ea41 71e1 	orr.w	r1, r1, r1, asr #31
10005408:	9212      	str	r2, [sp, #72]	@ 0x48
1000540a:	910c      	str	r1, [sp, #48]	@ 0x30
1000540c:	f7fe ba9c 	b.w	10003948 <_vfprintf_r+0x100>
10005410:	9a0b      	ldr	r2, [sp, #44]	@ 0x2c
10005412:	f9b2 300c 	ldrsh.w	r3, [r2, #12]
10005416:	f043 0340 	orr.w	r3, r3, #64	@ 0x40
1000541a:	8193      	strh	r3, [r2, #12]
1000541c:	f7fe bb85 	b.w	10003b2a <_vfprintf_r+0x2e2>
10005420:	9a0c      	ldr	r2, [sp, #48]	@ 0x30
10005422:	7a92      	ldrb	r2, [r2, #10]
10005424:	f7ff b9f8 	b.w	10004818 <_vfprintf_r+0xfd0>
10005428:	9a0b      	ldr	r2, [sp, #44]	@ 0x2c
1000542a:	6e53      	ldr	r3, [r2, #100]	@ 0x64
1000542c:	07d8      	lsls	r0, r3, #31
1000542e:	f53f ae98 	bmi.w	10005162 <_vfprintf_r+0x191a>
10005432:	8993      	ldrh	r3, [r2, #12]
10005434:	0599      	lsls	r1, r3, #22
10005436:	f53f ae94 	bmi.w	10005162 <_vfprintf_r+0x191a>
1000543a:	6d90      	ldr	r0, [r2, #88]	@ 0x58
1000543c:	f7fd fff6 	bl	1000342c <__retarget_lock_release_recursive>
10005440:	e68f      	b.n	10005162 <_vfprintf_r+0x191a>
10005442:	b923      	cbnz	r3, 1000544e <_vfprintf_r+0x1c06>
10005444:	2301      	movs	r3, #1
10005446:	2766      	movs	r7, #102	@ 0x66
10005448:	9308      	str	r3, [sp, #32]
1000544a:	930f      	str	r3, [sp, #60]	@ 0x3c
1000544c:	e541      	b.n	10004ed2 <_vfprintf_r+0x168a>
1000544e:	9b1a      	ldr	r3, [sp, #104]	@ 0x68
10005450:	1c5f      	adds	r7, r3, #1
10005452:	9b0c      	ldr	r3, [sp, #48]	@ 0x30
10005454:	443b      	add	r3, r7
10005456:	2766      	movs	r7, #102	@ 0x66
10005458:	930f      	str	r3, [sp, #60]	@ 0x3c
1000545a:	ea23 73e3 	bic.w	r3, r3, r3, asr #31
1000545e:	9308      	str	r3, [sp, #32]
10005460:	e537      	b.n	10004ed2 <_vfprintf_r+0x168a>
10005462:	e9dd 0108 	ldrd	r0, r1, [sp, #32]
10005466:	2200      	movs	r2, #0
10005468:	4b13      	ldr	r3, [pc, #76]	@ (100054b8 <_vfprintf_r+0x1c70>)
1000546a:	f7fc ff15 	bl	10002298 <__wrap___aeabi_dcmpeq>
1000546e:	2800      	cmp	r0, #0
10005470:	f43f a9d4 	beq.w	1000481c <_vfprintf_r+0xfd4>
10005474:	07ea      	lsls	r2, r5, #31
10005476:	f57f a9d1 	bpl.w	1000481c <_vfprintf_r+0xfd4>
1000547a:	f7ff b9b6 	b.w	100047ea <_vfprintf_r+0xfa2>
1000547e:	f1c8 0301 	rsb	r3, r8, #1
10005482:	932b      	str	r3, [sp, #172]	@ 0xac
10005484:	e410      	b.n	10004ca8 <_vfprintf_r+0x1460>
10005486:	2300      	movs	r3, #0
10005488:	9317      	str	r3, [sp, #92]	@ 0x5c
1000548a:	9315      	str	r3, [sp, #84]	@ 0x54
1000548c:	e753      	b.n	10005336 <_vfprintf_r+0x1aee>
1000548e:	9b13      	ldr	r3, [sp, #76]	@ 0x4c
10005490:	9a16      	ldr	r2, [sp, #88]	@ 0x58
10005492:	4413      	add	r3, r2
10005494:	e7a5      	b.n	100053e2 <_vfprintf_r+0x1b9a>
10005496:	9b0b      	ldr	r3, [sp, #44]	@ 0x2c
10005498:	f9b3 300c 	ldrsh.w	r3, [r3, #12]
1000549c:	f043 0340 	orr.w	r3, r3, #64	@ 0x40
100054a0:	e711      	b.n	100052c6 <_vfprintf_r+0x1a7e>
100054a2:	9b0b      	ldr	r3, [sp, #44]	@ 0x2c
100054a4:	9011      	str	r0, [sp, #68]	@ 0x44
100054a6:	f9b3 300c 	ldrsh.w	r3, [r3, #12]
100054aa:	f043 0340 	orr.w	r3, r3, #64	@ 0x40
100054ae:	e70a      	b.n	100052c6 <_vfprintf_r+0x1a7e>
100054b0:	1000819c 	.word	0x1000819c
100054b4:	10008198 	.word	0x10008198
100054b8:	3fe00000 	.word	0x3fe00000

100054bc <__sbprintf>:
100054bc:	b5f0      	push	{r4, r5, r6, r7, lr}
100054be:	461f      	mov	r7, r3
100054c0:	898b      	ldrh	r3, [r1, #12]
100054c2:	f2ad 4d6c 	subw	sp, sp, #1132	@ 0x46c
100054c6:	4615      	mov	r5, r2
100054c8:	f023 0302 	bic.w	r3, r3, #2
100054cc:	4606      	mov	r6, r0
100054ce:	a816      	add	r0, sp, #88	@ 0x58
100054d0:	460c      	mov	r4, r1
100054d2:	f8ad 300c 	strh.w	r3, [sp, #12]
100054d6:	ab1a      	add	r3, sp, #104	@ 0x68
100054d8:	9300      	str	r3, [sp, #0]
100054da:	9304      	str	r3, [sp, #16]
100054dc:	f44f 6380 	mov.w	r3, #1024	@ 0x400
100054e0:	9302      	str	r3, [sp, #8]
100054e2:	9305      	str	r3, [sp, #20]
100054e4:	6e4b      	ldr	r3, [r1, #100]	@ 0x64
100054e6:	9319      	str	r3, [sp, #100]	@ 0x64
100054e8:	89cb      	ldrh	r3, [r1, #14]
100054ea:	f8ad 300e 	strh.w	r3, [sp, #14]
100054ee:	69cb      	ldr	r3, [r1, #28]
100054f0:	9307      	str	r3, [sp, #28]
100054f2:	6a4b      	ldr	r3, [r1, #36]	@ 0x24
100054f4:	9309      	str	r3, [sp, #36]	@ 0x24
100054f6:	2300      	movs	r3, #0
100054f8:	9306      	str	r3, [sp, #24]
100054fa:	f7fd ff91 	bl	10003420 <__retarget_lock_init_recursive>
100054fe:	462a      	mov	r2, r5
10005500:	463b      	mov	r3, r7
10005502:	4669      	mov	r1, sp
10005504:	4630      	mov	r0, r6
10005506:	f7fe f99f 	bl	10003848 <_vfprintf_r>
1000550a:	1e05      	subs	r5, r0, #0
1000550c:	db07      	blt.n	1000551e <__sbprintf+0x62>
1000550e:	4669      	mov	r1, sp
10005510:	4630      	mov	r0, r6
10005512:	f000 f8bf 	bl	10005694 <_fflush_r>
10005516:	2800      	cmp	r0, #0
10005518:	bf18      	it	ne
1000551a:	f04f 35ff 	movne.w	r5, #4294967295
1000551e:	f8bd 300c 	ldrh.w	r3, [sp, #12]
10005522:	065b      	lsls	r3, r3, #25
10005524:	d503      	bpl.n	1000552e <__sbprintf+0x72>
10005526:	89a3      	ldrh	r3, [r4, #12]
10005528:	f043 0340 	orr.w	r3, r3, #64	@ 0x40
1000552c:	81a3      	strh	r3, [r4, #12]
1000552e:	9816      	ldr	r0, [sp, #88]	@ 0x58
10005530:	f7fd ff78 	bl	10003424 <__retarget_lock_close_recursive>
10005534:	4628      	mov	r0, r5
10005536:	f20d 4d6c 	addw	sp, sp, #1132	@ 0x46c
1000553a:	bdf0      	pop	{r4, r5, r6, r7, pc}

1000553c <__sprint_r>:
1000553c:	6893      	ldr	r3, [r2, #8]
1000553e:	b510      	push	{r4, lr}
10005540:	4614      	mov	r4, r2
10005542:	b91b      	cbnz	r3, 1000554c <__sprint_r+0x10>
10005544:	4618      	mov	r0, r3
10005546:	2300      	movs	r3, #0
10005548:	6063      	str	r3, [r4, #4]
1000554a:	bd10      	pop	{r4, pc}
1000554c:	f000 f99a 	bl	10005884 <__sfvwrite_r>
10005550:	2300      	movs	r3, #0
10005552:	60a3      	str	r3, [r4, #8]
10005554:	2300      	movs	r3, #0
10005556:	6063      	str	r3, [r4, #4]
10005558:	bd10      	pop	{r4, pc}
1000555a:	bf00      	nop

1000555c <__sflush_r>:
1000555c:	f9b1 200c 	ldrsh.w	r2, [r1, #12]
10005560:	e92d 41f0 	stmdb	sp!, {r4, r5, r6, r7, r8, lr}
10005564:	0716      	lsls	r6, r2, #28
10005566:	460c      	mov	r4, r1
10005568:	4680      	mov	r8, r0
1000556a:	d44e      	bmi.n	1000560a <__sflush_r+0xae>
1000556c:	6849      	ldr	r1, [r1, #4]
1000556e:	f442 6300 	orr.w	r3, r2, #2048	@ 0x800
10005572:	2900      	cmp	r1, #0
10005574:	81a3      	strh	r3, [r4, #12]
10005576:	dd63      	ble.n	10005640 <__sflush_r+0xe4>
10005578:	6aa5      	ldr	r5, [r4, #40]	@ 0x28
1000557a:	2d00      	cmp	r5, #0
1000557c:	d042      	beq.n	10005604 <__sflush_r+0xa8>
1000557e:	2100      	movs	r1, #0
10005580:	f412 5280 	ands.w	r2, r2, #4096	@ 0x1000
10005584:	f8d8 6000 	ldr.w	r6, [r8]
10005588:	f8c8 1000 	str.w	r1, [r8]
1000558c:	69e1      	ldr	r1, [r4, #28]
1000558e:	d164      	bne.n	1000565a <__sflush_r+0xfe>
10005590:	2301      	movs	r3, #1
10005592:	4640      	mov	r0, r8
10005594:	47a8      	blx	r5
10005596:	1c45      	adds	r5, r0, #1
10005598:	4602      	mov	r2, r0
1000559a:	d06d      	beq.n	10005678 <__sflush_r+0x11c>
1000559c:	f9b4 300c 	ldrsh.w	r3, [r4, #12]
100055a0:	6aa5      	ldr	r5, [r4, #40]	@ 0x28
100055a2:	69e1      	ldr	r1, [r4, #28]
100055a4:	0758      	lsls	r0, r3, #29
100055a6:	d505      	bpl.n	100055b4 <__sflush_r+0x58>
100055a8:	6863      	ldr	r3, [r4, #4]
100055aa:	1ad2      	subs	r2, r2, r3
100055ac:	6b23      	ldr	r3, [r4, #48]	@ 0x30
100055ae:	b10b      	cbz	r3, 100055b4 <__sflush_r+0x58>
100055b0:	6be3      	ldr	r3, [r4, #60]	@ 0x3c
100055b2:	1ad2      	subs	r2, r2, r3
100055b4:	2300      	movs	r3, #0
100055b6:	4640      	mov	r0, r8
100055b8:	47a8      	blx	r5
100055ba:	1c43      	adds	r3, r0, #1
100055bc:	d14f      	bne.n	1000565e <__sflush_r+0x102>
100055be:	f8d8 1000 	ldr.w	r1, [r8]
100055c2:	f9b4 300c 	ldrsh.w	r3, [r4, #12]
100055c6:	291d      	cmp	r1, #29
100055c8:	d840      	bhi.n	1000564c <__sflush_r+0xf0>
100055ca:	4a31      	ldr	r2, [pc, #196]	@ (10005690 <__sflush_r+0x134>)
100055cc:	40ca      	lsrs	r2, r1
100055ce:	07d7      	lsls	r7, r2, #31
100055d0:	d53c      	bpl.n	1000564c <__sflush_r+0xf0>
100055d2:	f423 6200 	bic.w	r2, r3, #2048	@ 0x800
100055d6:	04dd      	lsls	r5, r3, #19
100055d8:	81a2      	strh	r2, [r4, #12]
100055da:	f04f 0200 	mov.w	r2, #0
100055de:	6062      	str	r2, [r4, #4]
100055e0:	6922      	ldr	r2, [r4, #16]
100055e2:	6022      	str	r2, [r4, #0]
100055e4:	d501      	bpl.n	100055ea <__sflush_r+0x8e>
100055e6:	2900      	cmp	r1, #0
100055e8:	d044      	beq.n	10005674 <__sflush_r+0x118>
100055ea:	6b21      	ldr	r1, [r4, #48]	@ 0x30
100055ec:	f8c8 6000 	str.w	r6, [r8]
100055f0:	b141      	cbz	r1, 10005604 <__sflush_r+0xa8>
100055f2:	f104 0340 	add.w	r3, r4, #64	@ 0x40
100055f6:	4299      	cmp	r1, r3
100055f8:	d002      	beq.n	10005600 <__sflush_r+0xa4>
100055fa:	4640      	mov	r0, r8
100055fc:	f7fe f826 	bl	1000364c <_free_r>
10005600:	2300      	movs	r3, #0
10005602:	6323      	str	r3, [r4, #48]	@ 0x30
10005604:	2000      	movs	r0, #0
10005606:	e8bd 81f0 	ldmia.w	sp!, {r4, r5, r6, r7, r8, pc}
1000560a:	690e      	ldr	r6, [r1, #16]
1000560c:	2e00      	cmp	r6, #0
1000560e:	d0f9      	beq.n	10005604 <__sflush_r+0xa8>
10005610:	0792      	lsls	r2, r2, #30
10005612:	680d      	ldr	r5, [r1, #0]
10005614:	600e      	str	r6, [r1, #0]
10005616:	bf0c      	ite	eq
10005618:	694b      	ldreq	r3, [r1, #20]
1000561a:	2300      	movne	r3, #0
1000561c:	1bad      	subs	r5, r5, r6
1000561e:	608b      	str	r3, [r1, #8]
10005620:	e00b      	b.n	1000563a <__sflush_r+0xde>
10005622:	462b      	mov	r3, r5
10005624:	4632      	mov	r2, r6
10005626:	69e1      	ldr	r1, [r4, #28]
10005628:	4640      	mov	r0, r8
1000562a:	6a67      	ldr	r7, [r4, #36]	@ 0x24
1000562c:	47b8      	blx	r7
1000562e:	f1b0 0c00 	subs.w	ip, r0, #0
10005632:	eba5 050c 	sub.w	r5, r5, ip
10005636:	4466      	add	r6, ip
10005638:	dd06      	ble.n	10005648 <__sflush_r+0xec>
1000563a:	2d00      	cmp	r5, #0
1000563c:	dcf1      	bgt.n	10005622 <__sflush_r+0xc6>
1000563e:	e7e1      	b.n	10005604 <__sflush_r+0xa8>
10005640:	6be1      	ldr	r1, [r4, #60]	@ 0x3c
10005642:	2900      	cmp	r1, #0
10005644:	dc98      	bgt.n	10005578 <__sflush_r+0x1c>
10005646:	e7dd      	b.n	10005604 <__sflush_r+0xa8>
10005648:	f9b4 300c 	ldrsh.w	r3, [r4, #12]
1000564c:	f043 0340 	orr.w	r3, r3, #64	@ 0x40
10005650:	f04f 30ff 	mov.w	r0, #4294967295
10005654:	81a3      	strh	r3, [r4, #12]
10005656:	e8bd 81f0 	ldmia.w	sp!, {r4, r5, r6, r7, r8, pc}
1000565a:	6d22      	ldr	r2, [r4, #80]	@ 0x50
1000565c:	e7a2      	b.n	100055a4 <__sflush_r+0x48>
1000565e:	f9b4 300c 	ldrsh.w	r3, [r4, #12]
10005662:	2200      	movs	r2, #0
10005664:	6062      	str	r2, [r4, #4]
10005666:	f423 6200 	bic.w	r2, r3, #2048	@ 0x800
1000566a:	04db      	lsls	r3, r3, #19
1000566c:	81a2      	strh	r2, [r4, #12]
1000566e:	6922      	ldr	r2, [r4, #16]
10005670:	6022      	str	r2, [r4, #0]
10005672:	d5ba      	bpl.n	100055ea <__sflush_r+0x8e>
10005674:	6520      	str	r0, [r4, #80]	@ 0x50
10005676:	e7b8      	b.n	100055ea <__sflush_r+0x8e>
10005678:	f8d8 3000 	ldr.w	r3, [r8]
1000567c:	2b00      	cmp	r3, #0
1000567e:	d08d      	beq.n	1000559c <__sflush_r+0x40>
10005680:	2b1d      	cmp	r3, #29
10005682:	d001      	beq.n	10005688 <__sflush_r+0x12c>
10005684:	2b16      	cmp	r3, #22
10005686:	d1df      	bne.n	10005648 <__sflush_r+0xec>
10005688:	f8c8 6000 	str.w	r6, [r8]
1000568c:	e7ba      	b.n	10005604 <__sflush_r+0xa8>
1000568e:	bf00      	nop
10005690:	20400001 	.word	0x20400001

10005694 <_fflush_r>:
10005694:	b538      	push	{r3, r4, r5, lr}
10005696:	4605      	mov	r5, r0
10005698:	460c      	mov	r4, r1
1000569a:	b108      	cbz	r0, 100056a0 <_fflush_r+0xc>
1000569c:	6b43      	ldr	r3, [r0, #52]	@ 0x34
1000569e:	b303      	cbz	r3, 100056e2 <_fflush_r+0x4e>
100056a0:	f9b4 000c 	ldrsh.w	r0, [r4, #12]
100056a4:	b188      	cbz	r0, 100056ca <_fflush_r+0x36>
100056a6:	6e63      	ldr	r3, [r4, #100]	@ 0x64
100056a8:	07db      	lsls	r3, r3, #31
100056aa:	d401      	bmi.n	100056b0 <_fflush_r+0x1c>
100056ac:	0581      	lsls	r1, r0, #22
100056ae:	d50f      	bpl.n	100056d0 <_fflush_r+0x3c>
100056b0:	4628      	mov	r0, r5
100056b2:	4621      	mov	r1, r4
100056b4:	f7ff ff52 	bl	1000555c <__sflush_r>
100056b8:	6e63      	ldr	r3, [r4, #100]	@ 0x64
100056ba:	4605      	mov	r5, r0
100056bc:	07da      	lsls	r2, r3, #31
100056be:	d402      	bmi.n	100056c6 <_fflush_r+0x32>
100056c0:	89a3      	ldrh	r3, [r4, #12]
100056c2:	059b      	lsls	r3, r3, #22
100056c4:	d508      	bpl.n	100056d8 <_fflush_r+0x44>
100056c6:	4628      	mov	r0, r5
100056c8:	bd38      	pop	{r3, r4, r5, pc}
100056ca:	4605      	mov	r5, r0
100056cc:	4628      	mov	r0, r5
100056ce:	bd38      	pop	{r3, r4, r5, pc}
100056d0:	6da0      	ldr	r0, [r4, #88]	@ 0x58
100056d2:	f7fd fea9 	bl	10003428 <__retarget_lock_acquire_recursive>
100056d6:	e7eb      	b.n	100056b0 <_fflush_r+0x1c>
100056d8:	6da0      	ldr	r0, [r4, #88]	@ 0x58
100056da:	f7fd fea7 	bl	1000342c <__retarget_lock_release_recursive>
100056de:	4628      	mov	r0, r5
100056e0:	bd38      	pop	{r3, r4, r5, pc}
100056e2:	f000 f8a5 	bl	10005830 <__sinit>
100056e6:	e7db      	b.n	100056a0 <_fflush_r+0xc>

100056e8 <stdio_exit_handler>:
100056e8:	4a02      	ldr	r2, [pc, #8]	@ (100056f4 <stdio_exit_handler+0xc>)
100056ea:	4903      	ldr	r1, [pc, #12]	@ (100056f8 <stdio_exit_handler+0x10>)
100056ec:	4803      	ldr	r0, [pc, #12]	@ (100056fc <stdio_exit_handler+0x14>)
100056ee:	f000 ba49 	b.w	10005b84 <_fwalk_sglue>
100056f2:	bf00      	nop
100056f4:	20000bd8 	.word	0x20000bd8
100056f8:	10007799 	.word	0x10007799
100056fc:	20000a98 	.word	0x20000a98

10005700 <cleanup_stdio>:
10005700:	4b0c      	ldr	r3, [pc, #48]	@ (10005734 <cleanup_stdio+0x34>)
10005702:	6841      	ldr	r1, [r0, #4]
10005704:	4299      	cmp	r1, r3
10005706:	b510      	push	{r4, lr}
10005708:	4604      	mov	r4, r0
1000570a:	d001      	beq.n	10005710 <cleanup_stdio+0x10>
1000570c:	f002 f844 	bl	10007798 <_fclose_r>
10005710:	68a1      	ldr	r1, [r4, #8]
10005712:	4b09      	ldr	r3, [pc, #36]	@ (10005738 <cleanup_stdio+0x38>)
10005714:	4299      	cmp	r1, r3
10005716:	d002      	beq.n	1000571e <cleanup_stdio+0x1e>
10005718:	4620      	mov	r0, r4
1000571a:	f002 f83d 	bl	10007798 <_fclose_r>
1000571e:	68e1      	ldr	r1, [r4, #12]
10005720:	4b06      	ldr	r3, [pc, #24]	@ (1000573c <cleanup_stdio+0x3c>)
10005722:	4299      	cmp	r1, r3
10005724:	d004      	beq.n	10005730 <cleanup_stdio+0x30>
10005726:	4620      	mov	r0, r4
10005728:	e8bd 4010 	ldmia.w	sp!, {r4, lr}
1000572c:	f002 b834 	b.w	10007798 <_fclose_r>
10005730:	bd10      	pop	{r4, pc}
10005732:	bf00      	nop
10005734:	20000f14 	.word	0x20000f14
10005738:	20000f7c 	.word	0x20000f7c
1000573c:	20000fe4 	.word	0x20000fe4

10005740 <global_stdio_init.part.0>:
10005740:	e92d 43f8 	stmdb	sp!, {r3, r4, r5, r6, r7, r8, r9, lr}
10005744:	4a31      	ldr	r2, [pc, #196]	@ (1000580c <global_stdio_init.part.0+0xcc>)
10005746:	2500      	movs	r5, #0
10005748:	4c31      	ldr	r4, [pc, #196]	@ (10005810 <global_stdio_init.part.0+0xd0>)
1000574a:	2304      	movs	r3, #4
1000574c:	4931      	ldr	r1, [pc, #196]	@ (10005814 <global_stdio_init.part.0+0xd4>)
1000574e:	f8df 90d8 	ldr.w	r9, [pc, #216]	@ 10005828 <global_stdio_init.part.0+0xe8>
10005752:	f104 005c 	add.w	r0, r4, #92	@ 0x5c
10005756:	f8df 80d4 	ldr.w	r8, [pc, #212]	@ 1000582c <global_stdio_init.part.0+0xec>
1000575a:	4f2f      	ldr	r7, [pc, #188]	@ (10005818 <global_stdio_init.part.0+0xd8>)
1000575c:	4e2f      	ldr	r6, [pc, #188]	@ (1000581c <global_stdio_init.part.0+0xdc>)
1000575e:	6011      	str	r1, [r2, #0]
10005760:	4629      	mov	r1, r5
10005762:	2208      	movs	r2, #8
10005764:	6025      	str	r5, [r4, #0]
10005766:	6665      	str	r5, [r4, #100]	@ 0x64
10005768:	e9c4 3503 	strd	r3, r5, [r4, #12]
1000576c:	e9c4 5501 	strd	r5, r5, [r4, #4]
10005770:	e9c4 5505 	strd	r5, r5, [r4, #20]
10005774:	f7fd fdea 	bl	1000334c <memset>
10005778:	f104 0058 	add.w	r0, r4, #88	@ 0x58
1000577c:	62e6      	str	r6, [r4, #44]	@ 0x2c
1000577e:	e9c4 4907 	strd	r4, r9, [r4, #28]
10005782:	e9c4 8709 	strd	r8, r7, [r4, #36]	@ 0x24
10005786:	f7fd fe4b 	bl	10003420 <__retarget_lock_init_recursive>
1000578a:	4b25      	ldr	r3, [pc, #148]	@ (10005820 <global_stdio_init.part.0+0xe0>)
1000578c:	4629      	mov	r1, r5
1000578e:	2208      	movs	r2, #8
10005790:	f104 00c4 	add.w	r0, r4, #196	@ 0xc4
10005794:	6763      	str	r3, [r4, #116]	@ 0x74
10005796:	6725      	str	r5, [r4, #112]	@ 0x70
10005798:	f8c4 50cc 	str.w	r5, [r4, #204]	@ 0xcc
1000579c:	f8c4 5080 	str.w	r5, [r4, #128]	@ 0x80
100057a0:	e9c4 551a 	strd	r5, r5, [r4, #104]	@ 0x68
100057a4:	e9c4 551e 	strd	r5, r5, [r4, #120]	@ 0x78
100057a8:	f7fd fdd0 	bl	1000334c <memset>
100057ac:	f104 0368 	add.w	r3, r4, #104	@ 0x68
100057b0:	f104 00c0 	add.w	r0, r4, #192	@ 0xc0
100057b4:	f8c4 3084 	str.w	r3, [r4, #132]	@ 0x84
100057b8:	e9c4 9822 	strd	r9, r8, [r4, #136]	@ 0x88
100057bc:	e9c4 7624 	strd	r7, r6, [r4, #144]	@ 0x90
100057c0:	f7fd fe2e 	bl	10003420 <__retarget_lock_init_recursive>
100057c4:	4b17      	ldr	r3, [pc, #92]	@ (10005824 <global_stdio_init.part.0+0xe4>)
100057c6:	4629      	mov	r1, r5
100057c8:	f504 7096 	add.w	r0, r4, #300	@ 0x12c
100057cc:	2208      	movs	r2, #8
100057ce:	f8c4 30dc 	str.w	r3, [r4, #220]	@ 0xdc
100057d2:	f8c4 50d8 	str.w	r5, [r4, #216]	@ 0xd8
100057d6:	f8c4 5134 	str.w	r5, [r4, #308]	@ 0x134
100057da:	f8c4 50e8 	str.w	r5, [r4, #232]	@ 0xe8
100057de:	e9c4 5534 	strd	r5, r5, [r4, #208]	@ 0xd0
100057e2:	e9c4 5538 	strd	r5, r5, [r4, #224]	@ 0xe0
100057e6:	f7fd fdb1 	bl	1000334c <memset>
100057ea:	f104 03d0 	add.w	r3, r4, #208	@ 0xd0
100057ee:	f504 7094 	add.w	r0, r4, #296	@ 0x128
100057f2:	f8c4 90f0 	str.w	r9, [r4, #240]	@ 0xf0
100057f6:	f8c4 60fc 	str.w	r6, [r4, #252]	@ 0xfc
100057fa:	f8c4 30ec 	str.w	r3, [r4, #236]	@ 0xec
100057fe:	e9c4 873d 	strd	r8, r7, [r4, #244]	@ 0xf4
10005802:	e8bd 43f8 	ldmia.w	sp!, {r3, r4, r5, r6, r7, r8, r9, lr}
10005806:	f7fd be0b 	b.w	10003420 <__retarget_lock_init_recursive>
1000580a:	bf00      	nop
1000580c:	2000104c 	.word	0x2000104c
10005810:	20000f14 	.word	0x20000f14
10005814:	100056e9 	.word	0x100056e9
10005818:	10005c2d 	.word	0x10005c2d
1000581c:	10005c55 	.word	0x10005c55
10005820:	00010009 	.word	0x00010009
10005824:	00020012 	.word	0x00020012
10005828:	10005bc9 	.word	0x10005bc9
1000582c:	10005bed 	.word	0x10005bed

10005830 <__sinit>:
10005830:	b510      	push	{r4, lr}
10005832:	4604      	mov	r4, r0
10005834:	480a      	ldr	r0, [pc, #40]	@ (10005860 <__sinit+0x30>)
10005836:	f7fd fdf7 	bl	10003428 <__retarget_lock_acquire_recursive>
1000583a:	6b63      	ldr	r3, [r4, #52]	@ 0x34
1000583c:	b923      	cbnz	r3, 10005848 <__sinit+0x18>
1000583e:	4b09      	ldr	r3, [pc, #36]	@ (10005864 <__sinit+0x34>)
10005840:	4a09      	ldr	r2, [pc, #36]	@ (10005868 <__sinit+0x38>)
10005842:	681b      	ldr	r3, [r3, #0]
10005844:	6362      	str	r2, [r4, #52]	@ 0x34
10005846:	b123      	cbz	r3, 10005852 <__sinit+0x22>
10005848:	4805      	ldr	r0, [pc, #20]	@ (10005860 <__sinit+0x30>)
1000584a:	e8bd 4010 	ldmia.w	sp!, {r4, lr}
1000584e:	f7fd bded 	b.w	1000342c <__retarget_lock_release_recursive>
10005852:	f7ff ff75 	bl	10005740 <global_stdio_init.part.0>
10005856:	4802      	ldr	r0, [pc, #8]	@ (10005860 <__sinit+0x30>)
10005858:	e8bd 4010 	ldmia.w	sp!, {r4, lr}
1000585c:	f7fd bde6 	b.w	1000342c <__retarget_lock_release_recursive>
10005860:	20000edc 	.word	0x20000edc
10005864:	2000104c 	.word	0x2000104c
10005868:	10005701 	.word	0x10005701

1000586c <__sfp_lock_acquire>:
1000586c:	4801      	ldr	r0, [pc, #4]	@ (10005874 <__sfp_lock_acquire+0x8>)
1000586e:	f7fd bddb 	b.w	10003428 <__retarget_lock_acquire_recursive>
10005872:	bf00      	nop
10005874:	20000edc 	.word	0x20000edc

10005878 <__sfp_lock_release>:
10005878:	4801      	ldr	r0, [pc, #4]	@ (10005880 <__sfp_lock_release+0x8>)
1000587a:	f7fd bdd7 	b.w	1000342c <__retarget_lock_release_recursive>
1000587e:	bf00      	nop
10005880:	20000edc 	.word	0x20000edc

10005884 <__sfvwrite_r>:
10005884:	6893      	ldr	r3, [r2, #8]
10005886:	2b00      	cmp	r3, #0
10005888:	f000 80f9 	beq.w	10005a7e <__sfvwrite_r+0x1fa>
1000588c:	f9b1 c00c 	ldrsh.w	ip, [r1, #12]
10005890:	f01c 0f08 	tst.w	ip, #8
10005894:	e92d 4ff0 	stmdb	sp!, {r4, r5, r6, r7, r8, r9, sl, fp, lr}
10005898:	4690      	mov	r8, r2
1000589a:	b083      	sub	sp, #12
1000589c:	4681      	mov	r9, r0
1000589e:	460c      	mov	r4, r1
100058a0:	d031      	beq.n	10005906 <__sfvwrite_r+0x82>
100058a2:	690b      	ldr	r3, [r1, #16]
100058a4:	b37b      	cbz	r3, 10005906 <__sfvwrite_r+0x82>
100058a6:	f01c 0702 	ands.w	r7, ip, #2
100058aa:	f8d8 6000 	ldr.w	r6, [r8]
100058ae:	d038      	beq.n	10005922 <__sfvwrite_r+0x9e>
100058b0:	2700      	movs	r7, #0
100058b2:	f8d4 b024 	ldr.w	fp, [r4, #36]	@ 0x24
100058b6:	69e1      	ldr	r1, [r4, #28]
100058b8:	f8df a2c4 	ldr.w	sl, [pc, #708]	@ 10005b80 <__sfvwrite_r+0x2fc>
100058bc:	463d      	mov	r5, r7
100058be:	4555      	cmp	r5, sl
100058c0:	462b      	mov	r3, r5
100058c2:	463a      	mov	r2, r7
100058c4:	4648      	mov	r0, r9
100058c6:	bf28      	it	cs
100058c8:	4653      	movcs	r3, sl
100058ca:	b1c5      	cbz	r5, 100058fe <__sfvwrite_r+0x7a>
100058cc:	47d8      	blx	fp
100058ce:	2800      	cmp	r0, #0
100058d0:	f340 80cb 	ble.w	10005a6a <__sfvwrite_r+0x1e6>
100058d4:	f8d8 3008 	ldr.w	r3, [r8, #8]
100058d8:	4407      	add	r7, r0
100058da:	1a2d      	subs	r5, r5, r0
100058dc:	1a1b      	subs	r3, r3, r0
100058de:	f8c8 3008 	str.w	r3, [r8, #8]
100058e2:	2b00      	cmp	r3, #0
100058e4:	f000 80b7 	beq.w	10005a56 <__sfvwrite_r+0x1d2>
100058e8:	4555      	cmp	r5, sl
100058ea:	462b      	mov	r3, r5
100058ec:	f8d4 b024 	ldr.w	fp, [r4, #36]	@ 0x24
100058f0:	463a      	mov	r2, r7
100058f2:	69e1      	ldr	r1, [r4, #28]
100058f4:	bf28      	it	cs
100058f6:	4653      	movcs	r3, sl
100058f8:	4648      	mov	r0, r9
100058fa:	2d00      	cmp	r5, #0
100058fc:	d1e6      	bne.n	100058cc <__sfvwrite_r+0x48>
100058fe:	e9d6 7500 	ldrd	r7, r5, [r6]
10005902:	3608      	adds	r6, #8
10005904:	e7db      	b.n	100058be <__sfvwrite_r+0x3a>
10005906:	4621      	mov	r1, r4
10005908:	4648      	mov	r0, r9
1000590a:	f000 f9a7 	bl	10005c5c <__swsetup_r>
1000590e:	2800      	cmp	r0, #0
10005910:	f040 80b0 	bne.w	10005a74 <__sfvwrite_r+0x1f0>
10005914:	f9b4 c00c 	ldrsh.w	ip, [r4, #12]
10005918:	f8d8 6000 	ldr.w	r6, [r8]
1000591c:	f01c 0702 	ands.w	r7, ip, #2
10005920:	d1c6      	bne.n	100058b0 <__sfvwrite_r+0x2c>
10005922:	f01c 0a01 	ands.w	sl, ip, #1
10005926:	d164      	bne.n	100059f2 <__sfvwrite_r+0x16e>
10005928:	6823      	ldr	r3, [r4, #0]
1000592a:	4657      	mov	r7, sl
1000592c:	68a1      	ldr	r1, [r4, #8]
1000592e:	4618      	mov	r0, r3
10005930:	468b      	mov	fp, r1
10005932:	2f00      	cmp	r7, #0
10005934:	d059      	beq.n	100059ea <__sfvwrite_r+0x166>
10005936:	f41c 7f00 	tst.w	ip, #512	@ 0x200
1000593a:	f000 80b6 	beq.w	10005aaa <__sfvwrite_r+0x226>
1000593e:	42b9      	cmp	r1, r7
10005940:	460a      	mov	r2, r1
10005942:	f200 80e2 	bhi.w	10005b0a <__sfvwrite_r+0x286>
10005946:	f41c 6f90 	tst.w	ip, #1152	@ 0x480
1000594a:	d030      	beq.n	100059ae <__sfvwrite_r+0x12a>
1000594c:	6921      	ldr	r1, [r4, #16]
1000594e:	1a5d      	subs	r5, r3, r1
10005950:	6963      	ldr	r3, [r4, #20]
10005952:	eb13 0343 	adds.w	r3, r3, r3, lsl #1
10005956:	bf48      	it	mi
10005958:	3301      	addmi	r3, #1
1000595a:	ea4f 0b63 	mov.w	fp, r3, asr #1
1000595e:	1c6b      	adds	r3, r5, #1
10005960:	443b      	add	r3, r7
10005962:	465a      	mov	r2, fp
10005964:	455b      	cmp	r3, fp
10005966:	d901      	bls.n	1000596c <__sfvwrite_r+0xe8>
10005968:	469b      	mov	fp, r3
1000596a:	461a      	mov	r2, r3
1000596c:	f41c 6f80 	tst.w	ip, #1024	@ 0x400
10005970:	f000 80ea 	beq.w	10005b48 <__sfvwrite_r+0x2c4>
10005974:	4611      	mov	r1, r2
10005976:	4648      	mov	r0, r9
10005978:	f7fc ffee 	bl	10002958 <_malloc_r>
1000597c:	2800      	cmp	r0, #0
1000597e:	f000 80f9 	beq.w	10005b74 <__sfvwrite_r+0x2f0>
10005982:	462a      	mov	r2, r5
10005984:	6921      	ldr	r1, [r4, #16]
10005986:	9000      	str	r0, [sp, #0]
10005988:	f7fd fd60 	bl	1000344c <memcpy>
1000598c:	89a2      	ldrh	r2, [r4, #12]
1000598e:	9b00      	ldr	r3, [sp, #0]
10005990:	f422 6290 	bic.w	r2, r2, #1152	@ 0x480
10005994:	f042 0280 	orr.w	r2, r2, #128	@ 0x80
10005998:	81a2      	strh	r2, [r4, #12]
1000599a:	1958      	adds	r0, r3, r5
1000599c:	f8c4 b014 	str.w	fp, [r4, #20]
100059a0:	ebab 0505 	sub.w	r5, fp, r5
100059a4:	463a      	mov	r2, r7
100059a6:	46bb      	mov	fp, r7
100059a8:	6123      	str	r3, [r4, #16]
100059aa:	60a5      	str	r5, [r4, #8]
100059ac:	6020      	str	r0, [r4, #0]
100059ae:	4651      	mov	r1, sl
100059b0:	9200      	str	r2, [sp, #0]
100059b2:	f7fd fc4b 	bl	1000324c <memmove>
100059b6:	68a1      	ldr	r1, [r4, #8]
100059b8:	6823      	ldr	r3, [r4, #0]
100059ba:	463d      	mov	r5, r7
100059bc:	9a00      	ldr	r2, [sp, #0]
100059be:	eba1 010b 	sub.w	r1, r1, fp
100059c2:	2700      	movs	r7, #0
100059c4:	441a      	add	r2, r3
100059c6:	60a1      	str	r1, [r4, #8]
100059c8:	6022      	str	r2, [r4, #0]
100059ca:	f8d8 3008 	ldr.w	r3, [r8, #8]
100059ce:	44aa      	add	sl, r5
100059d0:	1b5b      	subs	r3, r3, r5
100059d2:	f8c8 3008 	str.w	r3, [r8, #8]
100059d6:	2b00      	cmp	r3, #0
100059d8:	d03d      	beq.n	10005a56 <__sfvwrite_r+0x1d2>
100059da:	6823      	ldr	r3, [r4, #0]
100059dc:	68a1      	ldr	r1, [r4, #8]
100059de:	f9b4 c00c 	ldrsh.w	ip, [r4, #12]
100059e2:	4618      	mov	r0, r3
100059e4:	468b      	mov	fp, r1
100059e6:	2f00      	cmp	r7, #0
100059e8:	d1a5      	bne.n	10005936 <__sfvwrite_r+0xb2>
100059ea:	e9d6 a700 	ldrd	sl, r7, [r6]
100059ee:	3608      	adds	r6, #8
100059f0:	e79d      	b.n	1000592e <__sfvwrite_r+0xaa>
100059f2:	4638      	mov	r0, r7
100059f4:	46bb      	mov	fp, r7
100059f6:	463d      	mov	r5, r7
100059f8:	9700      	str	r7, [sp, #0]
100059fa:	2d00      	cmp	r5, #0
100059fc:	d041      	beq.n	10005a82 <__sfvwrite_r+0x1fe>
100059fe:	2800      	cmp	r0, #0
10005a00:	d046      	beq.n	10005a90 <__sfvwrite_r+0x20c>
10005a02:	9a00      	ldr	r2, [sp, #0]
10005a04:	68a1      	ldr	r1, [r4, #8]
10005a06:	42aa      	cmp	r2, r5
10005a08:	6963      	ldr	r3, [r4, #20]
10005a0a:	6820      	ldr	r0, [r4, #0]
10005a0c:	bf28      	it	cs
10005a0e:	462a      	movcs	r2, r5
10005a10:	eb03 0a01 	add.w	sl, r3, r1
10005a14:	6921      	ldr	r1, [r4, #16]
10005a16:	4288      	cmp	r0, r1
10005a18:	d902      	bls.n	10005a20 <__sfvwrite_r+0x19c>
10005a1a:	4552      	cmp	r2, sl
10005a1c:	f300 8085 	bgt.w	10005b2a <__sfvwrite_r+0x2a6>
10005a20:	4293      	cmp	r3, r2
10005a22:	dc75      	bgt.n	10005b10 <__sfvwrite_r+0x28c>
10005a24:	465a      	mov	r2, fp
10005a26:	69e1      	ldr	r1, [r4, #28]
10005a28:	4648      	mov	r0, r9
10005a2a:	6a67      	ldr	r7, [r4, #36]	@ 0x24
10005a2c:	47b8      	blx	r7
10005a2e:	f1b0 0a00 	subs.w	sl, r0, #0
10005a32:	dd1a      	ble.n	10005a6a <__sfvwrite_r+0x1e6>
10005a34:	9b00      	ldr	r3, [sp, #0]
10005a36:	ebb3 030a 	subs.w	r3, r3, sl
10005a3a:	9300      	str	r3, [sp, #0]
10005a3c:	d00f      	beq.n	10005a5e <__sfvwrite_r+0x1da>
10005a3e:	2001      	movs	r0, #1
10005a40:	f8d8 3008 	ldr.w	r3, [r8, #8]
10005a44:	44d3      	add	fp, sl
10005a46:	eba5 050a 	sub.w	r5, r5, sl
10005a4a:	eba3 030a 	sub.w	r3, r3, sl
10005a4e:	f8c8 3008 	str.w	r3, [r8, #8]
10005a52:	2b00      	cmp	r3, #0
10005a54:	d1d1      	bne.n	100059fa <__sfvwrite_r+0x176>
10005a56:	2000      	movs	r0, #0
10005a58:	b003      	add	sp, #12
10005a5a:	e8bd 8ff0 	ldmia.w	sp!, {r4, r5, r6, r7, r8, r9, sl, fp, pc}
10005a5e:	4621      	mov	r1, r4
10005a60:	4648      	mov	r0, r9
10005a62:	f7ff fe17 	bl	10005694 <_fflush_r>
10005a66:	2800      	cmp	r0, #0
10005a68:	d0ea      	beq.n	10005a40 <__sfvwrite_r+0x1bc>
10005a6a:	f9b4 300c 	ldrsh.w	r3, [r4, #12]
10005a6e:	f043 0340 	orr.w	r3, r3, #64	@ 0x40
10005a72:	81a3      	strh	r3, [r4, #12]
10005a74:	f04f 30ff 	mov.w	r0, #4294967295
10005a78:	b003      	add	sp, #12
10005a7a:	e8bd 8ff0 	ldmia.w	sp!, {r4, r5, r6, r7, r8, r9, sl, fp, pc}
10005a7e:	2000      	movs	r0, #0
10005a80:	4770      	bx	lr
10005a82:	6875      	ldr	r5, [r6, #4]
10005a84:	4633      	mov	r3, r6
10005a86:	3608      	adds	r6, #8
10005a88:	2d00      	cmp	r5, #0
10005a8a:	d0fa      	beq.n	10005a82 <__sfvwrite_r+0x1fe>
10005a8c:	f8d3 b000 	ldr.w	fp, [r3]
10005a90:	462a      	mov	r2, r5
10005a92:	210a      	movs	r1, #10
10005a94:	4658      	mov	r0, fp
10005a96:	f000 f9d3 	bl	10005e40 <memchr>
10005a9a:	2800      	cmp	r0, #0
10005a9c:	d067      	beq.n	10005b6e <__sfvwrite_r+0x2ea>
10005a9e:	3001      	adds	r0, #1
10005aa0:	eba0 030b 	sub.w	r3, r0, fp
10005aa4:	461a      	mov	r2, r3
10005aa6:	9300      	str	r3, [sp, #0]
10005aa8:	e7ac      	b.n	10005a04 <__sfvwrite_r+0x180>
10005aaa:	6922      	ldr	r2, [r4, #16]
10005aac:	429a      	cmp	r2, r3
10005aae:	d314      	bcc.n	10005ada <__sfvwrite_r+0x256>
10005ab0:	6962      	ldr	r2, [r4, #20]
10005ab2:	42ba      	cmp	r2, r7
10005ab4:	d811      	bhi.n	10005ada <__sfvwrite_r+0x256>
10005ab6:	f06f 4300 	mvn.w	r3, #2147483648	@ 0x80000000
10005aba:	6a65      	ldr	r5, [r4, #36]	@ 0x24
10005abc:	69e1      	ldr	r1, [r4, #28]
10005abe:	4648      	mov	r0, r9
10005ac0:	42bb      	cmp	r3, r7
10005ac2:	bf28      	it	cs
10005ac4:	463b      	movcs	r3, r7
10005ac6:	fb93 f3f2 	sdiv	r3, r3, r2
10005aca:	fb02 f303 	mul.w	r3, r2, r3
10005ace:	4652      	mov	r2, sl
10005ad0:	47a8      	blx	r5
10005ad2:	1e05      	subs	r5, r0, #0
10005ad4:	ddc9      	ble.n	10005a6a <__sfvwrite_r+0x1e6>
10005ad6:	1b7f      	subs	r7, r7, r5
10005ad8:	e777      	b.n	100059ca <__sfvwrite_r+0x146>
10005ada:	42b9      	cmp	r1, r7
10005adc:	4618      	mov	r0, r3
10005ade:	bf28      	it	cs
10005ae0:	4639      	movcs	r1, r7
10005ae2:	460d      	mov	r5, r1
10005ae4:	4651      	mov	r1, sl
10005ae6:	462a      	mov	r2, r5
10005ae8:	f7fd fbb0 	bl	1000324c <memmove>
10005aec:	68a1      	ldr	r1, [r4, #8]
10005aee:	6823      	ldr	r3, [r4, #0]
10005af0:	1b49      	subs	r1, r1, r5
10005af2:	442b      	add	r3, r5
10005af4:	60a1      	str	r1, [r4, #8]
10005af6:	6023      	str	r3, [r4, #0]
10005af8:	2900      	cmp	r1, #0
10005afa:	d1ec      	bne.n	10005ad6 <__sfvwrite_r+0x252>
10005afc:	4621      	mov	r1, r4
10005afe:	4648      	mov	r0, r9
10005b00:	f7ff fdc8 	bl	10005694 <_fflush_r>
10005b04:	2800      	cmp	r0, #0
10005b06:	d0e6      	beq.n	10005ad6 <__sfvwrite_r+0x252>
10005b08:	e7af      	b.n	10005a6a <__sfvwrite_r+0x1e6>
10005b0a:	46bb      	mov	fp, r7
10005b0c:	463a      	mov	r2, r7
10005b0e:	e74e      	b.n	100059ae <__sfvwrite_r+0x12a>
10005b10:	4659      	mov	r1, fp
10005b12:	9201      	str	r2, [sp, #4]
10005b14:	f7fd fb9a 	bl	1000324c <memmove>
10005b18:	9a01      	ldr	r2, [sp, #4]
10005b1a:	68a3      	ldr	r3, [r4, #8]
10005b1c:	4692      	mov	sl, r2
10005b1e:	1a9b      	subs	r3, r3, r2
10005b20:	60a3      	str	r3, [r4, #8]
10005b22:	6823      	ldr	r3, [r4, #0]
10005b24:	4413      	add	r3, r2
10005b26:	6023      	str	r3, [r4, #0]
10005b28:	e784      	b.n	10005a34 <__sfvwrite_r+0x1b0>
10005b2a:	4659      	mov	r1, fp
10005b2c:	4652      	mov	r2, sl
10005b2e:	f7fd fb8d 	bl	1000324c <memmove>
10005b32:	6823      	ldr	r3, [r4, #0]
10005b34:	4621      	mov	r1, r4
10005b36:	4648      	mov	r0, r9
10005b38:	4453      	add	r3, sl
10005b3a:	6023      	str	r3, [r4, #0]
10005b3c:	f7ff fdaa 	bl	10005694 <_fflush_r>
10005b40:	2800      	cmp	r0, #0
10005b42:	f43f af77 	beq.w	10005a34 <__sfvwrite_r+0x1b0>
10005b46:	e790      	b.n	10005a6a <__sfvwrite_r+0x1e6>
10005b48:	4648      	mov	r0, r9
10005b4a:	f7fd f9bb 	bl	10002ec4 <_realloc_r>
10005b4e:	4603      	mov	r3, r0
10005b50:	2800      	cmp	r0, #0
10005b52:	f47f af22 	bne.w	1000599a <__sfvwrite_r+0x116>
10005b56:	6921      	ldr	r1, [r4, #16]
10005b58:	4648      	mov	r0, r9
10005b5a:	f7fd fd77 	bl	1000364c <_free_r>
10005b5e:	f9b4 300c 	ldrsh.w	r3, [r4, #12]
10005b62:	220c      	movs	r2, #12
10005b64:	f023 0380 	bic.w	r3, r3, #128	@ 0x80
10005b68:	f8c9 2000 	str.w	r2, [r9]
10005b6c:	e77f      	b.n	10005a6e <__sfvwrite_r+0x1ea>
10005b6e:	1c6a      	adds	r2, r5, #1
10005b70:	9200      	str	r2, [sp, #0]
10005b72:	e747      	b.n	10005a04 <__sfvwrite_r+0x180>
10005b74:	220c      	movs	r2, #12
10005b76:	f9b4 300c 	ldrsh.w	r3, [r4, #12]
10005b7a:	f8c9 2000 	str.w	r2, [r9]
10005b7e:	e776      	b.n	10005a6e <__sfvwrite_r+0x1ea>
10005b80:	7ffffc00 	.word	0x7ffffc00

10005b84 <_fwalk_sglue>:
10005b84:	e92d 43f8 	stmdb	sp!, {r3, r4, r5, r6, r7, r8, r9, lr}
10005b88:	f04f 0900 	mov.w	r9, #0
10005b8c:	4607      	mov	r7, r0
10005b8e:	4688      	mov	r8, r1
10005b90:	4616      	mov	r6, r2
10005b92:	e9d6 5401 	ldrd	r5, r4, [r6, #4]
10005b96:	3d01      	subs	r5, #1
10005b98:	d40f      	bmi.n	10005bba <_fwalk_sglue+0x36>
10005b9a:	89a3      	ldrh	r3, [r4, #12]
10005b9c:	2b01      	cmp	r3, #1
10005b9e:	d908      	bls.n	10005bb2 <_fwalk_sglue+0x2e>
10005ba0:	f9b4 300e 	ldrsh.w	r3, [r4, #14]
10005ba4:	4621      	mov	r1, r4
10005ba6:	4638      	mov	r0, r7
10005ba8:	3301      	adds	r3, #1
10005baa:	d002      	beq.n	10005bb2 <_fwalk_sglue+0x2e>
10005bac:	47c0      	blx	r8
10005bae:	ea49 0900 	orr.w	r9, r9, r0
10005bb2:	3d01      	subs	r5, #1
10005bb4:	3468      	adds	r4, #104	@ 0x68
10005bb6:	1c6b      	adds	r3, r5, #1
10005bb8:	d1ef      	bne.n	10005b9a <_fwalk_sglue+0x16>
10005bba:	6836      	ldr	r6, [r6, #0]
10005bbc:	2e00      	cmp	r6, #0
10005bbe:	d1e8      	bne.n	10005b92 <_fwalk_sglue+0xe>
10005bc0:	4648      	mov	r0, r9
10005bc2:	e8bd 83f8 	ldmia.w	sp!, {r3, r4, r5, r6, r7, r8, r9, pc}
10005bc6:	bf00      	nop

10005bc8 <__sread>:
10005bc8:	b510      	push	{r4, lr}
10005bca:	460c      	mov	r4, r1
10005bcc:	f9b1 100e 	ldrsh.w	r1, [r1, #14]
10005bd0:	f000 f90a 	bl	10005de8 <_read_r>
10005bd4:	2800      	cmp	r0, #0
10005bd6:	db03      	blt.n	10005be0 <__sread+0x18>
10005bd8:	6d23      	ldr	r3, [r4, #80]	@ 0x50
10005bda:	4403      	add	r3, r0
10005bdc:	6523      	str	r3, [r4, #80]	@ 0x50
10005bde:	bd10      	pop	{r4, pc}
10005be0:	89a3      	ldrh	r3, [r4, #12]
10005be2:	f423 5380 	bic.w	r3, r3, #4096	@ 0x1000
10005be6:	81a3      	strh	r3, [r4, #12]
10005be8:	bd10      	pop	{r4, pc}
10005bea:	bf00      	nop

10005bec <__swrite>:
10005bec:	e92d 41f0 	stmdb	sp!, {r4, r5, r6, r7, r8, lr}
10005bf0:	460c      	mov	r4, r1
10005bf2:	f9b1 100c 	ldrsh.w	r1, [r1, #12]
10005bf6:	461f      	mov	r7, r3
10005bf8:	4605      	mov	r5, r0
10005bfa:	05cb      	lsls	r3, r1, #23
10005bfc:	4616      	mov	r6, r2
10005bfe:	d40b      	bmi.n	10005c18 <__swrite+0x2c>
10005c00:	f421 5180 	bic.w	r1, r1, #4096	@ 0x1000
10005c04:	463b      	mov	r3, r7
10005c06:	4632      	mov	r2, r6
10005c08:	4628      	mov	r0, r5
10005c0a:	81a1      	strh	r1, [r4, #12]
10005c0c:	f9b4 100e 	ldrsh.w	r1, [r4, #14]
10005c10:	e8bd 41f0 	ldmia.w	sp!, {r4, r5, r6, r7, r8, lr}
10005c14:	f000 b8fe 	b.w	10005e14 <_write_r>
10005c18:	f9b4 100e 	ldrsh.w	r1, [r4, #14]
10005c1c:	2302      	movs	r3, #2
10005c1e:	2200      	movs	r2, #0
10005c20:	f000 f8cc 	bl	10005dbc <_lseek_r>
10005c24:	f9b4 100c 	ldrsh.w	r1, [r4, #12]
10005c28:	e7ea      	b.n	10005c00 <__swrite+0x14>
10005c2a:	bf00      	nop

10005c2c <__sseek>:
10005c2c:	b510      	push	{r4, lr}
10005c2e:	460c      	mov	r4, r1
10005c30:	f9b1 100e 	ldrsh.w	r1, [r1, #14]
10005c34:	f000 f8c2 	bl	10005dbc <_lseek_r>
10005c38:	1c42      	adds	r2, r0, #1
10005c3a:	f9b4 300c 	ldrsh.w	r3, [r4, #12]
10005c3e:	d004      	beq.n	10005c4a <__sseek+0x1e>
10005c40:	f443 5380 	orr.w	r3, r3, #4096	@ 0x1000
10005c44:	6520      	str	r0, [r4, #80]	@ 0x50
10005c46:	81a3      	strh	r3, [r4, #12]
10005c48:	bd10      	pop	{r4, pc}
10005c4a:	f423 5380 	bic.w	r3, r3, #4096	@ 0x1000
10005c4e:	81a3      	strh	r3, [r4, #12]
10005c50:	bd10      	pop	{r4, pc}
10005c52:	bf00      	nop

10005c54 <__sclose>:
10005c54:	f9b1 100e 	ldrsh.w	r1, [r1, #14]
10005c58:	f000 b89e 	b.w	10005d98 <_close_r>

10005c5c <__swsetup_r>:
10005c5c:	b538      	push	{r3, r4, r5, lr}
10005c5e:	4b2f      	ldr	r3, [pc, #188]	@ (10005d1c <__swsetup_r+0xc0>)
10005c60:	4605      	mov	r5, r0
10005c62:	460c      	mov	r4, r1
10005c64:	681b      	ldr	r3, [r3, #0]
10005c66:	b113      	cbz	r3, 10005c6e <__swsetup_r+0x12>
10005c68:	6b5a      	ldr	r2, [r3, #52]	@ 0x34
10005c6a:	2a00      	cmp	r2, #0
10005c6c:	d045      	beq.n	10005cfa <__swsetup_r+0x9e>
10005c6e:	f9b4 300c 	ldrsh.w	r3, [r4, #12]
10005c72:	0718      	lsls	r0, r3, #28
10005c74:	d516      	bpl.n	10005ca4 <__swsetup_r+0x48>
10005c76:	6922      	ldr	r2, [r4, #16]
10005c78:	b1f2      	cbz	r2, 10005cb8 <__swsetup_r+0x5c>
10005c7a:	f013 0101 	ands.w	r1, r3, #1
10005c7e:	d007      	beq.n	10005c90 <__swsetup_r+0x34>
10005c80:	6961      	ldr	r1, [r4, #20]
10005c82:	2000      	movs	r0, #0
10005c84:	4249      	negs	r1, r1
10005c86:	60a0      	str	r0, [r4, #8]
10005c88:	61a1      	str	r1, [r4, #24]
10005c8a:	b13a      	cbz	r2, 10005c9c <__swsetup_r+0x40>
10005c8c:	2000      	movs	r0, #0
10005c8e:	bd38      	pop	{r3, r4, r5, pc}
10005c90:	0798      	lsls	r0, r3, #30
10005c92:	bf58      	it	pl
10005c94:	6961      	ldrpl	r1, [r4, #20]
10005c96:	60a1      	str	r1, [r4, #8]
10005c98:	2a00      	cmp	r2, #0
10005c9a:	d1f7      	bne.n	10005c8c <__swsetup_r+0x30>
10005c9c:	0619      	lsls	r1, r3, #24
10005c9e:	d438      	bmi.n	10005d12 <__swsetup_r+0xb6>
10005ca0:	4610      	mov	r0, r2
10005ca2:	bd38      	pop	{r3, r4, r5, pc}
10005ca4:	06d9      	lsls	r1, r3, #27
10005ca6:	d52c      	bpl.n	10005d02 <__swsetup_r+0xa6>
10005ca8:	075a      	lsls	r2, r3, #29
10005caa:	d412      	bmi.n	10005cd2 <__swsetup_r+0x76>
10005cac:	6922      	ldr	r2, [r4, #16]
10005cae:	f043 0308 	orr.w	r3, r3, #8
10005cb2:	81a3      	strh	r3, [r4, #12]
10005cb4:	2a00      	cmp	r2, #0
10005cb6:	d1e0      	bne.n	10005c7a <__swsetup_r+0x1e>
10005cb8:	f403 7120 	and.w	r1, r3, #640	@ 0x280
10005cbc:	f5b1 7f00 	cmp.w	r1, #512	@ 0x200
10005cc0:	d0db      	beq.n	10005c7a <__swsetup_r+0x1e>
10005cc2:	4621      	mov	r1, r4
10005cc4:	4628      	mov	r0, r5
10005cc6:	f001 fdc7 	bl	10007858 <__smakebuf_r>
10005cca:	f9b4 300c 	ldrsh.w	r3, [r4, #12]
10005cce:	6922      	ldr	r2, [r4, #16]
10005cd0:	e7d3      	b.n	10005c7a <__swsetup_r+0x1e>
10005cd2:	6b21      	ldr	r1, [r4, #48]	@ 0x30
10005cd4:	b151      	cbz	r1, 10005cec <__swsetup_r+0x90>
10005cd6:	f104 0240 	add.w	r2, r4, #64	@ 0x40
10005cda:	4291      	cmp	r1, r2
10005cdc:	d004      	beq.n	10005ce8 <__swsetup_r+0x8c>
10005cde:	4628      	mov	r0, r5
10005ce0:	f7fd fcb4 	bl	1000364c <_free_r>
10005ce4:	f9b4 300c 	ldrsh.w	r3, [r4, #12]
10005ce8:	2200      	movs	r2, #0
10005cea:	6322      	str	r2, [r4, #48]	@ 0x30
10005cec:	2100      	movs	r1, #0
10005cee:	6922      	ldr	r2, [r4, #16]
10005cf0:	f023 0324 	bic.w	r3, r3, #36	@ 0x24
10005cf4:	e9c4 2100 	strd	r2, r1, [r4]
10005cf8:	e7d9      	b.n	10005cae <__swsetup_r+0x52>
10005cfa:	4618      	mov	r0, r3
10005cfc:	f7ff fd98 	bl	10005830 <__sinit>
10005d00:	e7b5      	b.n	10005c6e <__swsetup_r+0x12>
10005d02:	2209      	movs	r2, #9
10005d04:	f043 0340 	orr.w	r3, r3, #64	@ 0x40
10005d08:	602a      	str	r2, [r5, #0]
10005d0a:	81a3      	strh	r3, [r4, #12]
10005d0c:	f04f 30ff 	mov.w	r0, #4294967295
10005d10:	bd38      	pop	{r3, r4, r5, pc}
10005d12:	f043 0340 	orr.w	r3, r3, #64	@ 0x40
10005d16:	81a3      	strh	r3, [r4, #12]
10005d18:	e7f8      	b.n	10005d0c <__swsetup_r+0xb0>
10005d1a:	bf00      	nop
10005d1c:	20000a90 	.word	0x20000a90

10005d20 <strncpy>:
10005d20:	ea40 0301 	orr.w	r3, r0, r1
10005d24:	079b      	lsls	r3, r3, #30
10005d26:	b530      	push	{r4, r5, lr}
10005d28:	d101      	bne.n	10005d2e <strncpy+0xe>
10005d2a:	2a03      	cmp	r2, #3
10005d2c:	d817      	bhi.n	10005d5e <strncpy+0x3e>
10005d2e:	4684      	mov	ip, r0
10005d30:	f101 3eff 	add.w	lr, r1, #4294967295
10005d34:	e007      	b.n	10005d46 <strncpy+0x26>
10005d36:	f81e 1f01 	ldrb.w	r1, [lr, #1]!
10005d3a:	1e54      	subs	r4, r2, #1
10005d3c:	f803 1b01 	strb.w	r1, [r3], #1
10005d40:	b129      	cbz	r1, 10005d4e <strncpy+0x2e>
10005d42:	4622      	mov	r2, r4
10005d44:	469c      	mov	ip, r3
10005d46:	4663      	mov	r3, ip
10005d48:	2a00      	cmp	r2, #0
10005d4a:	d1f4      	bne.n	10005d36 <strncpy+0x16>
10005d4c:	bd30      	pop	{r4, r5, pc}
10005d4e:	2c00      	cmp	r4, #0
10005d50:	d0fc      	beq.n	10005d4c <strncpy+0x2c>
10005d52:	4494      	add	ip, r2
10005d54:	f803 1b01 	strb.w	r1, [r3], #1
10005d58:	4563      	cmp	r3, ip
10005d5a:	d1fb      	bne.n	10005d54 <strncpy+0x34>
10005d5c:	bd30      	pop	{r4, r5, pc}
10005d5e:	460c      	mov	r4, r1
10005d60:	4684      	mov	ip, r0
10005d62:	6825      	ldr	r5, [r4, #0]
10005d64:	4621      	mov	r1, r4
10005d66:	3404      	adds	r4, #4
10005d68:	f1a5 3301 	sub.w	r3, r5, #16843009	@ 0x1010101
10005d6c:	ea23 0305 	bic.w	r3, r3, r5
10005d70:	f013 3f80 	tst.w	r3, #2155905152	@ 0x80808080
10005d74:	d1dc      	bne.n	10005d30 <strncpy+0x10>
10005d76:	3a04      	subs	r2, #4
10005d78:	f84c 5b04 	str.w	r5, [ip], #4
10005d7c:	2a03      	cmp	r2, #3
10005d7e:	d8f0      	bhi.n	10005d62 <strncpy+0x42>
10005d80:	4621      	mov	r1, r4
10005d82:	e7d5      	b.n	10005d30 <strncpy+0x10>

10005d84 <__locale_mb_cur_max>:
10005d84:	4b01      	ldr	r3, [pc, #4]	@ (10005d8c <__locale_mb_cur_max+0x8>)
10005d86:	f893 0128 	ldrb.w	r0, [r3, #296]	@ 0x128
10005d8a:	4770      	bx	lr
10005d8c:	20000be4 	.word	0x20000be4

10005d90 <_localeconv_r>:
10005d90:	4800      	ldr	r0, [pc, #0]	@ (10005d94 <_localeconv_r+0x4>)
10005d92:	4770      	bx	lr
10005d94:	20000cd4 	.word	0x20000cd4

10005d98 <_close_r>:
10005d98:	b538      	push	{r3, r4, r5, lr}
10005d9a:	2200      	movs	r2, #0
10005d9c:	4d06      	ldr	r5, [pc, #24]	@ (10005db8 <_close_r+0x20>)
10005d9e:	4604      	mov	r4, r0
10005da0:	4608      	mov	r0, r1
10005da2:	602a      	str	r2, [r5, #0]
10005da4:	f7fc fafe 	bl	100023a4 <_close>
10005da8:	1c43      	adds	r3, r0, #1
10005daa:	d000      	beq.n	10005dae <_close_r+0x16>
10005dac:	bd38      	pop	{r3, r4, r5, pc}
10005dae:	682b      	ldr	r3, [r5, #0]
10005db0:	2b00      	cmp	r3, #0
10005db2:	d0fb      	beq.n	10005dac <_close_r+0x14>
10005db4:	6023      	str	r3, [r4, #0]
10005db6:	bd38      	pop	{r3, r4, r5, pc}
10005db8:	200010a8 	.word	0x200010a8

10005dbc <_lseek_r>:
10005dbc:	b538      	push	{r3, r4, r5, lr}
10005dbe:	460c      	mov	r4, r1
10005dc0:	4684      	mov	ip, r0
10005dc2:	4611      	mov	r1, r2
10005dc4:	4d07      	ldr	r5, [pc, #28]	@ (10005de4 <_lseek_r+0x28>)
10005dc6:	461a      	mov	r2, r3
10005dc8:	2300      	movs	r3, #0
10005dca:	4620      	mov	r0, r4
10005dcc:	4664      	mov	r4, ip
10005dce:	602b      	str	r3, [r5, #0]
10005dd0:	f7fc faeb 	bl	100023aa <_lseek>
10005dd4:	1c43      	adds	r3, r0, #1
10005dd6:	d000      	beq.n	10005dda <_lseek_r+0x1e>
10005dd8:	bd38      	pop	{r3, r4, r5, pc}
10005dda:	682b      	ldr	r3, [r5, #0]
10005ddc:	2b00      	cmp	r3, #0
10005dde:	d0fb      	beq.n	10005dd8 <_lseek_r+0x1c>
10005de0:	6023      	str	r3, [r4, #0]
10005de2:	bd38      	pop	{r3, r4, r5, pc}
10005de4:	200010a8 	.word	0x200010a8

10005de8 <_read_r>:
10005de8:	b538      	push	{r3, r4, r5, lr}
10005dea:	460c      	mov	r4, r1
10005dec:	4684      	mov	ip, r0
10005dee:	4611      	mov	r1, r2
10005df0:	4d07      	ldr	r5, [pc, #28]	@ (10005e10 <_read_r+0x28>)
10005df2:	461a      	mov	r2, r3
10005df4:	2300      	movs	r3, #0
10005df6:	4620      	mov	r0, r4
10005df8:	4664      	mov	r4, ip
10005dfa:	602b      	str	r3, [r5, #0]
10005dfc:	f7fc fab2 	bl	10002364 <_read>
10005e00:	1c43      	adds	r3, r0, #1
10005e02:	d000      	beq.n	10005e06 <_read_r+0x1e>
10005e04:	bd38      	pop	{r3, r4, r5, pc}
10005e06:	682b      	ldr	r3, [r5, #0]
10005e08:	2b00      	cmp	r3, #0
10005e0a:	d0fb      	beq.n	10005e04 <_read_r+0x1c>
10005e0c:	6023      	str	r3, [r4, #0]
10005e0e:	bd38      	pop	{r3, r4, r5, pc}
10005e10:	200010a8 	.word	0x200010a8

10005e14 <_write_r>:
10005e14:	b538      	push	{r3, r4, r5, lr}
10005e16:	460c      	mov	r4, r1
10005e18:	4684      	mov	ip, r0
10005e1a:	4611      	mov	r1, r2
10005e1c:	4d07      	ldr	r5, [pc, #28]	@ (10005e3c <_write_r+0x28>)
10005e1e:	461a      	mov	r2, r3
10005e20:	2300      	movs	r3, #0
10005e22:	4620      	mov	r0, r4
10005e24:	4664      	mov	r4, ip
10005e26:	602b      	str	r3, [r5, #0]
10005e28:	f7fc faac 	bl	10002384 <_write>
10005e2c:	1c43      	adds	r3, r0, #1
10005e2e:	d000      	beq.n	10005e32 <_write_r+0x1e>
10005e30:	bd38      	pop	{r3, r4, r5, pc}
10005e32:	682b      	ldr	r3, [r5, #0]
10005e34:	2b00      	cmp	r3, #0
10005e36:	d0fb      	beq.n	10005e30 <_write_r+0x1c>
10005e38:	6023      	str	r3, [r4, #0]
10005e3a:	bd38      	pop	{r3, r4, r5, pc}
10005e3c:	200010a8 	.word	0x200010a8

10005e40 <memchr>:
10005e40:	fa5f fc81 	uxtb.w	ip, r1
10005e44:	0781      	lsls	r1, r0, #30
10005e46:	d044      	beq.n	10005ed2 <memchr+0x92>
10005e48:	4603      	mov	r3, r0
10005e4a:	1e51      	subs	r1, r2, #1
10005e4c:	b922      	cbnz	r2, 10005e58 <memchr+0x18>
10005e4e:	e009      	b.n	10005e64 <memchr+0x24>
10005e50:	079a      	lsls	r2, r3, #30
10005e52:	d009      	beq.n	10005e68 <memchr+0x28>
10005e54:	3901      	subs	r1, #1
10005e56:	d305      	bcc.n	10005e64 <memchr+0x24>
10005e58:	4618      	mov	r0, r3
10005e5a:	3301      	adds	r3, #1
10005e5c:	7802      	ldrb	r2, [r0, #0]
10005e5e:	4562      	cmp	r2, ip
10005e60:	d1f6      	bne.n	10005e50 <memchr+0x10>
10005e62:	4770      	bx	lr
10005e64:	2000      	movs	r0, #0
10005e66:	4770      	bx	lr
10005e68:	4618      	mov	r0, r3
10005e6a:	2903      	cmp	r1, #3
10005e6c:	d80c      	bhi.n	10005e88 <memchr+0x48>
10005e6e:	2900      	cmp	r1, #0
10005e70:	d0f8      	beq.n	10005e64 <memchr+0x24>
10005e72:	4603      	mov	r3, r0
10005e74:	4401      	add	r1, r0
10005e76:	e001      	b.n	10005e7c <memchr+0x3c>
10005e78:	428b      	cmp	r3, r1
10005e7a:	d0f3      	beq.n	10005e64 <memchr+0x24>
10005e7c:	4618      	mov	r0, r3
10005e7e:	f813 2b01 	ldrb.w	r2, [r3], #1
10005e82:	4562      	cmp	r2, ip
10005e84:	d1f8      	bne.n	10005e78 <memchr+0x38>
10005e86:	4770      	bx	lr
10005e88:	b510      	push	{r4, lr}
10005e8a:	eb0c 240c 	add.w	r4, ip, ip, lsl #8
10005e8e:	4602      	mov	r2, r0
10005e90:	eb04 4404 	add.w	r4, r4, r4, lsl #16
10005e94:	e002      	b.n	10005e9c <memchr+0x5c>
10005e96:	3904      	subs	r1, #4
10005e98:	2903      	cmp	r1, #3
10005e9a:	d915      	bls.n	10005ec8 <memchr+0x88>
10005e9c:	4610      	mov	r0, r2
10005e9e:	f852 3b04 	ldr.w	r3, [r2], #4
10005ea2:	4063      	eors	r3, r4
10005ea4:	f1a3 3e01 	sub.w	lr, r3, #16843009	@ 0x1010101
10005ea8:	ea2e 0303 	bic.w	r3, lr, r3
10005eac:	f013 3f80 	tst.w	r3, #2155905152	@ 0x80808080
10005eb0:	d0f1      	beq.n	10005e96 <memchr+0x56>
10005eb2:	4603      	mov	r3, r0
10005eb4:	4401      	add	r1, r0
10005eb6:	e001      	b.n	10005ebc <memchr+0x7c>
10005eb8:	428b      	cmp	r3, r1
10005eba:	d008      	beq.n	10005ece <memchr+0x8e>
10005ebc:	4618      	mov	r0, r3
10005ebe:	f813 2b01 	ldrb.w	r2, [r3], #1
10005ec2:	4562      	cmp	r2, ip
10005ec4:	d1f8      	bne.n	10005eb8 <memchr+0x78>
10005ec6:	bd10      	pop	{r4, pc}
10005ec8:	4610      	mov	r0, r2
10005eca:	2900      	cmp	r1, #0
10005ecc:	d1f1      	bne.n	10005eb2 <memchr+0x72>
10005ece:	2000      	movs	r0, #0
10005ed0:	bd10      	pop	{r4, pc}
10005ed2:	4611      	mov	r1, r2
10005ed4:	e7c9      	b.n	10005e6a <memchr+0x2a>
10005ed6:	bf00      	nop

10005ed8 <frexp>:
10005ed8:	b5f8      	push	{r3, r4, r5, r6, r7, lr}
10005eda:	f8df c060 	ldr.w	ip, [pc, #96]	@ 10005f3c <frexp+0x64>
10005ede:	f021 4300 	bic.w	r3, r1, #2147483648	@ 0x80000000
10005ee2:	2700      	movs	r7, #0
10005ee4:	4604      	mov	r4, r0
10005ee6:	4563      	cmp	r3, ip
10005ee8:	460d      	mov	r5, r1
10005eea:	4616      	mov	r6, r2
10005eec:	6017      	str	r7, [r2, #0]
10005eee:	d820      	bhi.n	10005f32 <frexp+0x5a>
10005ef0:	4684      	mov	ip, r0
10005ef2:	ea53 0c0c 	orrs.w	ip, r3, ip
10005ef6:	d01c      	beq.n	10005f32 <frexp+0x5a>
10005ef8:	f8df c044 	ldr.w	ip, [pc, #68]	@ 10005f40 <frexp+0x68>
10005efc:	460a      	mov	r2, r1
10005efe:	ea01 0c0c 	and.w	ip, r1, ip
10005f02:	f1bc 0f00 	cmp.w	ip, #0
10005f06:	d109      	bne.n	10005f1c <frexp+0x44>
10005f08:	2200      	movs	r2, #0
10005f0a:	4b0b      	ldr	r3, [pc, #44]	@ (10005f38 <frexp+0x60>)
10005f0c:	f7fc f908 	bl	10002120 <__wrap___aeabi_dmul>
10005f10:	f06f 0735 	mvn.w	r7, #53	@ 0x35
10005f14:	4604      	mov	r4, r0
10005f16:	460a      	mov	r2, r1
10005f18:	f021 4300 	bic.w	r3, r1, #2147483648	@ 0x80000000
10005f1c:	f36f 521e 	bfc	r2, #20, #11
10005f20:	151b      	asrs	r3, r3, #20
10005f22:	f042 557f 	orr.w	r5, r2, #1069547520	@ 0x3fc00000
10005f26:	f2a3 33fe 	subw	r3, r3, #1022	@ 0x3fe
10005f2a:	f445 1500 	orr.w	r5, r5, #2097152	@ 0x200000
10005f2e:	443b      	add	r3, r7
10005f30:	6033      	str	r3, [r6, #0]
10005f32:	4620      	mov	r0, r4
10005f34:	4629      	mov	r1, r5
10005f36:	bdf8      	pop	{r3, r4, r5, r6, r7, pc}
10005f38:	43500000 	.word	0x43500000
10005f3c:	7fefffff 	.word	0x7fefffff
10005f40:	7ff00000 	.word	0x7ff00000

10005f44 <quorem>:
10005f44:	e92d 4ff0 	stmdb	sp!, {r4, r5, r6, r7, r8, r9, sl, fp, lr}
10005f48:	6903      	ldr	r3, [r0, #16]
10005f4a:	b085      	sub	sp, #20
10005f4c:	690c      	ldr	r4, [r1, #16]
10005f4e:	42a3      	cmp	r3, r4
10005f50:	f2c0 8090 	blt.w	10006074 <quorem+0x130>
10005f54:	3c01      	subs	r4, #1
10005f56:	f101 0514 	add.w	r5, r1, #20
10005f5a:	f100 0814 	add.w	r8, r0, #20
10005f5e:	4681      	mov	r9, r0
10005f60:	f855 3024 	ldr.w	r3, [r5, r4, lsl #2]
10005f64:	ea4f 0c84 	mov.w	ip, r4, lsl #2
10005f68:	f858 2024 	ldr.w	r2, [r8, r4, lsl #2]
10005f6c:	eb05 0784 	add.w	r7, r5, r4, lsl #2
10005f70:	3301      	adds	r3, #1
10005f72:	eb08 0b84 	add.w	fp, r8, r4, lsl #2
10005f76:	429a      	cmp	r2, r3
10005f78:	fbb2 f6f3 	udiv	r6, r2, r3
10005f7c:	d342      	bcc.n	10006004 <quorem+0xc0>
10005f7e:	2000      	movs	r0, #0
10005f80:	46aa      	mov	sl, r5
10005f82:	46c6      	mov	lr, r8
10005f84:	f8cd 800c 	str.w	r8, [sp, #12]
10005f88:	4603      	mov	r3, r0
10005f8a:	4688      	mov	r8, r1
10005f8c:	e9cd c501 	strd	ip, r5, [sp, #4]
10005f90:	4605      	mov	r5, r0
10005f92:	f85a 2b04 	ldr.w	r2, [sl], #4
10005f96:	f8de 1000 	ldr.w	r1, [lr]
10005f9a:	b290      	uxth	r0, r2
10005f9c:	4557      	cmp	r7, sl
10005f9e:	ea4f 4c12 	mov.w	ip, r2, lsr #16
10005fa2:	fb06 5000 	mla	r0, r6, r0, r5
10005fa6:	b28a      	uxth	r2, r1
10005fa8:	ea4f 4510 	mov.w	r5, r0, lsr #16
10005fac:	b280      	uxth	r0, r0
10005fae:	fb06 550c 	mla	r5, r6, ip, r5
10005fb2:	eba2 0200 	sub.w	r2, r2, r0
10005fb6:	441a      	add	r2, r3
10005fb8:	b2ab      	uxth	r3, r5
10005fba:	ea4f 4515 	mov.w	r5, r5, lsr #16
10005fbe:	ebc3 4322 	rsb	r3, r3, r2, asr #16
10005fc2:	b292      	uxth	r2, r2
10005fc4:	eb03 4311 	add.w	r3, r3, r1, lsr #16
10005fc8:	ea42 4203 	orr.w	r2, r2, r3, lsl #16
10005fcc:	ea4f 4323 	mov.w	r3, r3, asr #16
10005fd0:	f84e 2b04 	str.w	r2, [lr], #4
10005fd4:	d2dd      	bcs.n	10005f92 <quorem+0x4e>
10005fd6:	4641      	mov	r1, r8
10005fd8:	f8dd 800c 	ldr.w	r8, [sp, #12]
10005fdc:	e9dd c501 	ldrd	ip, r5, [sp, #4]
10005fe0:	f858 300c 	ldr.w	r3, [r8, ip]
10005fe4:	b973      	cbnz	r3, 10006004 <quorem+0xc0>
10005fe6:	f1ab 0b04 	sub.w	fp, fp, #4
10005fea:	45d8      	cmp	r8, fp
10005fec:	d304      	bcc.n	10005ff8 <quorem+0xb4>
10005fee:	e007      	b.n	10006000 <quorem+0xbc>
10005ff0:	45d8      	cmp	r8, fp
10005ff2:	f104 34ff 	add.w	r4, r4, #4294967295
10005ff6:	d203      	bcs.n	10006000 <quorem+0xbc>
10005ff8:	f85b 3904 	ldr.w	r3, [fp], #-4
10005ffc:	2b00      	cmp	r3, #0
10005ffe:	d0f7      	beq.n	10005ff0 <quorem+0xac>
10006000:	f8c9 4010 	str.w	r4, [r9, #16]
10006004:	4648      	mov	r0, r9
10006006:	f001 fa45 	bl	10007494 <__mcmp>
1000600a:	2800      	cmp	r0, #0
1000600c:	db2e      	blt.n	1000606c <quorem+0x128>
1000600e:	2200      	movs	r2, #0
10006010:	4641      	mov	r1, r8
10006012:	4694      	mov	ip, r2
10006014:	f855 0b04 	ldr.w	r0, [r5], #4
10006018:	680b      	ldr	r3, [r1, #0]
1000601a:	fa1f fe80 	uxth.w	lr, r0
1000601e:	42af      	cmp	r7, r5
10006020:	b29a      	uxth	r2, r3
10006022:	ea4f 4010 	mov.w	r0, r0, lsr #16
10006026:	eba2 020e 	sub.w	r2, r2, lr
1000602a:	4462      	add	r2, ip
1000602c:	ebc0 4022 	rsb	r0, r0, r2, asr #16
10006030:	b292      	uxth	r2, r2
10006032:	eb00 4013 	add.w	r0, r0, r3, lsr #16
10006036:	ea42 4200 	orr.w	r2, r2, r0, lsl #16
1000603a:	ea4f 4c20 	mov.w	ip, r0, asr #16
1000603e:	f841 2b04 	str.w	r2, [r1], #4
10006042:	d2e7      	bcs.n	10006014 <quorem+0xd0>
10006044:	f858 2024 	ldr.w	r2, [r8, r4, lsl #2]
10006048:	eb08 0384 	add.w	r3, r8, r4, lsl #2
1000604c:	b96a      	cbnz	r2, 1000606a <quorem+0x126>
1000604e:	3b04      	subs	r3, #4
10006050:	4543      	cmp	r3, r8
10006052:	d804      	bhi.n	1000605e <quorem+0x11a>
10006054:	e007      	b.n	10006066 <quorem+0x122>
10006056:	4598      	cmp	r8, r3
10006058:	f104 34ff 	add.w	r4, r4, #4294967295
1000605c:	d203      	bcs.n	10006066 <quorem+0x122>
1000605e:	f853 2904 	ldr.w	r2, [r3], #-4
10006062:	2a00      	cmp	r2, #0
10006064:	d0f7      	beq.n	10006056 <quorem+0x112>
10006066:	f8c9 4010 	str.w	r4, [r9, #16]
1000606a:	3601      	adds	r6, #1
1000606c:	4630      	mov	r0, r6
1000606e:	b005      	add	sp, #20
10006070:	e8bd 8ff0 	ldmia.w	sp!, {r4, r5, r6, r7, r8, r9, sl, fp, pc}
10006074:	2000      	movs	r0, #0
10006076:	b005      	add	sp, #20
10006078:	e8bd 8ff0 	ldmia.w	sp!, {r4, r5, r6, r7, r8, r9, sl, fp, pc}
1000607c:	0000      	movs	r0, r0
	...

10006080 <_dtoa_r>:
10006080:	e92d 4ff0 	stmdb	sp!, {r4, r5, r6, r7, r8, r9, sl, fp, lr}
10006084:	6b81      	ldr	r1, [r0, #56]	@ 0x38
10006086:	b09d      	sub	sp, #116	@ 0x74
10006088:	4616      	mov	r6, r2
1000608a:	461f      	mov	r7, r3
1000608c:	4604      	mov	r4, r0
1000608e:	9d29      	ldr	r5, [sp, #164]	@ 0xa4
10006090:	e9cd 6704 	strd	r6, r7, [sp, #16]
10006094:	b141      	cbz	r1, 100060a8 <_dtoa_r+0x28>
10006096:	6bc2      	ldr	r2, [r0, #60]	@ 0x3c
10006098:	2301      	movs	r3, #1
1000609a:	4093      	lsls	r3, r2
1000609c:	604a      	str	r2, [r1, #4]
1000609e:	608b      	str	r3, [r1, #8]
100060a0:	f000 ff9a 	bl	10006fd8 <_Bfree>
100060a4:	2300      	movs	r3, #0
100060a6:	63a3      	str	r3, [r4, #56]	@ 0x38
100060a8:	f1b7 0900 	subs.w	r9, r7, #0
100060ac:	f2c0 80b4 	blt.w	10006218 <_dtoa_r+0x198>
100060b0:	2300      	movs	r3, #0
100060b2:	602b      	str	r3, [r5, #0]
100060b4:	4b7c      	ldr	r3, [pc, #496]	@ (100062a8 <_dtoa_r+0x228>)
100060b6:	ea33 0309 	bics.w	r3, r3, r9
100060ba:	f000 80b8 	beq.w	1000622e <_dtoa_r+0x1ae>
100060be:	2200      	movs	r2, #0
100060c0:	2300      	movs	r3, #0
100060c2:	ed9d 7b04 	vldr	d7, [sp, #16]
100060c6:	ec51 0b17 	vmov	r0, r1, d7
100060ca:	ed8d 7b02 	vstr	d7, [sp, #8]
100060ce:	f7fc f8e3 	bl	10002298 <__wrap___aeabi_dcmpeq>
100060d2:	4680      	mov	r8, r0
100060d4:	b168      	cbz	r0, 100060f2 <_dtoa_r+0x72>
100060d6:	2301      	movs	r3, #1
100060d8:	9a28      	ldr	r2, [sp, #160]	@ 0xa0
100060da:	6013      	str	r3, [r2, #0]
100060dc:	9b2a      	ldr	r3, [sp, #168]	@ 0xa8
100060de:	b113      	cbz	r3, 100060e6 <_dtoa_r+0x66>
100060e0:	4b72      	ldr	r3, [pc, #456]	@ (100062ac <_dtoa_r+0x22c>)
100060e2:	9a2a      	ldr	r2, [sp, #168]	@ 0xa8
100060e4:	6013      	str	r3, [r2, #0]
100060e6:	f8df 81d0 	ldr.w	r8, [pc, #464]	@ 100062b8 <_dtoa_r+0x238>
100060ea:	4640      	mov	r0, r8
100060ec:	b01d      	add	sp, #116	@ 0x74
100060ee:	e8bd 8ff0 	ldmia.w	sp!, {r4, r5, r6, r7, r8, r9, sl, fp, pc}
100060f2:	ab1a      	add	r3, sp, #104	@ 0x68
100060f4:	4620      	mov	r0, r4
100060f6:	9301      	str	r3, [sp, #4]
100060f8:	ab1b      	add	r3, sp, #108	@ 0x6c
100060fa:	9300      	str	r3, [sp, #0]
100060fc:	e9dd 2302 	ldrd	r2, r3, [sp, #8]
10006100:	f001 faaa 	bl	10007658 <__d2b>
10006104:	4683      	mov	fp, r0
10006106:	ea5f 5519 	movs.w	r5, r9, lsr #20
1000610a:	f040 80a7 	bne.w	1000625c <_dtoa_r+0x1dc>
1000610e:	e9dd 851a 	ldrd	r8, r5, [sp, #104]	@ 0x68
10006112:	4445      	add	r5, r8
10006114:	f205 4332 	addw	r3, r5, #1074	@ 0x432
10006118:	2b20      	cmp	r3, #32
1000611a:	f340 8249 	ble.w	100065b0 <_dtoa_r+0x530>
1000611e:	f1c3 0340 	rsb	r3, r3, #64	@ 0x40
10006122:	fa09 f903 	lsl.w	r9, r9, r3
10006126:	f205 4312 	addw	r3, r5, #1042	@ 0x412
1000612a:	fa26 f303 	lsr.w	r3, r6, r3
1000612e:	ea49 0003 	orr.w	r0, r9, r3
10006132:	f7fc f87b 	bl	1000222c <__wrap___aeabi_ui2d>
10006136:	3d01      	subs	r5, #1
10006138:	2301      	movs	r3, #1
1000613a:	f1a1 71f8 	sub.w	r1, r1, #32505856	@ 0x1f00000
1000613e:	9314      	str	r3, [sp, #80]	@ 0x50
10006140:	2200      	movs	r2, #0
10006142:	4b5b      	ldr	r3, [pc, #364]	@ (100062b0 <_dtoa_r+0x230>)
10006144:	f7fb ffd8 	bl	100020f8 <__wrap___aeabi_dsub>
10006148:	a351      	add	r3, pc, #324	@ (adr r3, 10006290 <_dtoa_r+0x210>)
1000614a:	e9d3 2300 	ldrd	r2, r3, [r3]
1000614e:	f7fb ffe7 	bl	10002120 <__wrap___aeabi_dmul>
10006152:	a351      	add	r3, pc, #324	@ (adr r3, 10006298 <_dtoa_r+0x218>)
10006154:	e9d3 2300 	ldrd	r2, r3, [r3]
10006158:	f7fb ffba 	bl	100020d0 <__wrap___aeabi_dadd>
1000615c:	4606      	mov	r6, r0
1000615e:	460f      	mov	r7, r1
10006160:	4628      	mov	r0, r5
10006162:	f7fc f851 	bl	10002208 <__wrap___aeabi_i2d>
10006166:	a34e      	add	r3, pc, #312	@ (adr r3, 100062a0 <_dtoa_r+0x220>)
10006168:	e9d3 2300 	ldrd	r2, r3, [r3]
1000616c:	f7fb ffd8 	bl	10002120 <__wrap___aeabi_dmul>
10006170:	4602      	mov	r2, r0
10006172:	460b      	mov	r3, r1
10006174:	4630      	mov	r0, r6
10006176:	4639      	mov	r1, r7
10006178:	f7fb ffaa 	bl	100020d0 <__wrap___aeabi_dadd>
1000617c:	4606      	mov	r6, r0
1000617e:	460f      	mov	r7, r1
10006180:	f7fc f866 	bl	10002250 <__wrap___aeabi_d2iz>
10006184:	2200      	movs	r2, #0
10006186:	4681      	mov	r9, r0
10006188:	9008      	str	r0, [sp, #32]
1000618a:	2300      	movs	r3, #0
1000618c:	4630      	mov	r0, r6
1000618e:	4639      	mov	r1, r7
10006190:	f7fc f894 	bl	100022bc <__wrap___aeabi_dcmplt>
10006194:	2800      	cmp	r0, #0
10006196:	f040 81fd 	bne.w	10006594 <_dtoa_r+0x514>
1000619a:	eba8 0805 	sub.w	r8, r8, r5
1000619e:	9d08      	ldr	r5, [sp, #32]
100061a0:	2d16      	cmp	r5, #22
100061a2:	f108 3aff 	add.w	sl, r8, #4294967295
100061a6:	f200 81a4 	bhi.w	100064f2 <_dtoa_r+0x472>
100061aa:	4b42      	ldr	r3, [pc, #264]	@ (100062b4 <_dtoa_r+0x234>)
100061ac:	eb03 03c5 	add.w	r3, r3, r5, lsl #3
100061b0:	e9dd 0102 	ldrd	r0, r1, [sp, #8]
100061b4:	e9d3 2300 	ldrd	r2, r3, [r3]
100061b8:	f7fc f880 	bl	100022bc <__wrap___aeabi_dcmplt>
100061bc:	2800      	cmp	r0, #0
100061be:	f000 8081 	beq.w	100062c4 <_dtoa_r+0x244>
100061c2:	1e6b      	subs	r3, r5, #1
100061c4:	f1ba 0f00 	cmp.w	sl, #0
100061c8:	9308      	str	r3, [sp, #32]
100061ca:	f04f 0300 	mov.w	r3, #0
100061ce:	9311      	str	r3, [sp, #68]	@ 0x44
100061d0:	f2c0 8195 	blt.w	100064fe <_dtoa_r+0x47e>
100061d4:	2300      	movs	r3, #0
100061d6:	930a      	str	r3, [sp, #40]	@ 0x28
100061d8:	9b08      	ldr	r3, [sp, #32]
100061da:	2b00      	cmp	r3, #0
100061dc:	da78      	bge.n	100062d0 <_dtoa_r+0x250>
100061de:	9b08      	ldr	r3, [sp, #32]
100061e0:	9a0a      	ldr	r2, [sp, #40]	@ 0x28
100061e2:	930b      	str	r3, [sp, #44]	@ 0x2c
100061e4:	1ad2      	subs	r2, r2, r3
100061e6:	920a      	str	r2, [sp, #40]	@ 0x28
100061e8:	425a      	negs	r2, r3
100061ea:	2300      	movs	r3, #0
100061ec:	9210      	str	r2, [sp, #64]	@ 0x40
100061ee:	9308      	str	r3, [sp, #32]
100061f0:	9b26      	ldr	r3, [sp, #152]	@ 0x98
100061f2:	2b09      	cmp	r3, #9
100061f4:	d874      	bhi.n	100062e0 <_dtoa_r+0x260>
100061f6:	2b05      	cmp	r3, #5
100061f8:	f340 81df 	ble.w	100065ba <_dtoa_r+0x53a>
100061fc:	3b04      	subs	r3, #4
100061fe:	2500      	movs	r5, #0
10006200:	9326      	str	r3, [sp, #152]	@ 0x98
10006202:	9b26      	ldr	r3, [sp, #152]	@ 0x98
10006204:	3b02      	subs	r3, #2
10006206:	2b03      	cmp	r3, #3
10006208:	f200 8687 	bhi.w	10006f1a <_dtoa_r+0xe9a>
1000620c:	e8df f013 	tbh	[pc, r3, lsl #1]
10006210:	03fc03ff 	.word	0x03fc03ff
10006214:	03d803f2 	.word	0x03d803f2
10006218:	2301      	movs	r3, #1
1000621a:	f029 4900 	bic.w	r9, r9, #2147483648	@ 0x80000000
1000621e:	602b      	str	r3, [r5, #0]
10006220:	4b21      	ldr	r3, [pc, #132]	@ (100062a8 <_dtoa_r+0x228>)
10006222:	f8cd 9014 	str.w	r9, [sp, #20]
10006226:	ea33 0309 	bics.w	r3, r3, r9
1000622a:	f47f af48 	bne.w	100060be <_dtoa_r+0x3e>
1000622e:	f3c9 0913 	ubfx	r9, r9, #0, #20
10006232:	f242 730f 	movw	r3, #9999	@ 0x270f
10006236:	9a28      	ldr	r2, [sp, #160]	@ 0xa0
10006238:	ea59 0906 	orrs.w	r9, r9, r6
1000623c:	6013      	str	r3, [r2, #0]
1000623e:	d01d      	beq.n	1000627c <_dtoa_r+0x1fc>
10006240:	9b2a      	ldr	r3, [sp, #168]	@ 0xa8
10006242:	f8df 8078 	ldr.w	r8, [pc, #120]	@ 100062bc <_dtoa_r+0x23c>
10006246:	2b00      	cmp	r3, #0
10006248:	f43f af4f 	beq.w	100060ea <_dtoa_r+0x6a>
1000624c:	f108 0303 	add.w	r3, r8, #3
10006250:	9a2a      	ldr	r2, [sp, #168]	@ 0xa8
10006252:	4640      	mov	r0, r8
10006254:	6013      	str	r3, [r2, #0]
10006256:	b01d      	add	sp, #116	@ 0x74
10006258:	e8bd 8ff0 	ldmia.w	sp!, {r4, r5, r6, r7, r8, r9, sl, fp, pc}
1000625c:	e9dd 1202 	ldrd	r1, r2, [sp, #8]
10006260:	f8cd 8050 	str.w	r8, [sp, #80]	@ 0x50
10006264:	f2a5 35ff 	subw	r5, r5, #1023	@ 0x3ff
10006268:	f3c2 0313 	ubfx	r3, r2, #0, #20
1000626c:	4608      	mov	r0, r1
1000626e:	f8dd 8068 	ldr.w	r8, [sp, #104]	@ 0x68
10006272:	f043 517f 	orr.w	r1, r3, #1069547520	@ 0x3fc00000
10006276:	f441 1140 	orr.w	r1, r1, #3145728	@ 0x300000
1000627a:	e761      	b.n	10006140 <_dtoa_r+0xc0>
1000627c:	9b2a      	ldr	r3, [sp, #168]	@ 0xa8
1000627e:	f8df 8040 	ldr.w	r8, [pc, #64]	@ 100062c0 <_dtoa_r+0x240>
10006282:	2b00      	cmp	r3, #0
10006284:	f43f af31 	beq.w	100060ea <_dtoa_r+0x6a>
10006288:	f108 0308 	add.w	r3, r8, #8
1000628c:	e7e0      	b.n	10006250 <_dtoa_r+0x1d0>
1000628e:	bf00      	nop
10006290:	636f4361 	.word	0x636f4361
10006294:	3fd287a7 	.word	0x3fd287a7
10006298:	8b60c8b3 	.word	0x8b60c8b3
1000629c:	3fc68a28 	.word	0x3fc68a28
100062a0:	509f79fb 	.word	0x509f79fb
100062a4:	3fd34413 	.word	0x3fd34413
100062a8:	7ff00000 	.word	0x7ff00000
100062ac:	10008101 	.word	0x10008101
100062b0:	3ff80000 	.word	0x3ff80000
100062b4:	10008678 	.word	0x10008678
100062b8:	10008100 	.word	0x10008100
100062bc:	10008224 	.word	0x10008224
100062c0:	10008218 	.word	0x10008218
100062c4:	f1b8 0f00 	cmp.w	r8, #0
100062c8:	f340 851a 	ble.w	10006d00 <_dtoa_r+0xc80>
100062cc:	9011      	str	r0, [sp, #68]	@ 0x44
100062ce:	900a      	str	r0, [sp, #40]	@ 0x28
100062d0:	9b08      	ldr	r3, [sp, #32]
100062d2:	449a      	add	sl, r3
100062d4:	930b      	str	r3, [sp, #44]	@ 0x2c
100062d6:	2300      	movs	r3, #0
100062d8:	9310      	str	r3, [sp, #64]	@ 0x40
100062da:	9b26      	ldr	r3, [sp, #152]	@ 0x98
100062dc:	2b09      	cmp	r3, #9
100062de:	d98a      	bls.n	100061f6 <_dtoa_r+0x176>
100062e0:	2300      	movs	r3, #0
100062e2:	2501      	movs	r5, #1
100062e4:	e9cd 3326 	strd	r3, r3, [sp, #152]	@ 0x98
100062e8:	f04f 33ff 	mov.w	r3, #4294967295
100062ec:	950c      	str	r5, [sp, #48]	@ 0x30
100062ee:	9309      	str	r3, [sp, #36]	@ 0x24
100062f0:	2100      	movs	r1, #0
100062f2:	9b09      	ldr	r3, [sp, #36]	@ 0x24
100062f4:	63e1      	str	r1, [r4, #60]	@ 0x3c
100062f6:	9315      	str	r3, [sp, #84]	@ 0x54
100062f8:	4620      	mov	r0, r4
100062fa:	f000 fe47 	bl	10006f8c <_Balloc>
100062fe:	9007      	str	r0, [sp, #28]
10006300:	2800      	cmp	r0, #0
10006302:	f000 8612 	beq.w	10006f2a <_dtoa_r+0xeaa>
10006306:	9b09      	ldr	r3, [sp, #36]	@ 0x24
10006308:	2b0e      	cmp	r3, #14
1000630a:	bf8c      	ite	hi
1000630c:	2500      	movhi	r5, #0
1000630e:	f005 0501 	andls.w	r5, r5, #1
10006312:	9b07      	ldr	r3, [sp, #28]
10006314:	63a3      	str	r3, [r4, #56]	@ 0x38
10006316:	2d00      	cmp	r5, #0
10006318:	f000 811e 	beq.w	10006558 <_dtoa_r+0x4d8>
1000631c:	990b      	ldr	r1, [sp, #44]	@ 0x2c
1000631e:	2900      	cmp	r1, #0
10006320:	f340 815c 	ble.w	100065dc <_dtoa_r+0x55c>
10006324:	4ba6      	ldr	r3, [pc, #664]	@ (100065c0 <_dtoa_r+0x540>)
10006326:	f001 020f 	and.w	r2, r1, #15
1000632a:	05c8      	lsls	r0, r1, #23
1000632c:	ea4f 1521 	mov.w	r5, r1, asr #4
10006330:	eb03 03c2 	add.w	r3, r3, r2, lsl #3
10006334:	e9d3 6700 	ldrd	r6, r7, [r3]
10006338:	f140 8321 	bpl.w	1000697e <_dtoa_r+0x8fe>
1000633c:	4ba1      	ldr	r3, [pc, #644]	@ (100065c4 <_dtoa_r+0x544>)
1000633e:	f005 050f 	and.w	r5, r5, #15
10006342:	f04f 0803 	mov.w	r8, #3
10006346:	e9d3 2308 	ldrd	r2, r3, [r3, #32]
1000634a:	e9dd 0102 	ldrd	r0, r1, [sp, #8]
1000634e:	f7fb ff0d 	bl	1000216c <__wrap___aeabi_ddiv>
10006352:	e9cd 010e 	strd	r0, r1, [sp, #56]	@ 0x38
10006356:	b18d      	cbz	r5, 1000637c <_dtoa_r+0x2fc>
10006358:	f8df 9268 	ldr.w	r9, [pc, #616]	@ 100065c4 <_dtoa_r+0x544>
1000635c:	07e9      	lsls	r1, r5, #31
1000635e:	d509      	bpl.n	10006374 <_dtoa_r+0x2f4>
10006360:	4630      	mov	r0, r6
10006362:	4639      	mov	r1, r7
10006364:	f108 0801 	add.w	r8, r8, #1
10006368:	e9d9 2300 	ldrd	r2, r3, [r9]
1000636c:	f7fb fed8 	bl	10002120 <__wrap___aeabi_dmul>
10006370:	4606      	mov	r6, r0
10006372:	460f      	mov	r7, r1
10006374:	106d      	asrs	r5, r5, #1
10006376:	f109 0908 	add.w	r9, r9, #8
1000637a:	d1ef      	bne.n	1000635c <_dtoa_r+0x2dc>
1000637c:	4632      	mov	r2, r6
1000637e:	463b      	mov	r3, r7
10006380:	e9dd 010e 	ldrd	r0, r1, [sp, #56]	@ 0x38
10006384:	f7fb fef2 	bl	1000216c <__wrap___aeabi_ddiv>
10006388:	e9cd 0112 	strd	r0, r1, [sp, #72]	@ 0x48
1000638c:	9b11      	ldr	r3, [sp, #68]	@ 0x44
1000638e:	b153      	cbz	r3, 100063a6 <_dtoa_r+0x326>
10006390:	2200      	movs	r2, #0
10006392:	4b8d      	ldr	r3, [pc, #564]	@ (100065c8 <_dtoa_r+0x548>)
10006394:	e9dd 6712 	ldrd	r6, r7, [sp, #72]	@ 0x48
10006398:	4630      	mov	r0, r6
1000639a:	4639      	mov	r1, r7
1000639c:	f7fb ff8e 	bl	100022bc <__wrap___aeabi_dcmplt>
100063a0:	2800      	cmp	r0, #0
100063a2:	f040 84b4 	bne.w	10006d0e <_dtoa_r+0xc8e>
100063a6:	4640      	mov	r0, r8
100063a8:	f7fb ff2e 	bl	10002208 <__wrap___aeabi_i2d>
100063ac:	e9dd 2312 	ldrd	r2, r3, [sp, #72]	@ 0x48
100063b0:	f7fb feb6 	bl	10002120 <__wrap___aeabi_dmul>
100063b4:	4b85      	ldr	r3, [pc, #532]	@ (100065cc <_dtoa_r+0x54c>)
100063b6:	2200      	movs	r2, #0
100063b8:	f7fb fe8a 	bl	100020d0 <__wrap___aeabi_dadd>
100063bc:	9b09      	ldr	r3, [sp, #36]	@ 0x24
100063be:	4606      	mov	r6, r0
100063c0:	f1a1 7750 	sub.w	r7, r1, #54525952	@ 0x3400000
100063c4:	2b00      	cmp	r3, #0
100063c6:	f000 80ae 	beq.w	10006526 <_dtoa_r+0x4a6>
100063ca:	9b0b      	ldr	r3, [sp, #44]	@ 0x2c
100063cc:	930e      	str	r3, [sp, #56]	@ 0x38
100063ce:	9b09      	ldr	r3, [sp, #36]	@ 0x24
100063d0:	9318      	str	r3, [sp, #96]	@ 0x60
100063d2:	4a7b      	ldr	r2, [pc, #492]	@ (100065c0 <_dtoa_r+0x540>)
100063d4:	46b0      	mov	r8, r6
100063d6:	9b18      	ldr	r3, [sp, #96]	@ 0x60
100063d8:	46b9      	mov	r9, r7
100063da:	eb02 03c3 	add.w	r3, r2, r3, lsl #3
100063de:	e9dd 6712 	ldrd	r6, r7, [sp, #72]	@ 0x48
100063e2:	ed13 7b02 	vldr	d7, [r3, #-8]
100063e6:	4639      	mov	r1, r7
100063e8:	4630      	mov	r0, r6
100063ea:	ed8d 7b16 	vstr	d7, [sp, #88]	@ 0x58
100063ee:	f7fb ff2f 	bl	10002250 <__wrap___aeabi_d2iz>
100063f2:	4605      	mov	r5, r0
100063f4:	f7fb ff08 	bl	10002208 <__wrap___aeabi_i2d>
100063f8:	4602      	mov	r2, r0
100063fa:	460b      	mov	r3, r1
100063fc:	4630      	mov	r0, r6
100063fe:	4639      	mov	r1, r7
10006400:	3530      	adds	r5, #48	@ 0x30
10006402:	f7fb fe79 	bl	100020f8 <__wrap___aeabi_dsub>
10006406:	9b07      	ldr	r3, [sp, #28]
10006408:	460f      	mov	r7, r1
1000640a:	990c      	ldr	r1, [sp, #48]	@ 0x30
1000640c:	1c5a      	adds	r2, r3, #1
1000640e:	4606      	mov	r6, r0
10006410:	b2ed      	uxtb	r5, r5
10006412:	9212      	str	r2, [sp, #72]	@ 0x48
10006414:	e9dd 2316 	ldrd	r2, r3, [sp, #88]	@ 0x58
10006418:	2900      	cmp	r1, #0
1000641a:	f000 82fb 	beq.w	10006a14 <_dtoa_r+0x994>
1000641e:	2000      	movs	r0, #0
10006420:	496b      	ldr	r1, [pc, #428]	@ (100065d0 <_dtoa_r+0x550>)
10006422:	f7fb fea3 	bl	1000216c <__wrap___aeabi_ddiv>
10006426:	4642      	mov	r2, r8
10006428:	464b      	mov	r3, r9
1000642a:	f7fb fe65 	bl	100020f8 <__wrap___aeabi_dsub>
1000642e:	9b07      	ldr	r3, [sp, #28]
10006430:	4632      	mov	r2, r6
10006432:	4680      	mov	r8, r0
10006434:	701d      	strb	r5, [r3, #0]
10006436:	463b      	mov	r3, r7
10006438:	4689      	mov	r9, r1
1000643a:	f7fb ff67 	bl	1000230c <__wrap___aeabi_dcmpgt>
1000643e:	2800      	cmp	r0, #0
10006440:	f040 8553 	bne.w	10006eea <_dtoa_r+0xe6a>
10006444:	f8cd a064 	str.w	sl, [sp, #100]	@ 0x64
10006448:	2500      	movs	r5, #0
1000644a:	f8cd b058 	str.w	fp, [sp, #88]	@ 0x58
1000644e:	f8dd a048 	ldr.w	sl, [sp, #72]	@ 0x48
10006452:	f8dd b060 	ldr.w	fp, [sp, #96]	@ 0x60
10006456:	9418      	str	r4, [sp, #96]	@ 0x60
10006458:	e02a      	b.n	100064b0 <_dtoa_r+0x430>
1000645a:	3501      	adds	r5, #1
1000645c:	455d      	cmp	r5, fp
1000645e:	f280 84cd 	bge.w	10006dfc <_dtoa_r+0xd7c>
10006462:	4640      	mov	r0, r8
10006464:	4649      	mov	r1, r9
10006466:	2200      	movs	r2, #0
10006468:	4b5a      	ldr	r3, [pc, #360]	@ (100065d4 <_dtoa_r+0x554>)
1000646a:	f7fb fe59 	bl	10002120 <__wrap___aeabi_dmul>
1000646e:	2200      	movs	r2, #0
10006470:	4b58      	ldr	r3, [pc, #352]	@ (100065d4 <_dtoa_r+0x554>)
10006472:	4680      	mov	r8, r0
10006474:	4689      	mov	r9, r1
10006476:	4630      	mov	r0, r6
10006478:	4639      	mov	r1, r7
1000647a:	f7fb fe51 	bl	10002120 <__wrap___aeabi_dmul>
1000647e:	460f      	mov	r7, r1
10006480:	4606      	mov	r6, r0
10006482:	f7fb fee5 	bl	10002250 <__wrap___aeabi_d2iz>
10006486:	4604      	mov	r4, r0
10006488:	f7fb febe 	bl	10002208 <__wrap___aeabi_i2d>
1000648c:	4602      	mov	r2, r0
1000648e:	460b      	mov	r3, r1
10006490:	3430      	adds	r4, #48	@ 0x30
10006492:	4630      	mov	r0, r6
10006494:	4639      	mov	r1, r7
10006496:	f7fb fe2f 	bl	100020f8 <__wrap___aeabi_dsub>
1000649a:	4642      	mov	r2, r8
1000649c:	464b      	mov	r3, r9
1000649e:	f80a 4b01 	strb.w	r4, [sl], #1
100064a2:	4606      	mov	r6, r0
100064a4:	460f      	mov	r7, r1
100064a6:	f7fb ff09 	bl	100022bc <__wrap___aeabi_dcmplt>
100064aa:	2800      	cmp	r0, #0
100064ac:	f040 84ad 	bne.w	10006e0a <_dtoa_r+0xd8a>
100064b0:	4632      	mov	r2, r6
100064b2:	463b      	mov	r3, r7
100064b4:	2000      	movs	r0, #0
100064b6:	4944      	ldr	r1, [pc, #272]	@ (100065c8 <_dtoa_r+0x548>)
100064b8:	f7fb fe1e 	bl	100020f8 <__wrap___aeabi_dsub>
100064bc:	4642      	mov	r2, r8
100064be:	464b      	mov	r3, r9
100064c0:	f7fb fefc 	bl	100022bc <__wrap___aeabi_dcmplt>
100064c4:	2800      	cmp	r0, #0
100064c6:	d0c8      	beq.n	1000645a <_dtoa_r+0x3da>
100064c8:	f8dd b058 	ldr.w	fp, [sp, #88]	@ 0x58
100064cc:	4655      	mov	r5, sl
100064ce:	9c18      	ldr	r4, [sp, #96]	@ 0x60
100064d0:	9907      	ldr	r1, [sp, #28]
100064d2:	e002      	b.n	100064da <_dtoa_r+0x45a>
100064d4:	42a9      	cmp	r1, r5
100064d6:	f000 846d 	beq.w	10006db4 <_dtoa_r+0xd34>
100064da:	462a      	mov	r2, r5
100064dc:	f815 3d01 	ldrb.w	r3, [r5, #-1]!
100064e0:	2b39      	cmp	r3, #57	@ 0x39
100064e2:	d0f7      	beq.n	100064d4 <_dtoa_r+0x454>
100064e4:	3301      	adds	r3, #1
100064e6:	b2db      	uxtb	r3, r3
100064e8:	702b      	strb	r3, [r5, #0]
100064ea:	f8dd 801c 	ldr.w	r8, [sp, #28]
100064ee:	9207      	str	r2, [sp, #28]
100064f0:	e11b      	b.n	1000672a <_dtoa_r+0x6aa>
100064f2:	2301      	movs	r3, #1
100064f4:	f1ba 0f00 	cmp.w	sl, #0
100064f8:	9311      	str	r3, [sp, #68]	@ 0x44
100064fa:	f6bf ae6b 	bge.w	100061d4 <_dtoa_r+0x154>
100064fe:	f1c8 0301 	rsb	r3, r8, #1
10006502:	f04f 0a00 	mov.w	sl, #0
10006506:	930a      	str	r3, [sp, #40]	@ 0x28
10006508:	e666      	b.n	100061d8 <_dtoa_r+0x158>
1000650a:	4640      	mov	r0, r8
1000650c:	f7fb fe7c 	bl	10002208 <__wrap___aeabi_i2d>
10006510:	e9dd 2312 	ldrd	r2, r3, [sp, #72]	@ 0x48
10006514:	f7fb fe04 	bl	10002120 <__wrap___aeabi_dmul>
10006518:	2200      	movs	r2, #0
1000651a:	4b2c      	ldr	r3, [pc, #176]	@ (100065cc <_dtoa_r+0x54c>)
1000651c:	f7fb fdd8 	bl	100020d0 <__wrap___aeabi_dadd>
10006520:	4606      	mov	r6, r0
10006522:	f1a1 7750 	sub.w	r7, r1, #54525952	@ 0x3400000
10006526:	2200      	movs	r2, #0
10006528:	4b2b      	ldr	r3, [pc, #172]	@ (100065d8 <_dtoa_r+0x558>)
1000652a:	e9dd 0112 	ldrd	r0, r1, [sp, #72]	@ 0x48
1000652e:	f7fb fde3 	bl	100020f8 <__wrap___aeabi_dsub>
10006532:	4632      	mov	r2, r6
10006534:	463b      	mov	r3, r7
10006536:	4680      	mov	r8, r0
10006538:	4689      	mov	r9, r1
1000653a:	f7fb fee7 	bl	1000230c <__wrap___aeabi_dcmpgt>
1000653e:	2800      	cmp	r0, #0
10006540:	f040 8418 	bne.w	10006d74 <_dtoa_r+0xcf4>
10006544:	4640      	mov	r0, r8
10006546:	4649      	mov	r1, r9
10006548:	4632      	mov	r2, r6
1000654a:	f107 4300 	add.w	r3, r7, #2147483648	@ 0x80000000
1000654e:	f7fb feb5 	bl	100022bc <__wrap___aeabi_dcmplt>
10006552:	2800      	cmp	r0, #0
10006554:	f040 8185 	bne.w	10006862 <_dtoa_r+0x7e2>
10006558:	9b1b      	ldr	r3, [sp, #108]	@ 0x6c
1000655a:	2b00      	cmp	r3, #0
1000655c:	db03      	blt.n	10006566 <_dtoa_r+0x4e6>
1000655e:	9a0b      	ldr	r2, [sp, #44]	@ 0x2c
10006560:	2a0e      	cmp	r2, #14
10006562:	f340 8161 	ble.w	10006828 <_dtoa_r+0x7a8>
10006566:	9a0c      	ldr	r2, [sp, #48]	@ 0x30
10006568:	2a00      	cmp	r2, #0
1000656a:	d068      	beq.n	1000663e <_dtoa_r+0x5be>
1000656c:	9a26      	ldr	r2, [sp, #152]	@ 0x98
1000656e:	2a01      	cmp	r2, #1
10006570:	f340 83f5 	ble.w	10006d5e <_dtoa_r+0xcde>
10006574:	9b09      	ldr	r3, [sp, #36]	@ 0x24
10006576:	9a10      	ldr	r2, [sp, #64]	@ 0x40
10006578:	1e5d      	subs	r5, r3, #1
1000657a:	42aa      	cmp	r2, r5
1000657c:	f2c0 832c 	blt.w	10006bd8 <_dtoa_r+0xb58>
10006580:	2b00      	cmp	r3, #0
10006582:	eba2 0505 	sub.w	r5, r2, r5
10006586:	f280 847d 	bge.w	10006e84 <_dtoa_r+0xe04>
1000658a:	e9dd 2309 	ldrd	r2, r3, [sp, #36]	@ 0x24
1000658e:	eba3 0802 	sub.w	r8, r3, r2
10006592:	e32e      	b.n	10006bf2 <_dtoa_r+0xb72>
10006594:	4648      	mov	r0, r9
10006596:	f7fb fe37 	bl	10002208 <__wrap___aeabi_i2d>
1000659a:	4632      	mov	r2, r6
1000659c:	463b      	mov	r3, r7
1000659e:	f7fb fe7b 	bl	10002298 <__wrap___aeabi_dcmpeq>
100065a2:	2800      	cmp	r0, #0
100065a4:	f47f adf9 	bne.w	1000619a <_dtoa_r+0x11a>
100065a8:	f109 33ff 	add.w	r3, r9, #4294967295
100065ac:	9308      	str	r3, [sp, #32]
100065ae:	e5f4      	b.n	1000619a <_dtoa_r+0x11a>
100065b0:	f1c3 0320 	rsb	r3, r3, #32
100065b4:	fa06 f003 	lsl.w	r0, r6, r3
100065b8:	e5bb      	b.n	10006132 <_dtoa_r+0xb2>
100065ba:	2501      	movs	r5, #1
100065bc:	e621      	b.n	10006202 <_dtoa_r+0x182>
100065be:	bf00      	nop
100065c0:	10008678 	.word	0x10008678
100065c4:	10008650 	.word	0x10008650
100065c8:	3ff00000 	.word	0x3ff00000
100065cc:	401c0000 	.word	0x401c0000
100065d0:	3fe00000 	.word	0x3fe00000
100065d4:	40240000 	.word	0x40240000
100065d8:	40140000 	.word	0x40140000
100065dc:	f000 82f4 	beq.w	10006bc8 <_dtoa_r+0xb48>
100065e0:	9b0b      	ldr	r3, [sp, #44]	@ 0x2c
100065e2:	425e      	negs	r6, r3
100065e4:	4bb2      	ldr	r3, [pc, #712]	@ (100068b0 <_dtoa_r+0x830>)
100065e6:	f006 020f 	and.w	r2, r6, #15
100065ea:	eb03 03c2 	add.w	r3, r3, r2, lsl #3
100065ee:	e9dd 0102 	ldrd	r0, r1, [sp, #8]
100065f2:	e9d3 2300 	ldrd	r2, r3, [r3]
100065f6:	f7fb fd93 	bl	10002120 <__wrap___aeabi_dmul>
100065fa:	1136      	asrs	r6, r6, #4
100065fc:	e9cd 010e 	strd	r0, r1, [sp, #56]	@ 0x38
10006600:	f000 8465 	beq.w	10006ece <_dtoa_r+0xe4e>
10006604:	4fab      	ldr	r7, [pc, #684]	@ (100068b4 <_dtoa_r+0x834>)
10006606:	2300      	movs	r3, #0
10006608:	f04f 0802 	mov.w	r8, #2
1000660c:	e9cd 0112 	strd	r0, r1, [sp, #72]	@ 0x48
10006610:	07f2      	lsls	r2, r6, #31
10006612:	d506      	bpl.n	10006622 <_dtoa_r+0x5a2>
10006614:	f108 0801 	add.w	r8, r8, #1
10006618:	e9d7 2300 	ldrd	r2, r3, [r7]
1000661c:	f7fb fd80 	bl	10002120 <__wrap___aeabi_dmul>
10006620:	462b      	mov	r3, r5
10006622:	1076      	asrs	r6, r6, #1
10006624:	f107 0708 	add.w	r7, r7, #8
10006628:	d1f2      	bne.n	10006610 <_dtoa_r+0x590>
1000662a:	e9cd 0112 	strd	r0, r1, [sp, #72]	@ 0x48
1000662e:	2b00      	cmp	r3, #0
10006630:	f47f aeac 	bne.w	1000638c <_dtoa_r+0x30c>
10006634:	ed9d 7b0e 	vldr	d7, [sp, #56]	@ 0x38
10006638:	ed8d 7b12 	vstr	d7, [sp, #72]	@ 0x48
1000663c:	e6a6      	b.n	1000638c <_dtoa_r+0x30c>
1000663e:	2300      	movs	r3, #0
10006640:	9d10      	ldr	r5, [sp, #64]	@ 0x40
10006642:	f8dd 8028 	ldr.w	r8, [sp, #40]	@ 0x28
10006646:	461e      	mov	r6, r3
10006648:	930c      	str	r3, [sp, #48]	@ 0x30
1000664a:	f1b8 0f00 	cmp.w	r8, #0
1000664e:	dd0d      	ble.n	1000666c <_dtoa_r+0x5ec>
10006650:	f1ba 0f00 	cmp.w	sl, #0
10006654:	dd0a      	ble.n	1000666c <_dtoa_r+0x5ec>
10006656:	45d0      	cmp	r8, sl
10006658:	4643      	mov	r3, r8
1000665a:	9a0a      	ldr	r2, [sp, #40]	@ 0x28
1000665c:	bfa8      	it	ge
1000665e:	4653      	movge	r3, sl
10006660:	1ad2      	subs	r2, r2, r3
10006662:	eba8 0803 	sub.w	r8, r8, r3
10006666:	ebaa 0a03 	sub.w	sl, sl, r3
1000666a:	920a      	str	r2, [sp, #40]	@ 0x28
1000666c:	9b10      	ldr	r3, [sp, #64]	@ 0x40
1000666e:	b153      	cbz	r3, 10006686 <_dtoa_r+0x606>
10006670:	9b0c      	ldr	r3, [sp, #48]	@ 0x30
10006672:	b113      	cbz	r3, 1000667a <_dtoa_r+0x5fa>
10006674:	2d00      	cmp	r5, #0
10006676:	f040 82d0 	bne.w	10006c1a <_dtoa_r+0xb9a>
1000667a:	4659      	mov	r1, fp
1000667c:	9a10      	ldr	r2, [sp, #64]	@ 0x40
1000667e:	4620      	mov	r0, r4
10006680:	f000 fe3a 	bl	100072f8 <__pow5mult>
10006684:	4683      	mov	fp, r0
10006686:	2101      	movs	r1, #1
10006688:	4620      	mov	r0, r4
1000668a:	f000 fd55 	bl	10007138 <__i2b>
1000668e:	9b08      	ldr	r3, [sp, #32]
10006690:	4607      	mov	r7, r0
10006692:	2b00      	cmp	r3, #0
10006694:	f040 815e 	bne.w	10006954 <_dtoa_r+0x8d4>
10006698:	9b26      	ldr	r3, [sp, #152]	@ 0x98
1000669a:	2b01      	cmp	r3, #1
1000669c:	f340 8176 	ble.w	1000698c <_dtoa_r+0x90c>
100066a0:	2301      	movs	r3, #1
100066a2:	4453      	add	r3, sl
100066a4:	f013 031f 	ands.w	r3, r3, #31
100066a8:	d008      	beq.n	100066bc <_dtoa_r+0x63c>
100066aa:	f1c3 0220 	rsb	r2, r3, #32
100066ae:	2a04      	cmp	r2, #4
100066b0:	f300 8268 	bgt.w	10006b84 <_dtoa_r+0xb04>
100066b4:	d008      	beq.n	100066c8 <_dtoa_r+0x648>
100066b6:	f1c3 033c 	rsb	r3, r3, #60	@ 0x3c
100066ba:	e000      	b.n	100066be <_dtoa_r+0x63e>
100066bc:	231c      	movs	r3, #28
100066be:	9a0a      	ldr	r2, [sp, #40]	@ 0x28
100066c0:	4498      	add	r8, r3
100066c2:	449a      	add	sl, r3
100066c4:	441a      	add	r2, r3
100066c6:	920a      	str	r2, [sp, #40]	@ 0x28
100066c8:	9b0a      	ldr	r3, [sp, #40]	@ 0x28
100066ca:	2b00      	cmp	r3, #0
100066cc:	dd05      	ble.n	100066da <_dtoa_r+0x65a>
100066ce:	4659      	mov	r1, fp
100066d0:	461a      	mov	r2, r3
100066d2:	4620      	mov	r0, r4
100066d4:	f000 fe6a 	bl	100073ac <__lshift>
100066d8:	4683      	mov	fp, r0
100066da:	f1ba 0f00 	cmp.w	sl, #0
100066de:	dd05      	ble.n	100066ec <_dtoa_r+0x66c>
100066e0:	4639      	mov	r1, r7
100066e2:	4652      	mov	r2, sl
100066e4:	4620      	mov	r0, r4
100066e6:	f000 fe61 	bl	100073ac <__lshift>
100066ea:	4607      	mov	r7, r0
100066ec:	9b26      	ldr	r3, [sp, #152]	@ 0x98
100066ee:	2b02      	cmp	r3, #2
100066f0:	9b11      	ldr	r3, [sp, #68]	@ 0x44
100066f2:	bfd4      	ite	le
100066f4:	2500      	movle	r5, #0
100066f6:	2501      	movgt	r5, #1
100066f8:	2b00      	cmp	r3, #0
100066fa:	f040 80b5 	bne.w	10006868 <_dtoa_r+0x7e8>
100066fe:	9b09      	ldr	r3, [sp, #36]	@ 0x24
10006700:	2b00      	cmp	r3, #0
10006702:	dc26      	bgt.n	10006752 <_dtoa_r+0x6d2>
10006704:	b32d      	cbz	r5, 10006752 <_dtoa_r+0x6d2>
10006706:	9b09      	ldr	r3, [sp, #36]	@ 0x24
10006708:	2b00      	cmp	r3, #0
1000670a:	f000 823e 	beq.w	10006b8a <_dtoa_r+0xb0a>
1000670e:	9b27      	ldr	r3, [sp, #156]	@ 0x9c
10006710:	f8dd 801c 	ldr.w	r8, [sp, #28]
10006714:	43db      	mvns	r3, r3
10006716:	930e      	str	r3, [sp, #56]	@ 0x38
10006718:	4639      	mov	r1, r7
1000671a:	4620      	mov	r0, r4
1000671c:	f000 fc5c 	bl	10006fd8 <_Bfree>
10006720:	b11e      	cbz	r6, 1000672a <_dtoa_r+0x6aa>
10006722:	4631      	mov	r1, r6
10006724:	4620      	mov	r0, r4
10006726:	f000 fc57 	bl	10006fd8 <_Bfree>
1000672a:	4659      	mov	r1, fp
1000672c:	4620      	mov	r0, r4
1000672e:	f000 fc53 	bl	10006fd8 <_Bfree>
10006732:	2200      	movs	r2, #0
10006734:	9b0e      	ldr	r3, [sp, #56]	@ 0x38
10006736:	9907      	ldr	r1, [sp, #28]
10006738:	3301      	adds	r3, #1
1000673a:	700a      	strb	r2, [r1, #0]
1000673c:	9a28      	ldr	r2, [sp, #160]	@ 0xa0
1000673e:	6013      	str	r3, [r2, #0]
10006740:	9b2a      	ldr	r3, [sp, #168]	@ 0xa8
10006742:	2b00      	cmp	r3, #0
10006744:	f43f acd1 	beq.w	100060ea <_dtoa_r+0x6a>
10006748:	4640      	mov	r0, r8
1000674a:	6019      	str	r1, [r3, #0]
1000674c:	b01d      	add	sp, #116	@ 0x74
1000674e:	e8bd 8ff0 	ldmia.w	sp!, {r4, r5, r6, r7, r8, r9, sl, fp, pc}
10006752:	9b0c      	ldr	r3, [sp, #48]	@ 0x30
10006754:	2b00      	cmp	r3, #0
10006756:	f000 80a4 	beq.w	100068a2 <_dtoa_r+0x822>
1000675a:	f1b8 0f00 	cmp.w	r8, #0
1000675e:	dd05      	ble.n	1000676c <_dtoa_r+0x6ec>
10006760:	4631      	mov	r1, r6
10006762:	4642      	mov	r2, r8
10006764:	4620      	mov	r0, r4
10006766:	f000 fe21 	bl	100073ac <__lshift>
1000676a:	4606      	mov	r6, r0
1000676c:	9b08      	ldr	r3, [sp, #32]
1000676e:	2b00      	cmp	r3, #0
10006770:	f040 832d 	bne.w	10006dce <_dtoa_r+0xd4e>
10006774:	46b1      	mov	r9, r6
10006776:	9d07      	ldr	r5, [sp, #28]
10006778:	9a09      	ldr	r2, [sp, #36]	@ 0x24
1000677a:	1e6b      	subs	r3, r5, #1
1000677c:	9702      	str	r7, [sp, #8]
1000677e:	441a      	add	r2, r3
10006780:	9b04      	ldr	r3, [sp, #16]
10006782:	f003 0301 	and.w	r3, r3, #1
10006786:	9209      	str	r2, [sp, #36]	@ 0x24
10006788:	930a      	str	r3, [sp, #40]	@ 0x28
1000678a:	9902      	ldr	r1, [sp, #8]
1000678c:	4658      	mov	r0, fp
1000678e:	f7ff fbd9 	bl	10005f44 <quorem>
10006792:	4631      	mov	r1, r6
10006794:	4682      	mov	sl, r0
10006796:	4658      	mov	r0, fp
10006798:	f000 fe7c 	bl	10007494 <__mcmp>
1000679c:	9902      	ldr	r1, [sp, #8]
1000679e:	4680      	mov	r8, r0
100067a0:	464a      	mov	r2, r9
100067a2:	4620      	mov	r0, r4
100067a4:	f10a 0730 	add.w	r7, sl, #48	@ 0x30
100067a8:	f000 fe96 	bl	100074d8 <__mdiff>
100067ac:	68c3      	ldr	r3, [r0, #12]
100067ae:	4601      	mov	r1, r0
100067b0:	2b00      	cmp	r3, #0
100067b2:	f040 824d 	bne.w	10006c50 <_dtoa_r+0xbd0>
100067b6:	9008      	str	r0, [sp, #32]
100067b8:	4658      	mov	r0, fp
100067ba:	f000 fe6b 	bl	10007494 <__mcmp>
100067be:	9908      	ldr	r1, [sp, #32]
100067c0:	9008      	str	r0, [sp, #32]
100067c2:	4620      	mov	r0, r4
100067c4:	f000 fc08 	bl	10006fd8 <_Bfree>
100067c8:	9b26      	ldr	r3, [sp, #152]	@ 0x98
100067ca:	9a08      	ldr	r2, [sp, #32]
100067cc:	4313      	orrs	r3, r2
100067ce:	f040 827b 	bne.w	10006cc8 <_dtoa_r+0xc48>
100067d2:	9b0a      	ldr	r3, [sp, #40]	@ 0x28
100067d4:	2b00      	cmp	r3, #0
100067d6:	f000 835e 	beq.w	10006e96 <_dtoa_r+0xe16>
100067da:	f1b8 0f00 	cmp.w	r8, #0
100067de:	f2c0 8357 	blt.w	10006e90 <_dtoa_r+0xe10>
100067e2:	9b09      	ldr	r3, [sp, #36]	@ 0x24
100067e4:	46a8      	mov	r8, r5
100067e6:	42ab      	cmp	r3, r5
100067e8:	f808 7b01 	strb.w	r7, [r8], #1
100067ec:	f000 833d 	beq.w	10006e6a <_dtoa_r+0xdea>
100067f0:	4659      	mov	r1, fp
100067f2:	2300      	movs	r3, #0
100067f4:	220a      	movs	r2, #10
100067f6:	4620      	mov	r0, r4
100067f8:	f000 fbf8 	bl	10006fec <__multadd>
100067fc:	454e      	cmp	r6, r9
100067fe:	4683      	mov	fp, r0
10006800:	4631      	mov	r1, r6
10006802:	f04f 0300 	mov.w	r3, #0
10006806:	f04f 020a 	mov.w	r2, #10
1000680a:	4620      	mov	r0, r4
1000680c:	f000 8256 	beq.w	10006cbc <_dtoa_r+0xc3c>
10006810:	f000 fbec 	bl	10006fec <__multadd>
10006814:	4649      	mov	r1, r9
10006816:	4606      	mov	r6, r0
10006818:	2300      	movs	r3, #0
1000681a:	220a      	movs	r2, #10
1000681c:	4620      	mov	r0, r4
1000681e:	f000 fbe5 	bl	10006fec <__multadd>
10006822:	4645      	mov	r5, r8
10006824:	4681      	mov	r9, r0
10006826:	e7b0      	b.n	1000678a <_dtoa_r+0x70a>
10006828:	4b21      	ldr	r3, [pc, #132]	@ (100068b0 <_dtoa_r+0x830>)
1000682a:	eb03 03c2 	add.w	r3, r3, r2, lsl #3
1000682e:	e9d3 9a00 	ldrd	r9, sl, [r3]
10006832:	9b27      	ldr	r3, [sp, #156]	@ 0x9c
10006834:	2b00      	cmp	r3, #0
10006836:	f280 8206 	bge.w	10006c46 <_dtoa_r+0xbc6>
1000683a:	9b09      	ldr	r3, [sp, #36]	@ 0x24
1000683c:	2b00      	cmp	r3, #0
1000683e:	f300 8202 	bgt.w	10006c46 <_dtoa_r+0xbc6>
10006842:	b973      	cbnz	r3, 10006862 <_dtoa_r+0x7e2>
10006844:	2200      	movs	r2, #0
10006846:	4b1c      	ldr	r3, [pc, #112]	@ (100068b8 <_dtoa_r+0x838>)
10006848:	4648      	mov	r0, r9
1000684a:	4651      	mov	r1, sl
1000684c:	f7fb fc68 	bl	10002120 <__wrap___aeabi_dmul>
10006850:	4602      	mov	r2, r0
10006852:	460b      	mov	r3, r1
10006854:	e9dd 0102 	ldrd	r0, r1, [sp, #8]
10006858:	f7fb fd44 	bl	100022e4 <__wrap___aeabi_dcmple>
1000685c:	2800      	cmp	r0, #0
1000685e:	f000 8289 	beq.w	10006d74 <_dtoa_r+0xcf4>
10006862:	2700      	movs	r7, #0
10006864:	463e      	mov	r6, r7
10006866:	e752      	b.n	1000670e <_dtoa_r+0x68e>
10006868:	4639      	mov	r1, r7
1000686a:	4658      	mov	r0, fp
1000686c:	f000 fe12 	bl	10007494 <__mcmp>
10006870:	2800      	cmp	r0, #0
10006872:	f6bf af44 	bge.w	100066fe <_dtoa_r+0x67e>
10006876:	9b0b      	ldr	r3, [sp, #44]	@ 0x2c
10006878:	4659      	mov	r1, fp
1000687a:	220a      	movs	r2, #10
1000687c:	4620      	mov	r0, r4
1000687e:	3b01      	subs	r3, #1
10006880:	930b      	str	r3, [sp, #44]	@ 0x2c
10006882:	2300      	movs	r3, #0
10006884:	f000 fbb2 	bl	10006fec <__multadd>
10006888:	9b0c      	ldr	r3, [sp, #48]	@ 0x30
1000688a:	4683      	mov	fp, r0
1000688c:	2b00      	cmp	r3, #0
1000688e:	f040 830d 	bne.w	10006eac <_dtoa_r+0xe2c>
10006892:	9b15      	ldr	r3, [sp, #84]	@ 0x54
10006894:	2b00      	cmp	r3, #0
10006896:	9b15      	ldr	r3, [sp, #84]	@ 0x54
10006898:	9309      	str	r3, [sp, #36]	@ 0x24
1000689a:	dc02      	bgt.n	100068a2 <_dtoa_r+0x822>
1000689c:	2d00      	cmp	r5, #0
1000689e:	f47f af32 	bne.w	10006706 <_dtoa_r+0x686>
100068a2:	f8dd 801c 	ldr.w	r8, [sp, #28]
100068a6:	2501      	movs	r5, #1
100068a8:	f8dd 9024 	ldr.w	r9, [sp, #36]	@ 0x24
100068ac:	e00e      	b.n	100068cc <_dtoa_r+0x84c>
100068ae:	bf00      	nop
100068b0:	10008678 	.word	0x10008678
100068b4:	10008650 	.word	0x10008650
100068b8:	40140000 	.word	0x40140000
100068bc:	4659      	mov	r1, fp
100068be:	2300      	movs	r3, #0
100068c0:	220a      	movs	r2, #10
100068c2:	4620      	mov	r0, r4
100068c4:	f000 fb92 	bl	10006fec <__multadd>
100068c8:	3501      	adds	r5, #1
100068ca:	4683      	mov	fp, r0
100068cc:	4639      	mov	r1, r7
100068ce:	4658      	mov	r0, fp
100068d0:	f7ff fb38 	bl	10005f44 <quorem>
100068d4:	454d      	cmp	r5, r9
100068d6:	f100 0330 	add.w	r3, r0, #48	@ 0x30
100068da:	f808 3b01 	strb.w	r3, [r8], #1
100068de:	dbed      	blt.n	100068bc <_dtoa_r+0x83c>
100068e0:	9a09      	ldr	r2, [sp, #36]	@ 0x24
100068e2:	2500      	movs	r5, #0
100068e4:	2a00      	cmp	r2, #0
100068e6:	bfcc      	ite	gt
100068e8:	4690      	movgt	r8, r2
100068ea:	f04f 0801 	movle.w	r8, #1
100068ee:	9a07      	ldr	r2, [sp, #28]
100068f0:	4490      	add	r8, r2
100068f2:	4659      	mov	r1, fp
100068f4:	2201      	movs	r2, #1
100068f6:	4620      	mov	r0, r4
100068f8:	9302      	str	r3, [sp, #8]
100068fa:	f000 fd57 	bl	100073ac <__lshift>
100068fe:	4639      	mov	r1, r7
10006900:	4683      	mov	fp, r0
10006902:	f000 fdc7 	bl	10007494 <__mcmp>
10006906:	2800      	cmp	r0, #0
10006908:	f340 8239 	ble.w	10006d7e <_dtoa_r+0xcfe>
1000690c:	9a07      	ldr	r2, [sp, #28]
1000690e:	e002      	b.n	10006916 <_dtoa_r+0x896>
10006910:	4590      	cmp	r8, r2
10006912:	f000 8243 	beq.w	10006d9c <_dtoa_r+0xd1c>
10006916:	f818 3c01 	ldrb.w	r3, [r8, #-1]
1000691a:	46c2      	mov	sl, r8
1000691c:	f108 38ff 	add.w	r8, r8, #4294967295
10006920:	2b39      	cmp	r3, #57	@ 0x39
10006922:	d0f5      	beq.n	10006910 <_dtoa_r+0x890>
10006924:	3301      	adds	r3, #1
10006926:	f888 3000 	strb.w	r3, [r8]
1000692a:	9b0b      	ldr	r3, [sp, #44]	@ 0x2c
1000692c:	930e      	str	r3, [sp, #56]	@ 0x38
1000692e:	4639      	mov	r1, r7
10006930:	4620      	mov	r0, r4
10006932:	f000 fb51 	bl	10006fd8 <_Bfree>
10006936:	2e00      	cmp	r6, #0
10006938:	f000 8237 	beq.w	10006daa <_dtoa_r+0xd2a>
1000693c:	b12d      	cbz	r5, 1000694a <_dtoa_r+0x8ca>
1000693e:	42b5      	cmp	r5, r6
10006940:	d003      	beq.n	1000694a <_dtoa_r+0x8ca>
10006942:	4629      	mov	r1, r5
10006944:	4620      	mov	r0, r4
10006946:	f000 fb47 	bl	10006fd8 <_Bfree>
1000694a:	f8dd 801c 	ldr.w	r8, [sp, #28]
1000694e:	f8cd a01c 	str.w	sl, [sp, #28]
10006952:	e6e6      	b.n	10006722 <_dtoa_r+0x6a2>
10006954:	4601      	mov	r1, r0
10006956:	461a      	mov	r2, r3
10006958:	4620      	mov	r0, r4
1000695a:	f000 fccd 	bl	100072f8 <__pow5mult>
1000695e:	9b26      	ldr	r3, [sp, #152]	@ 0x98
10006960:	4607      	mov	r7, r0
10006962:	2b01      	cmp	r3, #1
10006964:	f340 814b 	ble.w	10006bfe <_dtoa_r+0xb7e>
10006968:	2300      	movs	r3, #0
1000696a:	9308      	str	r3, [sp, #32]
1000696c:	693b      	ldr	r3, [r7, #16]
1000696e:	eb07 0383 	add.w	r3, r7, r3, lsl #2
10006972:	6918      	ldr	r0, [r3, #16]
10006974:	f000 fb8c 	bl	10007090 <__hi0bits>
10006978:	f1c0 0320 	rsb	r3, r0, #32
1000697c:	e691      	b.n	100066a2 <_dtoa_r+0x622>
1000697e:	ed9d 7b02 	vldr	d7, [sp, #8]
10006982:	f04f 0802 	mov.w	r8, #2
10006986:	ed8d 7b0e 	vstr	d7, [sp, #56]	@ 0x38
1000698a:	e4e4      	b.n	10006356 <_dtoa_r+0x2d6>
1000698c:	9b04      	ldr	r3, [sp, #16]
1000698e:	2b00      	cmp	r3, #0
10006990:	f47f ae86 	bne.w	100066a0 <_dtoa_r+0x620>
10006994:	e9dd 1204 	ldrd	r1, r2, [sp, #16]
10006998:	f3c2 0313 	ubfx	r3, r2, #0, #20
1000699c:	2b00      	cmp	r3, #0
1000699e:	f47f ae7f 	bne.w	100066a0 <_dtoa_r+0x620>
100069a2:	4bc2      	ldr	r3, [pc, #776]	@ (10006cac <_dtoa_r+0xc2c>)
100069a4:	4013      	ands	r3, r2
100069a6:	b12b      	cbz	r3, 100069b4 <_dtoa_r+0x934>
100069a8:	9b0a      	ldr	r3, [sp, #40]	@ 0x28
100069aa:	f10a 0a01 	add.w	sl, sl, #1
100069ae:	3301      	adds	r3, #1
100069b0:	930a      	str	r3, [sp, #40]	@ 0x28
100069b2:	2301      	movs	r3, #1
100069b4:	9a08      	ldr	r2, [sp, #32]
100069b6:	9308      	str	r3, [sp, #32]
100069b8:	2a00      	cmp	r2, #0
100069ba:	f43f ae71 	beq.w	100066a0 <_dtoa_r+0x620>
100069be:	e7d5      	b.n	1000696c <_dtoa_r+0x8ec>
100069c0:	2301      	movs	r3, #1
100069c2:	930c      	str	r3, [sp, #48]	@ 0x30
100069c4:	9b27      	ldr	r3, [sp, #156]	@ 0x9c
100069c6:	9a0b      	ldr	r2, [sp, #44]	@ 0x2c
100069c8:	4413      	add	r3, r2
100069ca:	9315      	str	r3, [sp, #84]	@ 0x54
100069cc:	3301      	adds	r3, #1
100069ce:	2b01      	cmp	r3, #1
100069d0:	461e      	mov	r6, r3
100069d2:	9309      	str	r3, [sp, #36]	@ 0x24
100069d4:	bfb8      	it	lt
100069d6:	2601      	movlt	r6, #1
100069d8:	2e17      	cmp	r6, #23
100069da:	f340 8294 	ble.w	10006f06 <_dtoa_r+0xe86>
100069de:	2201      	movs	r2, #1
100069e0:	2304      	movs	r3, #4
100069e2:	005b      	lsls	r3, r3, #1
100069e4:	4611      	mov	r1, r2
100069e6:	3201      	adds	r2, #1
100069e8:	f103 0014 	add.w	r0, r3, #20
100069ec:	42b0      	cmp	r0, r6
100069ee:	d9f8      	bls.n	100069e2 <_dtoa_r+0x962>
100069f0:	63e1      	str	r1, [r4, #60]	@ 0x3c
100069f2:	e481      	b.n	100062f8 <_dtoa_r+0x278>
100069f4:	2301      	movs	r3, #1
100069f6:	930c      	str	r3, [sp, #48]	@ 0x30
100069f8:	9b27      	ldr	r3, [sp, #156]	@ 0x9c
100069fa:	2b00      	cmp	r3, #0
100069fc:	f340 817b 	ble.w	10006cf6 <_dtoa_r+0xc76>
10006a00:	461e      	mov	r6, r3
10006a02:	9315      	str	r3, [sp, #84]	@ 0x54
10006a04:	9309      	str	r3, [sp, #36]	@ 0x24
10006a06:	e7e7      	b.n	100069d8 <_dtoa_r+0x958>
10006a08:	2300      	movs	r3, #0
10006a0a:	930c      	str	r3, [sp, #48]	@ 0x30
10006a0c:	e7da      	b.n	100069c4 <_dtoa_r+0x944>
10006a0e:	2300      	movs	r3, #0
10006a10:	930c      	str	r3, [sp, #48]	@ 0x30
10006a12:	e7f1      	b.n	100069f8 <_dtoa_r+0x978>
10006a14:	4640      	mov	r0, r8
10006a16:	4649      	mov	r1, r9
10006a18:	f7fb fb82 	bl	10002120 <__wrap___aeabi_dmul>
10006a1c:	9b07      	ldr	r3, [sp, #28]
10006a1e:	701d      	strb	r5, [r3, #0]
10006a20:	9b18      	ldr	r3, [sp, #96]	@ 0x60
10006a22:	2b01      	cmp	r3, #1
10006a24:	e9cd 010c 	strd	r0, r1, [sp, #48]	@ 0x30
10006a28:	f000 823e 	beq.w	10006ea8 <_dtoa_r+0xe28>
10006a2c:	9d18      	ldr	r5, [sp, #96]	@ 0x60
10006a2e:	9b07      	ldr	r3, [sp, #28]
10006a30:	f8dd 8048 	ldr.w	r8, [sp, #72]	@ 0x48
10006a34:	441d      	add	r5, r3
10006a36:	2200      	movs	r2, #0
10006a38:	4b9d      	ldr	r3, [pc, #628]	@ (10006cb0 <_dtoa_r+0xc30>)
10006a3a:	4630      	mov	r0, r6
10006a3c:	4639      	mov	r1, r7
10006a3e:	f7fb fb6f 	bl	10002120 <__wrap___aeabi_dmul>
10006a42:	460f      	mov	r7, r1
10006a44:	4606      	mov	r6, r0
10006a46:	f7fb fc03 	bl	10002250 <__wrap___aeabi_d2iz>
10006a4a:	4681      	mov	r9, r0
10006a4c:	f7fb fbdc 	bl	10002208 <__wrap___aeabi_i2d>
10006a50:	4602      	mov	r2, r0
10006a52:	460b      	mov	r3, r1
10006a54:	f109 0930 	add.w	r9, r9, #48	@ 0x30
10006a58:	4630      	mov	r0, r6
10006a5a:	4639      	mov	r1, r7
10006a5c:	f7fb fb4c 	bl	100020f8 <__wrap___aeabi_dsub>
10006a60:	f808 9b01 	strb.w	r9, [r8], #1
10006a64:	4545      	cmp	r5, r8
10006a66:	4606      	mov	r6, r0
10006a68:	460f      	mov	r7, r1
10006a6a:	d1e4      	bne.n	10006a36 <_dtoa_r+0x9b6>
10006a6c:	2200      	movs	r2, #0
10006a6e:	4b91      	ldr	r3, [pc, #580]	@ (10006cb4 <_dtoa_r+0xc34>)
10006a70:	e9dd 890c 	ldrd	r8, r9, [sp, #48]	@ 0x30
10006a74:	4640      	mov	r0, r8
10006a76:	4649      	mov	r1, r9
10006a78:	f7fb fb2a 	bl	100020d0 <__wrap___aeabi_dadd>
10006a7c:	4632      	mov	r2, r6
10006a7e:	463b      	mov	r3, r7
10006a80:	f7fb fc1c 	bl	100022bc <__wrap___aeabi_dcmplt>
10006a84:	2800      	cmp	r0, #0
10006a86:	f040 819f 	bne.w	10006dc8 <_dtoa_r+0xd48>
10006a8a:	4642      	mov	r2, r8
10006a8c:	464b      	mov	r3, r9
10006a8e:	2000      	movs	r0, #0
10006a90:	4988      	ldr	r1, [pc, #544]	@ (10006cb4 <_dtoa_r+0xc34>)
10006a92:	f7fb fb31 	bl	100020f8 <__wrap___aeabi_dsub>
10006a96:	4632      	mov	r2, r6
10006a98:	463b      	mov	r3, r7
10006a9a:	f7fb fc37 	bl	1000230c <__wrap___aeabi_dcmpgt>
10006a9e:	2800      	cmp	r0, #0
10006aa0:	f040 808c 	bne.w	10006bbc <_dtoa_r+0xb3c>
10006aa4:	9b1b      	ldr	r3, [sp, #108]	@ 0x6c
10006aa6:	2b00      	cmp	r3, #0
10006aa8:	f6ff adc9 	blt.w	1000663e <_dtoa_r+0x5be>
10006aac:	9b0b      	ldr	r3, [sp, #44]	@ 0x2c
10006aae:	2b0e      	cmp	r3, #14
10006ab0:	f73f adc5 	bgt.w	1000663e <_dtoa_r+0x5be>
10006ab4:	4b80      	ldr	r3, [pc, #512]	@ (10006cb8 <_dtoa_r+0xc38>)
10006ab6:	9a0b      	ldr	r2, [sp, #44]	@ 0x2c
10006ab8:	f8dd 801c 	ldr.w	r8, [sp, #28]
10006abc:	eb03 03c2 	add.w	r3, r3, r2, lsl #3
10006ac0:	e9d3 9a00 	ldrd	r9, sl, [r3]
10006ac4:	e9dd 6702 	ldrd	r6, r7, [sp, #8]
10006ac8:	464a      	mov	r2, r9
10006aca:	4653      	mov	r3, sl
10006acc:	4630      	mov	r0, r6
10006ace:	4639      	mov	r1, r7
10006ad0:	f7fb fb4c 	bl	1000216c <__wrap___aeabi_ddiv>
10006ad4:	f7fb fbbc 	bl	10002250 <__wrap___aeabi_d2iz>
10006ad8:	4605      	mov	r5, r0
10006ada:	f7fb fb95 	bl	10002208 <__wrap___aeabi_i2d>
10006ade:	464a      	mov	r2, r9
10006ae0:	4653      	mov	r3, sl
10006ae2:	f7fb fb1d 	bl	10002120 <__wrap___aeabi_dmul>
10006ae6:	4602      	mov	r2, r0
10006ae8:	460b      	mov	r3, r1
10006aea:	4630      	mov	r0, r6
10006aec:	4639      	mov	r1, r7
10006aee:	f7fb fb03 	bl	100020f8 <__wrap___aeabi_dsub>
10006af2:	f105 0330 	add.w	r3, r5, #48	@ 0x30
10006af6:	9a07      	ldr	r2, [sp, #28]
10006af8:	7013      	strb	r3, [r2, #0]
10006afa:	9b09      	ldr	r3, [sp, #36]	@ 0x24
10006afc:	2b01      	cmp	r3, #1
10006afe:	9b12      	ldr	r3, [sp, #72]	@ 0x48
10006b00:	f000 81f8 	beq.w	10006ef4 <_dtoa_r+0xe74>
10006b04:	f1c3 0201 	rsb	r2, r3, #1
10006b08:	f8cd b008 	str.w	fp, [sp, #8]
10006b0c:	f8cd 8010 	str.w	r8, [sp, #16]
10006b10:	4698      	mov	r8, r3
10006b12:	9408      	str	r4, [sp, #32]
10006b14:	4614      	mov	r4, r2
10006b16:	f8dd b024 	ldr.w	fp, [sp, #36]	@ 0x24
10006b1a:	e01d      	b.n	10006b58 <_dtoa_r+0xad8>
10006b1c:	464a      	mov	r2, r9
10006b1e:	4653      	mov	r3, sl
10006b20:	4630      	mov	r0, r6
10006b22:	4639      	mov	r1, r7
10006b24:	f7fb fb22 	bl	1000216c <__wrap___aeabi_ddiv>
10006b28:	f7fb fb92 	bl	10002250 <__wrap___aeabi_d2iz>
10006b2c:	4605      	mov	r5, r0
10006b2e:	f7fb fb6b 	bl	10002208 <__wrap___aeabi_i2d>
10006b32:	464a      	mov	r2, r9
10006b34:	4653      	mov	r3, sl
10006b36:	f7fb faf3 	bl	10002120 <__wrap___aeabi_dmul>
10006b3a:	460b      	mov	r3, r1
10006b3c:	4602      	mov	r2, r0
10006b3e:	4639      	mov	r1, r7
10006b40:	4630      	mov	r0, r6
10006b42:	f7fb fad9 	bl	100020f8 <__wrap___aeabi_dsub>
10006b46:	f105 0330 	add.w	r3, r5, #48	@ 0x30
10006b4a:	f808 3b01 	strb.w	r3, [r8], #1
10006b4e:	eb08 0304 	add.w	r3, r8, r4
10006b52:	455b      	cmp	r3, fp
10006b54:	f000 8163 	beq.w	10006e1e <_dtoa_r+0xd9e>
10006b58:	2200      	movs	r2, #0
10006b5a:	4b55      	ldr	r3, [pc, #340]	@ (10006cb0 <_dtoa_r+0xc30>)
10006b5c:	f7fb fae0 	bl	10002120 <__wrap___aeabi_dmul>
10006b60:	2200      	movs	r2, #0
10006b62:	2300      	movs	r3, #0
10006b64:	4606      	mov	r6, r0
10006b66:	460f      	mov	r7, r1
10006b68:	f7fb fb96 	bl	10002298 <__wrap___aeabi_dcmpeq>
10006b6c:	2800      	cmp	r0, #0
10006b6e:	d0d5      	beq.n	10006b1c <_dtoa_r+0xa9c>
10006b70:	f8cd 801c 	str.w	r8, [sp, #28]
10006b74:	f8dd b008 	ldr.w	fp, [sp, #8]
10006b78:	f8dd 8010 	ldr.w	r8, [sp, #16]
10006b7c:	9c08      	ldr	r4, [sp, #32]
10006b7e:	9b0b      	ldr	r3, [sp, #44]	@ 0x2c
10006b80:	930e      	str	r3, [sp, #56]	@ 0x38
10006b82:	e5d2      	b.n	1000672a <_dtoa_r+0x6aa>
10006b84:	f1c3 031c 	rsb	r3, r3, #28
10006b88:	e599      	b.n	100066be <_dtoa_r+0x63e>
10006b8a:	4639      	mov	r1, r7
10006b8c:	2205      	movs	r2, #5
10006b8e:	4620      	mov	r0, r4
10006b90:	f000 fa2c 	bl	10006fec <__multadd>
10006b94:	4607      	mov	r7, r0
10006b96:	4658      	mov	r0, fp
10006b98:	4639      	mov	r1, r7
10006b9a:	f000 fc7b 	bl	10007494 <__mcmp>
10006b9e:	2800      	cmp	r0, #0
10006ba0:	f77f adb5 	ble.w	1000670e <_dtoa_r+0x68e>
10006ba4:	f8dd 801c 	ldr.w	r8, [sp, #28]
10006ba8:	9b07      	ldr	r3, [sp, #28]
10006baa:	3301      	adds	r3, #1
10006bac:	9307      	str	r3, [sp, #28]
10006bae:	9b0b      	ldr	r3, [sp, #44]	@ 0x2c
10006bb0:	3301      	adds	r3, #1
10006bb2:	930e      	str	r3, [sp, #56]	@ 0x38
10006bb4:	2331      	movs	r3, #49	@ 0x31
10006bb6:	f888 3000 	strb.w	r3, [r8]
10006bba:	e5ad      	b.n	10006718 <_dtoa_r+0x698>
10006bbc:	462a      	mov	r2, r5
10006bbe:	f815 3d01 	ldrb.w	r3, [r5, #-1]!
10006bc2:	2b30      	cmp	r3, #48	@ 0x30
10006bc4:	d0fa      	beq.n	10006bbc <_dtoa_r+0xb3c>
10006bc6:	e490      	b.n	100064ea <_dtoa_r+0x46a>
10006bc8:	ed9d 7b02 	vldr	d7, [sp, #8]
10006bcc:	f04f 0802 	mov.w	r8, #2
10006bd0:	ed8d 7b12 	vstr	d7, [sp, #72]	@ 0x48
10006bd4:	f7ff bbda 	b.w	1000638c <_dtoa_r+0x30c>
10006bd8:	9b10      	ldr	r3, [sp, #64]	@ 0x40
10006bda:	9a08      	ldr	r2, [sp, #32]
10006bdc:	1aeb      	subs	r3, r5, r3
10006bde:	9510      	str	r5, [sp, #64]	@ 0x40
10006be0:	2500      	movs	r5, #0
10006be2:	441a      	add	r2, r3
10006be4:	9b09      	ldr	r3, [sp, #36]	@ 0x24
10006be6:	9208      	str	r2, [sp, #32]
10006be8:	449a      	add	sl, r3
10006bea:	9a0a      	ldr	r2, [sp, #40]	@ 0x28
10006bec:	4690      	mov	r8, r2
10006bee:	441a      	add	r2, r3
10006bf0:	920a      	str	r2, [sp, #40]	@ 0x28
10006bf2:	2101      	movs	r1, #1
10006bf4:	4620      	mov	r0, r4
10006bf6:	f000 fa9f 	bl	10007138 <__i2b>
10006bfa:	4606      	mov	r6, r0
10006bfc:	e525      	b.n	1000664a <_dtoa_r+0x5ca>
10006bfe:	9b04      	ldr	r3, [sp, #16]
10006c00:	2b00      	cmp	r3, #0
10006c02:	f47f aeb1 	bne.w	10006968 <_dtoa_r+0x8e8>
10006c06:	e9dd 0104 	ldrd	r0, r1, [sp, #16]
10006c0a:	f3c1 0313 	ubfx	r3, r1, #0, #20
10006c0e:	460a      	mov	r2, r1
10006c10:	2b00      	cmp	r3, #0
10006c12:	f43f aec6 	beq.w	100069a2 <_dtoa_r+0x922>
10006c16:	9008      	str	r0, [sp, #32]
10006c18:	e6a8      	b.n	1000696c <_dtoa_r+0x8ec>
10006c1a:	4631      	mov	r1, r6
10006c1c:	462a      	mov	r2, r5
10006c1e:	4620      	mov	r0, r4
10006c20:	f000 fb6a 	bl	100072f8 <__pow5mult>
10006c24:	4606      	mov	r6, r0
10006c26:	465a      	mov	r2, fp
10006c28:	4620      	mov	r0, r4
10006c2a:	4631      	mov	r1, r6
10006c2c:	f000 fab2 	bl	10007194 <__multiply>
10006c30:	4659      	mov	r1, fp
10006c32:	4683      	mov	fp, r0
10006c34:	4620      	mov	r0, r4
10006c36:	f000 f9cf 	bl	10006fd8 <_Bfree>
10006c3a:	9b10      	ldr	r3, [sp, #64]	@ 0x40
10006c3c:	1b5b      	subs	r3, r3, r5
10006c3e:	9310      	str	r3, [sp, #64]	@ 0x40
10006c40:	f43f ad21 	beq.w	10006686 <_dtoa_r+0x606>
10006c44:	e519      	b.n	1000667a <_dtoa_r+0x5fa>
10006c46:	9b07      	ldr	r3, [sp, #28]
10006c48:	1c5a      	adds	r2, r3, #1
10006c4a:	4698      	mov	r8, r3
10006c4c:	9212      	str	r2, [sp, #72]	@ 0x48
10006c4e:	e739      	b.n	10006ac4 <_dtoa_r+0xa44>
10006c50:	4620      	mov	r0, r4
10006c52:	9708      	str	r7, [sp, #32]
10006c54:	9f02      	ldr	r7, [sp, #8]
10006c56:	f000 f9bf 	bl	10006fd8 <_Bfree>
10006c5a:	f1b8 0f00 	cmp.w	r8, #0
10006c5e:	9b08      	ldr	r3, [sp, #32]
10006c60:	db08      	blt.n	10006c74 <_dtoa_r+0xbf4>
10006c62:	9a04      	ldr	r2, [sp, #16]
10006c64:	9926      	ldr	r1, [sp, #152]	@ 0x98
10006c66:	f002 0201 	and.w	r2, r2, #1
10006c6a:	ea41 0808 	orr.w	r8, r1, r8
10006c6e:	ea52 0208 	orrs.w	r2, r2, r8
10006c72:	d13a      	bne.n	10006cea <_dtoa_r+0xc6a>
10006c74:	4659      	mov	r1, fp
10006c76:	2201      	movs	r2, #1
10006c78:	4620      	mov	r0, r4
10006c7a:	9302      	str	r3, [sp, #8]
10006c7c:	f000 fb96 	bl	100073ac <__lshift>
10006c80:	4639      	mov	r1, r7
10006c82:	4683      	mov	fp, r0
10006c84:	f000 fc06 	bl	10007494 <__mcmp>
10006c88:	2800      	cmp	r0, #0
10006c8a:	9b02      	ldr	r3, [sp, #8]
10006c8c:	f340 8127 	ble.w	10006ede <_dtoa_r+0xe5e>
10006c90:	2b39      	cmp	r3, #57	@ 0x39
10006c92:	f000 80ef 	beq.w	10006e74 <_dtoa_r+0xdf4>
10006c96:	f10a 0331 	add.w	r3, sl, #49	@ 0x31
10006c9a:	46aa      	mov	sl, r5
10006c9c:	f80a 3b01 	strb.w	r3, [sl], #1
10006ca0:	4635      	mov	r5, r6
10006ca2:	9b0b      	ldr	r3, [sp, #44]	@ 0x2c
10006ca4:	464e      	mov	r6, r9
10006ca6:	930e      	str	r3, [sp, #56]	@ 0x38
10006ca8:	e641      	b.n	1000692e <_dtoa_r+0x8ae>
10006caa:	bf00      	nop
10006cac:	7ff00000 	.word	0x7ff00000
10006cb0:	40240000 	.word	0x40240000
10006cb4:	3fe00000 	.word	0x3fe00000
10006cb8:	10008678 	.word	0x10008678
10006cbc:	f000 f996 	bl	10006fec <__multadd>
10006cc0:	4645      	mov	r5, r8
10006cc2:	4606      	mov	r6, r0
10006cc4:	4681      	mov	r9, r0
10006cc6:	e560      	b.n	1000678a <_dtoa_r+0x70a>
10006cc8:	f1b8 0f00 	cmp.w	r8, #0
10006ccc:	f2c0 811f 	blt.w	10006f0e <_dtoa_r+0xe8e>
10006cd0:	9b26      	ldr	r3, [sp, #152]	@ 0x98
10006cd2:	ea43 0808 	orr.w	r8, r3, r8
10006cd6:	9b0a      	ldr	r3, [sp, #40]	@ 0x28
10006cd8:	ea53 0808 	orrs.w	r8, r3, r8
10006cdc:	f000 8117 	beq.w	10006f0e <_dtoa_r+0xe8e>
10006ce0:	2a00      	cmp	r2, #0
10006ce2:	f77f ad7e 	ble.w	100067e2 <_dtoa_r+0x762>
10006ce6:	463b      	mov	r3, r7
10006ce8:	9f02      	ldr	r7, [sp, #8]
10006cea:	2b39      	cmp	r3, #57	@ 0x39
10006cec:	f000 80c2 	beq.w	10006e74 <_dtoa_r+0xdf4>
10006cf0:	46aa      	mov	sl, r5
10006cf2:	3301      	adds	r3, #1
10006cf4:	e7d2      	b.n	10006c9c <_dtoa_r+0xc1c>
10006cf6:	2301      	movs	r3, #1
10006cf8:	9327      	str	r3, [sp, #156]	@ 0x9c
10006cfa:	9309      	str	r3, [sp, #36]	@ 0x24
10006cfc:	f7ff baf8 	b.w	100062f0 <_dtoa_r+0x270>
10006d00:	f1c8 0301 	rsb	r3, r8, #1
10006d04:	4682      	mov	sl, r0
10006d06:	9011      	str	r0, [sp, #68]	@ 0x44
10006d08:	930a      	str	r3, [sp, #40]	@ 0x28
10006d0a:	f7ff bae1 	b.w	100062d0 <_dtoa_r+0x250>
10006d0e:	9b09      	ldr	r3, [sp, #36]	@ 0x24
10006d10:	2b00      	cmp	r3, #0
10006d12:	f43f abfa 	beq.w	1000650a <_dtoa_r+0x48a>
10006d16:	9d15      	ldr	r5, [sp, #84]	@ 0x54
10006d18:	2d00      	cmp	r5, #0
10006d1a:	f77f ac1d 	ble.w	10006558 <_dtoa_r+0x4d8>
10006d1e:	9b0b      	ldr	r3, [sp, #44]	@ 0x2c
10006d20:	4630      	mov	r0, r6
10006d22:	4639      	mov	r1, r7
10006d24:	2200      	movs	r2, #0
10006d26:	3b01      	subs	r3, #1
10006d28:	930e      	str	r3, [sp, #56]	@ 0x38
10006d2a:	4b89      	ldr	r3, [pc, #548]	@ (10006f50 <_dtoa_r+0xed0>)
10006d2c:	f7fb f9f8 	bl	10002120 <__wrap___aeabi_dmul>
10006d30:	4602      	mov	r2, r0
10006d32:	460f      	mov	r7, r1
10006d34:	f108 0001 	add.w	r0, r8, #1
10006d38:	4616      	mov	r6, r2
10006d3a:	e9cd 6712 	strd	r6, r7, [sp, #72]	@ 0x48
10006d3e:	f7fb fa63 	bl	10002208 <__wrap___aeabi_i2d>
10006d42:	4632      	mov	r2, r6
10006d44:	463b      	mov	r3, r7
10006d46:	f7fb f9eb 	bl	10002120 <__wrap___aeabi_dmul>
10006d4a:	2200      	movs	r2, #0
10006d4c:	4b81      	ldr	r3, [pc, #516]	@ (10006f54 <_dtoa_r+0xed4>)
10006d4e:	f7fb f9bf 	bl	100020d0 <__wrap___aeabi_dadd>
10006d52:	9518      	str	r5, [sp, #96]	@ 0x60
10006d54:	4606      	mov	r6, r0
10006d56:	f1a1 7750 	sub.w	r7, r1, #54525952	@ 0x3400000
10006d5a:	f7ff bb3a 	b.w	100063d2 <_dtoa_r+0x352>
10006d5e:	9a14      	ldr	r2, [sp, #80]	@ 0x50
10006d60:	b372      	cbz	r2, 10006dc0 <_dtoa_r+0xd40>
10006d62:	f203 4333 	addw	r3, r3, #1075	@ 0x433
10006d66:	9a0a      	ldr	r2, [sp, #40]	@ 0x28
10006d68:	449a      	add	sl, r3
10006d6a:	9d10      	ldr	r5, [sp, #64]	@ 0x40
10006d6c:	4690      	mov	r8, r2
10006d6e:	441a      	add	r2, r3
10006d70:	920a      	str	r2, [sp, #40]	@ 0x28
10006d72:	e73e      	b.n	10006bf2 <_dtoa_r+0xb72>
10006d74:	2700      	movs	r7, #0
10006d76:	f8dd 801c 	ldr.w	r8, [sp, #28]
10006d7a:	463e      	mov	r6, r7
10006d7c:	e714      	b.n	10006ba8 <_dtoa_r+0xb28>
10006d7e:	d103      	bne.n	10006d88 <_dtoa_r+0xd08>
10006d80:	9b02      	ldr	r3, [sp, #8]
10006d82:	07db      	lsls	r3, r3, #31
10006d84:	f53f adc2 	bmi.w	1000690c <_dtoa_r+0x88c>
10006d88:	f818 3c01 	ldrb.w	r3, [r8, #-1]
10006d8c:	46c2      	mov	sl, r8
10006d8e:	f108 38ff 	add.w	r8, r8, #4294967295
10006d92:	2b30      	cmp	r3, #48	@ 0x30
10006d94:	d0f8      	beq.n	10006d88 <_dtoa_r+0xd08>
10006d96:	9b0b      	ldr	r3, [sp, #44]	@ 0x2c
10006d98:	930e      	str	r3, [sp, #56]	@ 0x38
10006d9a:	e5c8      	b.n	1000692e <_dtoa_r+0x8ae>
10006d9c:	9b0b      	ldr	r3, [sp, #44]	@ 0x2c
10006d9e:	9a07      	ldr	r2, [sp, #28]
10006da0:	3301      	adds	r3, #1
10006da2:	930e      	str	r3, [sp, #56]	@ 0x38
10006da4:	2331      	movs	r3, #49	@ 0x31
10006da6:	7013      	strb	r3, [r2, #0]
10006da8:	e5c1      	b.n	1000692e <_dtoa_r+0x8ae>
10006daa:	f8dd 801c 	ldr.w	r8, [sp, #28]
10006dae:	f8cd a01c 	str.w	sl, [sp, #28]
10006db2:	e4ba      	b.n	1000672a <_dtoa_r+0x6aa>
10006db4:	9b0e      	ldr	r3, [sp, #56]	@ 0x38
10006db6:	3301      	adds	r3, #1
10006db8:	930e      	str	r3, [sp, #56]	@ 0x38
10006dba:	2331      	movs	r3, #49	@ 0x31
10006dbc:	f7ff bb94 	b.w	100064e8 <_dtoa_r+0x468>
10006dc0:	9b1a      	ldr	r3, [sp, #104]	@ 0x68
10006dc2:	f1c3 0336 	rsb	r3, r3, #54	@ 0x36
10006dc6:	e7ce      	b.n	10006d66 <_dtoa_r+0xce6>
10006dc8:	9907      	ldr	r1, [sp, #28]
10006dca:	f7ff bb86 	b.w	100064da <_dtoa_r+0x45a>
10006dce:	6871      	ldr	r1, [r6, #4]
10006dd0:	4620      	mov	r0, r4
10006dd2:	f000 f8db 	bl	10006f8c <_Balloc>
10006dd6:	4605      	mov	r5, r0
10006dd8:	2800      	cmp	r0, #0
10006dda:	f000 808d 	beq.w	10006ef8 <_dtoa_r+0xe78>
10006dde:	6933      	ldr	r3, [r6, #16]
10006de0:	f106 010c 	add.w	r1, r6, #12
10006de4:	300c      	adds	r0, #12
10006de6:	3302      	adds	r3, #2
10006de8:	009a      	lsls	r2, r3, #2
10006dea:	f7fc fb2f 	bl	1000344c <memcpy>
10006dee:	4629      	mov	r1, r5
10006df0:	2201      	movs	r2, #1
10006df2:	4620      	mov	r0, r4
10006df4:	f000 fada 	bl	100073ac <__lshift>
10006df8:	4681      	mov	r9, r0
10006dfa:	e4bc      	b.n	10006776 <_dtoa_r+0x6f6>
10006dfc:	f8dd a064 	ldr.w	sl, [sp, #100]	@ 0x64
10006e00:	f8dd b058 	ldr.w	fp, [sp, #88]	@ 0x58
10006e04:	9c18      	ldr	r4, [sp, #96]	@ 0x60
10006e06:	f7ff bba7 	b.w	10006558 <_dtoa_r+0x4d8>
10006e0a:	f8dd 801c 	ldr.w	r8, [sp, #28]
10006e0e:	f8dd b058 	ldr.w	fp, [sp, #88]	@ 0x58
10006e12:	9c18      	ldr	r4, [sp, #96]	@ 0x60
10006e14:	f8cd a048 	str.w	sl, [sp, #72]	@ 0x48
10006e18:	f8cd a01c 	str.w	sl, [sp, #28]
10006e1c:	e485      	b.n	1000672a <_dtoa_r+0x6aa>
10006e1e:	f8cd 801c 	str.w	r8, [sp, #28]
10006e22:	f8dd b008 	ldr.w	fp, [sp, #8]
10006e26:	f8dd 8010 	ldr.w	r8, [sp, #16]
10006e2a:	9c08      	ldr	r4, [sp, #32]
10006e2c:	4602      	mov	r2, r0
10006e2e:	460b      	mov	r3, r1
10006e30:	f7fb f94e 	bl	100020d0 <__wrap___aeabi_dadd>
10006e34:	464a      	mov	r2, r9
10006e36:	4653      	mov	r3, sl
10006e38:	4606      	mov	r6, r0
10006e3a:	460f      	mov	r7, r1
10006e3c:	f7fb fa66 	bl	1000230c <__wrap___aeabi_dcmpgt>
10006e40:	b958      	cbnz	r0, 10006e5a <_dtoa_r+0xdda>
10006e42:	464a      	mov	r2, r9
10006e44:	4653      	mov	r3, sl
10006e46:	4630      	mov	r0, r6
10006e48:	4639      	mov	r1, r7
10006e4a:	f7fb fa25 	bl	10002298 <__wrap___aeabi_dcmpeq>
10006e4e:	2800      	cmp	r0, #0
10006e50:	f43f ae95 	beq.w	10006b7e <_dtoa_r+0xafe>
10006e54:	07e9      	lsls	r1, r5, #31
10006e56:	f57f ae92 	bpl.w	10006b7e <_dtoa_r+0xafe>
10006e5a:	9b0b      	ldr	r3, [sp, #44]	@ 0x2c
10006e5c:	4641      	mov	r1, r8
10006e5e:	9d07      	ldr	r5, [sp, #28]
10006e60:	930e      	str	r3, [sp, #56]	@ 0x38
10006e62:	f8cd 801c 	str.w	r8, [sp, #28]
10006e66:	f7ff bb38 	b.w	100064da <_dtoa_r+0x45a>
10006e6a:	463b      	mov	r3, r7
10006e6c:	4635      	mov	r5, r6
10006e6e:	9f02      	ldr	r7, [sp, #8]
10006e70:	464e      	mov	r6, r9
10006e72:	e53e      	b.n	100068f2 <_dtoa_r+0x872>
10006e74:	46a8      	mov	r8, r5
10006e76:	2339      	movs	r3, #57	@ 0x39
10006e78:	4635      	mov	r5, r6
10006e7a:	9a07      	ldr	r2, [sp, #28]
10006e7c:	464e      	mov	r6, r9
10006e7e:	f808 3b01 	strb.w	r3, [r8], #1
10006e82:	e548      	b.n	10006916 <_dtoa_r+0x896>
10006e84:	9a0a      	ldr	r2, [sp, #40]	@ 0x28
10006e86:	449a      	add	sl, r3
10006e88:	4690      	mov	r8, r2
10006e8a:	441a      	add	r2, r3
10006e8c:	920a      	str	r2, [sp, #40]	@ 0x28
10006e8e:	e6b0      	b.n	10006bf2 <_dtoa_r+0xb72>
10006e90:	463b      	mov	r3, r7
10006e92:	9f02      	ldr	r7, [sp, #8]
10006e94:	e701      	b.n	10006c9a <_dtoa_r+0xc1a>
10006e96:	463b      	mov	r3, r7
10006e98:	9f02      	ldr	r7, [sp, #8]
10006e9a:	2b39      	cmp	r3, #57	@ 0x39
10006e9c:	d0ea      	beq.n	10006e74 <_dtoa_r+0xdf4>
10006e9e:	f1b8 0f00 	cmp.w	r8, #0
10006ea2:	f73f aef8 	bgt.w	10006c96 <_dtoa_r+0xc16>
10006ea6:	e6f8      	b.n	10006c9a <_dtoa_r+0xc1a>
10006ea8:	9d12      	ldr	r5, [sp, #72]	@ 0x48
10006eaa:	e5df      	b.n	10006a6c <_dtoa_r+0x9ec>
10006eac:	4631      	mov	r1, r6
10006eae:	2300      	movs	r3, #0
10006eb0:	220a      	movs	r2, #10
10006eb2:	4620      	mov	r0, r4
10006eb4:	f000 f89a 	bl	10006fec <__multadd>
10006eb8:	9b15      	ldr	r3, [sp, #84]	@ 0x54
10006eba:	4606      	mov	r6, r0
10006ebc:	2b00      	cmp	r3, #0
10006ebe:	9b15      	ldr	r3, [sp, #84]	@ 0x54
10006ec0:	9309      	str	r3, [sp, #36]	@ 0x24
10006ec2:	f73f ac4a 	bgt.w	1000675a <_dtoa_r+0x6da>
10006ec6:	2d00      	cmp	r5, #0
10006ec8:	f47f ac1d 	bne.w	10006706 <_dtoa_r+0x686>
10006ecc:	e445      	b.n	1000675a <_dtoa_r+0x6da>
10006ece:	ed9d 7b0e 	vldr	d7, [sp, #56]	@ 0x38
10006ed2:	f04f 0802 	mov.w	r8, #2
10006ed6:	ed8d 7b12 	vstr	d7, [sp, #72]	@ 0x48
10006eda:	f7ff ba57 	b.w	1000638c <_dtoa_r+0x30c>
10006ede:	f47f aedc 	bne.w	10006c9a <_dtoa_r+0xc1a>
10006ee2:	07da      	lsls	r2, r3, #31
10006ee4:	f57f aed9 	bpl.w	10006c9a <_dtoa_r+0xc1a>
10006ee8:	e6d2      	b.n	10006c90 <_dtoa_r+0xc10>
10006eea:	9b12      	ldr	r3, [sp, #72]	@ 0x48
10006eec:	f8dd 801c 	ldr.w	r8, [sp, #28]
10006ef0:	9307      	str	r3, [sp, #28]
10006ef2:	e41a      	b.n	1000672a <_dtoa_r+0x6aa>
10006ef4:	9307      	str	r3, [sp, #28]
10006ef6:	e799      	b.n	10006e2c <_dtoa_r+0xdac>
10006ef8:	4602      	mov	r2, r0
10006efa:	4b17      	ldr	r3, [pc, #92]	@ (10006f58 <_dtoa_r+0xed8>)
10006efc:	f240 21ef 	movw	r1, #751	@ 0x2ef
10006f00:	4816      	ldr	r0, [pc, #88]	@ (10006f5c <_dtoa_r+0xedc>)
10006f02:	f7fb fa61 	bl	100023c8 <__assert_func>
10006f06:	2100      	movs	r1, #0
10006f08:	63e1      	str	r1, [r4, #60]	@ 0x3c
10006f0a:	f7ff b9f5 	b.w	100062f8 <_dtoa_r+0x278>
10006f0e:	2a00      	cmp	r2, #0
10006f10:	463b      	mov	r3, r7
10006f12:	9f02      	ldr	r7, [sp, #8]
10006f14:	f73f aeae 	bgt.w	10006c74 <_dtoa_r+0xbf4>
10006f18:	e6bf      	b.n	10006c9a <_dtoa_r+0xc1a>
10006f1a:	2500      	movs	r5, #0
10006f1c:	4620      	mov	r0, r4
10006f1e:	4629      	mov	r1, r5
10006f20:	63e5      	str	r5, [r4, #60]	@ 0x3c
10006f22:	f000 f833 	bl	10006f8c <_Balloc>
10006f26:	9007      	str	r0, [sp, #28]
10006f28:	b930      	cbnz	r0, 10006f38 <_dtoa_r+0xeb8>
10006f2a:	4b0b      	ldr	r3, [pc, #44]	@ (10006f58 <_dtoa_r+0xed8>)
10006f2c:	2200      	movs	r2, #0
10006f2e:	f240 11af 	movw	r1, #431	@ 0x1af
10006f32:	480a      	ldr	r0, [pc, #40]	@ (10006f5c <_dtoa_r+0xedc>)
10006f34:	f7fb fa48 	bl	100023c8 <__assert_func>
10006f38:	9b07      	ldr	r3, [sp, #28]
10006f3a:	2201      	movs	r2, #1
10006f3c:	9527      	str	r5, [sp, #156]	@ 0x9c
10006f3e:	63a3      	str	r3, [r4, #56]	@ 0x38
10006f40:	f04f 33ff 	mov.w	r3, #4294967295
10006f44:	920c      	str	r2, [sp, #48]	@ 0x30
10006f46:	9315      	str	r3, [sp, #84]	@ 0x54
10006f48:	9309      	str	r3, [sp, #36]	@ 0x24
10006f4a:	f7ff bb05 	b.w	10006558 <_dtoa_r+0x4d8>
10006f4e:	bf00      	nop
10006f50:	40240000 	.word	0x40240000
10006f54:	401c0000 	.word	0x401c0000
10006f58:	10008228 	.word	0x10008228
10006f5c:	1000823c 	.word	0x1000823c

10006f60 <__ascii_mbtowc>:
10006f60:	b082      	sub	sp, #8
10006f62:	b149      	cbz	r1, 10006f78 <__ascii_mbtowc+0x18>
10006f64:	b15a      	cbz	r2, 10006f7e <__ascii_mbtowc+0x1e>
10006f66:	b16b      	cbz	r3, 10006f84 <__ascii_mbtowc+0x24>
10006f68:	7813      	ldrb	r3, [r2, #0]
10006f6a:	600b      	str	r3, [r1, #0]
10006f6c:	7812      	ldrb	r2, [r2, #0]
10006f6e:	1e10      	subs	r0, r2, #0
10006f70:	bf18      	it	ne
10006f72:	2001      	movne	r0, #1
10006f74:	b002      	add	sp, #8
10006f76:	4770      	bx	lr
10006f78:	a901      	add	r1, sp, #4
10006f7a:	2a00      	cmp	r2, #0
10006f7c:	d1f3      	bne.n	10006f66 <__ascii_mbtowc+0x6>
10006f7e:	4610      	mov	r0, r2
10006f80:	b002      	add	sp, #8
10006f82:	4770      	bx	lr
10006f84:	f06f 0001 	mvn.w	r0, #1
10006f88:	e7f4      	b.n	10006f74 <__ascii_mbtowc+0x14>
10006f8a:	bf00      	nop

10006f8c <_Balloc>:
10006f8c:	b538      	push	{r3, r4, r5, lr}
10006f8e:	6c43      	ldr	r3, [r0, #68]	@ 0x44
10006f90:	4605      	mov	r5, r0
10006f92:	460c      	mov	r4, r1
10006f94:	b14b      	cbz	r3, 10006faa <_Balloc+0x1e>
10006f96:	f853 0024 	ldr.w	r0, [r3, r4, lsl #2]
10006f9a:	b180      	cbz	r0, 10006fbe <_Balloc+0x32>
10006f9c:	6802      	ldr	r2, [r0, #0]
10006f9e:	f843 2024 	str.w	r2, [r3, r4, lsl #2]
10006fa2:	2300      	movs	r3, #0
10006fa4:	e9c0 3303 	strd	r3, r3, [r0, #12]
10006fa8:	bd38      	pop	{r3, r4, r5, pc}
10006faa:	2221      	movs	r2, #33	@ 0x21
10006fac:	2104      	movs	r1, #4
10006fae:	f7fb fc9b 	bl	100028e8 <_calloc_r>
10006fb2:	4603      	mov	r3, r0
10006fb4:	6468      	str	r0, [r5, #68]	@ 0x44
10006fb6:	2800      	cmp	r0, #0
10006fb8:	d1ed      	bne.n	10006f96 <_Balloc+0xa>
10006fba:	2000      	movs	r0, #0
10006fbc:	bd38      	pop	{r3, r4, r5, pc}
10006fbe:	2101      	movs	r1, #1
10006fc0:	4628      	mov	r0, r5
10006fc2:	fa01 f504 	lsl.w	r5, r1, r4
10006fc6:	1d6a      	adds	r2, r5, #5
10006fc8:	0092      	lsls	r2, r2, #2
10006fca:	f7fb fc8d 	bl	100028e8 <_calloc_r>
10006fce:	2800      	cmp	r0, #0
10006fd0:	d0f3      	beq.n	10006fba <_Balloc+0x2e>
10006fd2:	e9c0 4501 	strd	r4, r5, [r0, #4]
10006fd6:	e7e4      	b.n	10006fa2 <_Balloc+0x16>

10006fd8 <_Bfree>:
10006fd8:	b131      	cbz	r1, 10006fe8 <_Bfree+0x10>
10006fda:	6c43      	ldr	r3, [r0, #68]	@ 0x44
10006fdc:	684a      	ldr	r2, [r1, #4]
10006fde:	f853 0022 	ldr.w	r0, [r3, r2, lsl #2]
10006fe2:	6008      	str	r0, [r1, #0]
10006fe4:	f843 1022 	str.w	r1, [r3, r2, lsl #2]
10006fe8:	4770      	bx	lr
10006fea:	bf00      	nop

10006fec <__multadd>:
10006fec:	e92d 41f0 	stmdb	sp!, {r4, r5, r6, r7, r8, lr}
10006ff0:	4607      	mov	r7, r0
10006ff2:	460e      	mov	r6, r1
10006ff4:	461c      	mov	r4, r3
10006ff6:	690d      	ldr	r5, [r1, #16]
10006ff8:	f101 0e14 	add.w	lr, r1, #20
10006ffc:	2000      	movs	r0, #0
10006ffe:	f8de 1000 	ldr.w	r1, [lr]
10007002:	3001      	adds	r0, #1
10007004:	b28b      	uxth	r3, r1
10007006:	4285      	cmp	r5, r0
10007008:	ea4f 4111 	mov.w	r1, r1, lsr #16
1000700c:	fb02 4303 	mla	r3, r2, r3, r4
10007010:	ea4f 4c13 	mov.w	ip, r3, lsr #16
10007014:	b29b      	uxth	r3, r3
10007016:	fb02 cc01 	mla	ip, r2, r1, ip
1000701a:	eb03 430c 	add.w	r3, r3, ip, lsl #16
1000701e:	ea4f 441c 	mov.w	r4, ip, lsr #16
10007022:	f84e 3b04 	str.w	r3, [lr], #4
10007026:	dcea      	bgt.n	10006ffe <__multadd+0x12>
10007028:	b13c      	cbz	r4, 1000703a <__multadd+0x4e>
1000702a:	68b3      	ldr	r3, [r6, #8]
1000702c:	42ab      	cmp	r3, r5
1000702e:	dd07      	ble.n	10007040 <__multadd+0x54>
10007030:	eb06 0385 	add.w	r3, r6, r5, lsl #2
10007034:	3501      	adds	r5, #1
10007036:	615c      	str	r4, [r3, #20]
10007038:	6135      	str	r5, [r6, #16]
1000703a:	4630      	mov	r0, r6
1000703c:	e8bd 81f0 	ldmia.w	sp!, {r4, r5, r6, r7, r8, pc}
10007040:	6871      	ldr	r1, [r6, #4]
10007042:	4638      	mov	r0, r7
10007044:	3101      	adds	r1, #1
10007046:	f7ff ffa1 	bl	10006f8c <_Balloc>
1000704a:	4680      	mov	r8, r0
1000704c:	b1a8      	cbz	r0, 1000707a <__multadd+0x8e>
1000704e:	6932      	ldr	r2, [r6, #16]
10007050:	f106 010c 	add.w	r1, r6, #12
10007054:	300c      	adds	r0, #12
10007056:	3202      	adds	r2, #2
10007058:	0092      	lsls	r2, r2, #2
1000705a:	f7fc f9f7 	bl	1000344c <memcpy>
1000705e:	6c7b      	ldr	r3, [r7, #68]	@ 0x44
10007060:	6872      	ldr	r2, [r6, #4]
10007062:	f853 1022 	ldr.w	r1, [r3, r2, lsl #2]
10007066:	6031      	str	r1, [r6, #0]
10007068:	f843 6022 	str.w	r6, [r3, r2, lsl #2]
1000706c:	4646      	mov	r6, r8
1000706e:	eb06 0385 	add.w	r3, r6, r5, lsl #2
10007072:	3501      	adds	r5, #1
10007074:	615c      	str	r4, [r3, #20]
10007076:	6135      	str	r5, [r6, #16]
10007078:	e7df      	b.n	1000703a <__multadd+0x4e>
1000707a:	4602      	mov	r2, r0
1000707c:	4b02      	ldr	r3, [pc, #8]	@ (10007088 <__multadd+0x9c>)
1000707e:	21ba      	movs	r1, #186	@ 0xba
10007080:	4802      	ldr	r0, [pc, #8]	@ (1000708c <__multadd+0xa0>)
10007082:	f7fb f9a1 	bl	100023c8 <__assert_func>
10007086:	bf00      	nop
10007088:	10008228 	.word	0x10008228
1000708c:	10008298 	.word	0x10008298

10007090 <__hi0bits>:
10007090:	f5b0 3f80 	cmp.w	r0, #65536	@ 0x10000
10007094:	4603      	mov	r3, r0
10007096:	d218      	bcs.n	100070ca <__hi0bits+0x3a>
10007098:	0403      	lsls	r3, r0, #16
1000709a:	2010      	movs	r0, #16
1000709c:	f1b3 7f80 	cmp.w	r3, #16777216	@ 0x1000000
100070a0:	d201      	bcs.n	100070a6 <__hi0bits+0x16>
100070a2:	3008      	adds	r0, #8
100070a4:	021b      	lsls	r3, r3, #8
100070a6:	f1b3 5f80 	cmp.w	r3, #268435456	@ 0x10000000
100070aa:	d201      	bcs.n	100070b0 <__hi0bits+0x20>
100070ac:	3004      	adds	r0, #4
100070ae:	011b      	lsls	r3, r3, #4
100070b0:	f1b3 4f80 	cmp.w	r3, #1073741824	@ 0x40000000
100070b4:	d303      	bcc.n	100070be <__hi0bits+0x2e>
100070b6:	2b00      	cmp	r3, #0
100070b8:	db06      	blt.n	100070c8 <__hi0bits+0x38>
100070ba:	3001      	adds	r0, #1
100070bc:	4770      	bx	lr
100070be:	009b      	lsls	r3, r3, #2
100070c0:	d405      	bmi.n	100070ce <__hi0bits+0x3e>
100070c2:	005b      	lsls	r3, r3, #1
100070c4:	d405      	bmi.n	100070d2 <__hi0bits+0x42>
100070c6:	2020      	movs	r0, #32
100070c8:	4770      	bx	lr
100070ca:	2000      	movs	r0, #0
100070cc:	e7e6      	b.n	1000709c <__hi0bits+0xc>
100070ce:	3002      	adds	r0, #2
100070d0:	4770      	bx	lr
100070d2:	3003      	adds	r0, #3
100070d4:	4770      	bx	lr
100070d6:	bf00      	nop

100070d8 <__lo0bits>:
100070d8:	6803      	ldr	r3, [r0, #0]
100070da:	4601      	mov	r1, r0
100070dc:	f013 0207 	ands.w	r2, r3, #7
100070e0:	d007      	beq.n	100070f2 <__lo0bits+0x1a>
100070e2:	07da      	lsls	r2, r3, #31
100070e4:	d41f      	bmi.n	10007126 <__lo0bits+0x4e>
100070e6:	0798      	lsls	r0, r3, #30
100070e8:	d521      	bpl.n	1000712e <__lo0bits+0x56>
100070ea:	085b      	lsrs	r3, r3, #1
100070ec:	2001      	movs	r0, #1
100070ee:	600b      	str	r3, [r1, #0]
100070f0:	4770      	bx	lr
100070f2:	b298      	uxth	r0, r3
100070f4:	b1a0      	cbz	r0, 10007120 <__lo0bits+0x48>
100070f6:	4610      	mov	r0, r2
100070f8:	b2da      	uxtb	r2, r3
100070fa:	b90a      	cbnz	r2, 10007100 <__lo0bits+0x28>
100070fc:	3008      	adds	r0, #8
100070fe:	0a1b      	lsrs	r3, r3, #8
10007100:	071a      	lsls	r2, r3, #28
10007102:	d101      	bne.n	10007108 <__lo0bits+0x30>
10007104:	3004      	adds	r0, #4
10007106:	091b      	lsrs	r3, r3, #4
10007108:	079a      	lsls	r2, r3, #30
1000710a:	d101      	bne.n	10007110 <__lo0bits+0x38>
1000710c:	3002      	adds	r0, #2
1000710e:	089b      	lsrs	r3, r3, #2
10007110:	07da      	lsls	r2, r3, #31
10007112:	d403      	bmi.n	1000711c <__lo0bits+0x44>
10007114:	085b      	lsrs	r3, r3, #1
10007116:	f100 0001 	add.w	r0, r0, #1
1000711a:	d006      	beq.n	1000712a <__lo0bits+0x52>
1000711c:	600b      	str	r3, [r1, #0]
1000711e:	4770      	bx	lr
10007120:	0c1b      	lsrs	r3, r3, #16
10007122:	2010      	movs	r0, #16
10007124:	e7e8      	b.n	100070f8 <__lo0bits+0x20>
10007126:	2000      	movs	r0, #0
10007128:	4770      	bx	lr
1000712a:	2020      	movs	r0, #32
1000712c:	4770      	bx	lr
1000712e:	089b      	lsrs	r3, r3, #2
10007130:	2002      	movs	r0, #2
10007132:	600b      	str	r3, [r1, #0]
10007134:	4770      	bx	lr
10007136:	bf00      	nop

10007138 <__i2b>:
10007138:	b538      	push	{r3, r4, r5, lr}
1000713a:	6c43      	ldr	r3, [r0, #68]	@ 0x44
1000713c:	4604      	mov	r4, r0
1000713e:	460d      	mov	r5, r1
10007140:	b14b      	cbz	r3, 10007156 <__i2b+0x1e>
10007142:	6858      	ldr	r0, [r3, #4]
10007144:	b1b0      	cbz	r0, 10007174 <__i2b+0x3c>
10007146:	6802      	ldr	r2, [r0, #0]
10007148:	605a      	str	r2, [r3, #4]
1000714a:	2200      	movs	r2, #0
1000714c:	2301      	movs	r3, #1
1000714e:	6145      	str	r5, [r0, #20]
10007150:	e9c0 2303 	strd	r2, r3, [r0, #12]
10007154:	bd38      	pop	{r3, r4, r5, pc}
10007156:	2221      	movs	r2, #33	@ 0x21
10007158:	2104      	movs	r1, #4
1000715a:	f7fb fbc5 	bl	100028e8 <_calloc_r>
1000715e:	4603      	mov	r3, r0
10007160:	6460      	str	r0, [r4, #68]	@ 0x44
10007162:	2800      	cmp	r0, #0
10007164:	d1ed      	bne.n	10007142 <__i2b+0xa>
10007166:	4b09      	ldr	r3, [pc, #36]	@ (1000718c <__i2b+0x54>)
10007168:	2200      	movs	r2, #0
1000716a:	f240 1145 	movw	r1, #325	@ 0x145
1000716e:	4808      	ldr	r0, [pc, #32]	@ (10007190 <__i2b+0x58>)
10007170:	f7fb f92a 	bl	100023c8 <__assert_func>
10007174:	221c      	movs	r2, #28
10007176:	2101      	movs	r1, #1
10007178:	4620      	mov	r0, r4
1000717a:	f7fb fbb5 	bl	100028e8 <_calloc_r>
1000717e:	2800      	cmp	r0, #0
10007180:	d0f1      	beq.n	10007166 <__i2b+0x2e>
10007182:	2201      	movs	r2, #1
10007184:	2302      	movs	r3, #2
10007186:	e9c0 2301 	strd	r2, r3, [r0, #4]
1000718a:	e7de      	b.n	1000714a <__i2b+0x12>
1000718c:	10008228 	.word	0x10008228
10007190:	10008298 	.word	0x10008298

10007194 <__multiply>:
10007194:	e92d 4ff0 	stmdb	sp!, {r4, r5, r6, r7, r8, r9, sl, fp, lr}
10007198:	f8d1 8010 	ldr.w	r8, [r1, #16]
1000719c:	b085      	sub	sp, #20
1000719e:	6915      	ldr	r5, [r2, #16]
100071a0:	460e      	mov	r6, r1
100071a2:	4692      	mov	sl, r2
100071a4:	45a8      	cmp	r8, r5
100071a6:	db05      	blt.n	100071b4 <__multiply+0x20>
100071a8:	462a      	mov	r2, r5
100071aa:	4653      	mov	r3, sl
100071ac:	4645      	mov	r5, r8
100071ae:	468a      	mov	sl, r1
100071b0:	4690      	mov	r8, r2
100071b2:	461e      	mov	r6, r3
100071b4:	eb05 0408 	add.w	r4, r5, r8
100071b8:	e9da 1301 	ldrd	r1, r3, [sl, #4]
100071bc:	42a3      	cmp	r3, r4
100071be:	bfb8      	it	lt
100071c0:	3101      	addlt	r1, #1
100071c2:	f7ff fee3 	bl	10006f8c <_Balloc>
100071c6:	2800      	cmp	r0, #0
100071c8:	f000 808b 	beq.w	100072e2 <__multiply+0x14e>
100071cc:	f100 0714 	add.w	r7, r0, #20
100071d0:	eb07 0e84 	add.w	lr, r7, r4, lsl #2
100071d4:	4577      	cmp	r7, lr
100071d6:	d205      	bcs.n	100071e4 <__multiply+0x50>
100071d8:	463b      	mov	r3, r7
100071da:	2200      	movs	r2, #0
100071dc:	f843 2b04 	str.w	r2, [r3], #4
100071e0:	459e      	cmp	lr, r3
100071e2:	d8fb      	bhi.n	100071dc <__multiply+0x48>
100071e4:	3614      	adds	r6, #20
100071e6:	f10a 0914 	add.w	r9, sl, #20
100071ea:	eb06 0888 	add.w	r8, r6, r8, lsl #2
100071ee:	eb09 0585 	add.w	r5, r9, r5, lsl #2
100071f2:	4546      	cmp	r6, r8
100071f4:	d268      	bcs.n	100072c8 <__multiply+0x134>
100071f6:	eba5 030a 	sub.w	r3, r5, sl
100071fa:	f10a 0a15 	add.w	sl, sl, #21
100071fe:	f8cd e008 	str.w	lr, [sp, #8]
10007202:	46ae      	mov	lr, r5
10007204:	3b15      	subs	r3, #21
10007206:	9403      	str	r4, [sp, #12]
10007208:	f023 0303 	bic.w	r3, r3, #3
1000720c:	3304      	adds	r3, #4
1000720e:	4555      	cmp	r5, sl
10007210:	bf2c      	ite	cs
10007212:	469b      	movcs	fp, r3
10007214:	f04f 0b04 	movcc.w	fp, #4
10007218:	4682      	mov	sl, r0
1000721a:	e005      	b.n	10007228 <__multiply+0x94>
1000721c:	0c09      	lsrs	r1, r1, #16
1000721e:	d12c      	bne.n	1000727a <__multiply+0xe6>
10007220:	45b0      	cmp	r8, r6
10007222:	f107 0704 	add.w	r7, r7, #4
10007226:	d94c      	bls.n	100072c2 <__multiply+0x12e>
10007228:	f856 1b04 	ldr.w	r1, [r6], #4
1000722c:	b28d      	uxth	r5, r1
1000722e:	2d00      	cmp	r5, #0
10007230:	d0f4      	beq.n	1000721c <__multiply+0x88>
10007232:	46cc      	mov	ip, r9
10007234:	463c      	mov	r4, r7
10007236:	2300      	movs	r3, #0
10007238:	9601      	str	r6, [sp, #4]
1000723a:	f85c 0b04 	ldr.w	r0, [ip], #4
1000723e:	6821      	ldr	r1, [r4, #0]
10007240:	b286      	uxth	r6, r0
10007242:	45e6      	cmp	lr, ip
10007244:	b28a      	uxth	r2, r1
10007246:	ea4f 4010 	mov.w	r0, r0, lsr #16
1000724a:	fb05 2206 	mla	r2, r5, r6, r2
1000724e:	ea4f 4111 	mov.w	r1, r1, lsr #16
10007252:	441a      	add	r2, r3
10007254:	fb05 1100 	mla	r1, r5, r0, r1
10007258:	eb01 4112 	add.w	r1, r1, r2, lsr #16
1000725c:	b292      	uxth	r2, r2
1000725e:	ea4f 4311 	mov.w	r3, r1, lsr #16
10007262:	ea42 4201 	orr.w	r2, r2, r1, lsl #16
10007266:	f844 2b04 	str.w	r2, [r4], #4
1000726a:	d8e6      	bhi.n	1000723a <__multiply+0xa6>
1000726c:	9e01      	ldr	r6, [sp, #4]
1000726e:	f847 300b 	str.w	r3, [r7, fp]
10007272:	f856 1c04 	ldr.w	r1, [r6, #-4]
10007276:	0c09      	lsrs	r1, r1, #16
10007278:	d0d2      	beq.n	10007220 <__multiply+0x8c>
1000727a:	683b      	ldr	r3, [r7, #0]
1000727c:	2200      	movs	r2, #0
1000727e:	4648      	mov	r0, r9
10007280:	463d      	mov	r5, r7
10007282:	461c      	mov	r4, r3
10007284:	4694      	mov	ip, r2
10007286:	8802      	ldrh	r2, [r0, #0]
10007288:	b29b      	uxth	r3, r3
1000728a:	fb01 c202 	mla	r2, r1, r2, ip
1000728e:	eb02 4214 	add.w	r2, r2, r4, lsr #16
10007292:	ea43 4302 	orr.w	r3, r3, r2, lsl #16
10007296:	f845 3b04 	str.w	r3, [r5], #4
1000729a:	f850 3b04 	ldr.w	r3, [r0], #4
1000729e:	682c      	ldr	r4, [r5, #0]
100072a0:	ea4f 4c13 	mov.w	ip, r3, lsr #16
100072a4:	4570      	cmp	r0, lr
100072a6:	b2a3      	uxth	r3, r4
100072a8:	fb01 330c 	mla	r3, r1, ip, r3
100072ac:	eb03 4312 	add.w	r3, r3, r2, lsr #16
100072b0:	ea4f 4c13 	mov.w	ip, r3, lsr #16
100072b4:	d3e7      	bcc.n	10007286 <__multiply+0xf2>
100072b6:	45b0      	cmp	r8, r6
100072b8:	f847 300b 	str.w	r3, [r7, fp]
100072bc:	f107 0704 	add.w	r7, r7, #4
100072c0:	d8b2      	bhi.n	10007228 <__multiply+0x94>
100072c2:	4650      	mov	r0, sl
100072c4:	e9dd e402 	ldrd	lr, r4, [sp, #8]
100072c8:	2c00      	cmp	r4, #0
100072ca:	dc02      	bgt.n	100072d2 <__multiply+0x13e>
100072cc:	e005      	b.n	100072da <__multiply+0x146>
100072ce:	3c01      	subs	r4, #1
100072d0:	d003      	beq.n	100072da <__multiply+0x146>
100072d2:	f85e 3d04 	ldr.w	r3, [lr, #-4]!
100072d6:	2b00      	cmp	r3, #0
100072d8:	d0f9      	beq.n	100072ce <__multiply+0x13a>
100072da:	6104      	str	r4, [r0, #16]
100072dc:	b005      	add	sp, #20
100072de:	e8bd 8ff0 	ldmia.w	sp!, {r4, r5, r6, r7, r8, r9, sl, fp, pc}
100072e2:	4602      	mov	r2, r0
100072e4:	4b02      	ldr	r3, [pc, #8]	@ (100072f0 <__multiply+0x15c>)
100072e6:	f44f 71b1 	mov.w	r1, #354	@ 0x162
100072ea:	4802      	ldr	r0, [pc, #8]	@ (100072f4 <__multiply+0x160>)
100072ec:	f7fb f86c 	bl	100023c8 <__assert_func>
100072f0:	10008228 	.word	0x10008228
100072f4:	10008298 	.word	0x10008298

100072f8 <__pow5mult>:
100072f8:	f012 0303 	ands.w	r3, r2, #3
100072fc:	e92d 41f0 	stmdb	sp!, {r4, r5, r6, r7, r8, lr}
10007300:	4614      	mov	r4, r2
10007302:	4607      	mov	r7, r0
10007304:	d12c      	bne.n	10007360 <__pow5mult+0x68>
10007306:	460d      	mov	r5, r1
10007308:	10a4      	asrs	r4, r4, #2
1000730a:	d01c      	beq.n	10007346 <__pow5mult+0x4e>
1000730c:	6c3e      	ldr	r6, [r7, #64]	@ 0x40
1000730e:	b386      	cbz	r6, 10007372 <__pow5mult+0x7a>
10007310:	07e3      	lsls	r3, r4, #31
10007312:	f04f 0800 	mov.w	r8, #0
10007316:	d406      	bmi.n	10007326 <__pow5mult+0x2e>
10007318:	1064      	asrs	r4, r4, #1
1000731a:	d014      	beq.n	10007346 <__pow5mult+0x4e>
1000731c:	6830      	ldr	r0, [r6, #0]
1000731e:	b1a8      	cbz	r0, 1000734c <__pow5mult+0x54>
10007320:	4606      	mov	r6, r0
10007322:	07e3      	lsls	r3, r4, #31
10007324:	d5f8      	bpl.n	10007318 <__pow5mult+0x20>
10007326:	4632      	mov	r2, r6
10007328:	4629      	mov	r1, r5
1000732a:	4638      	mov	r0, r7
1000732c:	f7ff ff32 	bl	10007194 <__multiply>
10007330:	b135      	cbz	r5, 10007340 <__pow5mult+0x48>
10007332:	6c7b      	ldr	r3, [r7, #68]	@ 0x44
10007334:	6869      	ldr	r1, [r5, #4]
10007336:	f853 2021 	ldr.w	r2, [r3, r1, lsl #2]
1000733a:	602a      	str	r2, [r5, #0]
1000733c:	f843 5021 	str.w	r5, [r3, r1, lsl #2]
10007340:	1064      	asrs	r4, r4, #1
10007342:	4605      	mov	r5, r0
10007344:	d1ea      	bne.n	1000731c <__pow5mult+0x24>
10007346:	4628      	mov	r0, r5
10007348:	e8bd 81f0 	ldmia.w	sp!, {r4, r5, r6, r7, r8, pc}
1000734c:	4632      	mov	r2, r6
1000734e:	4631      	mov	r1, r6
10007350:	4638      	mov	r0, r7
10007352:	f7ff ff1f 	bl	10007194 <__multiply>
10007356:	6030      	str	r0, [r6, #0]
10007358:	4606      	mov	r6, r0
1000735a:	f8c0 8000 	str.w	r8, [r0]
1000735e:	e7e0      	b.n	10007322 <__pow5mult+0x2a>
10007360:	3b01      	subs	r3, #1
10007362:	4a0f      	ldr	r2, [pc, #60]	@ (100073a0 <__pow5mult+0xa8>)
10007364:	f852 2023 	ldr.w	r2, [r2, r3, lsl #2]
10007368:	2300      	movs	r3, #0
1000736a:	f7ff fe3f 	bl	10006fec <__multadd>
1000736e:	4605      	mov	r5, r0
10007370:	e7ca      	b.n	10007308 <__pow5mult+0x10>
10007372:	2101      	movs	r1, #1
10007374:	4638      	mov	r0, r7
10007376:	f7ff fe09 	bl	10006f8c <_Balloc>
1000737a:	4606      	mov	r6, r0
1000737c:	b140      	cbz	r0, 10007390 <__pow5mult+0x98>
1000737e:	2301      	movs	r3, #1
10007380:	f240 2271 	movw	r2, #625	@ 0x271
10007384:	e9c0 3204 	strd	r3, r2, [r0, #16]
10007388:	2300      	movs	r3, #0
1000738a:	6438      	str	r0, [r7, #64]	@ 0x40
1000738c:	6003      	str	r3, [r0, #0]
1000738e:	e7bf      	b.n	10007310 <__pow5mult+0x18>
10007390:	4602      	mov	r2, r0
10007392:	4b04      	ldr	r3, [pc, #16]	@ (100073a4 <__pow5mult+0xac>)
10007394:	f240 1145 	movw	r1, #325	@ 0x145
10007398:	4803      	ldr	r0, [pc, #12]	@ (100073a8 <__pow5mult+0xb0>)
1000739a:	f7fb f815 	bl	100023c8 <__assert_func>
1000739e:	bf00      	nop
100073a0:	10008640 	.word	0x10008640
100073a4:	10008228 	.word	0x10008228
100073a8:	10008298 	.word	0x10008298

100073ac <__lshift>:
100073ac:	e92d 47f0 	stmdb	sp!, {r4, r5, r6, r7, r8, r9, sl, lr}
100073b0:	460c      	mov	r4, r1
100073b2:	4690      	mov	r8, r2
100073b4:	4606      	mov	r6, r0
100073b6:	ea4f 1962 	mov.w	r9, r2, asr #5
100073ba:	6927      	ldr	r7, [r4, #16]
100073bc:	68a3      	ldr	r3, [r4, #8]
100073be:	eb07 1762 	add.w	r7, r7, r2, asr #5
100073c2:	6849      	ldr	r1, [r1, #4]
100073c4:	1c7d      	adds	r5, r7, #1
100073c6:	429d      	cmp	r5, r3
100073c8:	dd03      	ble.n	100073d2 <__lshift+0x26>
100073ca:	005b      	lsls	r3, r3, #1
100073cc:	3101      	adds	r1, #1
100073ce:	429d      	cmp	r5, r3
100073d0:	dcfb      	bgt.n	100073ca <__lshift+0x1e>
100073d2:	4630      	mov	r0, r6
100073d4:	f7ff fdda 	bl	10006f8c <_Balloc>
100073d8:	2800      	cmp	r0, #0
100073da:	d050      	beq.n	1000747e <__lshift+0xd2>
100073dc:	f1b9 0f00 	cmp.w	r9, #0
100073e0:	f100 0c14 	add.w	ip, r0, #20
100073e4:	dd0e      	ble.n	10007404 <__lshift+0x58>
100073e6:	f109 0205 	add.w	r2, r9, #5
100073ea:	4663      	mov	r3, ip
100073ec:	2100      	movs	r1, #0
100073ee:	ea4f 0e82 	mov.w	lr, r2, lsl #2
100073f2:	eb00 0282 	add.w	r2, r0, r2, lsl #2
100073f6:	f843 1b04 	str.w	r1, [r3], #4
100073fa:	4293      	cmp	r3, r2
100073fc:	d1fb      	bne.n	100073f6 <__lshift+0x4a>
100073fe:	f1ae 0314 	sub.w	r3, lr, #20
10007402:	449c      	add	ip, r3
10007404:	f104 0314 	add.w	r3, r4, #20
10007408:	6921      	ldr	r1, [r4, #16]
1000740a:	f018 081f 	ands.w	r8, r8, #31
1000740e:	eb03 0181 	add.w	r1, r3, r1, lsl #2
10007412:	d02b      	beq.n	1000746c <__lshift+0xc0>
10007414:	f1c8 0920 	rsb	r9, r8, #32
10007418:	46e6      	mov	lr, ip
1000741a:	f04f 0a00 	mov.w	sl, #0
1000741e:	681a      	ldr	r2, [r3, #0]
10007420:	fa02 f208 	lsl.w	r2, r2, r8
10007424:	ea42 020a 	orr.w	r2, r2, sl
10007428:	f84e 2b04 	str.w	r2, [lr], #4
1000742c:	f853 2b04 	ldr.w	r2, [r3], #4
10007430:	4299      	cmp	r1, r3
10007432:	fa22 fa09 	lsr.w	sl, r2, r9
10007436:	d8f2      	bhi.n	1000741e <__lshift+0x72>
10007438:	1b0b      	subs	r3, r1, r4
1000743a:	f104 0215 	add.w	r2, r4, #21
1000743e:	3b15      	subs	r3, #21
10007440:	f023 0303 	bic.w	r3, r3, #3
10007444:	3304      	adds	r3, #4
10007446:	4291      	cmp	r1, r2
10007448:	bf38      	it	cc
1000744a:	2304      	movcc	r3, #4
1000744c:	f84c a003 	str.w	sl, [ip, r3]
10007450:	f1ba 0f00 	cmp.w	sl, #0
10007454:	d100      	bne.n	10007458 <__lshift+0xac>
10007456:	463d      	mov	r5, r7
10007458:	6c73      	ldr	r3, [r6, #68]	@ 0x44
1000745a:	6862      	ldr	r2, [r4, #4]
1000745c:	6105      	str	r5, [r0, #16]
1000745e:	f853 1022 	ldr.w	r1, [r3, r2, lsl #2]
10007462:	6021      	str	r1, [r4, #0]
10007464:	f843 4022 	str.w	r4, [r3, r2, lsl #2]
10007468:	e8bd 87f0 	ldmia.w	sp!, {r4, r5, r6, r7, r8, r9, sl, pc}
1000746c:	f1ac 0c04 	sub.w	ip, ip, #4
10007470:	f853 2b04 	ldr.w	r2, [r3], #4
10007474:	4299      	cmp	r1, r3
10007476:	f84c 2f04 	str.w	r2, [ip, #4]!
1000747a:	d8f9      	bhi.n	10007470 <__lshift+0xc4>
1000747c:	e7eb      	b.n	10007456 <__lshift+0xaa>
1000747e:	4602      	mov	r2, r0
10007480:	4b02      	ldr	r3, [pc, #8]	@ (1000748c <__lshift+0xe0>)
10007482:	f44f 71ef 	mov.w	r1, #478	@ 0x1de
10007486:	4802      	ldr	r0, [pc, #8]	@ (10007490 <__lshift+0xe4>)
10007488:	f7fa ff9e 	bl	100023c8 <__assert_func>
1000748c:	10008228 	.word	0x10008228
10007490:	10008298 	.word	0x10008298

10007494 <__mcmp>:
10007494:	4684      	mov	ip, r0
10007496:	690b      	ldr	r3, [r1, #16]
10007498:	6900      	ldr	r0, [r0, #16]
1000749a:	1ac0      	subs	r0, r0, r3
1000749c:	d116      	bne.n	100074cc <__mcmp+0x38>
1000749e:	f10c 0c14 	add.w	ip, ip, #20
100074a2:	3114      	adds	r1, #20
100074a4:	eb0c 0283 	add.w	r2, ip, r3, lsl #2
100074a8:	eb01 0383 	add.w	r3, r1, r3, lsl #2
100074ac:	b410      	push	{r4}
100074ae:	e001      	b.n	100074b4 <__mcmp+0x20>
100074b0:	4594      	cmp	ip, r2
100074b2:	d208      	bcs.n	100074c6 <__mcmp+0x32>
100074b4:	f852 4d04 	ldr.w	r4, [r2, #-4]!
100074b8:	f853 1d04 	ldr.w	r1, [r3, #-4]!
100074bc:	428c      	cmp	r4, r1
100074be:	d0f7      	beq.n	100074b0 <__mcmp+0x1c>
100074c0:	d205      	bcs.n	100074ce <__mcmp+0x3a>
100074c2:	f04f 30ff 	mov.w	r0, #4294967295
100074c6:	f85d 4b04 	ldr.w	r4, [sp], #4
100074ca:	4770      	bx	lr
100074cc:	4770      	bx	lr
100074ce:	2001      	movs	r0, #1
100074d0:	f85d 4b04 	ldr.w	r4, [sp], #4
100074d4:	4770      	bx	lr
100074d6:	bf00      	nop

100074d8 <__mdiff>:
100074d8:	e92d 4ff0 	stmdb	sp!, {r4, r5, r6, r7, r8, r9, sl, fp, lr}
100074dc:	4615      	mov	r5, r2
100074de:	690a      	ldr	r2, [r1, #16]
100074e0:	b083      	sub	sp, #12
100074e2:	4688      	mov	r8, r1
100074e4:	692b      	ldr	r3, [r5, #16]
100074e6:	1ad2      	subs	r2, r2, r3
100074e8:	2a00      	cmp	r2, #0
100074ea:	f040 808b 	bne.w	10007604 <__mdiff+0x12c>
100074ee:	f101 0614 	add.w	r6, r1, #20
100074f2:	f105 0114 	add.w	r1, r5, #20
100074f6:	eb01 0183 	add.w	r1, r1, r3, lsl #2
100074fa:	eb06 0383 	add.w	r3, r6, r3, lsl #2
100074fe:	e002      	b.n	10007506 <__mdiff+0x2e>
10007500:	429e      	cmp	r6, r3
10007502:	f080 8082 	bcs.w	1000760a <__mdiff+0x132>
10007506:	f853 4d04 	ldr.w	r4, [r3, #-4]!
1000750a:	f851 2d04 	ldr.w	r2, [r1, #-4]!
1000750e:	4294      	cmp	r4, r2
10007510:	d0f6      	beq.n	10007500 <__mdiff+0x28>
10007512:	d378      	bcc.n	10007606 <__mdiff+0x12e>
10007514:	462b      	mov	r3, r5
10007516:	2400      	movs	r4, #0
10007518:	4645      	mov	r5, r8
1000751a:	4698      	mov	r8, r3
1000751c:	6869      	ldr	r1, [r5, #4]
1000751e:	f7ff fd35 	bl	10006f8c <_Balloc>
10007522:	2800      	cmp	r0, #0
10007524:	f000 808c 	beq.w	10007640 <__mdiff+0x168>
10007528:	692e      	ldr	r6, [r5, #16]
1000752a:	f105 0b14 	add.w	fp, r5, #20
1000752e:	f108 0e14 	add.w	lr, r8, #20
10007532:	f8d8 3010 	ldr.w	r3, [r8, #16]
10007536:	f100 0a14 	add.w	sl, r0, #20
1000753a:	f105 0210 	add.w	r2, r5, #16
1000753e:	eb0e 0983 	add.w	r9, lr, r3, lsl #2
10007542:	f04f 0c00 	mov.w	ip, #0
10007546:	eb0b 0186 	add.w	r1, fp, r6, lsl #2
1000754a:	4657      	mov	r7, sl
1000754c:	60c4      	str	r4, [r0, #12]
1000754e:	f8cd b004 	str.w	fp, [sp, #4]
10007552:	f85e 4b04 	ldr.w	r4, [lr], #4
10007556:	f852 5f04 	ldr.w	r5, [r2, #4]!
1000755a:	fa1f fb84 	uxth.w	fp, r4
1000755e:	45f1      	cmp	r9, lr
10007560:	b2ab      	uxth	r3, r5
10007562:	ea4f 4414 	mov.w	r4, r4, lsr #16
10007566:	eba3 030b 	sub.w	r3, r3, fp
1000756a:	ebc4 4415 	rsb	r4, r4, r5, lsr #16
1000756e:	4463      	add	r3, ip
10007570:	eb04 4423 	add.w	r4, r4, r3, asr #16
10007574:	b29b      	uxth	r3, r3
10007576:	ea4f 4c24 	mov.w	ip, r4, asr #16
1000757a:	ea43 4304 	orr.w	r3, r3, r4, lsl #16
1000757e:	f847 3b04 	str.w	r3, [r7], #4
10007582:	d8e6      	bhi.n	10007552 <__mdiff+0x7a>
10007584:	eba9 0408 	sub.w	r4, r9, r8
10007588:	f108 0815 	add.w	r8, r8, #21
1000758c:	f8dd b004 	ldr.w	fp, [sp, #4]
10007590:	45c1      	cmp	r9, r8
10007592:	f1a4 0415 	sub.w	r4, r4, #21
10007596:	bf34      	ite	cc
10007598:	f04f 0800 	movcc.w	r8, #0
1000759c:	f04f 0801 	movcs.w	r8, #1
100075a0:	08a4      	lsrs	r4, r4, #2
100075a2:	f1b8 0f00 	cmp.w	r8, #0
100075a6:	f104 0201 	add.w	r2, r4, #1
100075aa:	ea4f 0282 	mov.w	r2, r2, lsl #2
100075ae:	bf08      	it	eq
100075b0:	2204      	moveq	r2, #4
100075b2:	eb0b 0502 	add.w	r5, fp, r2
100075b6:	4452      	add	r2, sl
100075b8:	42a9      	cmp	r1, r5
100075ba:	d931      	bls.n	10007620 <__mdiff+0x148>
100075bc:	4617      	mov	r7, r2
100075be:	462c      	mov	r4, r5
100075c0:	f854 3b04 	ldr.w	r3, [r4], #4
100075c4:	fa1f f883 	uxth.w	r8, r3
100075c8:	42a1      	cmp	r1, r4
100075ca:	ea4f 4e13 	mov.w	lr, r3, lsr #16
100075ce:	4463      	add	r3, ip
100075d0:	44c4      	add	ip, r8
100075d2:	b29b      	uxth	r3, r3
100075d4:	eb0e 4c2c 	add.w	ip, lr, ip, asr #16
100075d8:	ea43 430c 	orr.w	r3, r3, ip, lsl #16
100075dc:	ea4f 4c2c 	mov.w	ip, ip, asr #16
100075e0:	f847 3b04 	str.w	r3, [r7], #4
100075e4:	d8ec      	bhi.n	100075c0 <__mdiff+0xe8>
100075e6:	3901      	subs	r1, #1
100075e8:	1b49      	subs	r1, r1, r5
100075ea:	f021 0103 	bic.w	r1, r1, #3
100075ee:	440a      	add	r2, r1
100075f0:	b923      	cbnz	r3, 100075fc <__mdiff+0x124>
100075f2:	f852 3d04 	ldr.w	r3, [r2, #-4]!
100075f6:	3e01      	subs	r6, #1
100075f8:	2b00      	cmp	r3, #0
100075fa:	d0fa      	beq.n	100075f2 <__mdiff+0x11a>
100075fc:	6106      	str	r6, [r0, #16]
100075fe:	b003      	add	sp, #12
10007600:	e8bd 8ff0 	ldmia.w	sp!, {r4, r5, r6, r7, r8, r9, sl, fp, pc}
10007604:	da86      	bge.n	10007514 <__mdiff+0x3c>
10007606:	2401      	movs	r4, #1
10007608:	e788      	b.n	1000751c <__mdiff+0x44>
1000760a:	2100      	movs	r1, #0
1000760c:	f7ff fcbe 	bl	10006f8c <_Balloc>
10007610:	b178      	cbz	r0, 10007632 <__mdiff+0x15a>
10007612:	2201      	movs	r2, #1
10007614:	2300      	movs	r3, #0
10007616:	e9c0 2304 	strd	r2, r3, [r0, #16]
1000761a:	b003      	add	sp, #12
1000761c:	e8bd 8ff0 	ldmia.w	sp!, {r4, r5, r6, r7, r8, r9, sl, fp, pc}
10007620:	f1b8 0f00 	cmp.w	r8, #0
10007624:	ea4f 0484 	mov.w	r4, r4, lsl #2
10007628:	bf08      	it	eq
1000762a:	2400      	moveq	r4, #0
1000762c:	eb0a 0204 	add.w	r2, sl, r4
10007630:	e7de      	b.n	100075f0 <__mdiff+0x118>
10007632:	4602      	mov	r2, r0
10007634:	4b06      	ldr	r3, [pc, #24]	@ (10007650 <__mdiff+0x178>)
10007636:	f240 2137 	movw	r1, #567	@ 0x237
1000763a:	4806      	ldr	r0, [pc, #24]	@ (10007654 <__mdiff+0x17c>)
1000763c:	f7fa fec4 	bl	100023c8 <__assert_func>
10007640:	4602      	mov	r2, r0
10007642:	4b03      	ldr	r3, [pc, #12]	@ (10007650 <__mdiff+0x178>)
10007644:	f240 2145 	movw	r1, #581	@ 0x245
10007648:	4802      	ldr	r0, [pc, #8]	@ (10007654 <__mdiff+0x17c>)
1000764a:	f7fa febd 	bl	100023c8 <__assert_func>
1000764e:	bf00      	nop
10007650:	10008228 	.word	0x10008228
10007654:	10008298 	.word	0x10008298

10007658 <__d2b>:
10007658:	b5f0      	push	{r4, r5, r6, r7, lr}
1000765a:	2101      	movs	r1, #1
1000765c:	b083      	sub	sp, #12
1000765e:	4616      	mov	r6, r2
10007660:	461f      	mov	r7, r3
10007662:	f7ff fc93 	bl	10006f8c <_Balloc>
10007666:	4605      	mov	r5, r0
10007668:	2800      	cmp	r0, #0
1000766a:	d049      	beq.n	10007700 <__d2b+0xa8>
1000766c:	f3c7 540a 	ubfx	r4, r7, #20, #11
10007670:	f3c7 0313 	ubfx	r3, r7, #0, #20
10007674:	b10c      	cbz	r4, 1000767a <__d2b+0x22>
10007676:	f443 1380 	orr.w	r3, r3, #1048576	@ 0x100000
1000767a:	2e00      	cmp	r6, #0
1000767c:	9301      	str	r3, [sp, #4]
1000767e:	d115      	bne.n	100076ac <__d2b+0x54>
10007680:	a801      	add	r0, sp, #4
10007682:	f7ff fd29 	bl	100070d8 <__lo0bits>
10007686:	9901      	ldr	r1, [sp, #4]
10007688:	2201      	movs	r2, #1
1000768a:	f100 0320 	add.w	r3, r0, #32
1000768e:	6169      	str	r1, [r5, #20]
10007690:	612a      	str	r2, [r5, #16]
10007692:	b31c      	cbz	r4, 100076dc <__d2b+0x84>
10007694:	f2a4 4433 	subw	r4, r4, #1075	@ 0x433
10007698:	f1c3 0035 	rsb	r0, r3, #53	@ 0x35
1000769c:	441c      	add	r4, r3
1000769e:	9b08      	ldr	r3, [sp, #32]
100076a0:	601c      	str	r4, [r3, #0]
100076a2:	9b09      	ldr	r3, [sp, #36]	@ 0x24
100076a4:	6018      	str	r0, [r3, #0]
100076a6:	4628      	mov	r0, r5
100076a8:	b003      	add	sp, #12
100076aa:	bdf0      	pop	{r4, r5, r6, r7, pc}
100076ac:	4668      	mov	r0, sp
100076ae:	9600      	str	r6, [sp, #0]
100076b0:	f7ff fd12 	bl	100070d8 <__lo0bits>
100076b4:	9a01      	ldr	r2, [sp, #4]
100076b6:	4603      	mov	r3, r0
100076b8:	b300      	cbz	r0, 100076fc <__d2b+0xa4>
100076ba:	f1c0 0120 	rsb	r1, r0, #32
100076be:	fa02 f101 	lsl.w	r1, r2, r1
100076c2:	40c2      	lsrs	r2, r0
100076c4:	9800      	ldr	r0, [sp, #0]
100076c6:	9201      	str	r2, [sp, #4]
100076c8:	4301      	orrs	r1, r0
100076ca:	2a00      	cmp	r2, #0
100076cc:	e9c5 1205 	strd	r1, r2, [r5, #20]
100076d0:	bf0c      	ite	eq
100076d2:	2201      	moveq	r2, #1
100076d4:	2202      	movne	r2, #2
100076d6:	612a      	str	r2, [r5, #16]
100076d8:	2c00      	cmp	r4, #0
100076da:	d1db      	bne.n	10007694 <__d2b+0x3c>
100076dc:	f2a3 4332 	subw	r3, r3, #1074	@ 0x432
100076e0:	9808      	ldr	r0, [sp, #32]
100076e2:	eb05 0182 	add.w	r1, r5, r2, lsl #2
100076e6:	6003      	str	r3, [r0, #0]
100076e8:	6908      	ldr	r0, [r1, #16]
100076ea:	f7ff fcd1 	bl	10007090 <__hi0bits>
100076ee:	9b09      	ldr	r3, [sp, #36]	@ 0x24
100076f0:	ebc0 1042 	rsb	r0, r0, r2, lsl #5
100076f4:	6018      	str	r0, [r3, #0]
100076f6:	4628      	mov	r0, r5
100076f8:	b003      	add	sp, #12
100076fa:	bdf0      	pop	{r4, r5, r6, r7, pc}
100076fc:	9900      	ldr	r1, [sp, #0]
100076fe:	e7e4      	b.n	100076ca <__d2b+0x72>
10007700:	4602      	mov	r2, r0
10007702:	4b03      	ldr	r3, [pc, #12]	@ (10007710 <__d2b+0xb8>)
10007704:	f240 310f 	movw	r1, #783	@ 0x30f
10007708:	4802      	ldr	r0, [pc, #8]	@ (10007714 <__d2b+0xbc>)
1000770a:	f7fa fe5d 	bl	100023c8 <__assert_func>
1000770e:	bf00      	nop
10007710:	10008228 	.word	0x10008228
10007714:	10008298 	.word	0x10008298

10007718 <__ascii_wctomb>:
10007718:	4603      	mov	r3, r0
1000771a:	b149      	cbz	r1, 10007730 <__ascii_wctomb+0x18>
1000771c:	2aff      	cmp	r2, #255	@ 0xff
1000771e:	d802      	bhi.n	10007726 <__ascii_wctomb+0xe>
10007720:	2001      	movs	r0, #1
10007722:	700a      	strb	r2, [r1, #0]
10007724:	4770      	bx	lr
10007726:	228a      	movs	r2, #138	@ 0x8a
10007728:	f04f 30ff 	mov.w	r0, #4294967295
1000772c:	601a      	str	r2, [r3, #0]
1000772e:	4770      	bx	lr
10007730:	4608      	mov	r0, r1
10007732:	4770      	bx	lr

10007734 <_wcrtomb_r>:
10007734:	b570      	push	{r4, r5, r6, lr}
10007736:	4605      	mov	r5, r0
10007738:	b084      	sub	sp, #16
1000773a:	b15b      	cbz	r3, 10007754 <_wcrtomb_r+0x20>
1000773c:	461c      	mov	r4, r3
1000773e:	4b0f      	ldr	r3, [pc, #60]	@ (1000777c <_wcrtomb_r+0x48>)
10007740:	f8d3 60e0 	ldr.w	r6, [r3, #224]	@ 0xe0
10007744:	4623      	mov	r3, r4
10007746:	b169      	cbz	r1, 10007764 <_wcrtomb_r+0x30>
10007748:	4628      	mov	r0, r5
1000774a:	47b0      	blx	r6
1000774c:	1c43      	adds	r3, r0, #1
1000774e:	d00f      	beq.n	10007770 <_wcrtomb_r+0x3c>
10007750:	b004      	add	sp, #16
10007752:	bd70      	pop	{r4, r5, r6, pc}
10007754:	4b09      	ldr	r3, [pc, #36]	@ (1000777c <_wcrtomb_r+0x48>)
10007756:	f500 7482 	add.w	r4, r0, #260	@ 0x104
1000775a:	f8d3 60e0 	ldr.w	r6, [r3, #224]	@ 0xe0
1000775e:	4623      	mov	r3, r4
10007760:	2900      	cmp	r1, #0
10007762:	d1f1      	bne.n	10007748 <_wcrtomb_r+0x14>
10007764:	460a      	mov	r2, r1
10007766:	4628      	mov	r0, r5
10007768:	a901      	add	r1, sp, #4
1000776a:	47b0      	blx	r6
1000776c:	1c43      	adds	r3, r0, #1
1000776e:	d1ef      	bne.n	10007750 <_wcrtomb_r+0x1c>
10007770:	2200      	movs	r2, #0
10007772:	238a      	movs	r3, #138	@ 0x8a
10007774:	6022      	str	r2, [r4, #0]
10007776:	602b      	str	r3, [r5, #0]
10007778:	b004      	add	sp, #16
1000777a:	bd70      	pop	{r4, r5, r6, pc}
1000777c:	20000be4 	.word	0x20000be4

10007780 <_wcsrtombs_r>:
10007780:	b510      	push	{r4, lr}
10007782:	b082      	sub	sp, #8
10007784:	9c04      	ldr	r4, [sp, #16]
10007786:	9300      	str	r3, [sp, #0]
10007788:	f04f 33ff 	mov.w	r3, #4294967295
1000778c:	9401      	str	r4, [sp, #4]
1000778e:	f000 f977 	bl	10007a80 <_wcsnrtombs_r>
10007792:	b002      	add	sp, #8
10007794:	bd10      	pop	{r4, pc}
10007796:	bf00      	nop

10007798 <_fclose_r>:
10007798:	b570      	push	{r4, r5, r6, lr}
1000779a:	2900      	cmp	r1, #0
1000779c:	d03f      	beq.n	1000781e <_fclose_r+0x86>
1000779e:	4606      	mov	r6, r0
100077a0:	460c      	mov	r4, r1
100077a2:	b110      	cbz	r0, 100077aa <_fclose_r+0x12>
100077a4:	6b43      	ldr	r3, [r0, #52]	@ 0x34
100077a6:	2b00      	cmp	r3, #0
100077a8:	d03c      	beq.n	10007824 <_fclose_r+0x8c>
100077aa:	6e63      	ldr	r3, [r4, #100]	@ 0x64
100077ac:	f9b4 200c 	ldrsh.w	r2, [r4, #12]
100077b0:	07dd      	lsls	r5, r3, #31
100077b2:	d432      	bmi.n	1000781a <_fclose_r+0x82>
100077b4:	0590      	lsls	r0, r2, #22
100077b6:	d538      	bpl.n	1000782a <_fclose_r+0x92>
100077b8:	4621      	mov	r1, r4
100077ba:	4630      	mov	r0, r6
100077bc:	f7fd fece 	bl	1000555c <__sflush_r>
100077c0:	6ae3      	ldr	r3, [r4, #44]	@ 0x2c
100077c2:	4605      	mov	r5, r0
100077c4:	b133      	cbz	r3, 100077d4 <_fclose_r+0x3c>
100077c6:	69e1      	ldr	r1, [r4, #28]
100077c8:	4630      	mov	r0, r6
100077ca:	4798      	blx	r3
100077cc:	2800      	cmp	r0, #0
100077ce:	bfb8      	it	lt
100077d0:	f04f 35ff 	movlt.w	r5, #4294967295
100077d4:	89a3      	ldrh	r3, [r4, #12]
100077d6:	061a      	lsls	r2, r3, #24
100077d8:	d439      	bmi.n	1000784e <_fclose_r+0xb6>
100077da:	6b21      	ldr	r1, [r4, #48]	@ 0x30
100077dc:	b141      	cbz	r1, 100077f0 <_fclose_r+0x58>
100077de:	f104 0340 	add.w	r3, r4, #64	@ 0x40
100077e2:	4299      	cmp	r1, r3
100077e4:	d002      	beq.n	100077ec <_fclose_r+0x54>
100077e6:	4630      	mov	r0, r6
100077e8:	f7fb ff30 	bl	1000364c <_free_r>
100077ec:	2300      	movs	r3, #0
100077ee:	6323      	str	r3, [r4, #48]	@ 0x30
100077f0:	6c61      	ldr	r1, [r4, #68]	@ 0x44
100077f2:	b121      	cbz	r1, 100077fe <_fclose_r+0x66>
100077f4:	4630      	mov	r0, r6
100077f6:	f7fb ff29 	bl	1000364c <_free_r>
100077fa:	2300      	movs	r3, #0
100077fc:	6463      	str	r3, [r4, #68]	@ 0x44
100077fe:	f7fe f835 	bl	1000586c <__sfp_lock_acquire>
10007802:	6e63      	ldr	r3, [r4, #100]	@ 0x64
10007804:	2200      	movs	r2, #0
10007806:	07db      	lsls	r3, r3, #31
10007808:	81a2      	strh	r2, [r4, #12]
1000780a:	d51c      	bpl.n	10007846 <_fclose_r+0xae>
1000780c:	6da0      	ldr	r0, [r4, #88]	@ 0x58
1000780e:	f7fb fe09 	bl	10003424 <__retarget_lock_close_recursive>
10007812:	f7fe f831 	bl	10005878 <__sfp_lock_release>
10007816:	4628      	mov	r0, r5
10007818:	bd70      	pop	{r4, r5, r6, pc}
1000781a:	2a00      	cmp	r2, #0
1000781c:	d1cc      	bne.n	100077b8 <_fclose_r+0x20>
1000781e:	2500      	movs	r5, #0
10007820:	4628      	mov	r0, r5
10007822:	bd70      	pop	{r4, r5, r6, pc}
10007824:	f7fe f804 	bl	10005830 <__sinit>
10007828:	e7bf      	b.n	100077aa <_fclose_r+0x12>
1000782a:	6da0      	ldr	r0, [r4, #88]	@ 0x58
1000782c:	f7fb fdfc 	bl	10003428 <__retarget_lock_acquire_recursive>
10007830:	f9b4 300c 	ldrsh.w	r3, [r4, #12]
10007834:	2b00      	cmp	r3, #0
10007836:	d1bf      	bne.n	100077b8 <_fclose_r+0x20>
10007838:	6e63      	ldr	r3, [r4, #100]	@ 0x64
1000783a:	07d9      	lsls	r1, r3, #31
1000783c:	d4ef      	bmi.n	1000781e <_fclose_r+0x86>
1000783e:	6da0      	ldr	r0, [r4, #88]	@ 0x58
10007840:	f7fb fdf4 	bl	1000342c <__retarget_lock_release_recursive>
10007844:	e7eb      	b.n	1000781e <_fclose_r+0x86>
10007846:	6da0      	ldr	r0, [r4, #88]	@ 0x58
10007848:	f7fb fdf0 	bl	1000342c <__retarget_lock_release_recursive>
1000784c:	e7de      	b.n	1000780c <_fclose_r+0x74>
1000784e:	6921      	ldr	r1, [r4, #16]
10007850:	4630      	mov	r0, r6
10007852:	f7fb fefb 	bl	1000364c <_free_r>
10007856:	e7c0      	b.n	100077da <_fclose_r+0x42>

10007858 <__smakebuf_r>:
10007858:	f9b1 300c 	ldrsh.w	r3, [r1, #12]
1000785c:	e92d 41f0 	stmdb	sp!, {r4, r5, r6, r7, r8, lr}
10007860:	460c      	mov	r4, r1
10007862:	0799      	lsls	r1, r3, #30
10007864:	b096      	sub	sp, #88	@ 0x58
10007866:	d508      	bpl.n	1000787a <__smakebuf_r+0x22>
10007868:	f104 0343 	add.w	r3, r4, #67	@ 0x43
1000786c:	2201      	movs	r2, #1
1000786e:	6023      	str	r3, [r4, #0]
10007870:	e9c4 3204 	strd	r3, r2, [r4, #16]
10007874:	b016      	add	sp, #88	@ 0x58
10007876:	e8bd 81f0 	ldmia.w	sp!, {r4, r5, r6, r7, r8, pc}
1000787a:	f9b4 100e 	ldrsh.w	r1, [r4, #14]
1000787e:	4606      	mov	r6, r0
10007880:	2900      	cmp	r1, #0
10007882:	db26      	blt.n	100078d2 <__smakebuf_r+0x7a>
10007884:	466a      	mov	r2, sp
10007886:	f000 f855 	bl	10007934 <_fstat_r>
1000788a:	2800      	cmp	r0, #0
1000788c:	db1f      	blt.n	100078ce <__smakebuf_r+0x76>
1000788e:	9d01      	ldr	r5, [sp, #4]
10007890:	f44f 6880 	mov.w	r8, #1024	@ 0x400
10007894:	f44f 6700 	mov.w	r7, #2048	@ 0x800
10007898:	f405 4570 	and.w	r5, r5, #61440	@ 0xf000
1000789c:	f5a5 5500 	sub.w	r5, r5, #8192	@ 0x2000
100078a0:	fab5 f585 	clz	r5, r5
100078a4:	096d      	lsrs	r5, r5, #5
100078a6:	4641      	mov	r1, r8
100078a8:	4630      	mov	r0, r6
100078aa:	f7fb f855 	bl	10002958 <_malloc_r>
100078ae:	b1e8      	cbz	r0, 100078ec <__smakebuf_r+0x94>
100078b0:	f9b4 300c 	ldrsh.w	r3, [r4, #12]
100078b4:	f8c4 8014 	str.w	r8, [r4, #20]
100078b8:	f043 0380 	orr.w	r3, r3, #128	@ 0x80
100078bc:	6020      	str	r0, [r4, #0]
100078be:	6120      	str	r0, [r4, #16]
100078c0:	81a3      	strh	r3, [r4, #12]
100078c2:	bb3d      	cbnz	r5, 10007914 <__smakebuf_r+0xbc>
100078c4:	433b      	orrs	r3, r7
100078c6:	81a3      	strh	r3, [r4, #12]
100078c8:	b016      	add	sp, #88	@ 0x58
100078ca:	e8bd 81f0 	ldmia.w	sp!, {r4, r5, r6, r7, r8, pc}
100078ce:	f9b4 300c 	ldrsh.w	r3, [r4, #12]
100078d2:	f013 0580 	ands.w	r5, r3, #128	@ 0x80
100078d6:	d019      	beq.n	1000790c <__smakebuf_r+0xb4>
100078d8:	f04f 0840 	mov.w	r8, #64	@ 0x40
100078dc:	2500      	movs	r5, #0
100078de:	4630      	mov	r0, r6
100078e0:	4641      	mov	r1, r8
100078e2:	462f      	mov	r7, r5
100078e4:	f7fb f838 	bl	10002958 <_malloc_r>
100078e8:	2800      	cmp	r0, #0
100078ea:	d1e1      	bne.n	100078b0 <__smakebuf_r+0x58>
100078ec:	f9b4 300c 	ldrsh.w	r3, [r4, #12]
100078f0:	059a      	lsls	r2, r3, #22
100078f2:	d4bf      	bmi.n	10007874 <__smakebuf_r+0x1c>
100078f4:	f023 0303 	bic.w	r3, r3, #3
100078f8:	f104 0243 	add.w	r2, r4, #67	@ 0x43
100078fc:	2101      	movs	r1, #1
100078fe:	f043 0302 	orr.w	r3, r3, #2
10007902:	6022      	str	r2, [r4, #0]
10007904:	e9c4 2104 	strd	r2, r1, [r4, #16]
10007908:	81a3      	strh	r3, [r4, #12]
1000790a:	e7b3      	b.n	10007874 <__smakebuf_r+0x1c>
1000790c:	f44f 6880 	mov.w	r8, #1024	@ 0x400
10007910:	462f      	mov	r7, r5
10007912:	e7c8      	b.n	100078a6 <__smakebuf_r+0x4e>
10007914:	f9b4 100e 	ldrsh.w	r1, [r4, #14]
10007918:	4630      	mov	r0, r6
1000791a:	f000 f821 	bl	10007960 <_isatty_r>
1000791e:	b910      	cbnz	r0, 10007926 <__smakebuf_r+0xce>
10007920:	f9b4 300c 	ldrsh.w	r3, [r4, #12]
10007924:	e7ce      	b.n	100078c4 <__smakebuf_r+0x6c>
10007926:	89a3      	ldrh	r3, [r4, #12]
10007928:	f023 0303 	bic.w	r3, r3, #3
1000792c:	f043 0301 	orr.w	r3, r3, #1
10007930:	b21b      	sxth	r3, r3
10007932:	e7c7      	b.n	100078c4 <__smakebuf_r+0x6c>

10007934 <_fstat_r>:
10007934:	b570      	push	{r4, r5, r6, lr}
10007936:	460c      	mov	r4, r1
10007938:	4603      	mov	r3, r0
1000793a:	4d08      	ldr	r5, [pc, #32]	@ (1000795c <_fstat_r+0x28>)
1000793c:	2600      	movs	r6, #0
1000793e:	4620      	mov	r0, r4
10007940:	4611      	mov	r1, r2
10007942:	461c      	mov	r4, r3
10007944:	602e      	str	r6, [r5, #0]
10007946:	f7fa fd33 	bl	100023b0 <_fstat>
1000794a:	1c43      	adds	r3, r0, #1
1000794c:	d000      	beq.n	10007950 <_fstat_r+0x1c>
1000794e:	bd70      	pop	{r4, r5, r6, pc}
10007950:	682b      	ldr	r3, [r5, #0]
10007952:	2b00      	cmp	r3, #0
10007954:	d0fb      	beq.n	1000794e <_fstat_r+0x1a>
10007956:	6023      	str	r3, [r4, #0]
10007958:	bd70      	pop	{r4, r5, r6, pc}
1000795a:	bf00      	nop
1000795c:	200010a8 	.word	0x200010a8

10007960 <_isatty_r>:
10007960:	b538      	push	{r3, r4, r5, lr}
10007962:	2200      	movs	r2, #0
10007964:	4d06      	ldr	r5, [pc, #24]	@ (10007980 <_isatty_r+0x20>)
10007966:	4604      	mov	r4, r0
10007968:	4608      	mov	r0, r1
1000796a:	602a      	str	r2, [r5, #0]
1000796c:	f7fa fd23 	bl	100023b6 <_isatty>
10007970:	1c43      	adds	r3, r0, #1
10007972:	d000      	beq.n	10007976 <_isatty_r+0x16>
10007974:	bd38      	pop	{r3, r4, r5, pc}
10007976:	682b      	ldr	r3, [r5, #0]
10007978:	2b00      	cmp	r3, #0
1000797a:	d0fb      	beq.n	10007974 <_isatty_r+0x14>
1000797c:	6023      	str	r3, [r4, #0]
1000797e:	bd38      	pop	{r3, r4, r5, pc}
10007980:	200010a8 	.word	0x200010a8

10007984 <_wcsnrtombs_l>:
10007984:	e92d 4ff0 	stmdb	sp!, {r4, r5, r6, r7, r8, r9, sl, fp, lr}
10007988:	b08b      	sub	sp, #44	@ 0x2c
1000798a:	4686      	mov	lr, r0
1000798c:	461e      	mov	r6, r3
1000798e:	e9dd 7a15 	ldrd	r7, sl, [sp, #84]	@ 0x54
10007992:	2f00      	cmp	r7, #0
10007994:	d05a      	beq.n	10007a4c <_wcsnrtombs_l+0xc8>
10007996:	6815      	ldr	r5, [r2, #0]
10007998:	2900      	cmp	r1, #0
1000799a:	d05c      	beq.n	10007a56 <_wcsnrtombs_l+0xd2>
1000799c:	9b14      	ldr	r3, [sp, #80]	@ 0x50
1000799e:	2b00      	cmp	r3, #0
100079a0:	d069      	beq.n	10007a76 <_wcsnrtombs_l+0xf2>
100079a2:	1e74      	subs	r4, r6, #1
100079a4:	b34e      	cbz	r6, 100079fa <_wcsnrtombs_l+0x76>
100079a6:	3d04      	subs	r5, #4
100079a8:	2600      	movs	r6, #0
100079aa:	f8dd b050 	ldr.w	fp, [sp, #80]	@ 0x50
100079ae:	9104      	str	r1, [sp, #16]
100079b0:	9103      	str	r1, [sp, #12]
100079b2:	9205      	str	r2, [sp, #20]
100079b4:	e9cd 5e01 	strd	r5, lr, [sp, #4]
100079b8:	e00b      	b.n	100079d2 <_wcsnrtombs_l+0x4e>
100079ba:	9b03      	ldr	r3, [sp, #12]
100079bc:	bb0b      	cbnz	r3, 10007a02 <_wcsnrtombs_l+0x7e>
100079be:	9b01      	ldr	r3, [sp, #4]
100079c0:	6818      	ldr	r0, [r3, #0]
100079c2:	2800      	cmp	r0, #0
100079c4:	d036      	beq.n	10007a34 <_wcsnrtombs_l+0xb0>
100079c6:	45dc      	cmp	ip, fp
100079c8:	d257      	bcs.n	10007a7a <_wcsnrtombs_l+0xf6>
100079ca:	3c01      	subs	r4, #1
100079cc:	4666      	mov	r6, ip
100079ce:	1c63      	adds	r3, r4, #1
100079d0:	d013      	beq.n	100079fa <_wcsnrtombs_l+0x76>
100079d2:	9901      	ldr	r1, [sp, #4]
100079d4:	463b      	mov	r3, r7
100079d6:	9802      	ldr	r0, [sp, #8]
100079d8:	f851 2f04 	ldr.w	r2, [r1, #4]!
100079dc:	f8da 50e0 	ldr.w	r5, [sl, #224]	@ 0xe0
100079e0:	9101      	str	r1, [sp, #4]
100079e2:	a907      	add	r1, sp, #28
100079e4:	e9d7 9800 	ldrd	r9, r8, [r7]
100079e8:	47a8      	blx	r5
100079ea:	1c42      	adds	r2, r0, #1
100079ec:	d037      	beq.n	10007a5e <_wcsnrtombs_l+0xda>
100079ee:	eb00 0c06 	add.w	ip, r0, r6
100079f2:	45dc      	cmp	ip, fp
100079f4:	d9e1      	bls.n	100079ba <_wcsnrtombs_l+0x36>
100079f6:	e9c7 9800 	strd	r9, r8, [r7]
100079fa:	4630      	mov	r0, r6
100079fc:	b00b      	add	sp, #44	@ 0x2c
100079fe:	e8bd 8ff0 	ldmia.w	sp!, {r4, r5, r6, r7, r8, r9, sl, fp, pc}
10007a02:	2800      	cmp	r0, #0
10007a04:	dd0e      	ble.n	10007a24 <_wcsnrtombs_l+0xa0>
10007a06:	9b04      	ldr	r3, [sp, #16]
10007a08:	a907      	add	r1, sp, #28
10007a0a:	9d01      	ldr	r5, [sp, #4]
10007a0c:	4418      	add	r0, r3
10007a0e:	1e5a      	subs	r2, r3, #1
10007a10:	f100 3eff 	add.w	lr, r0, #4294967295
10007a14:	f811 3b01 	ldrb.w	r3, [r1], #1
10007a18:	f802 3f01 	strb.w	r3, [r2, #1]!
10007a1c:	4572      	cmp	r2, lr
10007a1e:	d1f9      	bne.n	10007a14 <_wcsnrtombs_l+0x90>
10007a20:	9501      	str	r5, [sp, #4]
10007a22:	9004      	str	r0, [sp, #16]
10007a24:	9b05      	ldr	r3, [sp, #20]
10007a26:	681a      	ldr	r2, [r3, #0]
10007a28:	3204      	adds	r2, #4
10007a2a:	601a      	str	r2, [r3, #0]
10007a2c:	9b01      	ldr	r3, [sp, #4]
10007a2e:	6818      	ldr	r0, [r3, #0]
10007a30:	2800      	cmp	r0, #0
10007a32:	d1c8      	bne.n	100079c6 <_wcsnrtombs_l+0x42>
10007a34:	9903      	ldr	r1, [sp, #12]
10007a36:	9a05      	ldr	r2, [sp, #20]
10007a38:	b101      	cbz	r1, 10007a3c <_wcsnrtombs_l+0xb8>
10007a3a:	6010      	str	r0, [r2, #0]
10007a3c:	f10c 36ff 	add.w	r6, ip, #4294967295
10007a40:	2200      	movs	r2, #0
10007a42:	4630      	mov	r0, r6
10007a44:	603a      	str	r2, [r7, #0]
10007a46:	b00b      	add	sp, #44	@ 0x2c
10007a48:	e8bd 8ff0 	ldmia.w	sp!, {r4, r5, r6, r7, r8, r9, sl, fp, pc}
10007a4c:	f500 7786 	add.w	r7, r0, #268	@ 0x10c
10007a50:	6815      	ldr	r5, [r2, #0]
10007a52:	2900      	cmp	r1, #0
10007a54:	d1a2      	bne.n	1000799c <_wcsnrtombs_l+0x18>
10007a56:	f04f 33ff 	mov.w	r3, #4294967295
10007a5a:	9314      	str	r3, [sp, #80]	@ 0x50
10007a5c:	e7a1      	b.n	100079a2 <_wcsnrtombs_l+0x1e>
10007a5e:	4606      	mov	r6, r0
10007a60:	f8dd e008 	ldr.w	lr, [sp, #8]
10007a64:	218a      	movs	r1, #138	@ 0x8a
10007a66:	2200      	movs	r2, #0
10007a68:	4630      	mov	r0, r6
10007a6a:	f8ce 1000 	str.w	r1, [lr]
10007a6e:	603a      	str	r2, [r7, #0]
10007a70:	b00b      	add	sp, #44	@ 0x2c
10007a72:	e8bd 8ff0 	ldmia.w	sp!, {r4, r5, r6, r7, r8, r9, sl, fp, pc}
10007a76:	9e14      	ldr	r6, [sp, #80]	@ 0x50
10007a78:	e7bf      	b.n	100079fa <_wcsnrtombs_l+0x76>
10007a7a:	4666      	mov	r6, ip
10007a7c:	e7bd      	b.n	100079fa <_wcsnrtombs_l+0x76>
10007a7e:	bf00      	nop

10007a80 <_wcsnrtombs_r>:
10007a80:	b510      	push	{r4, lr}
10007a82:	b084      	sub	sp, #16
10007a84:	4c05      	ldr	r4, [pc, #20]	@ (10007a9c <_wcsnrtombs_r+0x1c>)
10007a86:	9806      	ldr	r0, [sp, #24]
10007a88:	9000      	str	r0, [sp, #0]
10007a8a:	9807      	ldr	r0, [sp, #28]
10007a8c:	9001      	str	r0, [sp, #4]
10007a8e:	4804      	ldr	r0, [pc, #16]	@ (10007aa0 <_wcsnrtombs_r+0x20>)
10007a90:	6800      	ldr	r0, [r0, #0]
10007a92:	9402      	str	r4, [sp, #8]
10007a94:	f7ff ff76 	bl	10007984 <_wcsnrtombs_l>
10007a98:	b004      	add	sp, #16
10007a9a:	bd10      	pop	{r4, pc}
10007a9c:	20000be4 	.word	0x20000be4
10007aa0:	20000a90 	.word	0x20000a90

10007aa4 <_fini>:
10007aa4:	b5f8      	push	{r3, r4, r5, r6, r7, lr}
10007aa6:	bf00      	nop

10007aa8 <____aeabi_f2d_veneer>:
10007aa8:	f85f f000 	ldr.w	pc, [pc]	@ 10007aac <____aeabi_f2d_veneer+0x4>
10007aac:	20000541 	.word	0x20000541

10007ab0 <__mutex_exit_veneer>:
10007ab0:	f85f f000 	ldr.w	pc, [pc]	@ 10007ab4 <__mutex_exit_veneer+0x4>
10007ab4:	20000221 	.word	0x20000221

10007ab8 <__mutex_try_enter_block_until_veneer>:
10007ab8:	f85f f000 	ldr.w	pc, [pc]	@ 10007abc <__mutex_try_enter_block_until_veneer+0x4>
10007abc:	200001ed 	.word	0x200001ed

10007ac0 <__pre_init_runtime_init_bootrom_reset>:
10007ac0:	10001f55                                U...

10007ac4 <__pre_init_runtime_init_early_resets>:
10007ac4:	10001ecd                                ....

10007ac8 <__pre_init_runtime_init_usb_power_down>:
10007ac8:	10001ef9                                ....

10007acc <__pre_init_runtime_init_clocks>:
10007acc:	10001fc9                                ....

10007ad0 <__pre_init_runtime_init_post_clock_resets>:
10007ad0:	10001f35                                5...

10007ad4 <__pre_init_runtime_init_boot_locks_reset>:
10007ad4:	10001e71                                q...

10007ad8 <__pre_init_runtime_init_spin_locks_reset>:
10007ad8:	10001f79                                y...

10007adc <__pre_init_runtime_init_bootrom_locking_enable>:
10007adc:	10001e3d                                =...

10007ae0 <__pre_init_runtime_init_mutex>:
10007ae0:	100012dd                                ....

10007ae4 <__pre_init_runtime_init_install_ram_vector_table>:
10007ae4:	10001f81                                ....

10007ae8 <__pre_init_runtime_init_default_alarm_pool>:
10007ae8:	100019f5                                ....

10007aec <__pre_init_first_per_core_initializer>:
10007aec:	10001eb9                                ....

10007af0 <__pre_init_runtime_init_per_core_bootrom_reset>:
10007af0:	10001f67                                g...

10007af4 <__pre_init_runtime_init_per_core_enable_coprocessors>:
10007af4:	10001f19                                ....

10007af8 <__pre_init_spinlock_set_extexclall>:
10007af8:	10000e39                                9...

10007afc <__pre_init_runtime_init_per_core_irq_priorities>:
10007afc:	10000e91                                ....

10007b00 <__frame_dummy_init_array_entry>:
10007b00:	10000219                                ....

Disassembly of section .data:

20000110 <mutex_try_enter>:
20000110:	b500      	push	{lr}
20000112:	4603      	mov	r3, r0
20000114:	6800      	ldr	r0, [r0, #0]
20000116:	f3ef 8210 	mrs	r2, PRIMASK
2000011a:	b672      	cpsid	i
2000011c:	e8d0 efcf 	ldaexb	lr, [r0]
20000120:	f05f 0c01 	movs.w	ip, #1
20000124:	f1be 0f00 	cmp.w	lr, #0
20000128:	d1f8      	bne.n	2000011c <mutex_try_enter+0xc>
2000012a:	e8c0 cf4e 	strexb	lr, ip, [r0]
2000012e:	f1be 0f00 	cmp.w	lr, #0
20000132:	d1f3      	bne.n	2000011c <mutex_try_enter+0xc>
20000134:	f3bf 8f5f 	dmb	sy
20000138:	f993 0004 	ldrsb.w	r0, [r3, #4]
2000013c:	2800      	cmp	r0, #0
2000013e:	db0a      	blt.n	20000156 <mutex_try_enter+0x46>
20000140:	b181      	cbz	r1, 20000164 <mutex_try_enter+0x54>
20000142:	6008      	str	r0, [r1, #0]
20000144:	2000      	movs	r0, #0
20000146:	6819      	ldr	r1, [r3, #0]
20000148:	2300      	movs	r3, #0
2000014a:	e8c1 3f8f 	stlb	r3, [r1]
2000014e:	f382 8810 	msr	PRIMASK, r2
20000152:	f85d fb04 	ldr.w	pc, [sp], #4
20000156:	f04f 4150 	mov.w	r1, #3489660928	@ 0xd0000000
2000015a:	f991 1000 	ldrsb.w	r1, [r1]
2000015e:	7119      	strb	r1, [r3, #4]
20000160:	2001      	movs	r0, #1
20000162:	e7f0      	b.n	20000146 <mutex_try_enter+0x36>
20000164:	2000      	movs	r0, #0
20000166:	e7ee      	b.n	20000146 <mutex_try_enter+0x36>

20000168 <mutex_enter_block_until>:
20000168:	b5f8      	push	{r3, r4, r5, r6, r7, lr}
2000016a:	461e      	mov	r6, r3
2000016c:	6803      	ldr	r3, [r0, #0]
2000016e:	2b00      	cmp	r3, #0
20000170:	d027      	beq.n	200001c2 <mutex_enter_block_until+0x5a>
20000172:	4604      	mov	r4, r0
20000174:	4615      	mov	r5, r2
20000176:	f04f 4350 	mov.w	r3, #3489660928	@ 0xd0000000
2000017a:	f993 7000 	ldrsb.w	r7, [r3]
2000017e:	6821      	ldr	r1, [r4, #0]
20000180:	f3ef 8c10 	mrs	ip, PRIMASK
20000184:	b672      	cpsid	i
20000186:	e8d1 2fcf 	ldaexb	r2, [r1]
2000018a:	2301      	movs	r3, #1
2000018c:	2a00      	cmp	r2, #0
2000018e:	d1fa      	bne.n	20000186 <mutex_enter_block_until+0x1e>
20000190:	e8c1 3f42 	strexb	r2, r3, [r1]
20000194:	2a00      	cmp	r2, #0
20000196:	d1f6      	bne.n	20000186 <mutex_enter_block_until+0x1e>
20000198:	f3bf 8f5f 	dmb	sy
2000019c:	f994 e004 	ldrsb.w	lr, [r4, #4]
200001a0:	f1be 0f00 	cmp.w	lr, #0
200001a4:	db13      	blt.n	200001ce <mutex_enter_block_until+0x66>
200001a6:	6822      	ldr	r2, [r4, #0]
200001a8:	2300      	movs	r3, #0
200001aa:	e8c2 3f8f 	stlb	r3, [r2]
200001ae:	f38c 8810 	msr	PRIMASK, ip
200001b2:	4628      	mov	r0, r5
200001b4:	4631      	mov	r1, r6
200001b6:	f000 fa1b 	bl	200005f0 <__best_effort_wfe_or_timeout_veneer>
200001ba:	2800      	cmp	r0, #0
200001bc:	d0df      	beq.n	2000017e <mutex_enter_block_until+0x16>
200001be:	2000      	movs	r0, #0
200001c0:	e00d      	b.n	200001de <mutex_enter_block_until+0x76>
200001c2:	4b07      	ldr	r3, [pc, #28]	@ (200001e0 <mutex_enter_block_until+0x78>)
200001c4:	4a07      	ldr	r2, [pc, #28]	@ (200001e4 <mutex_enter_block_until+0x7c>)
200001c6:	21a6      	movs	r1, #166	@ 0xa6
200001c8:	4807      	ldr	r0, [pc, #28]	@ (200001e8 <mutex_enter_block_until+0x80>)
200001ca:	f000 fa15 	bl	200005f8 <____assert_func_veneer>
200001ce:	7127      	strb	r7, [r4, #4]
200001d0:	6822      	ldr	r2, [r4, #0]
200001d2:	2300      	movs	r3, #0
200001d4:	e8c2 3f8f 	stlb	r3, [r2]
200001d8:	f38c 8810 	msr	PRIMASK, ip
200001dc:	2001      	movs	r0, #1
200001de:	bdf8      	pop	{r3, r4, r5, r6, r7, pc}
200001e0:	10007e80 	.word	0x10007e80
200001e4:	1000842c 	.word	0x1000842c
200001e8:	10007e38 	.word	0x10007e38

200001ec <mutex_try_enter_block_until>:
200001ec:	b570      	push	{r4, r5, r6, lr}
200001ee:	b082      	sub	sp, #8
200001f0:	4606      	mov	r6, r0
200001f2:	4615      	mov	r5, r2
200001f4:	461c      	mov	r4, r3
200001f6:	a901      	add	r1, sp, #4
200001f8:	f7ff ff8a 	bl	20000110 <mutex_try_enter>
200001fc:	b938      	cbnz	r0, 2000020e <mutex_try_enter_block_until+0x22>
200001fe:	f99d 2004 	ldrsb.w	r2, [sp, #4]
20000202:	f04f 4350 	mov.w	r3, #3489660928	@ 0xd0000000
20000206:	f993 3000 	ldrsb.w	r3, [r3]
2000020a:	429a      	cmp	r2, r3
2000020c:	d101      	bne.n	20000212 <mutex_try_enter_block_until+0x26>
2000020e:	b002      	add	sp, #8
20000210:	bd70      	pop	{r4, r5, r6, pc}
20000212:	462a      	mov	r2, r5
20000214:	4623      	mov	r3, r4
20000216:	4630      	mov	r0, r6
20000218:	f7ff ffa6 	bl	20000168 <mutex_enter_block_until>
2000021c:	e7f7      	b.n	2000020e <mutex_try_enter_block_until+0x22>
	...

20000220 <mutex_exit>:
20000220:	b508      	push	{r3, lr}
20000222:	6802      	ldr	r2, [r0, #0]
20000224:	f3ef 8310 	mrs	r3, PRIMASK
20000228:	b672      	cpsid	i
2000022a:	e8d2 cfcf 	ldaexb	ip, [r2]
2000022e:	2101      	movs	r1, #1
20000230:	f1bc 0f00 	cmp.w	ip, #0
20000234:	d1f9      	bne.n	2000022a <mutex_exit+0xa>
20000236:	e8c2 1f4c 	strexb	ip, r1, [r2]
2000023a:	f1bc 0f00 	cmp.w	ip, #0
2000023e:	d1f4      	bne.n	2000022a <mutex_exit+0xa>
20000240:	f3bf 8f5f 	dmb	sy
20000244:	f990 2004 	ldrsb.w	r2, [r0, #4]
20000248:	2a00      	cmp	r2, #0
2000024a:	db09      	blt.n	20000260 <mutex_exit+0x40>
2000024c:	22ff      	movs	r2, #255	@ 0xff
2000024e:	7102      	strb	r2, [r0, #4]
20000250:	6801      	ldr	r1, [r0, #0]
20000252:	2200      	movs	r2, #0
20000254:	e8c1 2f8f 	stlb	r2, [r1]
20000258:	f383 8810 	msr	PRIMASK, r3
2000025c:	bf40      	sev
2000025e:	bd08      	pop	{r3, pc}
20000260:	4b02      	ldr	r3, [pc, #8]	@ (2000026c <mutex_exit+0x4c>)
20000262:	4a03      	ldr	r2, [pc, #12]	@ (20000270 <mutex_exit+0x50>)
20000264:	21d5      	movs	r1, #213	@ 0xd5
20000266:	4803      	ldr	r0, [pc, #12]	@ (20000274 <mutex_exit+0x54>)
20000268:	f000 f9c6 	bl	200005f8 <____assert_func_veneer>
2000026c:	10007e94 	.word	0x10007e94
20000270:	10008420 	.word	0x10008420
20000274:	10007e38 	.word	0x10007e38

20000278 <__aeabi_drsub>:
20000278:	f081 4100 	eor.w	r1, r1, #2147483648	@ 0x80000000
2000027c:	e002      	b.n	20000284 <__adddf3>
2000027e:	bf00      	nop

20000280 <__aeabi_dsub>:
20000280:	f083 4300 	eor.w	r3, r3, #2147483648	@ 0x80000000

20000284 <__adddf3>:
20000284:	b530      	push	{r4, r5, lr}
20000286:	ea4f 0441 	mov.w	r4, r1, lsl #1
2000028a:	ea4f 0543 	mov.w	r5, r3, lsl #1
2000028e:	ea94 0f05 	teq	r4, r5
20000292:	bf08      	it	eq
20000294:	ea90 0f02 	teqeq	r0, r2
20000298:	bf1f      	itttt	ne
2000029a:	ea54 0c00 	orrsne.w	ip, r4, r0
2000029e:	ea55 0c02 	orrsne.w	ip, r5, r2
200002a2:	ea7f 5c64 	mvnsne.w	ip, r4, asr #21
200002a6:	ea7f 5c65 	mvnsne.w	ip, r5, asr #21
200002aa:	f000 80e2 	beq.w	20000472 <__adddf3+0x1ee>
200002ae:	ea4f 5454 	mov.w	r4, r4, lsr #21
200002b2:	ebd4 5555 	rsbs	r5, r4, r5, lsr #21
200002b6:	bfb8      	it	lt
200002b8:	426d      	neglt	r5, r5
200002ba:	dd0c      	ble.n	200002d6 <__adddf3+0x52>
200002bc:	442c      	add	r4, r5
200002be:	ea80 0202 	eor.w	r2, r0, r2
200002c2:	ea81 0303 	eor.w	r3, r1, r3
200002c6:	ea82 0000 	eor.w	r0, r2, r0
200002ca:	ea83 0101 	eor.w	r1, r3, r1
200002ce:	ea80 0202 	eor.w	r2, r0, r2
200002d2:	ea81 0303 	eor.w	r3, r1, r3
200002d6:	2d36      	cmp	r5, #54	@ 0x36
200002d8:	bf88      	it	hi
200002da:	bd30      	pophi	{r4, r5, pc}
200002dc:	f011 4f00 	tst.w	r1, #2147483648	@ 0x80000000
200002e0:	ea4f 3101 	mov.w	r1, r1, lsl #12
200002e4:	f44f 1c80 	mov.w	ip, #1048576	@ 0x100000
200002e8:	ea4c 3111 	orr.w	r1, ip, r1, lsr #12
200002ec:	d002      	beq.n	200002f4 <__adddf3+0x70>
200002ee:	4240      	negs	r0, r0
200002f0:	eb61 0141 	sbc.w	r1, r1, r1, lsl #1
200002f4:	f013 4f00 	tst.w	r3, #2147483648	@ 0x80000000
200002f8:	ea4f 3303 	mov.w	r3, r3, lsl #12
200002fc:	ea4c 3313 	orr.w	r3, ip, r3, lsr #12
20000300:	d002      	beq.n	20000308 <__adddf3+0x84>
20000302:	4252      	negs	r2, r2
20000304:	eb63 0343 	sbc.w	r3, r3, r3, lsl #1
20000308:	ea94 0f05 	teq	r4, r5
2000030c:	f000 80a7 	beq.w	2000045e <__adddf3+0x1da>
20000310:	f1a4 0401 	sub.w	r4, r4, #1
20000314:	f1d5 0e20 	rsbs	lr, r5, #32
20000318:	db0d      	blt.n	20000336 <__adddf3+0xb2>
2000031a:	fa02 fc0e 	lsl.w	ip, r2, lr
2000031e:	fa22 f205 	lsr.w	r2, r2, r5
20000322:	1880      	adds	r0, r0, r2
20000324:	f141 0100 	adc.w	r1, r1, #0
20000328:	fa03 f20e 	lsl.w	r2, r3, lr
2000032c:	1880      	adds	r0, r0, r2
2000032e:	fa43 f305 	asr.w	r3, r3, r5
20000332:	4159      	adcs	r1, r3
20000334:	e00e      	b.n	20000354 <__adddf3+0xd0>
20000336:	f1a5 0520 	sub.w	r5, r5, #32
2000033a:	f10e 0e20 	add.w	lr, lr, #32
2000033e:	2a01      	cmp	r2, #1
20000340:	fa03 fc0e 	lsl.w	ip, r3, lr
20000344:	bf28      	it	cs
20000346:	f04c 0c02 	orrcs.w	ip, ip, #2
2000034a:	fa43 f305 	asr.w	r3, r3, r5
2000034e:	18c0      	adds	r0, r0, r3
20000350:	eb51 71e3 	adcs.w	r1, r1, r3, asr #31
20000354:	f001 4500 	and.w	r5, r1, #2147483648	@ 0x80000000
20000358:	d507      	bpl.n	2000036a <__adddf3+0xe6>
2000035a:	f04f 0e00 	mov.w	lr, #0
2000035e:	f1dc 0c00 	rsbs	ip, ip, #0
20000362:	eb7e 0000 	sbcs.w	r0, lr, r0
20000366:	eb6e 0101 	sbc.w	r1, lr, r1
2000036a:	f5b1 1f80 	cmp.w	r1, #1048576	@ 0x100000
2000036e:	d31b      	bcc.n	200003a8 <__adddf3+0x124>
20000370:	f5b1 1f00 	cmp.w	r1, #2097152	@ 0x200000
20000374:	d30c      	bcc.n	20000390 <__adddf3+0x10c>
20000376:	0849      	lsrs	r1, r1, #1
20000378:	ea5f 0030 	movs.w	r0, r0, rrx
2000037c:	ea4f 0c3c 	mov.w	ip, ip, rrx
20000380:	f104 0401 	add.w	r4, r4, #1
20000384:	ea4f 5244 	mov.w	r2, r4, lsl #21
20000388:	f512 0f80 	cmn.w	r2, #4194304	@ 0x400000
2000038c:	f080 809a 	bcs.w	200004c4 <__adddf3+0x240>
20000390:	f1bc 4f00 	cmp.w	ip, #2147483648	@ 0x80000000
20000394:	bf08      	it	eq
20000396:	ea5f 0c50 	movseq.w	ip, r0, lsr #1
2000039a:	f150 0000 	adcs.w	r0, r0, #0
2000039e:	eb41 5104 	adc.w	r1, r1, r4, lsl #20
200003a2:	ea41 0105 	orr.w	r1, r1, r5
200003a6:	bd30      	pop	{r4, r5, pc}
200003a8:	ea5f 0c4c 	movs.w	ip, ip, lsl #1
200003ac:	4140      	adcs	r0, r0
200003ae:	eb41 0101 	adc.w	r1, r1, r1
200003b2:	3c01      	subs	r4, #1
200003b4:	bf28      	it	cs
200003b6:	f5b1 1f80 	cmpcs.w	r1, #1048576	@ 0x100000
200003ba:	d2e9      	bcs.n	20000390 <__adddf3+0x10c>
200003bc:	f091 0f00 	teq	r1, #0
200003c0:	bf04      	itt	eq
200003c2:	4601      	moveq	r1, r0
200003c4:	2000      	moveq	r0, #0
200003c6:	fab1 f381 	clz	r3, r1
200003ca:	bf08      	it	eq
200003cc:	3320      	addeq	r3, #32
200003ce:	f1a3 030b 	sub.w	r3, r3, #11
200003d2:	f1b3 0220 	subs.w	r2, r3, #32
200003d6:	da0c      	bge.n	200003f2 <__adddf3+0x16e>
200003d8:	320c      	adds	r2, #12
200003da:	dd08      	ble.n	200003ee <__adddf3+0x16a>
200003dc:	f102 0c14 	add.w	ip, r2, #20
200003e0:	f1c2 020c 	rsb	r2, r2, #12
200003e4:	fa01 f00c 	lsl.w	r0, r1, ip
200003e8:	fa21 f102 	lsr.w	r1, r1, r2
200003ec:	e00c      	b.n	20000408 <__adddf3+0x184>
200003ee:	f102 0214 	add.w	r2, r2, #20
200003f2:	bfd8      	it	le
200003f4:	f1c2 0c20 	rsble	ip, r2, #32
200003f8:	fa01 f102 	lsl.w	r1, r1, r2
200003fc:	fa20 fc0c 	lsr.w	ip, r0, ip
20000400:	bfdc      	itt	le
20000402:	ea41 010c 	orrle.w	r1, r1, ip
20000406:	4090      	lslle	r0, r2
20000408:	1ae4      	subs	r4, r4, r3
2000040a:	bfa2      	ittt	ge
2000040c:	eb01 5104 	addge.w	r1, r1, r4, lsl #20
20000410:	4329      	orrge	r1, r5
20000412:	bd30      	popge	{r4, r5, pc}
20000414:	ea6f 0404 	mvn.w	r4, r4
20000418:	3c1f      	subs	r4, #31
2000041a:	da1c      	bge.n	20000456 <__adddf3+0x1d2>
2000041c:	340c      	adds	r4, #12
2000041e:	dc0e      	bgt.n	2000043e <__adddf3+0x1ba>
20000420:	f104 0414 	add.w	r4, r4, #20
20000424:	f1c4 0220 	rsb	r2, r4, #32
20000428:	fa20 f004 	lsr.w	r0, r0, r4
2000042c:	fa01 f302 	lsl.w	r3, r1, r2
20000430:	ea40 0003 	orr.w	r0, r0, r3
20000434:	fa21 f304 	lsr.w	r3, r1, r4
20000438:	ea45 0103 	orr.w	r1, r5, r3
2000043c:	bd30      	pop	{r4, r5, pc}
2000043e:	f1c4 040c 	rsb	r4, r4, #12
20000442:	f1c4 0220 	rsb	r2, r4, #32
20000446:	fa20 f002 	lsr.w	r0, r0, r2
2000044a:	fa01 f304 	lsl.w	r3, r1, r4
2000044e:	ea40 0003 	orr.w	r0, r0, r3
20000452:	4629      	mov	r1, r5
20000454:	bd30      	pop	{r4, r5, pc}
20000456:	fa21 f004 	lsr.w	r0, r1, r4
2000045a:	4629      	mov	r1, r5
2000045c:	bd30      	pop	{r4, r5, pc}
2000045e:	f094 0f00 	teq	r4, #0
20000462:	f483 1380 	eor.w	r3, r3, #1048576	@ 0x100000
20000466:	bf06      	itte	eq
20000468:	f481 1180 	eoreq.w	r1, r1, #1048576	@ 0x100000
2000046c:	3401      	addeq	r4, #1
2000046e:	3d01      	subne	r5, #1
20000470:	e74e      	b.n	20000310 <__adddf3+0x8c>
20000472:	ea7f 5c64 	mvns.w	ip, r4, asr #21
20000476:	bf18      	it	ne
20000478:	ea7f 5c65 	mvnsne.w	ip, r5, asr #21
2000047c:	d029      	beq.n	200004d2 <__adddf3+0x24e>
2000047e:	ea94 0f05 	teq	r4, r5
20000482:	bf08      	it	eq
20000484:	ea90 0f02 	teqeq	r0, r2
20000488:	d005      	beq.n	20000496 <__adddf3+0x212>
2000048a:	ea54 0c00 	orrs.w	ip, r4, r0
2000048e:	bf04      	itt	eq
20000490:	4619      	moveq	r1, r3
20000492:	4610      	moveq	r0, r2
20000494:	bd30      	pop	{r4, r5, pc}
20000496:	ea91 0f03 	teq	r1, r3
2000049a:	bf1e      	ittt	ne
2000049c:	2100      	movne	r1, #0
2000049e:	2000      	movne	r0, #0
200004a0:	bd30      	popne	{r4, r5, pc}
200004a2:	ea5f 5c54 	movs.w	ip, r4, lsr #21
200004a6:	d105      	bne.n	200004b4 <__adddf3+0x230>
200004a8:	0040      	lsls	r0, r0, #1
200004aa:	4149      	adcs	r1, r1
200004ac:	bf28      	it	cs
200004ae:	f041 4100 	orrcs.w	r1, r1, #2147483648	@ 0x80000000
200004b2:	bd30      	pop	{r4, r5, pc}
200004b4:	f514 0480 	adds.w	r4, r4, #4194304	@ 0x400000
200004b8:	bf3c      	itt	cc
200004ba:	f501 1180 	addcc.w	r1, r1, #1048576	@ 0x100000
200004be:	bd30      	popcc	{r4, r5, pc}
200004c0:	f001 4500 	and.w	r5, r1, #2147483648	@ 0x80000000
200004c4:	f045 41fe 	orr.w	r1, r5, #2130706432	@ 0x7f000000
200004c8:	f441 0170 	orr.w	r1, r1, #15728640	@ 0xf00000
200004cc:	f04f 0000 	mov.w	r0, #0
200004d0:	bd30      	pop	{r4, r5, pc}
200004d2:	ea7f 5c64 	mvns.w	ip, r4, asr #21
200004d6:	bf1a      	itte	ne
200004d8:	4619      	movne	r1, r3
200004da:	4610      	movne	r0, r2
200004dc:	ea7f 5c65 	mvnseq.w	ip, r5, asr #21
200004e0:	bf1c      	itt	ne
200004e2:	460b      	movne	r3, r1
200004e4:	4602      	movne	r2, r0
200004e6:	ea50 3401 	orrs.w	r4, r0, r1, lsl #12
200004ea:	bf06      	itte	eq
200004ec:	ea52 3503 	orrseq.w	r5, r2, r3, lsl #12
200004f0:	ea91 0f03 	teqeq	r1, r3
200004f4:	f441 2100 	orrne.w	r1, r1, #524288	@ 0x80000
200004f8:	bd30      	pop	{r4, r5, pc}
200004fa:	bf00      	nop

200004fc <__aeabi_ui2d>:
200004fc:	f090 0f00 	teq	r0, #0
20000500:	bf04      	itt	eq
20000502:	2100      	moveq	r1, #0
20000504:	4770      	bxeq	lr
20000506:	b530      	push	{r4, r5, lr}
20000508:	f44f 6480 	mov.w	r4, #1024	@ 0x400
2000050c:	f104 0432 	add.w	r4, r4, #50	@ 0x32
20000510:	f04f 0500 	mov.w	r5, #0
20000514:	f04f 0100 	mov.w	r1, #0
20000518:	e750      	b.n	200003bc <__adddf3+0x138>
2000051a:	bf00      	nop

2000051c <__aeabi_i2d>:
2000051c:	f090 0f00 	teq	r0, #0
20000520:	bf04      	itt	eq
20000522:	2100      	moveq	r1, #0
20000524:	4770      	bxeq	lr
20000526:	b530      	push	{r4, r5, lr}
20000528:	f44f 6480 	mov.w	r4, #1024	@ 0x400
2000052c:	f104 0432 	add.w	r4, r4, #50	@ 0x32
20000530:	f010 4500 	ands.w	r5, r0, #2147483648	@ 0x80000000
20000534:	bf48      	it	mi
20000536:	4240      	negmi	r0, r0
20000538:	f04f 0100 	mov.w	r1, #0
2000053c:	e73e      	b.n	200003bc <__adddf3+0x138>
2000053e:	bf00      	nop

20000540 <__aeabi_f2d>:
20000540:	0042      	lsls	r2, r0, #1
20000542:	ea4f 01e2 	mov.w	r1, r2, asr #3
20000546:	ea4f 0131 	mov.w	r1, r1, rrx
2000054a:	ea4f 7002 	mov.w	r0, r2, lsl #28
2000054e:	bf1f      	itttt	ne
20000550:	f012 437f 	andsne.w	r3, r2, #4278190080	@ 0xff000000
20000554:	f093 4f7f 	teqne	r3, #4278190080	@ 0xff000000
20000558:	f081 5160 	eorne.w	r1, r1, #939524096	@ 0x38000000
2000055c:	4770      	bxne	lr
2000055e:	f032 427f 	bics.w	r2, r2, #4278190080	@ 0xff000000
20000562:	bf08      	it	eq
20000564:	4770      	bxeq	lr
20000566:	f093 4f7f 	teq	r3, #4278190080	@ 0xff000000
2000056a:	bf04      	itt	eq
2000056c:	f441 2100 	orreq.w	r1, r1, #524288	@ 0x80000
20000570:	4770      	bxeq	lr
20000572:	b530      	push	{r4, r5, lr}
20000574:	f44f 7460 	mov.w	r4, #896	@ 0x380
20000578:	f001 4500 	and.w	r5, r1, #2147483648	@ 0x80000000
2000057c:	f021 4100 	bic.w	r1, r1, #2147483648	@ 0x80000000
20000580:	e71c      	b.n	200003bc <__adddf3+0x138>
20000582:	bf00      	nop

20000584 <__aeabi_ul2d>:
20000584:	ea50 0201 	orrs.w	r2, r0, r1
20000588:	bf08      	it	eq
2000058a:	4770      	bxeq	lr
2000058c:	b530      	push	{r4, r5, lr}
2000058e:	f04f 0500 	mov.w	r5, #0
20000592:	e00a      	b.n	200005aa <__aeabi_l2d+0x16>

20000594 <__aeabi_l2d>:
20000594:	ea50 0201 	orrs.w	r2, r0, r1
20000598:	bf08      	it	eq
2000059a:	4770      	bxeq	lr
2000059c:	b530      	push	{r4, r5, lr}
2000059e:	f011 4500 	ands.w	r5, r1, #2147483648	@ 0x80000000
200005a2:	d502      	bpl.n	200005aa <__aeabi_l2d+0x16>
200005a4:	4240      	negs	r0, r0
200005a6:	eb61 0141 	sbc.w	r1, r1, r1, lsl #1
200005aa:	f44f 6480 	mov.w	r4, #1024	@ 0x400
200005ae:	f104 0432 	add.w	r4, r4, #50	@ 0x32
200005b2:	ea5f 5c91 	movs.w	ip, r1, lsr #22
200005b6:	f43f aed8 	beq.w	2000036a <__adddf3+0xe6>
200005ba:	f04f 0203 	mov.w	r2, #3
200005be:	ea5f 0cdc 	movs.w	ip, ip, lsr #3
200005c2:	bf18      	it	ne
200005c4:	3203      	addne	r2, #3
200005c6:	ea5f 0cdc 	movs.w	ip, ip, lsr #3
200005ca:	bf18      	it	ne
200005cc:	3203      	addne	r2, #3
200005ce:	eb02 02dc 	add.w	r2, r2, ip, lsr #3
200005d2:	f1c2 0320 	rsb	r3, r2, #32
200005d6:	fa00 fc03 	lsl.w	ip, r0, r3
200005da:	fa20 f002 	lsr.w	r0, r0, r2
200005de:	fa01 fe03 	lsl.w	lr, r1, r3
200005e2:	ea40 000e 	orr.w	r0, r0, lr
200005e6:	fa21 f102 	lsr.w	r1, r1, r2
200005ea:	4414      	add	r4, r2
200005ec:	e6bd      	b.n	2000036a <__adddf3+0xe6>
200005ee:	bf00      	nop

200005f0 <__best_effort_wfe_or_timeout_veneer>:
200005f0:	f85f f000 	ldr.w	pc, [pc]	@ 200005f4 <__best_effort_wfe_or_timeout_veneer+0x4>
200005f4:	100018ed 	.word	0x100018ed

200005f8 <____assert_func_veneer>:
200005f8:	f85f f000 	ldr.w	pc, [pc]	@ 200005fc <____assert_func_veneer+0x4>
200005fc:	100023c9 	.word	0x100023c9

20000600 <striped_spin_lock_num>:
20000600:	00000010                                ....

20000604 <irq_handler_chain_slots>:
20000604:	00000000 	.word	0x00000000
20000608:	00010000 	.word	0x00010000
	...
20000614:	00020000 	.word	0x00020000
	...
20000620:	00030000 	.word	0x00030000
	...
2000062c:	00ff0000 	.word	0x00ff0000
20000630:	00000000 	.word	0x00000000

20000634 <irq_handler_chain_first_slot>:
20000634:	b501      	push	{r0, lr}
20000636:	6848      	ldr	r0, [r1, #4]
20000638:	3101      	adds	r1, #1
2000063a:	468e      	mov	lr, r1
2000063c:	4700      	bx	r0

2000063e <irq_handler_chain_remove_tail>:
2000063e:	4670      	mov	r0, lr
20000640:	3809      	subs	r0, #9
20000642:	4901      	ldr	r1, [pc, #4]	@ (20000648 <irq_handler_chain_remove_tail+0xa>)
20000644:	4788      	blx	r1
20000646:	bd01      	pop	{r0, pc}
20000648:	100011a1 	.word	0x100011a1

2000064c <default_alarm_pool>:
	...
20000660:	20000d58                                X.. 

20000664 <stdio_uart>:
20000664:	10002739 100027d1 10002759 100027e5     9'...'..Y'...'..
20000674:	00000000 00000100                       ........

2000067c <__malloc_sbrk_base>:
2000067c:	ffffffff                                ....

20000680 <__malloc_trim_threshold>:
20000680:	00020000 00000000                       ........

20000688 <__malloc_av_>:
	...
20000690:	20000688 20000688 20000690 20000690     ... ... ... ... 
200006a0:	20000698 20000698 200006a0 200006a0     ... ... ... ... 
200006b0:	200006a8 200006a8 200006b0 200006b0     ... ... ... ... 
200006c0:	200006b8 200006b8 200006c0 200006c0     ... ... ... ... 
200006d0:	200006c8 200006c8 200006d0 200006d0     ... ... ... ... 
200006e0:	200006d8 200006d8 200006e0 200006e0     ... ... ... ... 
200006f0:	200006e8 200006e8 200006f0 200006f0     ... ... ... ... 
20000700:	200006f8 200006f8 20000700 20000700     ... ... ... ... 
20000710:	20000708 20000708 20000710 20000710     ... ... ... ... 
20000720:	20000718 20000718 20000720 20000720     ... ...  ..  .. 
20000730:	20000728 20000728 20000730 20000730     (.. (.. 0.. 0.. 
20000740:	20000738 20000738 20000740 20000740     8.. 8.. @.. @.. 
20000750:	20000748 20000748 20000750 20000750     H.. H.. P.. P.. 
20000760:	20000758 20000758 20000760 20000760     X.. X.. `.. `.. 
20000770:	20000768 20000768 20000770 20000770     h.. h.. p.. p.. 
20000780:	20000778 20000778 20000780 20000780     x.. x.. ... ... 
20000790:	20000788 20000788 20000790 20000790     ... ... ... ... 
200007a0:	20000798 20000798 200007a0 200007a0     ... ... ... ... 
200007b0:	200007a8 200007a8 200007b0 200007b0     ... ... ... ... 
200007c0:	200007b8 200007b8 200007c0 200007c0     ... ... ... ... 
200007d0:	200007c8 200007c8 200007d0 200007d0     ... ... ... ... 
200007e0:	200007d8 200007d8 200007e0 200007e0     ... ... ... ... 
200007f0:	200007e8 200007e8 200007f0 200007f0     ... ... ... ... 
20000800:	200007f8 200007f8 20000800 20000800     ... ... ... ... 
20000810:	20000808 20000808 20000810 20000810     ... ... ... ... 
20000820:	20000818 20000818 20000820 20000820     ... ...  ..  .. 
20000830:	20000828 20000828 20000830 20000830     (.. (.. 0.. 0.. 
20000840:	20000838 20000838 20000840 20000840     8.. 8.. @.. @.. 
20000850:	20000848 20000848 20000850 20000850     H.. H.. P.. P.. 
20000860:	20000858 20000858 20000860 20000860     X.. X.. `.. `.. 
20000870:	20000868 20000868 20000870 20000870     h.. h.. p.. p.. 
20000880:	20000878 20000878 20000880 20000880     x.. x.. ... ... 
20000890:	20000888 20000888 20000890 20000890     ... ... ... ... 
200008a0:	20000898 20000898 200008a0 200008a0     ... ... ... ... 
200008b0:	200008a8 200008a8 200008b0 200008b0     ... ... ... ... 
200008c0:	200008b8 200008b8 200008c0 200008c0     ... ... ... ... 
200008d0:	200008c8 200008c8 200008d0 200008d0     ... ... ... ... 
200008e0:	200008d8 200008d8 200008e0 200008e0     ... ... ... ... 
200008f0:	200008e8 200008e8 200008f0 200008f0     ... ... ... ... 
20000900:	200008f8 200008f8 20000900 20000900     ... ... ... ... 
20000910:	20000908 20000908 20000910 20000910     ... ... ... ... 
20000920:	20000918 20000918 20000920 20000920     ... ...  ..  .. 
20000930:	20000928 20000928 20000930 20000930     (.. (.. 0.. 0.. 
20000940:	20000938 20000938 20000940 20000940     8.. 8.. @.. @.. 
20000950:	20000948 20000948 20000950 20000950     H.. H.. P.. P.. 
20000960:	20000958 20000958 20000960 20000960     X.. X.. `.. `.. 
20000970:	20000968 20000968 20000970 20000970     h.. h.. p.. p.. 
20000980:	20000978 20000978 20000980 20000980     x.. x.. ... ... 
20000990:	20000988 20000988 20000990 20000990     ... ... ... ... 
200009a0:	20000998 20000998 200009a0 200009a0     ... ... ... ... 
200009b0:	200009a8 200009a8 200009b0 200009b0     ... ... ... ... 
200009c0:	200009b8 200009b8 200009c0 200009c0     ... ... ... ... 
200009d0:	200009c8 200009c8 200009d0 200009d0     ... ... ... ... 
200009e0:	200009d8 200009d8 200009e0 200009e0     ... ... ... ... 
200009f0:	200009e8 200009e8 200009f0 200009f0     ... ... ... ... 
20000a00:	200009f8 200009f8 20000a00 20000a00     ... ... ... ... 
20000a10:	20000a08 20000a08 20000a10 20000a10     ... ... ... ... 
20000a20:	20000a18 20000a18 20000a20 20000a20     ... ...  ..  .. 
20000a30:	20000a28 20000a28 20000a30 20000a30     (.. (.. 0.. 0.. 
20000a40:	20000a38 20000a38 20000a40 20000a40     8.. 8.. @.. @.. 
20000a50:	20000a48 20000a48 20000a50 20000a50     H.. H.. P.. P.. 
20000a60:	20000a58 20000a58 20000a60 20000a60     X.. X.. `.. `.. 
20000a70:	20000a68 20000a68 20000a70 20000a70     h.. h.. p.. p.. 
20000a80:	20000a78 20000a78 20000a80 20000a80     x.. x.. ... ... 

20000a90 <_impure_ptr>:
20000a90:	20000a98 00000000                       ... ....

20000a98 <_impure_data>:
20000a98:	00000000 20000f14 20000f7c 20000fe4     ....... |.. ... 
	...
20000b30:	00000001 00000000 abcd330e e66d1234     .........3..4.m.
20000b40:	0005deec 0000000b 00000000 00000000     ................
	...

20000bd8 <__sglue>:
20000bd8:	00000000 00000003 20000f14              ........... 

20000be4 <__global_locale>:
20000be4:	00000043 00000000 00000000 00000000     C...............
	...
20000c04:	00000043 00000000 00000000 00000000     C...............
	...
20000c24:	00000043 00000000 00000000 00000000     C...............
	...
20000c44:	00000043 00000000 00000000 00000000     C...............
	...
20000c64:	00000043 00000000 00000000 00000000     C...............
	...
20000c84:	00000043 00000000 00000000 00000000     C...............
	...
20000ca4:	00000043 00000000 00000000 00000000     C...............
	...
20000cc4:	10007719 10006f61 00000000 1000851c     .w..ao..........
20000cd4:	100081d0 10007c00 10007c00 10007c00     .....|...|...|..
20000ce4:	10007c00 10007c00 10007c00 10007c00     .|...|...|...|..
20000cf4:	10007c00 10007c00 ffffffff ffffffff     .|...|..........
20000d04:	ffffffff 0000ffff 53410001 00494943     ..........ASCII.
	...
20000d2c:	53410000 00494943 00000000 00000000     ..ASCII.........
	...

20000d50 <print_mutex>:
	...
