
C:/Users/agras/pico/pico-examples/build/universal/hello_universal/rp2350-riscv/hello_universal.elf:     file format elf32-littleriscv

Sections:
Idx Name          Size      VMA       LMA       File off  Algn
  0 .text         00006fe0  10000000  10000000  00001000  2**2
                  CONTENTS, ALLOC, LOAD, READONLY, CODE
  1 .rodata       0000074c  10006fe0  10006fe0  00007fe0  2**3
                  CONTENTS, ALLOC, LOAD, READONLY, DATA
  2 .binary_info  0000002c  1000772c  1000772c  0000872c  2**2
                  CONTENTS, ALLOC, LOAD, READONLY, DATA
  3 .uninitialized_data 00000000  20000000  20000000  0000cdac  2**0
                  CONTENTS
  4 .data         00003640  20000000  10007758  00009000  2**6
                  CONTENTS, ALLOC, LOAD, CODE
  5 .tdata        00000000  20003640  20003640  0000cdac  2**0
                  CONTENTS, ALLOC, LOAD, DATA, THREAD_LOCAL
  6 .tbss         00000000  20003640  20003640  00000000  2**0
                  ALLOC, THREAD_LOCAL
  7 .bss          00000dc8  20003640  1000ad98  0000d640  2**3
                  ALLOC
  8 .heap         00000800  20004408  20004408  0000cdac  2**2
                  CONTENTS, READONLY
  9 .scratch_x    00000000  20080000  20080000  0000d5ac  2**0
                  CONTENTS
 10 .scratch_y    00000000  20081000  20081000  0000d5ac  2**0
                  CONTENTS
 11 .stack_dummy  00000800  20081000  20081000  0000d5c0  2**5
                  CONTENTS, READONLY
 12 .flash_end    00000014  1000ad98  1000ad98  0000cd98  2**2
                  CONTENTS, ALLOC, LOAD, READONLY, DATA
 13 .comment      00000031  00000000  00000000  0000ddc0  2**0
                  CONTENTS, READONLY
 14 .riscv.attributes 0000006a  00000000  00000000  0000ddf1  2**0
                  CONTENTS, READONLY
 15 .debug_info   0003109f  00000000  00000000  0000de5b  2**0
                  CONTENTS, READONLY, DEBUGGING, OCTETS
 16 .debug_abbrev 00009de7  00000000  00000000  0003eefa  2**0
                  CONTENTS, READONLY, DEBUGGING, OCTETS
 17 .debug_loclists 0001ac9e  00000000  00000000  00048ce1  2**0
                  CONTENTS, READONLY, DEBUGGING, OCTETS
 18 .debug_aranges 000013e0  00000000  00000000  00063980  2**3
                  CONTENTS, READONLY, DEBUGGING, OCTETS
 19 .debug_rnglists 00005727  00000000  00000000  00064d60  2**0
                  CONTENTS, READONLY, DEBUGGING, OCTETS
 20 .debug_line   00033160  00000000  00000000  0006a487  2**0
                  CONTENTS, READONLY, DEBUGGING, OCTETS
 21 .debug_str    0000871e  00000000  00000000  0009d5e7  2**0
                  CONTENTS, READONLY, DEBUGGING, OCTETS
 22 .debug_line_str 00002798  00000000  00000000  000a5d05  2**0
                  CONTENTS, READONLY, DEBUGGING, OCTETS
 23 .debug_frame  00003ef0  00000000  00000000  000a84a0  2**2
                  CONTENTS, READONLY, DEBUGGING, OCTETS

C:/Users/agras/pico/pico-examples/build/universal/hello_universal/rp2350-riscv/hello_universal.elf:     file format elf32-littleriscv


Disassembly of section .text:

10000000 <__flash_binary_start>:
10000000:	ebf2                	.insn	2, 0xebf2
10000002:	7188                	.insn	2, 0x7188
10000004:	772c                	.insn	2, 0x772c
10000006:	1000                	add	s0,sp,32
10000008:	7758                	.insn	2, 0x7758
1000000a:	1000                	add	s0,sp,32
1000000c:	00a4                	add	s1,sp,72
1000000e:	1000                	add	s0,sp,32
10000010:	a390                	.insn	2, 0xa390
10000012:	e71a                	.insn	2, 0xe71a

10000014 <__binary_info_header_end>:
10000014:	ffffded3          	.insn	4, 0xffffded3
10000018:	0142                	sll	sp,sp,0x10
1000001a:	1101                	add	sp,sp,-32
1000001c:	0344                	add	s1,sp,388
1000001e:	0000                	unimp
10000020:	0036                	c.slli	zero,0xd
10000022:	1000                	add	s0,sp,32
10000024:	2000                	.insn	2, 0x2000
10000026:	2008                	.insn	2, 0x2008
10000028:	04ff 0000 ad84 0000 	.insn	10, 0x35790000ad84000004ff
10000030:	3579 
10000032:	ab12                	.insn	2, 0xab12

10000034 <__embedded_block_end>:
10000034:	a869                	j	100000ce <reenter_bootrom>

10000036 <_reset_handler>:
10000036:	10005197          	auipc	gp,0x10005
1000003a:	b4318193          	add	gp,gp,-1213 # 20004b79 <__global_pointer$>
1000003e:	10082117          	auipc	sp,0x10082
10000042:	fc210113          	add	sp,sp,-62 # 20082000 <__StackTop>
10000046:	10003517          	auipc	a0,0x10003
1000004a:	3fb50513          	add	a0,a0,1019 # 20003441 <__VECTOR_TABLE+0x1>
1000004e:	30551073          	csrw	mtvec,a0
10000052:	f1402573          	csrr	a0,mhartid
10000056:	ed25                	bnez	a0,100000ce <reenter_bootrom>
10000058:	00000717          	auipc	a4,0x0
1000005c:	04c70713          	add	a4,a4,76 # 100000a4 <data_cpy_table>
10000060:	430c                	lw	a1,0(a4)
10000062:	c591                	beqz	a1,1000006e <_reset_handler+0x38>
10000064:	4350                	lw	a2,4(a4)
10000066:	4714                	lw	a3,8(a4)
10000068:	0731                	add	a4,a4,12
1000006a:	280d                	jal	1000009c <data_cpy>
1000006c:	bfd5                	j	10000060 <_reset_handler+0x2a>
1000006e:	10003597          	auipc	a1,0x10003
10000072:	5d258593          	add	a1,a1,1490 # 20003640 <__TMC_END__>
10000076:	88f18613          	add	a2,gp,-1905 # 20004408 <__bss_end__>
1000007a:	a021                	j	10000082 <bss_fill_test>

1000007c <bss_fill_loop>:
1000007c:	0005a023          	sw	zero,0(a1)
10000080:	0591                	add	a1,a1,4

10000082 <bss_fill_test>:
10000082:	fec59de3          	bne	a1,a2,1000007c <bss_fill_loop>

10000086 <platform_entry>:
10000086:	652030ef          	jal	100036d8 <runtime_init>
1000008a:	28ed                	jal	10000184 <main>
1000008c:	646030ef          	jal	100036d2 <exit>
10000090:	9002                	ebreak
10000092:	bffd                	j	10000090 <platform_entry+0xa>

10000094 <data_cpy_loop>:
10000094:	4188                	lw	a0,0(a1)
10000096:	c208                	sw	a0,0(a2)
10000098:	0591                	add	a1,a1,4
1000009a:	0611                	add	a2,a2,4

1000009c <data_cpy>:
1000009c:	fed66ce3          	bltu	a2,a3,10000094 <data_cpy_loop>
100000a0:	8082                	ret
100000a2:	0001                	nop

100000a4 <data_cpy_table>:
100000a4:	10007758          	.word	0x10007758
100000a8:	20000000          	.word	0x20000000
100000ac:	20003640          	.word	0x20003640
100000b0:	1000ad98          	.word	0x1000ad98
100000b4:	20080000          	.word	0x20080000
100000b8:	20080000          	.word	0x20080000
100000bc:	1000ad98          	.word	0x1000ad98
100000c0:	20081000          	.word	0x20081000
100000c4:	20081000          	.word	0x20081000
100000c8:	00000000          	.word	0x00000000
100000cc:	8082                	ret

100000ce <reenter_bootrom>:
100000ce:	6521                	lui	a0,0x8
100000d0:	dfc50513          	add	a0,a0,-516 # 7dfc <HeapSize+0x75fc>
100000d4:	8502                	jr	a0

100000d6 <deregister_tm_clones>:
100000d6:	20003537          	lui	a0,0x20003
100000da:	20003737          	lui	a4,0x20003
100000de:	64050793          	add	a5,a0,1600 # 20003640 <__TMC_END__>
100000e2:	64070713          	add	a4,a4,1600 # 20003640 <__TMC_END__>
100000e6:	00f70863          	beq	a4,a5,100000f6 <deregister_tm_clones+0x20>
100000ea:	00000793          	li	a5,0
100000ee:	c781                	beqz	a5,100000f6 <deregister_tm_clones+0x20>
100000f0:	64050513          	add	a0,a0,1600
100000f4:	8782                	jr	a5
100000f6:	8082                	ret

100000f8 <register_tm_clones>:
100000f8:	20003537          	lui	a0,0x20003
100000fc:	64050793          	add	a5,a0,1600 # 20003640 <__TMC_END__>
10000100:	20003737          	lui	a4,0x20003
10000104:	64070593          	add	a1,a4,1600 # 20003640 <__TMC_END__>
10000108:	8d9d                	sub	a1,a1,a5
1000010a:	4025d793          	sra	a5,a1,0x2
1000010e:	81fd                	srl	a1,a1,0x1f
10000110:	95be                	add	a1,a1,a5
10000112:	8585                	sra	a1,a1,0x1
10000114:	c599                	beqz	a1,10000122 <register_tm_clones+0x2a>
10000116:	00000793          	li	a5,0
1000011a:	c781                	beqz	a5,10000122 <register_tm_clones+0x2a>
1000011c:	64050513          	add	a0,a0,1600
10000120:	8782                	jr	a5
10000122:	8082                	ret

10000124 <__do_global_dtors_aux>:
10000124:	1141                	add	sp,sp,-16
10000126:	c422                	sw	s0,8(sp)
10000128:	20003437          	lui	s0,0x20003
1000012c:	7c044783          	lbu	a5,1984(s0) # 200037c0 <completed.1>
10000130:	c606                	sw	ra,12(sp)
10000132:	e385                	bnez	a5,10000152 <__do_global_dtors_aux+0x2e>
10000134:	374d                	jal	100000d6 <deregister_tm_clones>
10000136:	00000793          	li	a5,0
1000013a:	cb89                	beqz	a5,1000014c <__do_global_dtors_aux+0x28>
1000013c:	10007537          	lui	a0,0x10007
10000140:	fe050513          	add	a0,a0,-32 # 10006fe0 <__EH_FRAME_BEGIN__>
10000144:	00000097          	auipc	ra,0x0
10000148:	000000e7          	jalr	zero # 0 <next_slot_number-0x5>
1000014c:	4785                	li	a5,1
1000014e:	7cf40023          	sb	a5,1984(s0)
10000152:	40b2                	lw	ra,12(sp)
10000154:	4422                	lw	s0,8(sp)
10000156:	0141                	add	sp,sp,16
10000158:	8082                	ret

1000015a <frame_dummy>:
1000015a:	00000793          	li	a5,0
1000015e:	c395                	beqz	a5,10000182 <frame_dummy+0x28>
10000160:	200035b7          	lui	a1,0x20003
10000164:	10007537          	lui	a0,0x10007
10000168:	1141                	add	sp,sp,-16
1000016a:	7c458593          	add	a1,a1,1988 # 200037c4 <object.0>
1000016e:	fe050513          	add	a0,a0,-32 # 10006fe0 <__EH_FRAME_BEGIN__>
10000172:	c606                	sw	ra,12(sp)
10000174:	00000097          	auipc	ra,0x0
10000178:	000000e7          	jalr	zero # 0 <next_slot_number-0x5>
1000017c:	40b2                	lw	ra,12(sp)
1000017e:	0141                	add	sp,sp,16
10000180:	bfa5                	j	100000f8 <register_tm_clones>
10000182:	bf9d                	j	100000f8 <register_tm_clones>

10000184 <main>:
10000184:	1101                	add	sp,sp,-32
10000186:	ce06                	sw	ra,28(sp)
10000188:	cc22                	sw	s0,24(sp)
1000018a:	ca26                	sw	s1,20(sp)
1000018c:	c84a                	sw	s2,16(sp)
1000018e:	c64e                	sw	s3,12(sp)
10000190:	c452                	sw	s4,8(sp)
10000192:	c256                	sw	s5,4(sp)
10000194:	c05a                	sw	s6,0(sp)
10000196:	7fc030ef          	jal	10003992 <stdio_init_all>
1000019a:	4565                	li	a0,25
1000019c:	28d9                	jal	10000272 <gpio_init>
1000019e:	d00007b7          	lui	a5,0xd0000
100001a2:	02000737          	lui	a4,0x2000
100001a6:	df98                	sw	a4,56(a5)
100001a8:	cf98                	sw	a4,24(a5)
100001aa:	44a9                	li	s1,10
100001ac:	4405                	li	s0,1
100001ae:	10007a37          	lui	s4,0x10007
100001b2:	100079b7          	lui	s3,0x10007
100001b6:	10007937          	lui	s2,0x10007
100001ba:	d0000b37          	lui	s6,0xd0000
100001be:	02000ab7          	lui	s5,0x2000
100001c2:	fe0a0513          	add	a0,s4,-32 # 10006fe0 <__EH_FRAME_BEGIN__>
100001c6:	083030ef          	jal	10003a48 <__wrap_puts>
100001ca:	ff098513          	add	a0,s3,-16 # 10006ff0 <__EH_FRAME_BEGIN__+0x10>
100001ce:	1a1030ef          	jal	10003b6e <__wrap_printf>
100001d2:	00090513          	mv	a0,s2
100001d6:	073030ef          	jal	10003a48 <__wrap_puts>
100001da:	00144413          	xor	s0,s0,1
100001de:	3e800513          	li	a0,1000
100001e2:	c439                	beqz	s0,10000230 <main+0xac>
100001e4:	015b2c23          	sw	s5,24(s6) # d0000018 <__StackTop+0xaff7e018>
100001e8:	14fd                	add	s1,s1,-1
100001ea:	578010ef          	jal	10001762 <sleep_ms>
100001ee:	f8f1                	bnez	s1,100001c2 <main+0x3e>
100001f0:	67a1                	lui	a5,0x8
100001f2:	dfa7d703          	lhu	a4,-518(a5) # 7dfa <HeapSize+0x75fa>
100001f6:	6511                	lui	a0,0x4
100001f8:	4585                	li	a1,1
100001fa:	25250513          	add	a0,a0,594 # 4252 <HeapSize+0x3a52>
100001fe:	9702                	jalr	a4
10000200:	87aa                	mv	a5,a0
10000202:	4681                	li	a3,0
10000204:	4601                	li	a2,0
10000206:	3e800593          	li	a1,1000
1000020a:	4541                	li	a0,16
1000020c:	9782                	jalr	a5
1000020e:	10007537          	lui	a0,0x10007
10000212:	01050513          	add	a0,a0,16 # 10007010 <__EH_FRAME_BEGIN__+0x30>
10000216:	033030ef          	jal	10003a48 <__wrap_puts>
1000021a:	40f2                	lw	ra,28(sp)
1000021c:	4462                	lw	s0,24(sp)
1000021e:	44d2                	lw	s1,20(sp)
10000220:	4942                	lw	s2,16(sp)
10000222:	49b2                	lw	s3,12(sp)
10000224:	4a22                	lw	s4,8(sp)
10000226:	4a92                	lw	s5,4(sp)
10000228:	4b02                	lw	s6,0(sp)
1000022a:	4501                	li	a0,0
1000022c:	6105                	add	sp,sp,32
1000022e:	8082                	ret
10000230:	035b2023          	sw	s5,32(s6)
10000234:	3e800513          	li	a0,1000
10000238:	14fd                	add	s1,s1,-1
1000023a:	528010ef          	jal	10001762 <sleep_ms>
1000023e:	f0d1                	bnez	s1,100001c2 <main+0x3e>
10000240:	bf45                	j	100001f0 <main+0x6c>

10000242 <gpio_set_function>:
10000242:	400387b7          	lui	a5,0x40038
10000246:	0791                	add	a5,a5,4 # 40038004 <__StackTop+0x1ffb6004>
10000248:	20f547b3          	sh2add	a5,a0,a5
1000024c:	4398                	lw	a4,0(a5)
1000024e:	6685                	lui	a3,0x1
10000250:	96be                	add	a3,a3,a5
10000252:	04074713          	xor	a4,a4,64
10000256:	0c077713          	and	a4,a4,192
1000025a:	c298                	sw	a4,0(a3)
1000025c:	670d                	lui	a4,0x3
1000025e:	97ba                	add	a5,a5,a4
10000260:	40028737          	lui	a4,0x40028
10000264:	20e56533          	sh3add	a0,a0,a4
10000268:	10000713          	li	a4,256
1000026c:	c14c                	sw	a1,4(a0)
1000026e:	c398                	sw	a4,0(a5)
10000270:	8082                	ret

10000272 <gpio_init>:
10000272:	d0000737          	lui	a4,0xd0000
10000276:	28a016b3          	bset	a3,zero,a0
1000027a:	400387b7          	lui	a5,0x40038
1000027e:	c334                	sw	a3,64(a4)
10000280:	d314                	sw	a3,32(a4)
10000282:	0791                	add	a5,a5,4 # 40038004 <__StackTop+0x1ffb6004>
10000284:	20f547b3          	sh2add	a5,a0,a5
10000288:	4398                	lw	a4,0(a5)
1000028a:	6685                	lui	a3,0x1
1000028c:	96be                	add	a3,a3,a5
1000028e:	04074713          	xor	a4,a4,64
10000292:	0c077713          	and	a4,a4,192
10000296:	c298                	sw	a4,0(a3)
10000298:	670d                	lui	a4,0x3
1000029a:	97ba                	add	a5,a5,a4
1000029c:	40028737          	lui	a4,0x40028
100002a0:	20e56533          	sh3add	a0,a0,a4
100002a4:	4715                	li	a4,5
100002a6:	c158                	sw	a4,4(a0)
100002a8:	10000713          	li	a4,256
100002ac:	c398                	sw	a4,0(a5)
100002ae:	8082                	ret

100002b0 <panic>:
100002b0:	7139                	add	sp,sp,-64
100002b2:	cc22                	sw	s0,24(sp)
100002b4:	842a                	mv	s0,a0
100002b6:	10007537          	lui	a0,0x10007
100002ba:	03050513          	add	a0,a0,48 # 10007030 <__EH_FRAME_BEGIN__+0x50>
100002be:	ce06                	sw	ra,28(sp)
100002c0:	d22e                	sw	a1,36(sp)
100002c2:	d432                	sw	a2,40(sp)
100002c4:	d636                	sw	a3,44(sp)
100002c6:	d83a                	sw	a4,48(sp)
100002c8:	da3e                	sw	a5,52(sp)
100002ca:	dc42                	sw	a6,56(sp)
100002cc:	de46                	sw	a7,60(sp)
100002ce:	77a030ef          	jal	10003a48 <__wrap_puts>
100002d2:	cc01                	beqz	s0,100002ea <panic+0x3a>
100002d4:	104c                	add	a1,sp,36
100002d6:	8522                	mv	a0,s0
100002d8:	c62e                	sw	a1,12(sp)
100002da:	3a6030ef          	jal	10003680 <weak_raw_vprintf>
100002de:	10007537          	lui	a0,0x10007
100002e2:	04050513          	add	a0,a0,64 # 10007040 <__EH_FRAME_BEGIN__+0x60>
100002e6:	762030ef          	jal	10003a48 <__wrap_puts>
100002ea:	4505                	li	a0,1
100002ec:	3e2030ef          	jal	100036ce <_exit>

100002f0 <hw_claim_or_assert>:
100002f0:	300476f3          	csrrc	a3,mstatus,8
100002f4:	20004737          	lui	a4,0x20004
100002f8:	ac370713          	add	a4,a4,-1341 # 20003ac3 <_sw_spin_locks+0xb>
100002fc:	00371813          	sll	a6,a4,0x3
10000300:	29001833          	bset	a6,zero,a6
10000304:	9b71                	and	a4,a4,-4
10000306:	450728af          	amoor.w.aq	a7,a6,(a4)
1000030a:	0108f8b3          	and	a7,a7,a6
1000030e:	fe089ce3          	bnez	a7,10000306 <hw_claim_or_assert+0x16>
10000312:	0330000f          	fence	rw,rw
10000316:	0035d713          	srl	a4,a1,0x3
1000031a:	953a                	add	a0,a0,a4
1000031c:	00054703          	lbu	a4,0(a0)
10000320:	0075f793          	and	a5,a1,7
10000324:	28f017b3          	bset	a5,zero,a5
10000328:	00f77833          	and	a6,a4,a5
1000032c:	02081163          	bnez	a6,1000034e <hw_claim_or_assert+0x5e>
10000330:	8f5d                	or	a4,a4,a5
10000332:	00e50023          	sb	a4,0(a0)
10000336:	0330000f          	fence	rw,rw
1000033a:	200047b7          	lui	a5,0x20004
1000033e:	ab878793          	add	a5,a5,-1352 # 20003ab8 <_sw_spin_locks>
10000342:	000785a3          	sb	zero,11(a5)
10000346:	8aa1                	and	a3,a3,8
10000348:	3006a073          	csrs	mstatus,a3
1000034c:	8082                	ret
1000034e:	1141                	add	sp,sp,-16
10000350:	8532                	mv	a0,a2
10000352:	c606                	sw	ra,12(sp)
10000354:	3fb1                	jal	100002b0 <panic>

10000356 <hw_claim_unused_from_range>:
10000356:	30047e73          	csrrc	t3,mstatus,8
1000035a:	200047b7          	lui	a5,0x20004
1000035e:	ac378793          	add	a5,a5,-1341 # 20003ac3 <_sw_spin_locks+0xb>
10000362:	00379813          	sll	a6,a5,0x3
10000366:	29001833          	bset	a6,zero,a6
1000036a:	9bf1                	and	a5,a5,-4
1000036c:	4507a8af          	amoor.w.aq	a7,a6,(a5)
10000370:	0108f8b3          	and	a7,a7,a6
10000374:	fe089ce3          	bnez	a7,1000036c <hw_claim_unused_from_range+0x16>
10000378:	0330000f          	fence	rw,rw
1000037c:	00c6f663          	bgeu	a3,a2,10000388 <hw_claim_unused_from_range+0x32>
10000380:	a0a9                	j	100003ca <hw_claim_unused_from_range+0x74>
10000382:	0605                	add	a2,a2,1
10000384:	06c6e563          	bltu	a3,a2,100003ee <hw_claim_unused_from_range+0x98>
10000388:	00365793          	srl	a5,a2,0x3
1000038c:	97aa                	add	a5,a5,a0
1000038e:	0007c883          	lbu	a7,0(a5)
10000392:	00767813          	and	a6,a2,7
10000396:	29001833          	bset	a6,zero,a6
1000039a:	0108f333          	and	t1,a7,a6
1000039e:	fe0312e3          	bnez	t1,10000382 <hw_claim_unused_from_range+0x2c>
100003a2:	0108e8b3          	or	a7,a7,a6
100003a6:	01178023          	sb	a7,0(a5)
100003aa:	8532                	mv	a0,a2
100003ac:	0330000f          	fence	rw,rw
100003b0:	200047b7          	lui	a5,0x20004
100003b4:	ab878793          	add	a5,a5,-1352 # 20003ab8 <_sw_spin_locks>
100003b8:	000785a3          	sb	zero,11(a5)
100003bc:	008e7e13          	and	t3,t3,8
100003c0:	300e2073          	csrs	mstatus,t3
100003c4:	02054063          	bltz	a0,100003e4 <hw_claim_unused_from_range+0x8e>
100003c8:	8082                	ret
100003ca:	0330000f          	fence	rw,rw
100003ce:	200047b7          	lui	a5,0x20004
100003d2:	ab878793          	add	a5,a5,-1352 # 20003ab8 <_sw_spin_locks>
100003d6:	000785a3          	sb	zero,11(a5)
100003da:	008e7e13          	and	t3,t3,8
100003de:	300e2073          	csrs	mstatus,t3
100003e2:	557d                	li	a0,-1
100003e4:	d1f5                	beqz	a1,100003c8 <hw_claim_unused_from_range+0x72>
100003e6:	1141                	add	sp,sp,-16
100003e8:	853a                	mv	a0,a4
100003ea:	c606                	sw	ra,12(sp)
100003ec:	35d1                	jal	100002b0 <panic>
100003ee:	557d                	li	a0,-1
100003f0:	bf75                	j	100003ac <hw_claim_unused_from_range+0x56>

100003f2 <next_striped_spin_lock_num>:
100003f2:	20003737          	lui	a4,0x20003
100003f6:	63474503          	lbu	a0,1588(a4) # 20003634 <striped_spin_lock_num>
100003fa:	46dd                	li	a3,23
100003fc:	00150793          	add	a5,a0,1
10000400:	0ff7f793          	zext.b	a5,a5
10000404:	00f6f363          	bgeu	a3,a5,1000040a <next_striped_spin_lock_num+0x18>
10000408:	47c1                	li	a5,16
1000040a:	62f70a23          	sb	a5,1588(a4)
1000040e:	8082                	ret

10000410 <spin_lock_claim_unused>:
10000410:	85aa                	mv	a1,a0
10000412:	10007737          	lui	a4,0x10007
10000416:	20004537          	lui	a0,0x20004
1000041a:	04470713          	add	a4,a4,68 # 10007044 <__EH_FRAME_BEGIN__+0x64>
1000041e:	46fd                	li	a3,31
10000420:	4661                	li	a2,24
10000422:	37c50513          	add	a0,a0,892 # 2000437c <claimed>
10000426:	bf05                	j	10000356 <hw_claim_unused_from_range>

10000428 <spin_locks_reset>:
10000428:	200046b7          	lui	a3,0x20004
1000042c:	4781                	li	a5,0
1000042e:	ab868693          	add	a3,a3,-1352 # 20003ab8 <_sw_spin_locks>
10000432:	02000613          	li	a2,32
10000436:	0330000f          	fence	rw,rw
1000043a:	00f68733          	add	a4,a3,a5
1000043e:	00070023          	sb	zero,0(a4)
10000442:	0785                	add	a5,a5,1
10000444:	fec799e3          	bne	a5,a2,10000436 <spin_locks_reset+0xe>
10000448:	8082                	ret

1000044a <runtime_init_per_core_irq_priorities>:
1000044a:	4681                	li	a3,0
1000044c:	483d                	li	a6,15
1000044e:	451d                	li	a0,7
10000450:	03400593          	li	a1,52
10000454:	0036f793          	and	a5,a3,3
10000458:	078a                	sll	a5,a5,0x2
1000045a:	00f81733          	sll	a4,a6,a5
1000045e:	0026d613          	srl	a2,a3,0x2
10000462:	0742                	sll	a4,a4,0x10
10000464:	8f51                	or	a4,a4,a2
10000466:	be373073          	csrc	0xbe3,a4
1000046a:	00f517b3          	sll	a5,a0,a5
1000046e:	07c2                	sll	a5,a5,0x10
10000470:	8fd1                	or	a5,a5,a2
10000472:	be37a073          	csrs	0xbe3,a5
10000476:	0685                	add	a3,a3,1
10000478:	fcb69ee3          	bne	a3,a1,10000454 <runtime_init_per_core_irq_priorities+0xa>
1000047c:	8082                	ret

1000047e <irq_set_enabled>:
1000047e:	00555793          	srl	a5,a0,0x5
10000482:	0786                	sll	a5,a5,0x1
10000484:	7641                	lui	a2,0xffff0
10000486:	28a01533          	bset	a0,zero,a0
1000048a:	00178713          	add	a4,a5,1
1000048e:	01051693          	sll	a3,a0,0x10
10000492:	8d71                	and	a0,a0,a2
10000494:	8edd                	or	a3,a3,a5
10000496:	00a767b3          	or	a5,a4,a0
1000049a:	c991                	beqz	a1,100004ae <irq_set_enabled+0x30>
1000049c:	be26b073          	csrc	0xbe2,a3
100004a0:	be27b073          	csrc	0xbe2,a5
100004a4:	be06a073          	csrs	0xbe0,a3
100004a8:	be07a073          	csrs	0xbe0,a5
100004ac:	8082                	ret
100004ae:	be06b073          	csrc	0xbe0,a3
100004b2:	be07b073          	csrc	0xbe0,a5
100004b6:	8082                	ret

100004b8 <irq_is_enabled>:
100004b8:	00455793          	srl	a5,a0,0x4
100004bc:	be07a7f3          	csrrs	a5,0xbe0,a5
100004c0:	83c1                	srl	a5,a5,0x10
100004c2:	893d                	and	a0,a0,15
100004c4:	48a7d533          	bext	a0,a5,a0
100004c8:	8082                	ret

100004ca <irq_set_pending>:
100004ca:	00f57793          	and	a5,a0,15
100004ce:	28f017b3          	bset	a5,zero,a5
100004d2:	8111                	srl	a0,a0,0x4
100004d4:	07c2                	sll	a5,a5,0x10
100004d6:	8fc9                	or	a5,a5,a0
100004d8:	be27a073          	csrs	0xbe2,a5
100004dc:	8082                	ret

100004de <irq_has_shared_handler>:
100004de:	305027f3          	csrr	a5,mtvec
100004e2:	9bf9                	and	a5,a5,-2
100004e4:	9bf5                	and	a5,a5,-3
100004e6:	20f54533          	sh2add	a0,a0,a5
100004ea:	0d052503          	lw	a0,208(a0)
100004ee:	c909                	beqz	a0,10000500 <irq_has_shared_handler+0x22>
100004f0:	200037b7          	lui	a5,0x20003
100004f4:	3dc78793          	add	a5,a5,988 # 200033dc <irq_handler_chain_slots>
100004f8:	8d1d                	sub	a0,a0,a5
100004fa:	03053513          	sltiu	a0,a0,48
100004fe:	8082                	ret
10000500:	4501                	li	a0,0
10000502:	8082                	ret

10000504 <irq_set_exclusive_handler>:
10000504:	1141                	add	sp,sp,-16
10000506:	c226                	sw	s1,4(sp)
10000508:	c606                	sw	ra,12(sp)
1000050a:	c422                	sw	s0,8(sp)
1000050c:	c04a                	sw	s2,0(sp)
1000050e:	84ae                	mv	s1,a1
10000510:	30047973          	csrrc	s2,mstatus,8
10000514:	200047b7          	lui	a5,0x20004
10000518:	ac178793          	add	a5,a5,-1343 # 20003ac1 <_sw_spin_locks+0x9>
1000051c:	00379713          	sll	a4,a5,0x3
10000520:	28e01733          	bset	a4,zero,a4
10000524:	9bf1                	and	a5,a5,-4
10000526:	44e7a6af          	amoor.w.aq	a3,a4,(a5)
1000052a:	8ef9                	and	a3,a3,a4
1000052c:	feed                	bnez	a3,10000526 <irq_set_exclusive_handler+0x22>
1000052e:	0330000f          	fence	rw,rw
10000532:	305027f3          	csrr	a5,mtvec
10000536:	9bf9                	and	a5,a5,-2
10000538:	03450513          	add	a0,a0,52
1000053c:	9bf5                	and	a5,a5,-3
1000053e:	20f547b3          	sh2add	a5,a0,a5
10000542:	4398                	lw	a4,0(a5)
10000544:	200037b7          	lui	a5,0x20003
10000548:	5e478793          	add	a5,a5,1508 # 200035e4 <__unhandled_user_irq>
1000054c:	00251413          	sll	s0,a0,0x2
10000550:	00f70663          	beq	a4,a5,1000055c <irq_set_exclusive_handler+0x58>
10000554:	00e58463          	beq	a1,a4,1000055c <irq_set_exclusive_handler+0x58>
10000558:	7f8010ef          	jal	10001d50 <hard_assertion_failure>
1000055c:	305027f3          	csrr	a5,mtvec
10000560:	9bf9                	and	a5,a5,-2
10000562:	9bf5                	and	a5,a5,-3
10000564:	97a2                	add	a5,a5,s0
10000566:	c384                	sw	s1,0(a5)
10000568:	0330000f          	fence	rw,rw
1000056c:	0330000f          	fence	rw,rw
10000570:	200047b7          	lui	a5,0x20004
10000574:	ab878793          	add	a5,a5,-1352 # 20003ab8 <_sw_spin_locks>
10000578:	000784a3          	sb	zero,9(a5)
1000057c:	00897793          	and	a5,s2,8
10000580:	3007a073          	csrs	mstatus,a5
10000584:	40b2                	lw	ra,12(sp)
10000586:	4422                	lw	s0,8(sp)
10000588:	4492                	lw	s1,4(sp)
1000058a:	4902                	lw	s2,0(sp)
1000058c:	0141                	add	sp,sp,16
1000058e:	8082                	ret

10000590 <irq_add_shared_handler>:
10000590:	7179                	add	sp,sp,-48
10000592:	d04a                	sw	s2,32(sp)
10000594:	ce4e                	sw	s3,28(sp)
10000596:	c85a                	sw	s6,16(sp)
10000598:	d606                	sw	ra,44(sp)
1000059a:	d422                	sw	s0,40(sp)
1000059c:	d226                	sw	s1,36(sp)
1000059e:	cc52                	sw	s4,24(sp)
100005a0:	ca56                	sw	s5,20(sp)
100005a2:	c65e                	sw	s7,12(sp)
100005a4:	c462                	sw	s8,8(sp)
100005a6:	8b2a                	mv	s6,a0
100005a8:	89ae                	mv	s3,a1
100005aa:	8932                	mv	s2,a2
100005ac:	30047af3          	csrrc	s5,mstatus,8
100005b0:	200047b7          	lui	a5,0x20004
100005b4:	ac178793          	add	a5,a5,-1343 # 20003ac1 <_sw_spin_locks+0x9>
100005b8:	00379713          	sll	a4,a5,0x3
100005bc:	28e01733          	bset	a4,zero,a4
100005c0:	9bf1                	and	a5,a5,-4
100005c2:	44e7a6af          	amoor.w.aq	a3,a4,(a5)
100005c6:	8ef9                	and	a3,a3,a4
100005c8:	feed                	bnez	a3,100005c2 <irq_add_shared_handler+0x32>
100005ca:	0330000f          	fence	rw,rw
100005ce:	20004c37          	lui	s8,0x20004
100005d2:	380c0483          	lb	s1,896(s8) # 20004380 <irq_handler_chain_free_slot_head>
100005d6:	2a04cf63          	bltz	s1,10000894 <irq_add_shared_handler+0x304>
100005da:	20003437          	lui	s0,0x20003
100005de:	3dc40413          	add	s0,s0,988 # 200033dc <irq_handler_chain_slots>
100005e2:	2094a7b3          	sh1add	a5,s1,s1
100005e6:	2087ca33          	sh2add	s4,a5,s0
100005ea:	00aa4703          	lbu	a4,10(s4)
100005ee:	00149b93          	sll	s7,s1,0x1
100005f2:	00279693          	sll	a3,a5,0x2
100005f6:	38ec0023          	sb	a4,896(s8)
100005fa:	305027f3          	csrr	a5,mtvec
100005fe:	9bf9                	and	a5,a5,-2
10000600:	034b0513          	add	a0,s6,52
10000604:	9bf5                	and	a5,a5,-3
10000606:	20f547b3          	sh2add	a5,a0,a5
1000060a:	4390                	lw	a2,0(a5)
1000060c:	02f00793          	li	a5,47
10000610:	00251b13          	sll	s6,a0,0x2
10000614:	40860733          	sub	a4,a2,s0
10000618:	1ce7ed63          	bltu	a5,a4,100007f2 <irq_add_shared_handler+0x262>
1000061c:	00b64783          	lbu	a5,11(a2) # ffff000b <__StackTop+0xdff6e00b>
10000620:	8532                	mv	a0,a2
10000622:	10f96263          	bltu	s2,a5,10000726 <irq_add_shared_handler+0x196>
10000626:	00868793          	add	a5,a3,8
1000062a:	97a2                	add	a5,a5,s0
1000062c:	aaaab6b7          	lui	a3,0xaaaab
10000630:	40f607b3          	sub	a5,a2,a5
10000634:	8709                	sra	a4,a4,0x2
10000636:	aab68693          	add	a3,a3,-1365 # aaaaaaab <__StackTop+0x8aa28aab>
1000063a:	02d705b3          	mul	a1,a4,a3
1000063e:	6505                	lui	a0,0x1
10000640:	00179713          	sll	a4,a5,0x1
10000644:	0037d693          	srl	a3,a5,0x3
10000648:	8f69                	and	a4,a4,a0
1000064a:	8a91                	and	a3,a3,4
1000064c:	00779513          	sll	a0,a5,0x7
10000650:	8f55                	or	a4,a4,a3
10000652:	28b01693          	bset	a3,zero,0xb
10000656:	8d75                	and	a0,a0,a3
10000658:	200036b7          	lui	a3,0x20003
1000065c:	00179813          	sll	a6,a5,0x1
10000660:	40c68693          	add	a3,a3,1036 # 2000340c <irq_handler_chain_first_slot>
10000664:	414686b3          	sub	a3,a3,s4
10000668:	8f49                	or	a4,a4,a0
1000066a:	60087813          	and	a6,a6,1536
1000066e:	0027d893          	srl	a7,a5,0x2
10000672:	00969513          	sll	a0,a3,0x9
10000676:	01076733          	or	a4,a4,a6
1000067a:	00100837          	lui	a6,0x100
1000067e:	1008f893          	and	a7,a7,256
10000682:	00179e13          	sll	t3,a5,0x1
10000686:	01057533          	and	a0,a0,a6
1000068a:	000ff837          	lui	a6,0xff
1000068e:	0106f833          	and	a6,a3,a6
10000692:	0146d313          	srl	t1,a3,0x14
10000696:	01176733          	or	a4,a4,a7
1000069a:	080e7e13          	and	t3,t3,128
1000069e:	0017d893          	srl	a7,a5,0x1
100006a2:	01056533          	or	a0,a0,a6
100006a6:	01c76733          	or	a4,a4,t3
100006aa:	01469813          	sll	a6,a3,0x14
100006ae:	0408f893          	and	a7,a7,64
100006b2:	00279693          	sll	a3,a5,0x2
100006b6:	037e                	sll	t1,t1,0x1f
100006b8:	7fe007b7          	lui	a5,0x7fe00
100006bc:	00f87833          	and	a6,a6,a5
100006c0:	0386f693          	and	a3,a3,56
100006c4:	011767b3          	or	a5,a4,a7
100006c8:	00656533          	or	a0,a0,t1
100006cc:	78e9                	lui	a7,0xffffa
100006ce:	8fd5                	or	a5,a5,a3
100006d0:	01056733          	or	a4,a0,a6
100006d4:	0885                	add	a7,a7,1 # ffffa001 <__StackTop+0xdff78001>
100006d6:	2ef76713          	or	a4,a4,751
100006da:	0117e7b3          	or	a5,a5,a7
100006de:	00fa1423          	sh	a5,8(s4)
100006e2:	00ea2023          	sw	a4,0(s4)
100006e6:	013a2223          	sw	s3,4(s4)
100006ea:	00ba0523          	sb	a1,10(s4)
100006ee:	012a05a3          	sb	s2,11(s4)
100006f2:	4258                	lw	a4,4(a2)
100006f4:	6685                	lui	a3,0x1
100006f6:	00171793          	sll	a5,a4,0x1
100006fa:	8ff5                	and	a5,a5,a3
100006fc:	97ba                	add	a5,a5,a4
100006fe:	8007f793          	and	a5,a5,-2048
10000702:	0752                	sll	a4,a4,0x14
10000704:	0e776713          	or	a4,a4,231
10000708:	48b79793          	bclr	a5,a5,0xb
1000070c:	0b77e793          	or	a5,a5,183
10000710:	c21c                	sw	a5,0(a2)
10000712:	28f71713          	bset	a4,a4,0xf
10000716:	c258                	sw	a4,4(a2)
10000718:	8652                	mv	a2,s4
1000071a:	aa2d                	j	10000854 <irq_add_shared_handler+0x2c4>
1000071c:	00b7c803          	lbu	a6,11(a5) # 7fe0000b <__StackTop+0x5fd7e00b>
10000720:	17097f63          	bgeu	s2,a6,1000089e <irq_add_shared_handler+0x30e>
10000724:	853e                	mv	a0,a5
10000726:	00a50703          	lb	a4,10(a0) # 100a <HeapSize+0x80a>
1000072a:	20e727b3          	sh1add	a5,a4,a4
1000072e:	2087c7b3          	sh2add	a5,a5,s0
10000732:	fe0755e3          	bgez	a4,1000071c <irq_add_shared_handler+0x18c>
10000736:	65b1                	lui	a1,0xc
10000738:	e4258593          	add	a1,a1,-446 # be42 <HeapSize+0xb642>
1000073c:	00850693          	add	a3,a0,8
10000740:	40da06b3          	sub	a3,s4,a3
10000744:	00169793          	sll	a5,a3,0x1
10000748:	0036d813          	srl	a6,a3,0x3
1000074c:	6885                	lui	a7,0x1
1000074e:	0117f7b3          	and	a5,a5,a7
10000752:	00487813          	and	a6,a6,4
10000756:	00769893          	sll	a7,a3,0x7
1000075a:	0107e7b3          	or	a5,a5,a6
1000075e:	28b01813          	bset	a6,zero,0xb
10000762:	0108f8b3          	and	a7,a7,a6
10000766:	00169813          	sll	a6,a3,0x1
1000076a:	0117e7b3          	or	a5,a5,a7
1000076e:	60087813          	and	a6,a6,1536
10000772:	0026d893          	srl	a7,a3,0x2
10000776:	0107e7b3          	or	a5,a5,a6
1000077a:	1008f893          	and	a7,a7,256
1000077e:	00169813          	sll	a6,a3,0x1
10000782:	0117e7b3          	or	a5,a5,a7
10000786:	08087813          	and	a6,a6,128
1000078a:	0016d893          	srl	a7,a3,0x1
1000078e:	0107e7b3          	or	a5,a5,a6
10000792:	0408f893          	and	a7,a7,64
10000796:	00199813          	sll	a6,s3,0x1
1000079a:	068a                	sll	a3,a3,0x2
1000079c:	6305                	lui	t1,0x1
1000079e:	0117e7b3          	or	a5,a5,a7
100007a2:	0386f693          	and	a3,a3,56
100007a6:	78e9                	lui	a7,0xffffa
100007a8:	00687833          	and	a6,a6,t1
100007ac:	8fd5                	or	a5,a5,a3
100007ae:	0885                	add	a7,a7,1 # ffffa001 <__StackTop+0xdff78001>
100007b0:	010986b3          	add	a3,s3,a6
100007b4:	0117e7b3          	or	a5,a5,a7
100007b8:	8006f693          	and	a3,a3,-2048
100007bc:	09d2                	sll	s3,s3,0x14
100007be:	00f51423          	sh	a5,8(a0)
100007c2:	00950523          	sb	s1,10(a0)
100007c6:	9ba6                	add	s7,s7,s1
100007c8:	0e79e993          	or	s3,s3,231
100007cc:	48b69693          	bclr	a3,a3,0xb
100007d0:	0b76e793          	or	a5,a3,183
100007d4:	208bcbb3          	sh2add	s7,s7,s0
100007d8:	28f99993          	bset	s3,s3,0xf
100007dc:	00fba023          	sw	a5,0(s7)
100007e0:	013ba223          	sw	s3,4(s7)
100007e4:	00bb9423          	sh	a1,8(s7)
100007e8:	00eb8523          	sb	a4,10(s7)
100007ec:	012b85a3          	sb	s2,11(s7)
100007f0:	a095                	j	10000854 <irq_add_shared_handler+0x2c4>
100007f2:	200037b7          	lui	a5,0x20003
100007f6:	5e478793          	add	a5,a5,1508 # 200035e4 <__unhandled_user_irq>
100007fa:	16f61763          	bne	a2,a5,10000968 <irq_add_shared_handler+0x3d8>
100007fe:	200037b7          	lui	a5,0x20003
10000802:	40c78793          	add	a5,a5,1036 # 2000340c <irq_handler_chain_first_slot>
10000806:	414787b3          	sub	a5,a5,s4
1000080a:	00979713          	sll	a4,a5,0x9
1000080e:	001006b7          	lui	a3,0x100
10000812:	000ff637          	lui	a2,0xff
10000816:	8e7d                	and	a2,a2,a5
10000818:	8f75                	and	a4,a4,a3
1000081a:	0147d693          	srl	a3,a5,0x14
1000081e:	8f51                	or	a4,a4,a2
10000820:	06fe                	sll	a3,a3,0x1f
10000822:	8f55                	or	a4,a4,a3
10000824:	07d2                	sll	a5,a5,0x14
10000826:	7fe006b7          	lui	a3,0x7fe00
1000082a:	8ff5                	and	a5,a5,a3
1000082c:	8fd9                	or	a5,a5,a4
1000082e:	2ef7e793          	or	a5,a5,751
10000832:	7771                	lui	a4,0xffffc
10000834:	94de                	add	s1,s1,s7
10000836:	2084c4b3          	sh2add	s1,s1,s0
1000083a:	e4270713          	add	a4,a4,-446 # ffffbe42 <__StackTop+0xdff79e42>
1000083e:	c09c                	sw	a5,0(s1)
10000840:	57fd                	li	a5,-1
10000842:	8652                	mv	a2,s4
10000844:	0134a223          	sw	s3,4(s1)
10000848:	00e49423          	sh	a4,8(s1)
1000084c:	00f48523          	sb	a5,10(s1)
10000850:	012485a3          	sb	s2,11(s1)
10000854:	305027f3          	csrr	a5,mtvec
10000858:	9bf9                	and	a5,a5,-2
1000085a:	9bf5                	and	a5,a5,-3
1000085c:	97da                	add	a5,a5,s6
1000085e:	c390                	sw	a2,0(a5)
10000860:	0330000f          	fence	rw,rw
10000864:	0330000f          	fence	rw,rw
10000868:	200047b7          	lui	a5,0x20004
1000086c:	ab878793          	add	a5,a5,-1352 # 20003ab8 <_sw_spin_locks>
10000870:	000784a3          	sb	zero,9(a5)
10000874:	008afa93          	and	s5,s5,8
10000878:	300aa073          	csrs	mstatus,s5
1000087c:	50b2                	lw	ra,44(sp)
1000087e:	5422                	lw	s0,40(sp)
10000880:	5492                	lw	s1,36(sp)
10000882:	5902                	lw	s2,32(sp)
10000884:	49f2                	lw	s3,28(sp)
10000886:	4a62                	lw	s4,24(sp)
10000888:	4ad2                	lw	s5,20(sp)
1000088a:	4b42                	lw	s6,16(sp)
1000088c:	4bb2                	lw	s7,12(sp)
1000088e:	4c22                	lw	s8,8(sp)
10000890:	6145                	add	sp,sp,48
10000892:	8082                	ret
10000894:	4bc010ef          	jal	10001d50 <hard_assertion_failure>
10000898:	380c0483          	lb	s1,896(s8)
1000089c:	bb3d                	j	100005da <irq_add_shared_handler+0x4a>
1000089e:	00855583          	lhu	a1,8(a0)
100008a2:	00868793          	add	a5,a3,8 # 7fe00008 <__StackTop+0x5fd7e008>
100008a6:	97a2                	add	a5,a5,s0
100008a8:	00359813          	sll	a6,a1,0x3
100008ac:	00850693          	add	a3,a0,8
100008b0:	0015d893          	srl	a7,a1,0x1
100008b4:	02087813          	and	a6,a6,32
100008b8:	40f687b3          	sub	a5,a3,a5
100008bc:	97c2                	add	a5,a5,a6
100008be:	00159313          	sll	t1,a1,0x1
100008c2:	0408f813          	and	a6,a7,64
100008c6:	97c2                	add	a5,a5,a6
100008c8:	08037313          	and	t1,t1,128
100008cc:	0025d813          	srl	a6,a1,0x2
100008d0:	979a                	add	a5,a5,t1
100008d2:	3008f893          	and	a7,a7,768
100008d6:	00259313          	sll	t1,a1,0x2
100008da:	819d                	srl	a1,a1,0x7
100008dc:	97c6                	add	a5,a5,a7
100008de:	89c1                	and	a1,a1,16
100008e0:	40037893          	and	a7,t1,1024
100008e4:	00e87313          	and	t1,a6,14
100008e8:	97c6                	add	a5,a5,a7
100008ea:	0065e5b3          	or	a1,a1,t1
100008ee:	97ae                	add	a5,a5,a1
100008f0:	28b01593          	bset	a1,zero,0xb
100008f4:	00b87833          	and	a6,a6,a1
100008f8:	410787b3          	sub	a5,a5,a6
100008fc:	00179593          	sll	a1,a5,0x1
10000900:	0037d893          	srl	a7,a5,0x3
10000904:	6805                	lui	a6,0x1
10000906:	0105f5b3          	and	a1,a1,a6
1000090a:	0048f893          	and	a7,a7,4
1000090e:	00779813          	sll	a6,a5,0x7
10000912:	0115e5b3          	or	a1,a1,a7
10000916:	28b01893          	bset	a7,zero,0xb
1000091a:	01187833          	and	a6,a6,a7
1000091e:	00179893          	sll	a7,a5,0x1
10000922:	0105e5b3          	or	a1,a1,a6
10000926:	6008f893          	and	a7,a7,1536
1000092a:	0027d813          	srl	a6,a5,0x2
1000092e:	0115e5b3          	or	a1,a1,a7
10000932:	10087813          	and	a6,a6,256
10000936:	00179893          	sll	a7,a5,0x1
1000093a:	0105e5b3          	or	a1,a1,a6
1000093e:	0808f893          	and	a7,a7,128
10000942:	0017d813          	srl	a6,a5,0x1
10000946:	04087813          	and	a6,a6,64
1000094a:	0115e5b3          	or	a1,a1,a7
1000094e:	078a                	sll	a5,a5,0x2
10000950:	0105e5b3          	or	a1,a1,a6
10000954:	0387f793          	and	a5,a5,56
10000958:	7869                	lui	a6,0xffffa
1000095a:	8ddd                	or	a1,a1,a5
1000095c:	0805                	add	a6,a6,1 # ffffa001 <__StackTop+0xdff78001>
1000095e:	0105e5b3          	or	a1,a1,a6
10000962:	0805c5b3          	zext.h	a1,a1
10000966:	bbe9                	j	10000740 <irq_add_shared_handler+0x1b0>
10000968:	3e8010ef          	jal	10001d50 <hard_assertion_failure>
1000096c:	bd49                	j	100007fe <irq_add_shared_handler+0x26e>

1000096e <irq_remove_handler>:
1000096e:	7179                	add	sp,sp,-48
10000970:	d606                	sw	ra,44(sp)
10000972:	d226                	sw	s1,36(sp)
10000974:	ce4e                	sw	s3,28(sp)
10000976:	cc52                	sw	s4,24(sp)
10000978:	c85a                	sw	s6,16(sp)
1000097a:	300474f3          	csrrc	s1,mstatus,8
1000097e:	200047b7          	lui	a5,0x20004
10000982:	ac178793          	add	a5,a5,-1343 # 20003ac1 <_sw_spin_locks+0x9>
10000986:	00379713          	sll	a4,a5,0x3
1000098a:	28e01733          	bset	a4,zero,a4
1000098e:	9bf1                	and	a5,a5,-4
10000990:	44e7a6af          	amoor.w.aq	a3,a4,(a5)
10000994:	8ef9                	and	a3,a3,a4
10000996:	feed                	bnez	a3,10000990 <irq_remove_handler+0x22>
10000998:	0330000f          	fence	rw,rw
1000099c:	305027f3          	csrr	a5,mtvec
100009a0:	9bf9                	and	a5,a5,-2
100009a2:	03450713          	add	a4,a0,52
100009a6:	9bf5                	and	a5,a5,-3
100009a8:	20f747b3          	sh2add	a5,a4,a5
100009ac:	0007aa03          	lw	s4,0(a5)
100009b0:	200037b7          	lui	a5,0x20003
100009b4:	5e478b13          	add	s6,a5,1508 # 200035e4 <__unhandled_user_irq>
100009b8:	00271993          	sll	s3,a4,0x2
100009bc:	0b6a0563          	beq	s4,s6,10000a66 <irq_remove_handler+0xf8>
100009c0:	d422                	sw	s0,40(sp)
100009c2:	842e                	mv	s0,a1
100009c4:	0cba0c63          	beq	s4,a1,10000a9c <irq_remove_handler+0x12e>
100009c8:	ca56                	sw	s5,20(sp)
100009ca:	20003ab7          	lui	s5,0x20003
100009ce:	3dca8a93          	add	s5,s5,988 # 200033dc <irq_handler_chain_slots>
100009d2:	415a0733          	sub	a4,s4,s5
100009d6:	02f00793          	li	a5,47
100009da:	08e7e463          	bltu	a5,a4,10000a62 <irq_remove_handler+0xf4>
100009de:	d04a                	sw	s2,32(sp)
100009e0:	c65e                	sw	s7,12(sp)
100009e2:	c462                	sw	s8,8(sp)
100009e4:	00455793          	srl	a5,a0,0x4
100009e8:	be07a7f3          	csrrs	a5,0xbe0,a5
100009ec:	00555913          	srl	s2,a0,0x5
100009f0:	00f57b93          	and	s7,a0,15
100009f4:	83c1                	srl	a5,a5,0x10
100009f6:	0906                	sll	s2,s2,0x1
100009f8:	28a01733          	bset	a4,zero,a0
100009fc:	01071c13          	sll	s8,a4,0x10
10000a00:	012c6c33          	or	s8,s8,s2
10000a04:	29701bb3          	bset	s7,zero,s7
10000a08:	00fbfbb3          	and	s7,s7,a5
10000a0c:	be0c3073          	csrc	0xbe0,s8
10000a10:	77c1                	lui	a5,0xffff0
10000a12:	8f7d                	and	a4,a4,a5
10000a14:	0905                	add	s2,s2,1 # 10007001 <__EH_FRAME_BEGIN__+0x21>
10000a16:	00e96933          	or	s2,s2,a4
10000a1a:	be093073          	csrc	0xbe0,s2
10000a1e:	0330000f          	fence	rw,rw
10000a22:	be5027f3          	csrr	a5,0xbe5
10000a26:	01079713          	sll	a4,a5,0x10
10000a2a:	4881                	li	a7,0
10000a2c:	1e075263          	bgez	a4,10000c10 <irq_remove_handler+0x2a2>
10000a30:	8752                	mv	a4,s4
10000a32:	4801                	li	a6,0
10000a34:	757d                	lui	a0,0xfffff
10000a36:	4314                	lw	a3,0(a4)
10000a38:	435c                	lw	a5,4(a4)
10000a3a:	0086f613          	and	a2,a3,8
10000a3e:	4147d593          	sra	a1,a5,0x14
10000a42:	8ee9                	and	a3,a3,a0
10000a44:	e219                	bnez	a2,10000a4a <irq_remove_handler+0xdc>
10000a46:	00b687b3          	add	a5,a3,a1
10000a4a:	04f40d63          	beq	s0,a5,10000aa4 <irq_remove_handler+0x136>
10000a4e:	00a70783          	lb	a5,10(a4)
10000a52:	883a                	mv	a6,a4
10000a54:	1a07c263          	bltz	a5,10000bf8 <irq_remove_handler+0x28a>
10000a58:	20f7a7b3          	sh1add	a5,a5,a5
10000a5c:	2157c733          	sh2add	a4,a5,s5
10000a60:	bfd9                	j	10000a36 <irq_remove_handler+0xc8>
10000a62:	5422                	lw	s0,40(sp)
10000a64:	4ad2                	lw	s5,20(sp)
10000a66:	305027f3          	csrr	a5,mtvec
10000a6a:	9bf9                	and	a5,a5,-2
10000a6c:	9bf5                	and	a5,a5,-3
10000a6e:	97ce                	add	a5,a5,s3
10000a70:	0147a023          	sw	s4,0(a5) # ffff0000 <__StackTop+0xdff6e000>
10000a74:	0330000f          	fence	rw,rw
10000a78:	0330000f          	fence	rw,rw
10000a7c:	200047b7          	lui	a5,0x20004
10000a80:	ab878793          	add	a5,a5,-1352 # 20003ab8 <_sw_spin_locks>
10000a84:	000784a3          	sb	zero,9(a5)
10000a88:	88a1                	and	s1,s1,8
10000a8a:	3004a073          	csrs	mstatus,s1
10000a8e:	50b2                	lw	ra,44(sp)
10000a90:	5492                	lw	s1,36(sp)
10000a92:	49f2                	lw	s3,28(sp)
10000a94:	4a62                	lw	s4,24(sp)
10000a96:	4b42                	lw	s6,16(sp)
10000a98:	6145                	add	sp,sp,48
10000a9a:	8082                	ret
10000a9c:	5422                	lw	s0,40(sp)
10000a9e:	5e478a13          	add	s4,a5,1508
10000aa2:	b7d1                	j	10000a66 <irq_remove_handler+0xf8>
10000aa4:	00a70603          	lb	a2,10(a4)
10000aa8:	18064963          	bltz	a2,10000c3a <irq_remove_handler+0x2cc>
10000aac:	20c627b3          	sh1add	a5,a2,a2
10000ab0:	2157c7b3          	sh2add	a5,a5,s5
10000ab4:	4394                	lw	a3,0(a5)
10000ab6:	00161593          	sll	a1,a2,0x1
10000aba:	43dc                	lw	a5,4(a5)
10000abc:	0086f513          	and	a0,a3,8
10000ac0:	e519                	bnez	a0,10000ace <irq_remove_handler+0x160>
10000ac2:	8006f693          	and	a3,a3,-2048
10000ac6:	87d1                	sra	a5,a5,0x14
10000ac8:	48b69693          	bclr	a3,a3,0xb
10000acc:	97b6                	add	a5,a5,a3
10000ace:	03470363          	beq	a4,s4,10000af4 <irq_remove_handler+0x186>
10000ad2:	00179693          	sll	a3,a5,0x1
10000ad6:	6505                	lui	a0,0x1
10000ad8:	8ee9                	and	a3,a3,a0
10000ada:	96be                	add	a3,a3,a5
10000adc:	8006f693          	and	a3,a3,-2048
10000ae0:	07d2                	sll	a5,a5,0x14
10000ae2:	48b69693          	bclr	a3,a3,0xb
10000ae6:	0b76e693          	or	a3,a3,183
10000aea:	0e77e793          	or	a5,a5,231
10000aee:	c314                	sw	a3,0(a4)
10000af0:	28f79793          	bset	a5,a5,0xf
10000af4:	c35c                	sw	a5,4(a4)
10000af6:	00c586b3          	add	a3,a1,a2
10000afa:	2156c833          	sh2add	a6,a3,s5
10000afe:	00b84883          	lbu	a7,11(a6)
10000b02:	00269513          	sll	a0,a3,0x2
10000b06:	67b1                	lui	a5,0xc
10000b08:	011705a3          	sb	a7,11(a4)
10000b0c:	00a80683          	lb	a3,10(a6)
10000b10:	e4278793          	add	a5,a5,-446 # be42 <HeapSize+0xb642>
10000b14:	00d70523          	sb	a3,10(a4)
10000b18:	0c06c363          	bltz	a3,10000bde <irq_remove_handler+0x270>
10000b1c:	00885683          	lhu	a3,8(a6)
10000b20:	00870813          	add	a6,a4,8
10000b24:	0521                	add	a0,a0,8 # 1008 <HeapSize+0x808>
10000b26:	0016d893          	srl	a7,a3,0x1
10000b2a:	00369793          	sll	a5,a3,0x3
10000b2e:	0408f313          	and	t1,a7,64
10000b32:	0207f793          	and	a5,a5,32
10000b36:	0067e7b3          	or	a5,a5,t1
10000b3a:	00169313          	sll	t1,a3,0x1
10000b3e:	410787b3          	sub	a5,a5,a6
10000b42:	08037313          	and	t1,t1,128
10000b46:	0026d813          	srl	a6,a3,0x2
10000b4a:	979a                	add	a5,a5,t1
10000b4c:	3008f893          	and	a7,a7,768
10000b50:	00269313          	sll	t1,a3,0x2
10000b54:	829d                	srl	a3,a3,0x7
10000b56:	97c6                	add	a5,a5,a7
10000b58:	8ac1                	and	a3,a3,16
10000b5a:	40037893          	and	a7,t1,1024
10000b5e:	00e87313          	and	t1,a6,14
10000b62:	0066e6b3          	or	a3,a3,t1
10000b66:	97c6                	add	a5,a5,a7
10000b68:	97b6                	add	a5,a5,a3
10000b6a:	00aa86b3          	add	a3,s5,a0
10000b6e:	97b6                	add	a5,a5,a3
10000b70:	28b01693          	bset	a3,zero,0xb
10000b74:	00d87833          	and	a6,a6,a3
10000b78:	410787b3          	sub	a5,a5,a6
10000b7c:	00179693          	sll	a3,a5,0x1
10000b80:	0037d513          	srl	a0,a5,0x3
10000b84:	6805                	lui	a6,0x1
10000b86:	0106f6b3          	and	a3,a3,a6
10000b8a:	8911                	and	a0,a0,4
10000b8c:	00779813          	sll	a6,a5,0x7
10000b90:	8ec9                	or	a3,a3,a0
10000b92:	28b01513          	bset	a0,zero,0xb
10000b96:	00a87833          	and	a6,a6,a0
10000b9a:	00179513          	sll	a0,a5,0x1
10000b9e:	0106e6b3          	or	a3,a3,a6
10000ba2:	60057513          	and	a0,a0,1536
10000ba6:	0027d813          	srl	a6,a5,0x2
10000baa:	8ec9                	or	a3,a3,a0
10000bac:	10087813          	and	a6,a6,256
10000bb0:	00179513          	sll	a0,a5,0x1
10000bb4:	0106e6b3          	or	a3,a3,a6
10000bb8:	08057513          	and	a0,a0,128
10000bbc:	0017d813          	srl	a6,a5,0x1
10000bc0:	8ec9                	or	a3,a3,a0
10000bc2:	04087813          	and	a6,a6,64
10000bc6:	00279513          	sll	a0,a5,0x2
10000bca:	0106e7b3          	or	a5,a3,a6
10000bce:	03857693          	and	a3,a0,56
10000bd2:	7569                	lui	a0,0xffffa
10000bd4:	8fd5                	or	a5,a5,a3
10000bd6:	0505                	add	a0,a0,1 # ffffa001 <__StackTop+0xdff78001>
10000bd8:	8fc9                	or	a5,a5,a0
10000bda:	0807c7b3          	zext.h	a5,a5
10000bde:	200046b7          	lui	a3,0x20004
10000be2:	3806c503          	lbu	a0,896(a3) # 20004380 <irq_handler_chain_free_slot_head>
10000be6:	00f71423          	sh	a5,8(a4)
10000bea:	95b2                	add	a1,a1,a2
10000bec:	2155c5b3          	sh2add	a1,a1,s5
10000bf0:	38c68023          	sb	a2,896(a3)
10000bf4:	00a58523          	sb	a0,10(a1)
10000bf8:	020b9863          	bnez	s7,10000c28 <irq_remove_handler+0x2ba>
10000bfc:	be0c3073          	csrc	0xbe0,s8
10000c00:	be093073          	csrc	0xbe0,s2
10000c04:	5422                	lw	s0,40(sp)
10000c06:	5902                	lw	s2,32(sp)
10000c08:	4ad2                	lw	s5,20(sp)
10000c0a:	4bb2                	lw	s7,12(sp)
10000c0c:	4c22                	lw	s8,8(sp)
10000c0e:	bda1                	j	10000a66 <irq_remove_handler+0xf8>
10000c10:	8391                	srl	a5,a5,0x4
10000c12:	c266                	sw	s9,4(sp)
10000c14:	1ff7fc93          	and	s9,a5,511
10000c18:	01950463          	beq	a0,s9,10000c20 <irq_remove_handler+0x2b2>
10000c1c:	134010ef          	jal	10001d50 <hard_assertion_failure>
10000c20:	034c8893          	add	a7,s9,52
10000c24:	4c92                	lw	s9,4(sp)
10000c26:	b529                	j	10000a30 <irq_remove_handler+0xc2>
10000c28:	be2c3073          	csrc	0xbe2,s8
10000c2c:	be293073          	csrc	0xbe2,s2
10000c30:	be0c2073          	csrs	0xbe0,s8
10000c34:	be092073          	csrs	0xbe0,s2
10000c38:	b7f1                	j	10000c04 <irq_remove_handler+0x296>
10000c3a:	04089063          	bnez	a7,10000c7a <irq_remove_handler+0x30c>
10000c3e:	0a080463          	beqz	a6,10000ce6 <irq_remove_handler+0x378>
10000c42:	77f1                	lui	a5,0xffffc
10000c44:	e4278793          	add	a5,a5,-446 # ffffbe42 <__StackTop+0xdff79e42>
10000c48:	56fd                	li	a3,-1
10000c4a:	00d80523          	sb	a3,10(a6) # 100a <HeapSize+0x80a>
10000c4e:	00f81423          	sh	a5,8(a6)
10000c52:	415707b3          	sub	a5,a4,s5
10000c56:	aaaab6b7          	lui	a3,0xaaaab
10000c5a:	aab68693          	add	a3,a3,-1365 # aaaaaaab <__StackTop+0x8aa28aab>
10000c5e:	8789                	sra	a5,a5,0x2
10000c60:	02d787b3          	mul	a5,a5,a3
10000c64:	200046b7          	lui	a3,0x20004
10000c68:	3806c603          	lbu	a2,896(a3) # 20004380 <irq_handler_chain_free_slot_head>
10000c6c:	00c70523          	sb	a2,10(a4)
10000c70:	38f68023          	sb	a5,896(a3)
10000c74:	f80b84e3          	beqz	s7,10000bfc <irq_remove_handler+0x28e>
10000c78:	bf45                	j	10000c28 <irq_remove_handler+0x2ba>
10000c7a:	200036b7          	lui	a3,0x20003
10000c7e:	00870793          	add	a5,a4,8
10000c82:	41868693          	add	a3,a3,1048 # 20003418 <irq_handler_chain_remove_tail>
10000c86:	8e9d                	sub	a3,a3,a5
10000c88:	00169793          	sll	a5,a3,0x1
10000c8c:	0036d593          	srl	a1,a3,0x3
10000c90:	6605                	lui	a2,0x1
10000c92:	8ff1                	and	a5,a5,a2
10000c94:	8991                	and	a1,a1,4
10000c96:	00769613          	sll	a2,a3,0x7
10000c9a:	8fcd                	or	a5,a5,a1
10000c9c:	28b01593          	bset	a1,zero,0xb
10000ca0:	8e6d                	and	a2,a2,a1
10000ca2:	00169593          	sll	a1,a3,0x1
10000ca6:	8fd1                	or	a5,a5,a2
10000ca8:	6005f593          	and	a1,a1,1536
10000cac:	0026d613          	srl	a2,a3,0x2
10000cb0:	8fcd                	or	a5,a5,a1
10000cb2:	10067613          	and	a2,a2,256
10000cb6:	00169593          	sll	a1,a3,0x1
10000cba:	8fd1                	or	a5,a5,a2
10000cbc:	0805f593          	and	a1,a1,128
10000cc0:	0016d613          	srl	a2,a3,0x1
10000cc4:	8fcd                	or	a5,a5,a1
10000cc6:	04067613          	and	a2,a2,64
10000cca:	068a                	sll	a3,a3,0x2
10000ccc:	8fd1                	or	a5,a5,a2
10000cce:	0386f693          	and	a3,a3,56
10000cd2:	8fd5                	or	a5,a5,a3
10000cd4:	0017e793          	or	a5,a5,1
10000cd8:	28d79793          	bset	a5,a5,0xd
10000cdc:	00f71423          	sh	a5,8(a4)
10000ce0:	f00b8ee3          	beqz	s7,10000bfc <irq_remove_handler+0x28e>
10000ce4:	b791                	j	10000c28 <irq_remove_handler+0x2ba>
10000ce6:	8a5a                	mv	s4,s6
10000ce8:	b7ad                	j	10000c52 <irq_remove_handler+0x2e4>

10000cea <irq_add_tail_to_free_list>:
10000cea:	be5027f3          	csrr	a5,0xbe5
10000cee:	01079713          	sll	a4,a5,0x10
10000cf2:	4581                	li	a1,0
10000cf4:	00074963          	bltz	a4,10000d06 <irq_add_tail_to_free_list+0x1c>
10000cf8:	8391                	srl	a5,a5,0x4
10000cfa:	1ff7f793          	and	a5,a5,511
10000cfe:	03478793          	add	a5,a5,52
10000d02:	00279593          	sll	a1,a5,0x2
10000d06:	30047673          	csrrc	a2,mstatus,8
10000d0a:	200047b7          	lui	a5,0x20004
10000d0e:	ac178793          	add	a5,a5,-1343 # 20003ac1 <_sw_spin_locks+0x9>
10000d12:	00379713          	sll	a4,a5,0x3
10000d16:	28e01733          	bset	a4,zero,a4
10000d1a:	9bf1                	and	a5,a5,-4
10000d1c:	44e7a6af          	amoor.w.aq	a3,a4,(a5)
10000d20:	8ef9                	and	a3,a3,a4
10000d22:	feed                	bnez	a3,10000d1c <irq_add_tail_to_free_list+0x32>
10000d24:	0330000f          	fence	rw,rw
10000d28:	20003737          	lui	a4,0x20003
10000d2c:	3dc70713          	add	a4,a4,988 # 200033dc <irq_handler_chain_slots>
10000d30:	40e507b3          	sub	a5,a0,a4
10000d34:	aaaab6b7          	lui	a3,0xaaaab
10000d38:	aab68693          	add	a3,a3,-1365 # aaaaaaab <__StackTop+0x8aa28aab>
10000d3c:	8789                	sra	a5,a5,0x2
10000d3e:	02d787b3          	mul	a5,a5,a3
10000d42:	60479793          	sext.b	a5,a5
10000d46:	305026f3          	csrr	a3,mtvec
10000d4a:	9af9                	and	a3,a3,-2
10000d4c:	9af5                	and	a3,a3,-3
10000d4e:	96ae                	add	a3,a3,a1
10000d50:	4294                	lw	a3,0(a3)
10000d52:	04a68763          	beq	a3,a0,10000da0 <irq_add_tail_to_free_list+0xb6>
10000d56:	00a70683          	lb	a3,10(a4)
10000d5a:	04f68e63          	beq	a3,a5,10000db6 <irq_add_tail_to_free_list+0xcc>
10000d5e:	01670683          	lb	a3,22(a4)
10000d62:	06f68863          	beq	a3,a5,10000dd2 <irq_add_tail_to_free_list+0xe8>
10000d66:	02270683          	lb	a3,34(a4)
10000d6a:	06f68663          	beq	a3,a5,10000dd6 <irq_add_tail_to_free_list+0xec>
10000d6e:	02e70683          	lb	a3,46(a4)
10000d72:	06f68463          	beq	a3,a5,10000dda <irq_add_tail_to_free_list+0xf0>
10000d76:	20004737          	lui	a4,0x20004
10000d7a:	38074683          	lbu	a3,896(a4) # 20004380 <irq_handler_chain_free_slot_head>
10000d7e:	38f70023          	sb	a5,896(a4)
10000d82:	00d50523          	sb	a3,10(a0)
10000d86:	0330000f          	fence	rw,rw
10000d8a:	200047b7          	lui	a5,0x20004
10000d8e:	ab878793          	add	a5,a5,-1352 # 20003ab8 <_sw_spin_locks>
10000d92:	000784a3          	sb	zero,9(a5)
10000d96:	00867793          	and	a5,a2,8
10000d9a:	3007a073          	csrs	mstatus,a5
10000d9e:	8082                	ret
10000da0:	30502773          	csrr	a4,mtvec
10000da4:	9b79                	and	a4,a4,-2
10000da6:	9b75                	and	a4,a4,-3
10000da8:	200036b7          	lui	a3,0x20003
10000dac:	972e                	add	a4,a4,a1
10000dae:	5e468693          	add	a3,a3,1508 # 200035e4 <__unhandled_user_irq>
10000db2:	c314                	sw	a3,0(a4)
10000db4:	b7c9                	j	10000d76 <irq_add_tail_to_free_list+0x8c>
10000db6:	4681                	li	a3,0
10000db8:	75f1                	lui	a1,0xffffc
10000dba:	e4258593          	add	a1,a1,-446 # ffffbe42 <__StackTop+0xdff79e42>
10000dbe:	20d6a6b3          	sh1add	a3,a3,a3
10000dc2:	20e6c6b3          	sh2add	a3,a3,a4
10000dc6:	577d                	li	a4,-1
10000dc8:	00e68523          	sb	a4,10(a3)
10000dcc:	00b69423          	sh	a1,8(a3)
10000dd0:	b75d                	j	10000d76 <irq_add_tail_to_free_list+0x8c>
10000dd2:	4685                	li	a3,1
10000dd4:	b7d5                	j	10000db8 <irq_add_tail_to_free_list+0xce>
10000dd6:	4689                	li	a3,2
10000dd8:	b7c5                	j	10000db8 <irq_add_tail_to_free_list+0xce>
10000dda:	468d                	li	a3,3
10000ddc:	bff1                	j	10000db8 <irq_add_tail_to_free_list+0xce>

10000dde <user_irq_claim_unused>:
10000dde:	85aa                	mv	a1,a0
10000de0:	10007737          	lui	a4,0x10007
10000de4:	20004537          	lui	a0,0x20004
10000de8:	1141                	add	sp,sp,-16
10000dea:	06070713          	add	a4,a4,96 # 10007060 <__EH_FRAME_BEGIN__+0x80>
10000dee:	4695                	li	a3,5
10000df0:	4601                	li	a2,0
10000df2:	38150513          	add	a0,a0,897 # 20004381 <user_irq_claimed>
10000df6:	c606                	sw	ra,12(sp)
10000df8:	d5eff0ef          	jal	10000356 <hw_claim_unused_from_range>
10000dfc:	00054663          	bltz	a0,10000e08 <user_irq_claim_unused+0x2a>
10000e00:	03300793          	li	a5,51
10000e04:	40a78533          	sub	a0,a5,a0
10000e08:	40b2                	lw	ra,12(sp)
10000e0a:	0141                	add	sp,sp,16
10000e0c:	8082                	ret

10000e0e <lock_init>:
10000e0e:	200047b7          	lui	a5,0x20004
10000e12:	ab878793          	add	a5,a5,-1352 # 20003ab8 <_sw_spin_locks>
10000e16:	97ae                	add	a5,a5,a1
10000e18:	c11c                	sw	a5,0(a0)
10000e1a:	8082                	ret

10000e1c <runtime_init_mutex>:
10000e1c:	1101                	add	sp,sp,-32
10000e1e:	cc22                	sw	s0,24(sp)
10000e20:	ca26                	sw	s1,20(sp)
10000e22:	20003437          	lui	s0,0x20003
10000e26:	200034b7          	lui	s1,0x20003
10000e2a:	ce06                	sw	ra,28(sp)
10000e2c:	63840793          	add	a5,s0,1592 # 20003638 <print_mutex>
10000e30:	64048493          	add	s1,s1,1600 # 20003640 <__TMC_END__>
10000e34:	0297f963          	bgeu	a5,s1,10000e66 <runtime_init_mutex+0x4a>
10000e38:	c84a                	sw	s2,16(sp)
10000e3a:	c64e                	sw	s3,12(sp)
10000e3c:	63840413          	add	s0,s0,1592
10000e40:	59fd                	li	s3,-1
10000e42:	0ff00913          	li	s2,255
10000e46:	401c                	lw	a5,0(s0)
10000e48:	c785                	beqz	a5,10000e70 <runtime_init_mutex+0x54>
10000e4a:	da8ff0ef          	jal	100003f2 <next_striped_spin_lock_num>
10000e4e:	85aa                	mv	a1,a0
10000e50:	8522                	mv	a0,s0
10000e52:	3f75                	jal	10000e0e <lock_init>
10000e54:	01241223          	sh	s2,4(s0)
10000e58:	0330000f          	fence	rw,rw
10000e5c:	0421                	add	s0,s0,8
10000e5e:	fe9464e3          	bltu	s0,s1,10000e46 <runtime_init_mutex+0x2a>
10000e62:	4942                	lw	s2,16(sp)
10000e64:	49b2                	lw	s3,12(sp)
10000e66:	40f2                	lw	ra,28(sp)
10000e68:	4462                	lw	s0,24(sp)
10000e6a:	44d2                	lw	s1,20(sp)
10000e6c:	6105                	add	sp,sp,32
10000e6e:	8082                	ret
10000e70:	d82ff0ef          	jal	100003f2 <next_striped_spin_lock_num>
10000e74:	85aa                	mv	a1,a0
10000e76:	8522                	mv	a0,s0
10000e78:	3f59                	jal	10000e0e <lock_init>
10000e7a:	01340223          	sb	s3,4(s0)
10000e7e:	0330000f          	fence	rw,rw
10000e82:	0421                	add	s0,s0,8
10000e84:	fc9461e3          	bltu	s0,s1,10000e46 <runtime_init_mutex+0x2a>
10000e88:	bfe9                	j	10000e62 <runtime_init_mutex+0x46>

10000e8a <mutex_init>:
10000e8a:	1141                	add	sp,sp,-16
10000e8c:	c606                	sw	ra,12(sp)
10000e8e:	c422                	sw	s0,8(sp)
10000e90:	842a                	mv	s0,a0
10000e92:	d60ff0ef          	jal	100003f2 <next_striped_spin_lock_num>
10000e96:	85aa                	mv	a1,a0
10000e98:	8522                	mv	a0,s0
10000e9a:	3f95                	jal	10000e0e <lock_init>
10000e9c:	57fd                	li	a5,-1
10000e9e:	00f40223          	sb	a5,4(s0)
10000ea2:	0330000f          	fence	rw,rw
10000ea6:	40b2                	lw	ra,12(sp)
10000ea8:	4422                	lw	s0,8(sp)
10000eaa:	0141                	add	sp,sp,16
10000eac:	8082                	ret

10000eae <critical_section_init>:
10000eae:	1141                	add	sp,sp,-16
10000eb0:	c422                	sw	s0,8(sp)
10000eb2:	842a                	mv	s0,a0
10000eb4:	4505                	li	a0,1
10000eb6:	c606                	sw	ra,12(sp)
10000eb8:	d58ff0ef          	jal	10000410 <spin_lock_claim_unused>
10000ebc:	200047b7          	lui	a5,0x20004
10000ec0:	ab878793          	add	a5,a5,-1352 # 20003ab8 <_sw_spin_locks>
10000ec4:	97aa                	add	a5,a5,a0
10000ec6:	c01c                	sw	a5,0(s0)
10000ec8:	0330000f          	fence	rw,rw
10000ecc:	40b2                	lw	ra,12(sp)
10000ece:	4422                	lw	s0,8(sp)
10000ed0:	0141                	add	sp,sp,16
10000ed2:	8082                	ret

10000ed4 <critical_section_init_with_lock_num>:
10000ed4:	200047b7          	lui	a5,0x20004
10000ed8:	ab878793          	add	a5,a5,-1352 # 20003ab8 <_sw_spin_locks>
10000edc:	97ae                	add	a5,a5,a1
10000ede:	c11c                	sw	a5,0(a0)
10000ee0:	0330000f          	fence	rw,rw
10000ee4:	8082                	ret

10000ee6 <sleep_until_callback>:
10000ee6:	200046b7          	lui	a3,0x20004
10000eea:	3846a783          	lw	a5,900(a3) # 20004384 <sleep_notifier>
10000eee:	30047773          	csrrc	a4,mstatus,8
10000ef2:	00379613          	sll	a2,a5,0x3
10000ef6:	28c01633          	bset	a2,zero,a2
10000efa:	9bf1                	and	a5,a5,-4
10000efc:	44c7a5af          	amoor.w.aq	a1,a2,(a5)
10000f00:	8df1                	and	a1,a1,a2
10000f02:	fded                	bnez	a1,10000efc <sleep_until_callback+0x16>
10000f04:	0330000f          	fence	rw,rw
10000f08:	3846a783          	lw	a5,900(a3)
10000f0c:	0330000f          	fence	rw,rw
10000f10:	00078023          	sb	zero,0(a5)
10000f14:	00877793          	and	a5,a4,8
10000f18:	3007a073          	csrs	mstatus,a5
10000f1c:	00102033          	sgtz	zero,ra
10000f20:	4501                	li	a0,0
10000f22:	4581                	li	a1,0
10000f24:	8082                	ret

10000f26 <alarm_pool_irq_handler>:
10000f26:	715d                	add	sp,sp,-80
10000f28:	c686                	sw	ra,76(sp)
10000f2a:	c4a2                	sw	s0,72(sp)
10000f2c:	c2a6                	sw	s1,68(sp)
10000f2e:	c0ca                	sw	s2,64(sp)
10000f30:	de4e                	sw	s3,60(sp)
10000f32:	dc52                	sw	s4,56(sp)
10000f34:	da56                	sw	s5,52(sp)
10000f36:	d85a                	sw	s6,48(sp)
10000f38:	d65e                	sw	s7,44(sp)
10000f3a:	d462                	sw	s8,40(sp)
10000f3c:	d266                	sw	s9,36(sp)
10000f3e:	d06a                	sw	s10,32(sp)
10000f40:	ce6e                	sw	s11,28(sp)
10000f42:	be5027f3          	csrr	a5,0xbe5
10000f46:	01079713          	sll	a4,a5,0x10
10000f4a:	32074c63          	bltz	a4,10001282 <alarm_pool_irq_handler+0x35c>
10000f4e:	0047d913          	srl	s2,a5,0x4
10000f52:	1ff97793          	and	a5,s2,511
10000f56:	8389                	srl	a5,a5,0x2
10000f58:	00397913          	and	s2,s2,3
10000f5c:	400b0b37          	lui	s6,0x400b0
10000f60:	292019b3          	bset	s3,zero,s2
10000f64:	34079b63          	bnez	a5,100012ba <alarm_pool_irq_handler+0x394>
10000f68:	200046b7          	lui	a3,0x20004
10000f6c:	34868693          	add	a3,a3,840 # 20004348 <pools>
10000f70:	2127c7b3          	sh2add	a5,a5,s2
10000f74:	670d                	lui	a4,0x3
10000f76:	20d7c7b3          	sh2add	a5,a5,a3
10000f7a:	0007aa83          	lw	s5,0(a5)
10000f7e:	04470713          	add	a4,a4,68 # 3044 <HeapSize+0x2844>
10000f82:	975a                	add	a4,a4,s6
10000f84:	10001a37          	lui	s4,0x10001
10000f88:	01372023          	sw	s3,0(a4)
10000f8c:	f26a0a13          	add	s4,s4,-218 # 10000f26 <alarm_pool_irq_handler>
10000f90:	008a8b93          	add	s7,s5,8
10000f94:	547d                	li	s0,-1
10000f96:	54fd                	li	s1,-1
10000f98:	090a                	sll	s2,s2,0x2
10000f9a:	008a9c03          	lh	s8,8(s5)
10000f9e:	033b2e23          	sw	s3,60(s6) # 400b003c <__StackTop+0x2002e03c>
10000fa2:	080c5363          	bgez	s8,10001028 <alarm_pool_irq_handler+0x102>
10000fa6:	004ad783          	lhu	a5,4(s5)
10000faa:	60579793          	sext.h	a5,a5
10000fae:	1407dc63          	bgez	a5,10001106 <alarm_pool_irq_handler+0x1e0>
10000fb2:	006ac783          	lbu	a5,6(s5)
10000fb6:	1e079463          	bnez	a5,1000119e <alarm_pool_irq_handler+0x278>
10000fba:	008a9683          	lh	a3,8(s5)
10000fbe:	0406c463          	bltz	a3,10001006 <alarm_pool_irq_handler+0xe0>
10000fc2:	014aa703          	lw	a4,20(s5)
10000fc6:	20d6a6b3          	sh1add	a3,a3,a3
10000fca:	57fd                	li	a5,-1
10000fcc:	20e6e6b3          	sh3add	a3,a3,a4
10000fd0:	0086ac03          	lw	s8,8(a3)
10000fd4:	00c6ac83          	lw	s9,12(a3)
10000fd8:	2afc0263          	beq	s8,a5,1000127c <alarm_pool_irq_handler+0x356>
10000fdc:	012b06b3          	add	a3,s6,s2
10000fe0:	028b2703          	lw	a4,40(s6)
10000fe4:	4a9c                	lw	a5,16(a3)
10000fe6:	40ec0633          	sub	a2,s8,a4
10000fea:	8f99                	sub	a5,a5,a4
10000fec:	00f67463          	bgeu	a2,a5,10000ff4 <alarm_pool_irq_handler+0xce>
10000ff0:	0186a823          	sw	s8,16(a3)
10000ff4:	855a                	mv	a0,s6
10000ff6:	0c3000ef          	jal	100018b8 <timer_time_us_64>
10000ffa:	0195c663          	blt	a1,s9,10001006 <alarm_pool_irq_handler+0xe0>
10000ffe:	f8bc9ee3          	bne	s9,a1,10000f9a <alarm_pool_irq_handler+0x74>
10001002:	f9857ce3          	bgeu	a0,s8,10000f9a <alarm_pool_irq_handler+0x74>
10001006:	00102033          	sgtz	zero,ra
1000100a:	40b6                	lw	ra,76(sp)
1000100c:	4426                	lw	s0,72(sp)
1000100e:	4496                	lw	s1,68(sp)
10001010:	4906                	lw	s2,64(sp)
10001012:	59f2                	lw	s3,60(sp)
10001014:	5a62                	lw	s4,56(sp)
10001016:	5ad2                	lw	s5,52(sp)
10001018:	5b42                	lw	s6,48(sp)
1000101a:	5bb2                	lw	s7,44(sp)
1000101c:	5c22                	lw	s8,40(sp)
1000101e:	5c92                	lw	s9,36(sp)
10001020:	5d02                	lw	s10,32(sp)
10001022:	4df2                	lw	s11,28(sp)
10001024:	6161                	add	sp,sp,80
10001026:	8082                	ret
10001028:	014aa783          	lw	a5,20(s5)
1000102c:	218c2cb3          	sh1add	s9,s8,s8
10001030:	855a                	mv	a0,s6
10001032:	20fcecb3          	sh3add	s9,s9,a5
10001036:	00ccad03          	lw	s10,12(s9)
1000103a:	008cad83          	lw	s11,8(s9)
1000103e:	07b000ef          	jal	100018b8 <timer_time_us_64>
10001042:	f7a5c2e3          	blt	a1,s10,10000fa6 <alarm_pool_irq_handler+0x80>
10001046:	1cbd0763          	beq	s10,a1,10001214 <alarm_pool_irq_handler+0x2ee>
1000104a:	1c0d4963          	bltz	s10,1000121c <alarm_pool_irq_handler+0x2f6>
1000104e:	010ca783          	lw	a5,16(s9)
10001052:	014ca583          	lw	a1,20(s9)
10001056:	25478963          	beq	a5,s4,100012a8 <alarm_pool_irq_handler+0x382>
1000105a:	008a9703          	lh	a4,8(s5)
1000105e:	002cd503          	lhu	a0,2(s9)
10001062:	0742                	sll	a4,a4,0x10
10001064:	8d59                	or	a0,a0,a4
10001066:	9782                	jalr	a5
10001068:	872a                	mv	a4,a0
1000106a:	86ae                	mv	a3,a1
1000106c:	00d767b3          	or	a5,a4,a3
10001070:	1a078663          	beqz	a5,1000121c <alarm_pool_irq_handler+0x2f6>
10001074:	2006dd63          	bgez	a3,1000128e <alarm_pool_irq_handler+0x368>
10001078:	40ed8733          	sub	a4,s11,a4
1000107c:	00edbdb3          	sltu	s11,s11,a4
10001080:	40dd07b3          	sub	a5,s10,a3
10001084:	863a                	mv	a2,a4
10001086:	41b787b3          	sub	a5,a5,s11
1000108a:	000c9703          	lh	a4,0(s9)
1000108e:	00cca423          	sw	a2,8(s9)
10001092:	00fca623          	sw	a5,12(s9)
10001096:	f00748e3          	bltz	a4,10000fa6 <alarm_pool_irq_handler+0x80>
1000109a:	014aa503          	lw	a0,20(s5)
1000109e:	20e72833          	sh1add	a6,a4,a4
100010a2:	00171693          	sll	a3,a4,0x1
100010a6:	20a86833          	sh3add	a6,a6,a0
100010aa:	00c82583          	lw	a1,12(a6)
100010ae:	00882883          	lw	a7,8(a6)
100010b2:	eeb7cae3          	blt	a5,a1,10000fa6 <alarm_pool_irq_handler+0x80>
100010b6:	00f59463          	bne	a1,a5,100010be <alarm_pool_irq_handler+0x198>
100010ba:	ef1666e3          	bltu	a2,a7,10000fa6 <alarm_pool_irq_handler+0x80>
100010be:	00ea9423          	sh	a4,8(s5)
100010c2:	008a8813          	add	a6,s5,8
100010c6:	a00d                	j	100010e8 <alarm_pool_irq_handler+0x1c2>
100010c8:	1ef58d63          	beq	a1,a5,100012c2 <alarm_pool_irq_handler+0x39c>
100010cc:	00069703          	lh	a4,0(a3)
100010d0:	8836                	mv	a6,a3
100010d2:	20e726b3          	sh1add	a3,a4,a4
100010d6:	20a6e6b3          	sh3add	a3,a3,a0
100010da:	00074c63          	bltz	a4,100010f2 <alarm_pool_irq_handler+0x1cc>
100010de:	0086a883          	lw	a7,8(a3)
100010e2:	46cc                	lw	a1,12(a3)
100010e4:	00171693          	sll	a3,a4,0x1
100010e8:	96ba                	add	a3,a3,a4
100010ea:	20a6e6b3          	sh3add	a3,a3,a0
100010ee:	fcb7dde3          	bge	a5,a1,100010c8 <alarm_pool_irq_handler+0x1a2>
100010f2:	00ec9023          	sh	a4,0(s9)
100010f6:	01881023          	sh	s8,0(a6)
100010fa:	004ad783          	lhu	a5,4(s5)
100010fe:	60579793          	sext.h	a5,a5
10001102:	ea07c8e3          	bltz	a5,10000fb2 <alarm_pool_irq_handler+0x8c>
10001106:	010aa783          	lw	a5,16(s5)
1000110a:	30047773          	csrrc	a4,mstatus,8
1000110e:	00379693          	sll	a3,a5,0x3
10001112:	28d016b3          	bset	a3,zero,a3
10001116:	9bf1                	and	a5,a5,-4
10001118:	44d7a62f          	amoor.w.aq	a2,a3,(a5)
1000111c:	8e75                	and	a2,a2,a3
1000111e:	fe6d                	bnez	a2,10001118 <alarm_pool_irq_handler+0x1f2>
10001120:	0330000f          	fence	rw,rw
10001124:	004ad883          	lhu	a7,4(s5)
10001128:	56fd                	li	a3,-1
1000112a:	010aa783          	lw	a5,16(s5)
1000112e:	00da9223          	sh	a3,4(s5)
10001132:	60589893          	sext.h	a7,a7
10001136:	0330000f          	fence	rw,rw
1000113a:	00078023          	sb	zero,0(a5)
1000113e:	00877793          	and	a5,a4,8
10001142:	3007a073          	csrs	mstatus,a5
10001146:	e608c6e3          	bltz	a7,10000fb2 <alarm_pool_irq_handler+0x8c>
1000114a:	014aa503          	lw	a0,20(s5)
1000114e:	008a9703          	lh	a4,8(s5)
10001152:	2118a833          	sh1add	a6,a7,a7
10001156:	85de                	mv	a1,s7
10001158:	20a86833          	sh3add	a6,a6,a0
1000115c:	00882303          	lw	t1,8(a6)
10001160:	00c82603          	lw	a2,12(a6)
10001164:	00075a63          	bgez	a4,10001178 <alarm_pool_irq_handler+0x252>
10001168:	a839                	j	10001186 <alarm_pool_irq_handler+0x260>
1000116a:	0ec68d63          	beq	a3,a2,10001264 <alarm_pool_irq_handler+0x33e>
1000116e:	00079703          	lh	a4,0(a5)
10001172:	85be                	mv	a1,a5
10001174:	00074963          	bltz	a4,10001186 <alarm_pool_irq_handler+0x260>
10001178:	20e727b3          	sh1add	a5,a4,a4
1000117c:	20a7e7b3          	sh3add	a5,a5,a0
10001180:	47d4                	lw	a3,12(a5)
10001182:	fed654e3          	bge	a2,a3,1000116a <alarm_pool_irq_handler+0x244>
10001186:	01159023          	sh	a7,0(a1)
1000118a:	00081883          	lh	a7,0(a6)
1000118e:	00e81023          	sh	a4,0(a6)
10001192:	fa08dee3          	bgez	a7,1000114e <alarm_pool_irq_handler+0x228>
10001196:	006ac783          	lbu	a5,6(s5)
1000119a:	e20780e3          	beqz	a5,10000fba <alarm_pool_irq_handler+0x94>
1000119e:	000a8323          	sb	zero,6(s5)
100011a2:	008a9703          	lh	a4,8(s5)
100011a6:	57fd                	li	a5,-1
100011a8:	835e                	mv	t1,s7
100011aa:	e4f70ee3          	beq	a4,a5,10001006 <alarm_pool_irq_handler+0xe0>
100011ae:	014aa883          	lw	a7,20(s5)
100011b2:	20e727b3          	sh1add	a5,a4,a4
100011b6:	86ba                	mv	a3,a4
100011b8:	2117e7b3          	sh3add	a5,a5,a7
100011bc:	0027d603          	lhu	a2,2(a5)
100011c0:	85ba                	mv	a1,a4
100011c2:	853a                	mv	a0,a4
100011c4:	587d                	li	a6,-1
100011c6:	00079703          	lh	a4,0(a5)
100011ca:	60561613          	sext.h	a2,a2
100011ce:	02064363          	bltz	a2,100011f4 <alarm_pool_irq_handler+0x2ce>
100011d2:	833e                	mv	t1,a5
100011d4:	df0705e3          	beq	a4,a6,10000fbe <alarm_pool_irq_handler+0x98>
100011d8:	20e727b3          	sh1add	a5,a4,a4
100011dc:	2117e7b3          	sh3add	a5,a5,a7
100011e0:	0027d603          	lhu	a2,2(a5)
100011e4:	85ba                	mv	a1,a4
100011e6:	853a                	mv	a0,a4
100011e8:	60561613          	sext.h	a2,a2
100011ec:	00079703          	lh	a4,0(a5)
100011f0:	fe0651e3          	bgez	a2,100011d2 <alarm_pool_irq_handler+0x2ac>
100011f4:	c780                	sw	s0,8(a5)
100011f6:	c7c4                	sw	s1,12(a5)
100011f8:	00d58a63          	beq	a1,a3,1000120c <alarm_pool_irq_handler+0x2e6>
100011fc:	00e31023          	sh	a4,0(t1) # 1000 <HeapSize+0x800>
10001200:	008ad683          	lhu	a3,8(s5)
10001204:	00d79023          	sh	a3,0(a5)
10001208:	00ba9423          	sh	a1,8(s5)
1000120c:	86aa                	mv	a3,a0
1000120e:	fd0715e3          	bne	a4,a6,100011d8 <alarm_pool_irq_handler+0x2b2>
10001212:	b375                	j	10000fbe <alarm_pool_irq_handler+0x98>
10001214:	d9b569e3          	bltu	a0,s11,10000fa6 <alarm_pool_irq_handler+0x80>
10001218:	e20d5be3          	bgez	s10,1000104e <alarm_pool_irq_handler+0x128>
1000121c:	000cd703          	lhu	a4,0(s9)
10001220:	010aa783          	lw	a5,16(s5)
10001224:	00ea9423          	sh	a4,8(s5)
10001228:	30047773          	csrrc	a4,mstatus,8
1000122c:	00379693          	sll	a3,a5,0x3
10001230:	28d016b3          	bset	a3,zero,a3
10001234:	9bf1                	and	a5,a5,-4
10001236:	44d7a62f          	amoor.w.aq	a2,a3,(a5)
1000123a:	8e75                	and	a2,a2,a3
1000123c:	fe6d                	bnez	a2,10001236 <alarm_pool_irq_handler+0x310>
1000123e:	0330000f          	fence	rw,rw
10001242:	002ad683          	lhu	a3,2(s5)
10001246:	010aa783          	lw	a5,16(s5)
1000124a:	00dc9023          	sh	a3,0(s9)
1000124e:	018a9123          	sh	s8,2(s5)
10001252:	0330000f          	fence	rw,rw
10001256:	00078023          	sb	zero,0(a5)
1000125a:	00877793          	and	a5,a4,8
1000125e:	3007a073          	csrs	mstatus,a5
10001262:	b391                	j	10000fa6 <alarm_pool_irq_handler+0x80>
10001264:	4794                	lw	a3,8(a5)
10001266:	f0d374e3          	bgeu	t1,a3,1000116e <alarm_pool_irq_handler+0x248>
1000126a:	01159023          	sh	a7,0(a1)
1000126e:	00081883          	lh	a7,0(a6)
10001272:	00e81023          	sh	a4,0(a6)
10001276:	ec08dce3          	bgez	a7,1000114e <alarm_pool_irq_handler+0x228>
1000127a:	bf31                	j	10001196 <alarm_pool_irq_handler+0x270>
1000127c:	d78c90e3          	bne	s9,s8,10000fdc <alarm_pool_irq_handler+0xb6>
10001280:	bb95                	j	10000ff4 <alarm_pool_irq_handler+0xce>
10001282:	4985                	li	s3,1
10001284:	4785                	li	a5,1
10001286:	4901                	li	s2,0
10001288:	400b8b37          	lui	s6,0x400b8
1000128c:	b9f1                	j	10000f68 <alarm_pool_irq_handler+0x42>
1000128e:	855a                	mv	a0,s6
10001290:	c636                	sw	a3,12(sp)
10001292:	c43a                	sw	a4,8(sp)
10001294:	2515                	jal	100018b8 <timer_time_us_64>
10001296:	4722                	lw	a4,8(sp)
10001298:	46b2                	lw	a3,12(sp)
1000129a:	972a                	add	a4,a4,a0
1000129c:	00a737b3          	sltu	a5,a4,a0
100012a0:	96ae                	add	a3,a3,a1
100012a2:	863a                	mv	a2,a4
100012a4:	97b6                	add	a5,a5,a3
100012a6:	b3d5                	j	1000108a <alarm_pool_irq_handler+0x164>
100012a8:	499c                	lw	a5,16(a1)
100012aa:	852e                	mv	a0,a1
100012ac:	c42e                	sw	a1,8(sp)
100012ae:	9782                	jalr	a5
100012b0:	d535                	beqz	a0,1000121c <alarm_pool_irq_handler+0x2f6>
100012b2:	45a2                	lw	a1,8(sp)
100012b4:	4198                	lw	a4,0(a1)
100012b6:	41d4                	lw	a3,4(a1)
100012b8:	bb55                	j	1000106c <alarm_pool_irq_handler+0x146>
100012ba:	4785                	li	a5,1
100012bc:	400b8b37          	lui	s6,0x400b8
100012c0:	b165                	j	10000f68 <alarm_pool_irq_handler+0x42>
100012c2:	e11675e3          	bgeu	a2,a7,100010cc <alarm_pool_irq_handler+0x1a6>
100012c6:	b535                	j	100010f2 <alarm_pool_irq_handler+0x1cc>

100012c8 <runtime_init_default_alarm_pool>:
100012c8:	1141                	add	sp,sp,-16
100012ca:	c422                	sw	s0,8(sp)
100012cc:	20003437          	lui	s0,0x20003
100012d0:	42840413          	add	s0,s0,1064 # 20003428 <default_alarm_pool>
100012d4:	481c                	lw	a5,16(s0)
100012d6:	c606                	sw	ra,12(sp)
100012d8:	cb91                	beqz	a5,100012ec <runtime_init_default_alarm_pool+0x24>
100012da:	4422                	lw	s0,8(sp)
100012dc:	40b2                	lw	ra,12(sp)
100012de:	20004537          	lui	a0,0x20004
100012e2:	45a9                	li	a1,10
100012e4:	38450513          	add	a0,a0,900 # 20004384 <sleep_notifier>
100012e8:	0141                	add	sp,sp,16
100012ea:	b615                	j	10000e0e <lock_init>
100012ec:	458d                	li	a1,3
100012ee:	400b0537          	lui	a0,0x400b0
100012f2:	c226                	sw	s1,4(sp)
100012f4:	c04a                	sw	s2,0(sp)
100012f6:	235d                	jal	1000189c <timer_hardware_alarm_claim>
100012f8:	400b0937          	lui	s2,0x400b0
100012fc:	01242623          	sw	s2,12(s0)
10001300:	8f2ff0ef          	jal	100003f2 <next_striped_spin_lock_num>
10001304:	460d                	li	a2,3
10001306:	00c40023          	sb	a2,0(s0)
1000130a:	d00007b7          	lui	a5,0xd0000
1000130e:	20004737          	lui	a4,0x20004
10001312:	0007a803          	lw	a6,0(a5) # d0000000 <__StackTop+0xaff7e000>
10001316:	ab870713          	add	a4,a4,-1352 # 20003ab8 <_sw_spin_locks>
1000131a:	485c                	lw	a5,20(s0)
1000131c:	972a                	add	a4,a4,a0
1000131e:	c818                	sw	a4,16(s0)
10001320:	4705                	li	a4,1
10001322:	02e79823          	sh	a4,48(a5)
10001326:	4709                	li	a4,2
10001328:	04e79423          	sh	a4,72(a5)
1000132c:	4711                	li	a4,4
1000132e:	06e79c23          	sh	a4,120(a5)
10001332:	4715                	li	a4,5
10001334:	08e79823          	sh	a4,144(a5)
10001338:	4719                	li	a4,6
1000133a:	0ae79423          	sh	a4,168(a5)
1000133e:	471d                	li	a4,7
10001340:	0ce79023          	sh	a4,192(a5)
10001344:	4725                	li	a4,9
10001346:	0ee79823          	sh	a4,240(a5)
1000134a:	4729                	li	a4,10
1000134c:	10e79423          	sh	a4,264(a5)
10001350:	472d                	li	a4,11
10001352:	12e79023          	sh	a4,288(a5)
10001356:	001106b7          	lui	a3,0x110
1000135a:	4731                	li	a4,12
1000135c:	12e79c23          	sh	a4,312(a5)
10001360:	55fd                	li	a1,-1
10001362:	16fd                	add	a3,a3,-1 # 10ffff <HeapSize+0x10f7ff>
10001364:	453d                	li	a0,15
10001366:	4735                	li	a4,13
10001368:	010400a3          	sb	a6,1(s0)
1000136c:	00b41223          	sh	a1,4(s0)
10001370:	00a41123          	sh	a0,2(s0)
10001374:	c414                	sw	a3,8(s0)
10001376:	44a1                	li	s1,8
10001378:	14e79823          	sh	a4,336(a5)
1000137c:	4739                	li	a4,14
1000137e:	00b79023          	sh	a1,0(a5)
10001382:	06c79023          	sh	a2,96(a5)
10001386:	0c979c23          	sh	s1,216(a5)
1000138a:	16e79423          	sh	a4,360(a5)
1000138e:	00079c23          	sh	zero,24(a5)
10001392:	100015b7          	lui	a1,0x10001
10001396:	02992023          	sw	s1,32(s2) # 400b0020 <__StackTop+0x2002e020>
1000139a:	200047b7          	lui	a5,0x20004
1000139e:	f2658593          	add	a1,a1,-218 # 10000f26 <alarm_pool_irq_handler>
100013a2:	450d                	li	a0,3
100013a4:	3487aa23          	sw	s0,852(a5) # 20004354 <pools+0xc>
100013a8:	95cff0ef          	jal	10000504 <irq_set_exclusive_handler>
100013ac:	4585                	li	a1,1
100013ae:	450d                	li	a0,3
100013b0:	8ceff0ef          	jal	1000047e <irq_set_enabled>
100013b4:	400b27b7          	lui	a5,0x400b2
100013b8:	4422                	lw	s0,8(sp)
100013ba:	4902                	lw	s2,0(sp)
100013bc:	40b2                	lw	ra,12(sp)
100013be:	c3a4                	sw	s1,64(a5)
100013c0:	4492                	lw	s1,4(sp)
100013c2:	20004537          	lui	a0,0x20004
100013c6:	45a9                	li	a1,10
100013c8:	38450513          	add	a0,a0,900 # 20004384 <sleep_notifier>
100013cc:	0141                	add	sp,sp,16
100013ce:	b481                	j	10000e0e <lock_init>

100013d0 <alarm_pool_get_default>:
100013d0:	20003537          	lui	a0,0x20003
100013d4:	42850513          	add	a0,a0,1064 # 20003428 <default_alarm_pool>
100013d8:	8082                	ret

100013da <alarm_pool_add_alarm_at>:
100013da:	1101                	add	sp,sp,-32
100013dc:	cc22                	sw	s0,24(sp)
100013de:	ca26                	sw	s1,20(sp)
100013e0:	c84a                	sw	s2,16(sp)
100013e2:	c64e                	sw	s3,12(sp)
100013e4:	c452                	sw	s4,8(sp)
100013e6:	ce06                	sw	ra,28(sp)
100013e8:	842a                	mv	s0,a0
100013ea:	84ae                	mv	s1,a1
100013ec:	8932                	mv	s2,a2
100013ee:	8a36                	mv	s4,a3
100013f0:	89ba                	mv	s3,a4
100013f2:	ef81                	bnez	a5,1000140a <alarm_pool_add_alarm_at+0x30>
100013f4:	29d1                	jal	100018c8 <time_us_64>
100013f6:	40a48533          	sub	a0,s1,a0
100013fa:	00a4b533          	sltu	a0,s1,a0
100013fe:	40b905b3          	sub	a1,s2,a1
10001402:	8d89                	sub	a1,a1,a0
10001404:	4501                	li	a0,0
10001406:	0c05c263          	bltz	a1,100014ca <alarm_pool_add_alarm_at+0xf0>
1000140a:	481c                	lw	a5,16(s0)
1000140c:	300475f3          	csrrc	a1,mstatus,8
10001410:	00379713          	sll	a4,a5,0x3
10001414:	28e01733          	bset	a4,zero,a4
10001418:	9bf1                	and	a5,a5,-4
1000141a:	44e7a6af          	amoor.w.aq	a3,a4,(a5)
1000141e:	8ef9                	and	a3,a3,a4
10001420:	feed                	bnez	a3,1000141a <alarm_pool_add_alarm_at+0x40>
10001422:	0330000f          	fence	rw,rw
10001426:	00241883          	lh	a7,2(s0)
1000142a:	4858                	lw	a4,20(s0)
1000142c:	2118a7b3          	sh1add	a5,a7,a7
10001430:	20e7e7b3          	sh3add	a5,a5,a4
10001434:	0a08c363          	bltz	a7,100014da <alarm_pool_add_alarm_at+0x100>
10001438:	0007d683          	lhu	a3,0(a5) # 400b2000 <__StackTop+0x20030000>
1000143c:	4818                	lw	a4,16(s0)
1000143e:	00d41123          	sh	a3,2(s0)
10001442:	0330000f          	fence	rw,rw
10001446:	00070023          	sb	zero,0(a4)
1000144a:	89a1                	and	a1,a1,8
1000144c:	3005a073          	csrs	mstatus,a1
10001450:	0027d803          	lhu	a6,2(a5)
10001454:	01089513          	sll	a0,a7,0x10
10001458:	4705                	li	a4,1
1000145a:	0805                	add	a6,a6,1
1000145c:	0846                	sll	a6,a6,0x11
1000145e:	01185813          	srl	a6,a6,0x11
10001462:	0ae87833          	maxu	a6,a6,a4
10001466:	0147a823          	sw	s4,16(a5)
1000146a:	0137aa23          	sw	s3,20(a5)
1000146e:	c784                	sw	s1,8(a5)
10001470:	0127a623          	sw	s2,12(a5)
10001474:	01079123          	sh	a6,2(a5)
10001478:	01056533          	or	a0,a0,a6
1000147c:	4818                	lw	a4,16(s0)
1000147e:	300476f3          	csrrc	a3,mstatus,8
10001482:	00371613          	sll	a2,a4,0x3
10001486:	28c01633          	bset	a2,zero,a2
1000148a:	9b71                	and	a4,a4,-4
1000148c:	44c725af          	amoor.w.aq	a1,a2,(a4)
10001490:	8df1                	and	a1,a1,a2
10001492:	fded                	bnez	a1,1000148c <alarm_pool_add_alarm_at+0xb2>
10001494:	0330000f          	fence	rw,rw
10001498:	00445603          	lhu	a2,4(s0)
1000149c:	4818                	lw	a4,16(s0)
1000149e:	00c79023          	sh	a2,0(a5)
100014a2:	01141223          	sh	a7,4(s0)
100014a6:	0330000f          	fence	rw,rw
100014aa:	00070023          	sb	zero,0(a4)
100014ae:	0086f793          	and	a5,a3,8
100014b2:	3007a073          	csrs	mstatus,a5
100014b6:	445c                	lw	a5,12(s0)
100014b8:	00044703          	lbu	a4,0(s0)
100014bc:	6689                	lui	a3,0x2
100014be:	04468693          	add	a3,a3,68 # 2044 <HeapSize+0x1844>
100014c2:	97b6                	add	a5,a5,a3
100014c4:	28e01733          	bset	a4,zero,a4
100014c8:	c398                	sw	a4,0(a5)
100014ca:	40f2                	lw	ra,28(sp)
100014cc:	4462                	lw	s0,24(sp)
100014ce:	44d2                	lw	s1,20(sp)
100014d0:	4942                	lw	s2,16(sp)
100014d2:	49b2                	lw	s3,12(sp)
100014d4:	4a22                	lw	s4,8(sp)
100014d6:	6105                	add	sp,sp,32
100014d8:	8082                	ret
100014da:	481c                	lw	a5,16(s0)
100014dc:	0330000f          	fence	rw,rw
100014e0:	00078023          	sb	zero,0(a5)
100014e4:	89a1                	and	a1,a1,8
100014e6:	3005a073          	csrs	mstatus,a1
100014ea:	40f2                	lw	ra,28(sp)
100014ec:	4462                	lw	s0,24(sp)
100014ee:	44d2                	lw	s1,20(sp)
100014f0:	4942                	lw	s2,16(sp)
100014f2:	49b2                	lw	s3,12(sp)
100014f4:	4a22                	lw	s4,8(sp)
100014f6:	557d                	li	a0,-1
100014f8:	6105                	add	sp,sp,32
100014fa:	8082                	ret

100014fc <alarm_pool_add_alarm_at_force_in_context>:
100014fc:	87aa                	mv	a5,a0
100014fe:	4908                	lw	a0,16(a0)
10001500:	300478f3          	csrrc	a7,mstatus,8
10001504:	00351813          	sll	a6,a0,0x3
10001508:	29001833          	bset	a6,zero,a6
1000150c:	9971                	and	a0,a0,-4
1000150e:	4505232f          	amoor.w.aq	t1,a6,(a0)
10001512:	01037333          	and	t1,t1,a6
10001516:	fe031ce3          	bnez	t1,1000150e <alarm_pool_add_alarm_at_force_in_context+0x12>
1000151a:	0330000f          	fence	rw,rw
1000151e:	00279303          	lh	t1,2(a5)
10001522:	4bc8                	lw	a0,20(a5)
10001524:	20632833          	sh1add	a6,t1,t1
10001528:	20a86833          	sh3add	a6,a6,a0
1000152c:	08034e63          	bltz	t1,100015c8 <alarm_pool_add_alarm_at_force_in_context+0xcc>
10001530:	00085e03          	lhu	t3,0(a6)
10001534:	4b88                	lw	a0,16(a5)
10001536:	01c79123          	sh	t3,2(a5)
1000153a:	0330000f          	fence	rw,rw
1000153e:	00050023          	sb	zero,0(a0)
10001542:	0088f893          	and	a7,a7,8
10001546:	3008a073          	csrs	mstatus,a7
1000154a:	00285883          	lhu	a7,2(a6)
1000154e:	01031513          	sll	a0,t1,0x10
10001552:	4e05                	li	t3,1
10001554:	0885                	add	a7,a7,1
10001556:	08c6                	sll	a7,a7,0x11
10001558:	0118d893          	srl	a7,a7,0x11
1000155c:	0bc8f8b3          	maxu	a7,a7,t3
10001560:	00e82a23          	sw	a4,20(a6)
10001564:	00d82823          	sw	a3,16(a6)
10001568:	00b82423          	sw	a1,8(a6)
1000156c:	00c82623          	sw	a2,12(a6)
10001570:	01181123          	sh	a7,2(a6)
10001574:	01156533          	or	a0,a0,a7
10001578:	4b98                	lw	a4,16(a5)
1000157a:	300476f3          	csrrc	a3,mstatus,8
1000157e:	00371613          	sll	a2,a4,0x3
10001582:	28c01633          	bset	a2,zero,a2
10001586:	9b71                	and	a4,a4,-4
10001588:	44c725af          	amoor.w.aq	a1,a2,(a4)
1000158c:	8df1                	and	a1,a1,a2
1000158e:	fded                	bnez	a1,10001588 <alarm_pool_add_alarm_at_force_in_context+0x8c>
10001590:	0330000f          	fence	rw,rw
10001594:	0047d603          	lhu	a2,4(a5)
10001598:	4b98                	lw	a4,16(a5)
1000159a:	00c81023          	sh	a2,0(a6)
1000159e:	00679223          	sh	t1,4(a5)
100015a2:	0330000f          	fence	rw,rw
100015a6:	00070023          	sb	zero,0(a4)
100015aa:	0086f713          	and	a4,a3,8
100015ae:	30072073          	csrs	mstatus,a4
100015b2:	47d8                	lw	a4,12(a5)
100015b4:	0007c683          	lbu	a3,0(a5)
100015b8:	6789                	lui	a5,0x2
100015ba:	04478793          	add	a5,a5,68 # 2044 <HeapSize+0x1844>
100015be:	97ba                	add	a5,a5,a4
100015c0:	28d01733          	bset	a4,zero,a3
100015c4:	c398                	sw	a4,0(a5)
100015c6:	8082                	ret
100015c8:	4b9c                	lw	a5,16(a5)
100015ca:	0330000f          	fence	rw,rw
100015ce:	00078023          	sb	zero,0(a5)
100015d2:	0088f893          	and	a7,a7,8
100015d6:	3008a073          	csrs	mstatus,a7
100015da:	557d                	li	a0,-1
100015dc:	8082                	ret

100015de <alarm_pool_cancel_alarm>:
100015de:	00a55703          	lhu	a4,10(a0)
100015e2:	4105d793          	sra	a5,a1,0x10
100015e6:	04e7d763          	bge	a5,a4,10001634 <alarm_pool_cancel_alarm+0x56>
100015ea:	4954                	lw	a3,20(a0)
100015ec:	4918                	lw	a4,16(a0)
100015ee:	20f7a7b3          	sh1add	a5,a5,a5
100015f2:	20d7e7b3          	sh3add	a5,a5,a3
100015f6:	300476f3          	csrrc	a3,mstatus,8
100015fa:	00371613          	sll	a2,a4,0x3
100015fe:	28c01633          	bset	a2,zero,a2
10001602:	9b71                	and	a4,a4,-4
10001604:	44c7282f          	amoor.w.aq	a6,a2,(a4)
10001608:	00c87833          	and	a6,a6,a2
1000160c:	fe081ce3          	bnez	a6,10001604 <alarm_pool_cancel_alarm+0x26>
10001610:	0330000f          	fence	rw,rw
10001614:	0027d703          	lhu	a4,2(a5)
10001618:	0805c5b3          	zext.h	a1,a1
1000161c:	08074633          	zext.h	a2,a4
10001620:	00b70c63          	beq	a4,a1,10001638 <alarm_pool_cancel_alarm+0x5a>
10001624:	491c                	lw	a5,16(a0)
10001626:	0330000f          	fence	rw,rw
1000162a:	00078023          	sb	zero,0(a5)
1000162e:	8aa1                	and	a3,a3,8
10001630:	3006a073          	csrs	mstatus,a3
10001634:	4501                	li	a0,0
10001636:	8082                	ret
10001638:	28f61613          	bset	a2,a2,0xf
1000163c:	00c79123          	sh	a2,2(a5)
10001640:	4785                	li	a5,1
10001642:	00f50323          	sb	a5,6(a0)
10001646:	491c                	lw	a5,16(a0)
10001648:	0330000f          	fence	rw,rw
1000164c:	00078023          	sb	zero,0(a5)
10001650:	8aa1                	and	a3,a3,8
10001652:	3006a073          	csrs	mstatus,a3
10001656:	455c                	lw	a5,12(a0)
10001658:	00054703          	lbu	a4,0(a0)
1000165c:	6689                	lui	a3,0x2
1000165e:	04468693          	add	a3,a3,68 # 2044 <HeapSize+0x1844>
10001662:	97b6                	add	a5,a5,a3
10001664:	28e01733          	bset	a4,zero,a4
10001668:	4505                	li	a0,1
1000166a:	c398                	sw	a4,0(a5)
1000166c:	8082                	ret

1000166e <alarm_pool_core_num>:
1000166e:	00154503          	lbu	a0,1(a0)
10001672:	8082                	ret

10001674 <sleep_until>:
10001674:	1101                	add	sp,sp,-32
10001676:	ca26                	sw	s1,20(sp)
10001678:	ffa50493          	add	s1,a0,-6
1000167c:	cc22                	sw	s0,24(sp)
1000167e:	fff58793          	add	a5,a1,-1
10001682:	00a4b433          	sltu	s0,s1,a0
10001686:	c84a                	sw	s2,16(sp)
10001688:	c64e                	sw	s3,12(sp)
1000168a:	ce06                	sw	ra,28(sp)
1000168c:	943e                	add	s0,s0,a5
1000168e:	89aa                	mv	s3,a0
10001690:	892e                	mv	s2,a1
10001692:	0285ea63          	bltu	a1,s0,100016c6 <sleep_until+0x52>
10001696:	02b40663          	beq	s0,a1,100016c2 <sleep_until+0x4e>
1000169a:	243d                	jal	100018c8 <time_us_64>
1000169c:	40a48733          	sub	a4,s1,a0
100016a0:	00e4b6b3          	sltu	a3,s1,a4
100016a4:	40b407b3          	sub	a5,s0,a1
100016a8:	8f95                	sub	a5,a5,a3
100016aa:	02f04a63          	bgtz	a5,100016de <sleep_until+0x6a>
100016ae:	cbc5                	beqz	a5,1000175e <sleep_until+0xea>
100016b0:	4462                	lw	s0,24(sp)
100016b2:	40f2                	lw	ra,28(sp)
100016b4:	44d2                	lw	s1,20(sp)
100016b6:	854e                	mv	a0,s3
100016b8:	85ca                	mv	a1,s2
100016ba:	49b2                	lw	s3,12(sp)
100016bc:	4942                	lw	s2,16(sp)
100016be:	6105                	add	sp,sp,32
100016c0:	a469                	j	1000194a <busy_wait_until>
100016c2:	fc957ce3          	bgeu	a0,s1,1000169a <sleep_until+0x26>
100016c6:	2409                	jal	100018c8 <time_us_64>
100016c8:	4481                	li	s1,0
100016ca:	4401                	li	s0,0
100016cc:	40a48733          	sub	a4,s1,a0
100016d0:	00e4b6b3          	sltu	a3,s1,a4
100016d4:	40b407b3          	sub	a5,s0,a1
100016d8:	8f95                	sub	a5,a5,a3
100016da:	fcf05ae3          	blez	a5,100016ae <sleep_until+0x3a>
100016de:	22ed                	jal	100018c8 <time_us_64>
100016e0:	40a48533          	sub	a0,s1,a0
100016e4:	00a4b533          	sltu	a0,s1,a0
100016e8:	40b405b3          	sub	a1,s0,a1
100016ec:	8d89                	sub	a1,a1,a0
100016ee:	0205c063          	bltz	a1,1000170e <sleep_until+0x9a>
100016f2:	100016b7          	lui	a3,0x10001
100016f6:	20003537          	lui	a0,0x20003
100016fa:	4701                	li	a4,0
100016fc:	ee668693          	add	a3,a3,-282 # 10000ee6 <sleep_until_callback>
10001700:	85a6                	mv	a1,s1
10001702:	8622                	mv	a2,s0
10001704:	42850513          	add	a0,a0,1064 # 20003428 <default_alarm_pool>
10001708:	3bd5                	jal	100014fc <alarm_pool_add_alarm_at_force_in_context>
1000170a:	fa0543e3          	bltz	a0,100016b0 <sleep_until+0x3c>
1000170e:	400b0637          	lui	a2,0x400b0
10001712:	200046b7          	lui	a3,0x20004
10001716:	525c                	lw	a5,36(a2)
10001718:	0087e763          	bltu	a5,s0,10001726 <sleep_until+0xb2>
1000171c:	5618                	lw	a4,40(a2)
1000171e:	f89779e3          	bgeu	a4,s1,100016b0 <sleep_until+0x3c>
10001722:	f8f417e3          	bne	s0,a5,100016b0 <sleep_until+0x3c>
10001726:	3846a783          	lw	a5,900(a3) # 20004384 <sleep_notifier>
1000172a:	30047773          	csrrc	a4,mstatus,8
1000172e:	00379593          	sll	a1,a5,0x3
10001732:	28b015b3          	bset	a1,zero,a1
10001736:	9bf1                	and	a5,a5,-4
10001738:	44b7a52f          	amoor.w.aq	a0,a1,(a5)
1000173c:	8d6d                	and	a0,a0,a1
1000173e:	fd6d                	bnez	a0,10001738 <sleep_until+0xc4>
10001740:	0330000f          	fence	rw,rw
10001744:	3846a783          	lw	a5,900(a3)
10001748:	0330000f          	fence	rw,rw
1000174c:	00078023          	sb	zero,0(a5)
10001750:	00877793          	and	a5,a4,8
10001754:	3007a073          	csrs	mstatus,a5
10001758:	00002033          	sltz	zero,zero
1000175c:	bf6d                	j	10001716 <sleep_until+0xa2>
1000175e:	db29                	beqz	a4,100016b0 <sleep_until+0x3c>
10001760:	bfbd                	j	100016de <sleep_until+0x6a>

10001762 <sleep_ms>:
10001762:	1141                	add	sp,sp,-16
10001764:	c422                	sw	s0,8(sp)
10001766:	c606                	sw	ra,12(sp)
10001768:	842a                	mv	s0,a0
1000176a:	2ab9                	jal	100018c8 <time_us_64>
1000176c:	3e800693          	li	a3,1000
10001770:	02d407b3          	mul	a5,s0,a3
10001774:	80000737          	lui	a4,0x80000
10001778:	177d                	add	a4,a4,-1 # 7fffffff <__StackTop+0x5ff7dfff>
1000177a:	02d43433          	mulhu	s0,s0,a3
1000177e:	953e                	add	a0,a0,a5
10001780:	00f537b3          	sltu	a5,a0,a5
10001784:	942e                	add	s0,s0,a1
10001786:	008785b3          	add	a1,a5,s0
1000178a:	00b77463          	bgeu	a4,a1,10001792 <sleep_ms+0x30>
1000178e:	557d                	li	a0,-1
10001790:	85ba                	mv	a1,a4
10001792:	4422                	lw	s0,8(sp)
10001794:	40b2                	lw	ra,12(sp)
10001796:	0141                	add	sp,sp,16
10001798:	bdf1                	j	10001674 <sleep_until>

1000179a <best_effort_wfe_or_timeout>:
1000179a:	1141                	add	sp,sp,-16
1000179c:	c422                	sw	s0,8(sp)
1000179e:	c226                	sw	s1,4(sp)
100017a0:	c606                	sw	ra,12(sp)
100017a2:	84aa                	mv	s1,a0
100017a4:	842e                	mv	s0,a1
100017a6:	be5027f3          	csrr	a5,0xbe5
100017aa:	01079713          	sll	a4,a5,0x10
100017ae:	04075663          	bgez	a4,100017fa <best_effort_wfe_or_timeout+0x60>
100017b2:	c04a                	sw	s2,0(sp)
100017b4:	20003937          	lui	s2,0x20003
100017b8:	42890713          	add	a4,s2,1064 # 20003428 <default_alarm_pool>
100017bc:	00074783          	lbu	a5,0(a4)
100017c0:	4754                	lw	a3,12(a4)
100017c2:	0791                	add	a5,a5,4
100017c4:	5698                	lw	a4,40(a3)
100017c6:	20d7c7b3          	sh2add	a5,a5,a3
100017ca:	439c                	lw	a5,0(a5)
100017cc:	40e506b3          	sub	a3,a0,a4
100017d0:	8f99                	sub	a5,a5,a4
100017d2:	04f6e663          	bltu	a3,a5,1000181e <best_effort_wfe_or_timeout+0x84>
100017d6:	00002033          	sltz	zero,zero
100017da:	400b0737          	lui	a4,0x400b0
100017de:	535c                	lw	a5,36(a4)
100017e0:	4501                	li	a0,0
100017e2:	00b7e663          	bltu	a5,a1,100017ee <best_effort_wfe_or_timeout+0x54>
100017e6:	5718                	lw	a4,40(a4)
100017e8:	4505                	li	a0,1
100017ea:	08976363          	bltu	a4,s1,10001870 <best_effort_wfe_or_timeout+0xd6>
100017ee:	4902                	lw	s2,0(sp)
100017f0:	40b2                	lw	ra,12(sp)
100017f2:	4422                	lw	s0,8(sp)
100017f4:	4492                	lw	s1,4(sp)
100017f6:	0141                	add	sp,sp,16
100017f8:	8082                	ret
100017fa:	400b0737          	lui	a4,0x400b0
100017fe:	535c                	lw	a5,36(a4)
10001800:	4501                	li	a0,0
10001802:	feb7e7e3          	bltu	a5,a1,100017f0 <best_effort_wfe_or_timeout+0x56>
10001806:	5718                	lw	a4,40(a4)
10001808:	4505                	li	a0,1
1000180a:	fe9773e3          	bgeu	a4,s1,100017f0 <best_effort_wfe_or_timeout+0x56>
1000180e:	40b2                	lw	ra,12(sp)
10001810:	4422                	lw	s0,8(sp)
10001812:	8f8d                	sub	a5,a5,a1
10001814:	4492                	lw	s1,4(sp)
10001816:	00f03533          	snez	a0,a5
1000181a:	0141                	add	sp,sp,16
1000181c:	8082                	ret
1000181e:	206d                	jal	100018c8 <time_us_64>
10001820:	40a48533          	sub	a0,s1,a0
10001824:	00a4b533          	sltu	a0,s1,a0
10001828:	40b405b3          	sub	a1,s0,a1
1000182c:	8d89                	sub	a1,a1,a0
1000182e:	0405ca63          	bltz	a1,10001882 <best_effort_wfe_or_timeout+0xe8>
10001832:	100016b7          	lui	a3,0x10001
10001836:	85a6                	mv	a1,s1
10001838:	4701                	li	a4,0
1000183a:	ee668693          	add	a3,a3,-282 # 10000ee6 <sleep_until_callback>
1000183e:	8622                	mv	a2,s0
10001840:	42890513          	add	a0,s2,1064
10001844:	3965                	jal	100014fc <alarm_pool_add_alarm_at_force_in_context>
10001846:	85aa                	mv	a1,a0
10001848:	02a05d63          	blez	a0,10001882 <best_effort_wfe_or_timeout+0xe8>
1000184c:	400b07b7          	lui	a5,0x400b0
10001850:	53d8                	lw	a4,36(a5)
10001852:	04876263          	bltu	a4,s0,10001896 <best_effort_wfe_or_timeout+0xfc>
10001856:	579c                	lw	a5,40(a5)
10001858:	0297ed63          	bltu	a5,s1,10001892 <best_effort_wfe_or_timeout+0xf8>
1000185c:	42890513          	add	a0,s2,1064
10001860:	3bbd                	jal	100015de <alarm_pool_cancel_alarm>
10001862:	400b0737          	lui	a4,0x400b0
10001866:	535c                	lw	a5,36(a4)
10001868:	4501                	li	a0,0
1000186a:	f887e2e3          	bltu	a5,s0,100017ee <best_effort_wfe_or_timeout+0x54>
1000186e:	bfa5                	j	100017e6 <best_effort_wfe_or_timeout+0x4c>
10001870:	40b2                	lw	ra,12(sp)
10001872:	8f81                	sub	a5,a5,s0
10001874:	4422                	lw	s0,8(sp)
10001876:	4902                	lw	s2,0(sp)
10001878:	4492                	lw	s1,4(sp)
1000187a:	00f03533          	snez	a0,a5
1000187e:	0141                	add	sp,sp,16
10001880:	8082                	ret
10001882:	400b0737          	lui	a4,0x400b0
10001886:	535c                	lw	a5,36(a4)
10001888:	f487ffe3          	bgeu	a5,s0,100017e6 <best_effort_wfe_or_timeout+0x4c>
1000188c:	4902                	lw	s2,0(sp)
1000188e:	4501                	li	a0,0
10001890:	b785                	j	100017f0 <best_effort_wfe_or_timeout+0x56>
10001892:	fc8715e3          	bne	a4,s0,1000185c <best_effort_wfe_or_timeout+0xc2>
10001896:	00002033          	sltz	zero,zero
1000189a:	b7c9                	j	1000185c <best_effort_wfe_or_timeout+0xc2>

1000189c <timer_hardware_alarm_claim>:
1000189c:	bff487b7          	lui	a5,0xbff48
100018a0:	97aa                	add	a5,a5,a0
100018a2:	0017b793          	seqz	a5,a5
100018a6:	10007637          	lui	a2,0x10007
100018aa:	80f18513          	add	a0,gp,-2033 # 20004388 <claimed>
100018ae:	07c60613          	add	a2,a2,124 # 1000707c <__EH_FRAME_BEGIN__+0x9c>
100018b2:	953e                	add	a0,a0,a5
100018b4:	a3dfe06f          	j	100002f0 <hw_claim_or_assert>

100018b8 <timer_time_us_64>:
100018b8:	514c                	lw	a1,36(a0)
100018ba:	87aa                	mv	a5,a0
100018bc:	5788                	lw	a0,40(a5)
100018be:	872e                	mv	a4,a1
100018c0:	53cc                	lw	a1,36(a5)
100018c2:	feb71de3          	bne	a4,a1,100018bc <timer_time_us_64+0x4>
100018c6:	8082                	ret

100018c8 <time_us_64>:
100018c8:	400b07b7          	lui	a5,0x400b0
100018cc:	53cc                	lw	a1,36(a5)
100018ce:	5788                	lw	a0,40(a5)
100018d0:	872e                	mv	a4,a1
100018d2:	53cc                	lw	a1,36(a5)
100018d4:	fee59de3          	bne	a1,a4,100018ce <time_us_64+0x6>
100018d8:	8082                	ret

100018da <busy_wait_us>:
100018da:	400b07b7          	lui	a5,0x400b0
100018de:	53dc                	lw	a5,36(a5)
100018e0:	400b0737          	lui	a4,0x400b0
100018e4:	02872803          	lw	a6,40(a4) # 400b0028 <__StackTop+0x2002e028>
100018e8:	86be                	mv	a3,a5
100018ea:	535c                	lw	a5,36(a4)
100018ec:	fed79ce3          	bne	a5,a3,100018e4 <busy_wait_us+0xa>
100018f0:	01050633          	add	a2,a0,a6
100018f4:	00a63533          	sltu	a0,a2,a0
100018f8:	95be                	add	a1,a1,a5
100018fa:	952e                	add	a0,a0,a1
100018fc:	02f56d63          	bltu	a0,a5,10001936 <busy_wait_us+0x5c>
10001900:	02a78963          	beq	a5,a0,10001932 <busy_wait_us+0x58>
10001904:	400b07b7          	lui	a5,0x400b0
10001908:	53d8                	lw	a4,36(a5)
1000190a:	87aa                	mv	a5,a0
1000190c:	00a77763          	bgeu	a4,a0,1000191a <busy_wait_us+0x40>
10001910:	400b06b7          	lui	a3,0x400b0
10001914:	52d8                	lw	a4,36(a3)
10001916:	fef76fe3          	bltu	a4,a5,10001914 <busy_wait_us+0x3a>
1000191a:	00f71b63          	bne	a4,a5,10001930 <busy_wait_us+0x56>
1000191e:	400b0737          	lui	a4,0x400b0
10001922:	a021                	j	1000192a <busy_wait_us+0x50>
10001924:	5354                	lw	a3,36(a4)
10001926:	00f69563          	bne	a3,a5,10001930 <busy_wait_us+0x56>
1000192a:	5714                	lw	a3,40(a4)
1000192c:	fec6ece3          	bltu	a3,a2,10001924 <busy_wait_us+0x4a>
10001930:	8082                	ret
10001932:	fd0679e3          	bgeu	a2,a6,10001904 <busy_wait_us+0x2a>
10001936:	400b07b7          	lui	a5,0x400b0
1000193a:	53dc                	lw	a5,36(a5)
1000193c:	577d                	li	a4,-1
1000193e:	567d                	li	a2,-1
10001940:	fce78fe3          	beq	a5,a4,1000191e <busy_wait_us+0x44>
10001944:	57fd                	li	a5,-1
10001946:	567d                	li	a2,-1
10001948:	b7e1                	j	10001910 <busy_wait_us+0x36>

1000194a <busy_wait_until>:
1000194a:	400b07b7          	lui	a5,0x400b0
1000194e:	53dc                	lw	a5,36(a5)
10001950:	00b7f763          	bgeu	a5,a1,1000195e <busy_wait_until+0x14>
10001954:	400b0737          	lui	a4,0x400b0
10001958:	535c                	lw	a5,36(a4)
1000195a:	feb7efe3          	bltu	a5,a1,10001958 <busy_wait_until+0xe>
1000195e:	00f59b63          	bne	a1,a5,10001974 <busy_wait_until+0x2a>
10001962:	400b07b7          	lui	a5,0x400b0
10001966:	a021                	j	1000196e <busy_wait_until+0x24>
10001968:	53d8                	lw	a4,36(a5)
1000196a:	00e59563          	bne	a1,a4,10001974 <busy_wait_until+0x2a>
1000196e:	5798                	lw	a4,40(a5)
10001970:	fea76ce3          	bltu	a4,a0,10001968 <busy_wait_until+0x1e>
10001974:	8082                	ret

10001976 <uart_init>:
10001976:	1101                	add	sp,sp,-32
10001978:	cc22                	sw	s0,24(sp)
1000197a:	842a                	mv	s0,a0
1000197c:	4519                	li	a0,6
1000197e:	ca26                	sw	s1,20(sp)
10001980:	ce06                	sw	ra,28(sp)
10001982:	84ae                	mv	s1,a1
10001984:	22f5                	jal	10001b70 <clock_get_hz>
10001986:	c15d                	beqz	a0,10001a2c <uart_init+0xb6>
10001988:	c84a                	sw	s2,16(sp)
1000198a:	c64e                	sw	s3,12(sp)
1000198c:	400787b7          	lui	a5,0x40078
10001990:	04000737          	lui	a4,0x4000
10001994:	0ef40b63          	beq	s0,a5,10001a8a <uart_init+0x114>
10001998:	400227b7          	lui	a5,0x40022
1000199c:	c398                	sw	a4,0(a5)
1000199e:	400206b7          	lui	a3,0x40020
100019a2:	400237b7          	lui	a5,0x40023
100019a6:	c398                	sw	a4,0(a5)
100019a8:	06a1                	add	a3,a3,8 # 40020008 <__StackTop+0x1ff9e008>
100019aa:	429c                	lw	a5,0(a3)
100019ac:	40f777b3          	andn	a5,a4,a5
100019b0:	ffed                	bnez	a5,100019aa <uart_init+0x34>
100019b2:	bff887b7          	lui	a5,0xbff88
100019b6:	97a2                	add	a5,a5,s0
100019b8:	81318713          	add	a4,gp,-2029 # 2000438c <uart_char_to_line_feed>
100019bc:	0017b793          	seqz	a5,a5
100019c0:	20e7a7b3          	sh1add	a5,a5,a4
100019c4:	4519                	li	a0,6
100019c6:	10000713          	li	a4,256
100019ca:	00e79023          	sh	a4,0(a5) # bff88000 <__StackTop+0x9ff06000>
100019ce:	224d                	jal	10001b70 <clock_get_hz>
100019d0:	00351793          	sll	a5,a0,0x3
100019d4:	0297d7b3          	divu	a5,a5,s1
100019d8:	0785                	add	a5,a5,1
100019da:	0077d713          	srl	a4,a5,0x7
100019de:	ef21                	bnez	a4,10001a36 <uart_init+0xc0>
100019e0:	04000993          	li	s3,64
100019e4:	4685                	li	a3,1
100019e6:	d054                	sw	a3,36(s0)
100019e8:	d418                	sw	a4,40(s0)
100019ea:	03042903          	lw	s2,48(s0)
100019ee:	00197793          	and	a5,s2,1
100019f2:	e7a5                	bnez	a5,10001a5a <uart_init+0xe4>
100019f4:	6785                	lui	a5,0x1
100019f6:	02c78793          	add	a5,a5,44 # 102c <HeapSize+0x82c>
100019fa:	00f404b3          	add	s1,s0,a5
100019fe:	545c                	lw	a5,44(s0)
10001a00:	0004a023          	sw	zero,0(s1)
10001a04:	03242823          	sw	s2,48(s0)
10001a08:	4519                	li	a0,6
10001a0a:	229d                	jal	10001b70 <clock_get_hz>
10001a0c:	545c                	lw	a5,44(s0)
10001a0e:	050a                	sll	a0,a0,0x2
10001a10:	03355533          	divu	a0,a0,s3
10001a14:	0707c793          	xor	a5,a5,112
10001a18:	07e7f793          	and	a5,a5,126
10001a1c:	c09c                	sw	a5,0(s1)
10001a1e:	4942                	lw	s2,16(sp)
10001a20:	30100793          	li	a5,769
10001a24:	49b2                	lw	s3,12(sp)
10001a26:	d81c                	sw	a5,48(s0)
10001a28:	478d                	li	a5,3
10001a2a:	c43c                	sw	a5,72(s0)
10001a2c:	40f2                	lw	ra,28(sp)
10001a2e:	4462                	lw	s0,24(sp)
10001a30:	44d2                	lw	s1,20(sp)
10001a32:	6105                	add	sp,sp,32
10001a34:	8082                	ret
10001a36:	66c1                	lui	a3,0x10
10001a38:	16f9                	add	a3,a3,-2 # fffe <HeapSize+0xf7fe>
10001a3a:	04e6fb63          	bgeu	a3,a4,10001a90 <uart_init+0x11a>
10001a3e:	66c1                	lui	a3,0x10
10001a40:	16fd                	add	a3,a3,-1 # ffff <HeapSize+0xf7ff>
10001a42:	d054                	sw	a3,36(s0)
10001a44:	4701                	li	a4,0
10001a46:	d418                	sw	a4,40(s0)
10001a48:	03042903          	lw	s2,48(s0)
10001a4c:	004009b7          	lui	s3,0x400
10001a50:	fc098993          	add	s3,s3,-64 # 3fffc0 <HeapSize+0x3ff7c0>
10001a54:	00197793          	and	a5,s2,1
10001a58:	dfd1                	beqz	a5,100019f4 <uart_init+0x7e>
10001a5a:	678d                	lui	a5,0x3
10001a5c:	03078793          	add	a5,a5,48 # 3030 <HeapSize+0x2830>
10001a60:	97a2                	add	a5,a5,s0
10001a62:	30100713          	li	a4,769
10001a66:	c398                	sw	a4,0(a5)
10001a68:	5044                	lw	s1,36(s0)
10001a6a:	541c                	lw	a5,40(s0)
10001a6c:	4519                	li	a0,6
10001a6e:	049a                	sll	s1,s1,0x6
10001a70:	94be                	add	s1,s1,a5
10001a72:	28fd                	jal	10001b70 <clock_get_hz>
10001a74:	6785                	lui	a5,0x1
10001a76:	e4e78793          	add	a5,a5,-434 # e4e <HeapSize+0x64e>
10001a7a:	02f55533          	divu	a0,a0,a5
10001a7e:	04aa                	sll	s1,s1,0xa
10001a80:	4581                	li	a1,0
10001a82:	02a4d533          	divu	a0,s1,a0
10001a86:	3d91                	jal	100018da <busy_wait_us>
10001a88:	b7b5                	j	100019f4 <uart_init+0x7e>
10001a8a:	08000737          	lui	a4,0x8000
10001a8e:	b729                	j	10001998 <uart_init+0x22>
10001a90:	8385                	srl	a5,a5,0x1
10001a92:	03f7f793          	and	a5,a5,63
10001a96:	00671993          	sll	s3,a4,0x6
10001a9a:	86ba                	mv	a3,a4
10001a9c:	99be                	add	s3,s3,a5
10001a9e:	873e                	mv	a4,a5
10001aa0:	b799                	j	100019e6 <uart_init+0x70>
	...

10001aa4 <clock_configure_undivided>:
10001aa4:	400107b7          	lui	a5,0x40010
10001aa8:	20a52733          	sh1add	a4,a0,a0
10001aac:	20f74733          	sh2add	a4,a4,a5
10001ab0:	00472803          	lw	a6,4(a4) # 8000004 <HeapSize+0x7fff804>
10001ab4:	67c1                	lui	a5,0x10
10001ab6:	00f87363          	bgeu	a6,a5,10001abc <clock_configure_undivided+0x18>
10001aba:	c35c                	sw	a5,4(a4)
10001abc:	ffc50813          	add	a6,a0,-4
10001ac0:	4785                	li	a5,1
10001ac2:	0707f463          	bgeu	a5,a6,10001b2a <clock_configure_undivided+0x86>
10001ac6:	20004337          	lui	t1,0x20004
10001aca:	ef830313          	add	t1,t1,-264 # 20003ef8 <configured_freq>
10001ace:	206547b3          	sh2add	a5,a0,t1
10001ad2:	0007a883          	lw	a7,0(a5) # 10000 <HeapSize+0xf800>
10001ad6:	678d                	lui	a5,0x3
10001ad8:	97ba                	add	a5,a5,a4
10001ada:	28b01e13          	bset	t3,zero,0xb
10001ade:	01c7a023          	sw	t3,0(a5) # 3000 <HeapSize+0x2800>
10001ae2:	050a                	sll	a0,a0,0x2
10001ae4:	02089763          	bnez	a7,10001b12 <clock_configure_undivided+0x6e>
10001ae8:	431c                	lw	a5,0(a4)
10001aea:	0616                	sll	a2,a2,0x5
10001aec:	8e3d                	xor	a2,a2,a5
10001aee:	6785                	lui	a5,0x1
10001af0:	0e067613          	and	a2,a2,224
10001af4:	97ba                	add	a5,a5,a4
10001af6:	c390                	sw	a2,0(a5)
10001af8:	4605                	li	a2,1
10001afa:	05067f63          	bgeu	a2,a6,10001b58 <clock_configure_undivided+0xb4>
10001afe:	6789                	lui	a5,0x2
10001b00:	97ba                	add	a5,a5,a4
10001b02:	28b01613          	bset	a2,zero,0xb
10001b06:	c390                	sw	a2,0(a5)
10001b08:	951a                	add	a0,a0,t1
10001b0a:	67c1                	lui	a5,0x10
10001b0c:	c35c                	sw	a5,4(a4)
10001b0e:	c114                	sw	a3,0(a0)
10001b10:	8082                	ret
10001b12:	01432783          	lw	a5,20(t1)
10001b16:	0317d7b3          	divu	a5,a5,a7
10001b1a:	0785                	add	a5,a5,1 # 10001 <HeapSize+0xf801>
10001b1c:	20f7a7b3          	sh1add	a5,a5,a5
10001b20:	ffe78793          	add	a5,a5,-2
10001b24:	fe07dee3          	bgez	a5,10001b20 <clock_configure_undivided+0x7c>
10001b28:	b7c1                	j	10001ae8 <clock_configure_undivided+0x44>
10001b2a:	f8f59ee3          	bne	a1,a5,10001ac6 <clock_configure_undivided+0x22>
10001b2e:	678d                	lui	a5,0x3
10001b30:	97ba                	add	a5,a5,a4
10001b32:	480d                	li	a6,3
10001b34:	0107a023          	sw	a6,0(a5) # 3000 <HeapSize+0x2800>
10001b38:	471c                	lw	a5,8(a4)
10001b3a:	8b85                	and	a5,a5,1
10001b3c:	dff5                	beqz	a5,10001b38 <clock_configure_undivided+0x94>
10001b3e:	431c                	lw	a5,0(a4)
10001b40:	0616                	sll	a2,a2,0x5
10001b42:	20004337          	lui	t1,0x20004
10001b46:	8e3d                	xor	a2,a2,a5
10001b48:	6785                	lui	a5,0x1
10001b4a:	0e067613          	and	a2,a2,224
10001b4e:	97ba                	add	a5,a5,a4
10001b50:	c390                	sw	a2,0(a5)
10001b52:	ef830313          	add	t1,t1,-264 # 20003ef8 <configured_freq>
10001b56:	050a                	sll	a0,a0,0x2
10001b58:	00072803          	lw	a6,0(a4)
10001b5c:	28b01633          	bset	a2,zero,a1
10001b60:	0105c5b3          	xor	a1,a1,a6
10001b64:	898d                	and	a1,a1,3
10001b66:	c38c                	sw	a1,0(a5)
10001b68:	471c                	lw	a5,8(a4)
10001b6a:	8ff1                	and	a5,a5,a2
10001b6c:	dff5                	beqz	a5,10001b68 <clock_configure_undivided+0xc4>
10001b6e:	bf41                	j	10001afe <clock_configure_undivided+0x5a>

10001b70 <clock_get_hz>:
10001b70:	200047b7          	lui	a5,0x20004
10001b74:	ef878793          	add	a5,a5,-264 # 20003ef8 <configured_freq>
10001b78:	20f54533          	sh2add	a0,a0,a5
10001b7c:	4108                	lw	a0,0(a0)
10001b7e:	8082                	ret

10001b80 <pll_init>:
10001b80:	00b727b7          	lui	a5,0xb72
10001b84:	b0078793          	add	a5,a5,-1280 # b71b00 <HeapSize+0xb71300>
10001b88:	02b7d7b3          	divu	a5,a5,a1
10001b8c:	00052803          	lw	a6,0(a0)
10001b90:	06c2                	sll	a3,a3,0x10
10001b92:	0732                	sll	a4,a4,0xc
10001b94:	8ed9                	or	a3,a3,a4
10001b96:	02f65633          	divu	a2,a2,a5
10001b9a:	04084563          	bltz	a6,10001be4 <pll_init+0x64>
10001b9e:	400587b7          	lui	a5,0x40058
10001ba2:	6711                	lui	a4,0x4
10001ba4:	06f50163          	beq	a0,a5,10001c06 <pll_init+0x86>
10001ba8:	400227b7          	lui	a5,0x40022
10001bac:	c398                	sw	a4,0(a5)
10001bae:	40020837          	lui	a6,0x40020
10001bb2:	400237b7          	lui	a5,0x40023
10001bb6:	c398                	sw	a4,0(a5)
10001bb8:	0821                	add	a6,a6,8 # 40020008 <__StackTop+0x1ff9e008>
10001bba:	00082783          	lw	a5,0(a6)
10001bbe:	40f777b3          	andn	a5,a4,a5
10001bc2:	ffe5                	bnez	a5,10001bba <pll_init+0x3a>
10001bc4:	678d                	lui	a5,0x3
10001bc6:	c10c                	sw	a1,0(a0)
10001bc8:	0791                	add	a5,a5,4 # 3004 <HeapSize+0x2804>
10001bca:	00f50733          	add	a4,a0,a5
10001bce:	c510                	sw	a2,8(a0)
10001bd0:	02100793          	li	a5,33
10001bd4:	c31c                	sw	a5,0(a4)
10001bd6:	411c                	lw	a5,0(a0)
10001bd8:	fe07dfe3          	bgez	a5,10001bd6 <pll_init+0x56>
10001bdc:	c554                	sw	a3,12(a0)
10001bde:	47a1                	li	a5,8
10001be0:	c31c                	sw	a5,0(a4)
10001be2:	8082                	ret
10001be4:	411c                	lw	a5,0(a0)
10001be6:	03f7f793          	and	a5,a5,63
10001bea:	fab79ae3          	bne	a5,a1,10001b9e <pll_init+0x1e>
10001bee:	451c                	lw	a5,8(a0)
10001bf0:	07d2                	sll	a5,a5,0x14
10001bf2:	83d1                	srl	a5,a5,0x14
10001bf4:	fac795e3          	bne	a5,a2,10001b9e <pll_init+0x1e>
10001bf8:	455c                	lw	a5,12(a0)
10001bfa:	00077737          	lui	a4,0x77
10001bfe:	8ff9                	and	a5,a5,a4
10001c00:	f8d79fe3          	bne	a5,a3,10001b9e <pll_init+0x1e>
10001c04:	8082                	ret
10001c06:	6721                	lui	a4,0x8
10001c08:	b745                	j	10001ba8 <pll_init+0x28>

10001c0a <watchdog_reboot>:
10001c0a:	400db7b7          	lui	a5,0x400db
10001c0e:	40000737          	lui	a4,0x40000
10001c12:	c398                	sw	a4,0(a5)
10001c14:	c529                	beqz	a0,10001c5e <watchdog_reboot+0x54>
10001c16:	b007c6b7          	lui	a3,0xb007c
10001c1a:	4ff847b7          	lui	a5,0x4ff84
10001c1e:	400d8737          	lui	a4,0x400d8
10001c22:	0d368693          	add	a3,a3,211 # b007c0d3 <__StackTop+0x8fffa0d3>
10001c26:	f2d78793          	add	a5,a5,-211 # 4ff83f2d <__StackTop+0x2ff01f2d>
10001c2a:	cf54                	sw	a3,28(a4)
10001c2c:	8fa9                	xor	a5,a5,a0
10001c2e:	d31c                	sw	a5,32(a4)
10001c30:	d34c                	sw	a1,36(a4)
10001c32:	d708                	sw	a0,40(a4)
10001c34:	400db6b7          	lui	a3,0x400db
10001c38:	02000737          	lui	a4,0x2000
10001c3c:	400005b7          	lui	a1,0x40000
10001c40:	4001a7b7          	lui	a5,0x4001a
10001c44:	c28c                	sw	a1,0(a3)
10001c46:	174d                	add	a4,a4,-13 # 1fffff3 <HeapSize+0x1fff7f3>
10001c48:	c798                	sw	a4,8(a5)
10001c4a:	070007b7          	lui	a5,0x7000
10001c4e:	c29c                	sw	a5,0(a3)
10001c50:	ee01                	bnez	a2,10001c68 <watchdog_reboot+0x5e>
10001c52:	400da7b7          	lui	a5,0x400da
10001c56:	80000737          	lui	a4,0x80000
10001c5a:	c398                	sw	a4,0(a5)
10001c5c:	8082                	ret
10001c5e:	400d87b7          	lui	a5,0x400d8
10001c62:	0007ae23          	sw	zero,28(a5) # 400d801c <__StackTop+0x2005601c>
10001c66:	b7f9                	j	10001c34 <watchdog_reboot+0x2a>
10001c68:	20c64633          	sh2add	a2,a2,a2
10001c6c:	010007b7          	lui	a5,0x1000
10001c70:	20c64633          	sh2add	a2,a2,a2
10001c74:	20c64633          	sh2add	a2,a2,a2
10001c78:	060e                	sll	a2,a2,0x3
10001c7a:	00f67e63          	bgeu	a2,a5,10001c96 <watchdog_reboot+0x8c>
10001c7e:	87b2                	mv	a5,a2
10001c80:	80f1aba3          	sw	a5,-2025(gp) # 20004390 <load_value>
10001c84:	400d87b7          	lui	a5,0x400d8
10001c88:	c3d0                	sw	a2,4(a5)
10001c8a:	40000737          	lui	a4,0x40000
10001c8e:	400da7b7          	lui	a5,0x400da
10001c92:	c398                	sw	a4,0(a5)
10001c94:	8082                	ret
10001c96:	17fd                	add	a5,a5,-1 # 400d9fff <__StackTop+0x20057fff>
10001c98:	863e                	mv	a2,a5
10001c9a:	b7dd                	j	10001c80 <watchdog_reboot+0x76>

10001c9c <tick_start>:
10001c9c:	401087b7          	lui	a5,0x40108
10001ca0:	20a52533          	sh1add	a0,a0,a0
10001ca4:	20f54533          	sh2add	a0,a0,a5
10001ca8:	4785                	li	a5,1
10001caa:	c14c                	sw	a1,4(a0)
10001cac:	c11c                	sw	a5,0(a0)
10001cae:	8082                	ret

10001cb0 <rom_func_lookup>:
10001cb0:	67a1                	lui	a5,0x8
10001cb2:	dfa7d703          	lhu	a4,-518(a5) # 7dfa <HeapSize+0x75fa>
10001cb6:	4585                	li	a1,1
10001cb8:	8702                	jr	a4

10001cba <rom_reset_usb_boot_extra>:
10001cba:	1141                	add	sp,sp,-16
10001cbc:	c422                	sw	s0,8(sp)
10001cbe:	c226                	sw	s1,4(sp)
10001cc0:	c606                	sw	ra,12(sp)
10001cc2:	84aa                	mv	s1,a0
10001cc4:	842e                	mv	s0,a1
10001cc6:	00054563          	bltz	a0,10001cd0 <rom_reset_usb_boot_extra+0x16>
10001cca:	c215                	beqz	a2,10001cee <rom_reset_usb_boot_extra+0x34>
10001ccc:	0305e413          	or	s0,a1,48
10001cd0:	67a1                	lui	a5,0x8
10001cd2:	dfa7d703          	lhu	a4,-518(a5) # 7dfa <HeapSize+0x75fa>
10001cd6:	6511                	lui	a0,0x4
10001cd8:	4585                	li	a1,1
10001cda:	25250513          	add	a0,a0,594 # 4252 <HeapSize+0x3a52>
10001cde:	9702                	jalr	a4
10001ce0:	87aa                	mv	a5,a0
10001ce2:	86a6                	mv	a3,s1
10001ce4:	8622                	mv	a2,s0
10001ce6:	45a9                	li	a1,10
10001ce8:	10200513          	li	a0,258
10001cec:	9782                	jalr	a5
10001cee:	0205e413          	or	s0,a1,32
10001cf2:	bff9                	j	10001cd0 <rom_reset_usb_boot_extra+0x16>

10001cf4 <runtime_init_bootrom_locking_enable>:
10001cf4:	400e17b7          	lui	a5,0x400e1
10001cf8:	82878793          	add	a5,a5,-2008 # 400e0828 <__StackTop+0x2005e828>
10001cfc:	4398                	lw	a4,0(a5)
10001cfe:	df7d                	beqz	a4,10001cfc <runtime_init_bootrom_locking_enable+0x8>
10001d00:	0330000f          	fence	rw,rw
10001d04:	8082                	ret

10001d06 <runtime_init_boot_locks_reset>:
10001d06:	400e17b7          	lui	a5,0x400e1
10001d0a:	400e1737          	lui	a4,0x400e1
10001d0e:	80c78793          	add	a5,a5,-2036 # 400e080c <__StackTop+0x2005e80c>
10001d12:	82c70713          	add	a4,a4,-2004 # 400e082c <__StackTop+0x2005e82c>
10001d16:	0330000f          	fence	rw,rw
10001d1a:	0007a023          	sw	zero,0(a5)
10001d1e:	0791                	add	a5,a5,4
10001d20:	fee79be3          	bne	a5,a4,10001d16 <runtime_init_boot_locks_reset+0x10>
10001d24:	8082                	ret

10001d26 <xosc_init>:
10001d26:	6785                	lui	a5,0x1
10001d28:	40048737          	lui	a4,0x40048
10001d2c:	aa078793          	add	a5,a5,-1376 # aa0 <HeapSize+0x2a0>
10001d30:	c31c                	sw	a5,0(a4)
10001d32:	02f00793          	li	a5,47
10001d36:	c75c                	sw	a5,12(a4)
10001d38:	00fab737          	lui	a4,0xfab
10001d3c:	4004a7b7          	lui	a5,0x4004a
10001d40:	c398                	sw	a4,0(a5)
10001d42:	40048737          	lui	a4,0x40048
10001d46:	435c                	lw	a5,4(a4)
10001d48:	fe07dfe3          	bgez	a5,10001d46 <xosc_init+0x20>
10001d4c:	8082                	ret

10001d4e <first_per_core_initializer>:
10001d4e:	8082                	ret

10001d50 <hard_assertion_failure>:
10001d50:	10007537          	lui	a0,0x10007
10001d54:	1141                	add	sp,sp,-16
10001d56:	0a050513          	add	a0,a0,160 # 100070a0 <__EH_FRAME_BEGIN__+0xc0>
10001d5a:	c606                	sw	ra,12(sp)
10001d5c:	d54fe0ef          	jal	100002b0 <panic>

10001d60 <runtime_run_initializers>:
10001d60:	1141                	add	sp,sp,-16
10001d62:	c422                	sw	s0,8(sp)
10001d64:	c226                	sw	s1,4(sp)
10001d66:	10007437          	lui	s0,0x10007
10001d6a:	100074b7          	lui	s1,0x10007
10001d6e:	c606                	sw	ra,12(sp)
10001d70:	fa040793          	add	a5,s0,-96 # 10006fa0 <__pre_init_runtime_init_bootrom_reset>
10001d74:	fd848493          	add	s1,s1,-40 # 10006fd8 <__frame_dummy_init_array_entry>
10001d78:	0097f963          	bgeu	a5,s1,10001d8a <runtime_run_initializers+0x2a>
10001d7c:	fa040413          	add	s0,s0,-96
10001d80:	401c                	lw	a5,0(s0)
10001d82:	0411                	add	s0,s0,4
10001d84:	9782                	jalr	a5
10001d86:	fe946de3          	bltu	s0,s1,10001d80 <runtime_run_initializers+0x20>
10001d8a:	40b2                	lw	ra,12(sp)
10001d8c:	4422                	lw	s0,8(sp)
10001d8e:	4492                	lw	s1,4(sp)
10001d90:	0141                	add	sp,sp,16
10001d92:	8082                	ret

10001d94 <runtime_init_early_resets>:
10001d94:	efef47b7          	lui	a5,0xefef4
10001d98:	b7f78793          	add	a5,a5,-1153 # efef3b7f <__StackTop+0xcfe71b7f>
10001d9c:	400226b7          	lui	a3,0x40022
10001da0:	03f40737          	lui	a4,0x3f40
10001da4:	c29c                	sw	a5,0(a3)
10001da6:	1759                	add	a4,a4,-10 # 3f3fff6 <HeapSize+0x3f3f7f6>
10001da8:	400206b7          	lui	a3,0x40020
10001dac:	400237b7          	lui	a5,0x40023
10001db0:	c398                	sw	a4,0(a5)
10001db2:	06a1                	add	a3,a3,8 # 40020008 <__StackTop+0x1ff9e008>
10001db4:	429c                	lw	a5,0(a3)
10001db6:	40f777b3          	andn	a5,a4,a5
10001dba:	ffed                	bnez	a5,10001db4 <runtime_init_early_resets+0x20>
10001dbc:	8082                	ret

10001dbe <runtime_init_usb_power_down>:
10001dbe:	501107b7          	lui	a5,0x50110
10001dc2:	47f8                	lw	a4,76(a5)
10001dc4:	67a1                	lui	a5,0x8
10001dc6:	00f70363          	beq	a4,a5,10001dcc <runtime_init_usb_power_down+0xe>
10001dca:	8082                	ret
10001dcc:	501127b7          	lui	a5,0x50112
10001dd0:	00040737          	lui	a4,0x40
10001dd4:	c7f8                	sw	a4,76(a5)
10001dd6:	8082                	ret

10001dd8 <runtime_init_post_clock_resets>:
10001dd8:	20000737          	lui	a4,0x20000
10001ddc:	177d                	add	a4,a4,-1 # 1fffffff <__flash_binary_end+0xfff5253>
10001dde:	400206b7          	lui	a3,0x40020
10001de2:	400237b7          	lui	a5,0x40023
10001de6:	c398                	sw	a4,0(a5)
10001de8:	06a1                	add	a3,a3,8 # 40020008 <__StackTop+0x1ff9e008>
10001dea:	429c                	lw	a5,0(a3)
10001dec:	40f777b3          	andn	a5,a4,a5
10001df0:	ffed                	bnez	a5,10001dea <runtime_init_post_clock_resets+0x12>
10001df2:	8082                	ret

10001df4 <runtime_init_bootrom_reset>:
10001df4:	6515                	lui	a0,0x5
10001df6:	1141                	add	sp,sp,-16
10001df8:	25350513          	add	a0,a0,595 # 5253 <HeapSize+0x4a53>
10001dfc:	c606                	sw	ra,12(sp)
10001dfe:	3d4d                	jal	10001cb0 <rom_func_lookup>
10001e00:	40b2                	lw	ra,12(sp)
10001e02:	87aa                	mv	a5,a0
10001e04:	4511                	li	a0,4
10001e06:	0141                	add	sp,sp,16
10001e08:	8782                	jr	a5

10001e0a <runtime_init_per_core_bootrom_reset>:
10001e0a:	6515                	lui	a0,0x5
10001e0c:	1141                	add	sp,sp,-16
10001e0e:	25350513          	add	a0,a0,595 # 5253 <HeapSize+0x4a53>
10001e12:	c606                	sw	ra,12(sp)
10001e14:	3d71                	jal	10001cb0 <rom_func_lookup>
10001e16:	40b2                	lw	ra,12(sp)
10001e18:	87aa                	mv	a5,a0
10001e1a:	4505                	li	a0,1
10001e1c:	0141                	add	sp,sp,16
10001e1e:	8782                	jr	a5

10001e20 <runtime_init_spin_locks_reset>:
10001e20:	e08fe06f          	j	10000428 <spin_locks_reset>

10001e24 <runtime_init_clocks>:
10001e24:	1141                	add	sp,sp,-16
10001e26:	400107b7          	lui	a5,0x40010
10001e2a:	c606                	sw	ra,12(sp)
10001e2c:	c422                	sw	s0,8(sp)
10001e2e:	c226                	sw	s1,4(sp)
10001e30:	c04a                	sw	s2,0(sp)
10001e32:	0807a223          	sw	zero,132(a5) # 40010084 <__StackTop+0x1ff8e084>
10001e36:	3dc5                	jal	10001d26 <xosc_init>
10001e38:	400137b7          	lui	a5,0x40013
10001e3c:	4705                	li	a4,1
10001e3e:	dfd8                	sw	a4,60(a5)
10001e40:	400106b7          	lui	a3,0x40010
10001e44:	42fc                	lw	a5,68(a3)
10001e46:	fee79fe3          	bne	a5,a4,10001e44 <runtime_init_clocks+0x20>
10001e4a:	470d                	li	a4,3
10001e4c:	400137b7          	lui	a5,0x40013
10001e50:	db98                	sw	a4,48(a5)
10001e52:	400106b7          	lui	a3,0x40010
10001e56:	4705                	li	a4,1
10001e58:	5e9c                	lw	a5,56(a3)
10001e5a:	fee79fe3          	bne	a5,a4,10001e58 <runtime_init_clocks+0x34>
10001e5e:	59683637          	lui	a2,0x59683
10001e62:	4709                	li	a4,2
10001e64:	4695                	li	a3,5
10001e66:	f0060613          	add	a2,a2,-256 # 59682f00 <__StackTop+0x39600f00>
10001e6a:	4585                	li	a1,1
10001e6c:	40050537          	lui	a0,0x40050
10001e70:	3b01                	jal	10001b80 <pll_init>
10001e72:	47869637          	lui	a2,0x47869
10001e76:	4715                	li	a4,5
10001e78:	4695                	li	a3,5
10001e7a:	c0060613          	add	a2,a2,-1024 # 47868c00 <__StackTop+0x277e6c00>
10001e7e:	4585                	li	a1,1
10001e80:	40058537          	lui	a0,0x40058
10001e84:	39f5                	jal	10001b80 <pll_init>
10001e86:	00b726b7          	lui	a3,0xb72
10001e8a:	b0068693          	add	a3,a3,-1280 # b71b00 <HeapSize+0xb71300>
10001e8e:	4601                	li	a2,0
10001e90:	4589                	li	a1,2
10001e92:	4511                	li	a0,4
10001e94:	3901                	jal	10001aa4 <clock_configure_undivided>
10001e96:	08f0d6b7          	lui	a3,0x8f0d
10001e9a:	18068693          	add	a3,a3,384 # 8f0d180 <HeapSize+0x8f0c980>
10001e9e:	4601                	li	a2,0
10001ea0:	4585                	li	a1,1
10001ea2:	4515                	li	a0,5
10001ea4:	3101                	jal	10001aa4 <clock_configure_undivided>
10001ea6:	02dc76b7          	lui	a3,0x2dc7
10001eaa:	c0068693          	add	a3,a3,-1024 # 2dc6c00 <HeapSize+0x2dc6400>
10001eae:	4601                	li	a2,0
10001eb0:	4581                	li	a1,0
10001eb2:	4521                	li	a0,8
10001eb4:	3ec5                	jal	10001aa4 <clock_configure_undivided>
10001eb6:	02dc76b7          	lui	a3,0x2dc7
10001eba:	c0068693          	add	a3,a3,-1024 # 2dc6c00 <HeapSize+0x2dc6400>
10001ebe:	4601                	li	a2,0
10001ec0:	4581                	li	a1,0
10001ec2:	4525                	li	a0,9
10001ec4:	36c5                	jal	10001aa4 <clock_configure_undivided>
10001ec6:	08f0d6b7          	lui	a3,0x8f0d
10001eca:	18068693          	add	a3,a3,384 # 8f0d180 <HeapSize+0x8f0c980>
10001ece:	4601                	li	a2,0
10001ed0:	4581                	li	a1,0
10001ed2:	4519                	li	a0,6
10001ed4:	3ec1                	jal	10001aa4 <clock_configure_undivided>
10001ed6:	08f0d6b7          	lui	a3,0x8f0d
10001eda:	18068693          	add	a3,a3,384 # 8f0d180 <HeapSize+0x8f0c980>
10001ede:	4601                	li	a2,0
10001ee0:	4581                	li	a1,0
10001ee2:	451d                	li	a0,7
10001ee4:	36c1                	jal	10001aa4 <clock_configure_undivided>
10001ee6:	4511                	li	a0,4
10001ee8:	3161                	jal	10001b70 <clock_get_hz>
10001eea:	000f47b7          	lui	a5,0xf4
10001eee:	24078793          	add	a5,a5,576 # f4240 <HeapSize+0xf3a40>
10001ef2:	02f554b3          	divu	s1,a0,a5
10001ef6:	4401                	li	s0,0
10001ef8:	4919                	li	s2,6
10001efa:	8522                	mv	a0,s0
10001efc:	85a6                	mv	a1,s1
10001efe:	0405                	add	s0,s0,1
10001f00:	3b71                	jal	10001c9c <tick_start>
10001f02:	ff241ce3          	bne	s0,s2,10001efa <runtime_init_clocks+0xd6>
10001f06:	40b2                	lw	ra,12(sp)
10001f08:	4422                	lw	s0,8(sp)
10001f0a:	4492                	lw	s1,4(sp)
10001f0c:	4902                	lw	s2,0(sp)
10001f0e:	0141                	add	sp,sp,16
10001f10:	8082                	ret

10001f12 <_out_null>:
10001f12:	8082                	ret

10001f14 <_out_rev>:
10001f14:	7179                	add	sp,sp,-48
10001f16:	d422                	sw	s0,40(sp)
10001f18:	ce4e                	sw	s3,28(sp)
10001f1a:	cc52                	sw	s4,24(sp)
10001f1c:	ca56                	sw	s5,20(sp)
10001f1e:	c85a                	sw	s6,16(sp)
10001f20:	c65e                	sw	s7,12(sp)
10001f22:	c462                	sw	s8,8(sp)
10001f24:	c266                	sw	s9,4(sp)
10001f26:	d606                	sw	ra,44(sp)
10001f28:	8cc6                	mv	s9,a7
10001f2a:	d226                	sw	s1,36(sp)
10001f2c:	d04a                	sw	s2,32(sp)
10001f2e:	0038f893          	and	a7,a7,3
10001f32:	89aa                	mv	s3,a0
10001f34:	8a2e                	mv	s4,a1
10001f36:	8b32                	mv	s6,a2
10001f38:	8ab6                	mv	s5,a3
10001f3a:	8bba                	mv	s7,a4
10001f3c:	843e                	mv	s0,a5
10001f3e:	8c42                	mv	s8,a6
10001f40:	06089f63          	bnez	a7,10001fbe <_out_rev+0xaa>
10001f44:	40f80933          	sub	s2,a6,a5
10001f48:	9932                	add	s2,s2,a2
10001f4a:	84b2                	mv	s1,a2
10001f4c:	0707fd63          	bgeu	a5,a6,10001fc6 <_out_rev+0xb2>
10001f50:	8626                	mv	a2,s1
10001f52:	86d6                	mv	a3,s5
10001f54:	0485                	add	s1,s1,1
10001f56:	85d2                	mv	a1,s4
10001f58:	02000513          	li	a0,32
10001f5c:	9982                	jalr	s3
10001f5e:	ff2499e3          	bne	s1,s2,10001f50 <_out_rev+0x3c>
10001f62:	c021                	beqz	s0,10001fa2 <_out_rev+0x8e>
10001f64:	9922                	add	s2,s2,s0
10001f66:	40890633          	sub	a2,s2,s0
10001f6a:	147d                	add	s0,s0,-1
10001f6c:	008b87b3          	add	a5,s7,s0
10001f70:	0007c503          	lbu	a0,0(a5)
10001f74:	86d6                	mv	a3,s5
10001f76:	85d2                	mv	a1,s4
10001f78:	84ca                	mv	s1,s2
10001f7a:	9982                	jalr	s3
10001f7c:	f46d                	bnez	s0,10001f66 <_out_rev+0x52>
10001f7e:	002cfc93          	and	s9,s9,2
10001f82:	020c8063          	beqz	s9,10001fa2 <_out_rev+0x8e>
10001f86:	41648b33          	sub	s6,s1,s6
10001f8a:	018b7c63          	bgeu	s6,s8,10001fa2 <_out_rev+0x8e>
10001f8e:	8626                	mv	a2,s1
10001f90:	86d6                	mv	a3,s5
10001f92:	85d2                	mv	a1,s4
10001f94:	02000513          	li	a0,32
10001f98:	0b05                	add	s6,s6,1 # 400b8001 <__StackTop+0x20036001>
10001f9a:	0485                	add	s1,s1,1
10001f9c:	9982                	jalr	s3
10001f9e:	ff8b68e3          	bltu	s6,s8,10001f8e <_out_rev+0x7a>
10001fa2:	50b2                	lw	ra,44(sp)
10001fa4:	5422                	lw	s0,40(sp)
10001fa6:	5902                	lw	s2,32(sp)
10001fa8:	49f2                	lw	s3,28(sp)
10001faa:	4a62                	lw	s4,24(sp)
10001fac:	4ad2                	lw	s5,20(sp)
10001fae:	4b42                	lw	s6,16(sp)
10001fb0:	4bb2                	lw	s7,12(sp)
10001fb2:	4c22                	lw	s8,8(sp)
10001fb4:	4c92                	lw	s9,4(sp)
10001fb6:	8526                	mv	a0,s1
10001fb8:	5492                	lw	s1,36(sp)
10001fba:	6145                	add	sp,sp,48
10001fbc:	8082                	ret
10001fbe:	8932                	mv	s2,a2
10001fc0:	84b2                	mv	s1,a2
10001fc2:	f3cd                	bnez	a5,10001f64 <_out_rev+0x50>
10001fc4:	bf6d                	j	10001f7e <_out_rev+0x6a>
10001fc6:	8932                	mv	s2,a2
10001fc8:	ffd1                	bnez	a5,10001f64 <_out_rev+0x50>
10001fca:	bfe1                	j	10001fa2 <_out_rev+0x8e>

10001fcc <_ntoa_format>:
10001fcc:	43a2                	lw	t2,8(sp)
10001fce:	4282                	lw	t0,0(sp)
10001fd0:	4f92                	lw	t6,4(sp)
10001fd2:	0023f313          	and	t1,t2,2
10001fd6:	8f42                	mv	t5,a6
10001fd8:	06031063          	bnez	t1,10002038 <_ntoa_format+0x6c>
10001fdc:	0e0f9863          	bnez	t6,100020cc <_ntoa_format+0x100>
10001fe0:	0457fc63          	bgeu	a5,t0,10002038 <_ntoa_format+0x6c>
10001fe4:	02000313          	li	t1,32
10001fe8:	0013f813          	and	a6,t2,1
10001fec:	26678863          	beq	a5,t1,1000225c <_ntoa_format+0x290>
10001ff0:	03000e13          	li	t3,48
10001ff4:	02000e93          	li	t4,32
10001ff8:	a019                	j	10001ffe <_ntoa_format+0x32>
10001ffa:	13d78663          	beq	a5,t4,10002126 <_ntoa_format+0x15a>
10001ffe:	0785                	add	a5,a5,1
10002000:	00f70333          	add	t1,a4,a5
10002004:	ffc30fa3          	sb	t3,-1(t1)
10002008:	fe57e9e3          	bltu	a5,t0,10001ffa <_ntoa_format+0x2e>
1000200c:	02080663          	beqz	a6,10002038 <_ntoa_format+0x6c>
10002010:	03f7f463          	bgeu	a5,t6,10002038 <_ntoa_format+0x6c>
10002014:	02000813          	li	a6,32
10002018:	03000e13          	li	t3,48
1000201c:	02000e93          	li	t4,32
10002020:	01079563          	bne	a5,a6,1000202a <_ntoa_format+0x5e>
10002024:	a229                	j	1000212e <_ntoa_format+0x162>
10002026:	05d78d63          	beq	a5,t4,10002080 <_ntoa_format+0xb4>
1000202a:	0785                	add	a5,a5,1
1000202c:	00f70333          	add	t1,a4,a5
10002030:	ffc30fa3          	sb	t3,-1(t1)
10002034:	fff799e3          	bne	a5,t6,10002026 <_ntoa_format+0x5a>
10002038:	0103f813          	and	a6,t2,16
1000203c:	08080163          	beqz	a6,100020be <_ntoa_format+0xf2>
10002040:	4003f813          	and	a6,t2,1024
10002044:	04081c63          	bnez	a6,1000209c <_ntoa_format+0xd0>
10002048:	e7b1                	bnez	a5,10002094 <_ntoa_format+0xc8>
1000204a:	47c1                	li	a5,16
1000204c:	1cf88c63          	beq	a7,a5,10002224 <_ntoa_format+0x258>
10002050:	4789                	li	a5,2
10002052:	1ef88863          	beq	a7,a5,10002242 <_ntoa_format+0x276>
10002056:	03000793          	li	a5,48
1000205a:	00f70023          	sb	a5,0(a4)
1000205e:	4785                	li	a5,1
10002060:	0e0f1b63          	bnez	t5,10002156 <_ntoa_format+0x18a>
10002064:	0043f813          	and	a6,t2,4
10002068:	18080663          	beqz	a6,100021f4 <_ntoa_format+0x228>
1000206c:	00f70833          	add	a6,a4,a5
10002070:	02b00893          	li	a7,43
10002074:	01180023          	sb	a7,0(a6)
10002078:	0785                	add	a5,a5,1
1000207a:	889e                	mv	a7,t2
1000207c:	887e                	mv	a6,t6
1000207e:	bd59                	j	10001f14 <_out_rev>
10002080:	0103f813          	and	a6,t2,16
10002084:	02000793          	li	a5,32
10002088:	fe0809e3          	beqz	a6,1000207a <_ntoa_format+0xae>
1000208c:	4003f813          	and	a6,t2,1024
10002090:	00081663          	bnez	a6,1000209c <_ntoa_format+0xd0>
10002094:	10f28863          	beq	t0,a5,100021a4 <_ntoa_format+0x1d8>
10002098:	11f78663          	beq	a5,t6,100021a4 <_ntoa_format+0x1d8>
1000209c:	4841                	li	a6,16
1000209e:	13088b63          	beq	a7,a6,100021d4 <_ntoa_format+0x208>
100020a2:	4809                	li	a6,2
100020a4:	0f088963          	beq	a7,a6,10002196 <_ntoa_format+0x1ca>
100020a8:	02000813          	li	a6,32
100020ac:	fd0787e3          	beq	a5,a6,1000207a <_ntoa_format+0xae>
100020b0:	883e                	mv	a6,a5
100020b2:	0785                	add	a5,a5,1
100020b4:	983a                	add	a6,a6,a4
100020b6:	03000893          	li	a7,48
100020ba:	01180023          	sb	a7,0(a6)
100020be:	02000813          	li	a6,32
100020c2:	f9079fe3          	bne	a5,a6,10002060 <_ntoa_format+0x94>
100020c6:	889e                	mv	a7,t2
100020c8:	887e                	mv	a6,t6
100020ca:	b5a9                	j	10001f14 <_out_rev>
100020cc:	0013f813          	and	a6,t2,1
100020d0:	08080d63          	beqz	a6,1000216a <_ntoa_format+0x19e>
100020d4:	0e0f1e63          	bnez	t5,100021d0 <_ntoa_format+0x204>
100020d8:	00c3f313          	and	t1,t2,12
100020dc:	0e031a63          	bnez	t1,100021d0 <_ntoa_format+0x204>
100020e0:	f257f8e3          	bgeu	a5,t0,10002010 <_ntoa_format+0x44>
100020e4:	02000313          	li	t1,32
100020e8:	f06794e3          	bne	a5,t1,10001ff0 <_ntoa_format+0x24>
100020ec:	05f7e163          	bltu	a5,t6,1000212e <_ntoa_format+0x162>
100020f0:	0103f813          	and	a6,t2,16
100020f4:	02000793          	li	a5,32
100020f8:	f80801e3          	beqz	a6,1000207a <_ntoa_format+0xae>
100020fc:	4003f813          	and	a6,t2,1024
10002100:	04081563          	bnez	a6,1000214a <_ntoa_format+0x17e>
10002104:	00f28463          	beq	t0,a5,1000210c <_ntoa_format+0x140>
10002108:	f8ff9ae3          	bne	t6,a5,1000209c <_ntoa_format+0xd0>
1000210c:	487d                	li	a6,31
1000210e:	4341                	li	t1,16
10002110:	14688963          	beq	a7,t1,10002262 <_ntoa_format+0x296>
10002114:	4309                	li	t1,2
10002116:	f8689fe3          	bne	a7,t1,100020b4 <_ntoa_format+0xe8>
1000211a:	983a                	add	a6,a6,a4
1000211c:	06200893          	li	a7,98
10002120:	01180023          	sb	a7,0(a6)
10002124:	b751                	j	100020a8 <_ntoa_format+0xdc>
10002126:	16080063          	beqz	a6,10002286 <_ntoa_format+0x2ba>
1000212a:	f5f7fbe3          	bgeu	a5,t6,10002080 <_ntoa_format+0xb4>
1000212e:	0103f813          	and	a6,t2,16
10002132:	02000793          	li	a5,32
10002136:	f40802e3          	beqz	a6,1000207a <_ntoa_format+0xae>
1000213a:	4003f813          	and	a6,t2,1024
1000213e:	00081663          	bnez	a6,1000214a <_ntoa_format+0x17e>
10002142:	fcf285e3          	beq	t0,a5,1000210c <_ntoa_format+0x140>
10002146:	fcff83e3          	beq	t6,a5,1000210c <_ntoa_format+0x140>
1000214a:	4841                	li	a6,16
1000214c:	f30897e3          	bne	a7,a6,1000207a <_ntoa_format+0xae>
10002150:	02000793          	li	a5,32
10002154:	b71d                	j	1000207a <_ntoa_format+0xae>
10002156:	00f70833          	add	a6,a4,a5
1000215a:	02d00893          	li	a7,45
1000215e:	01180023          	sb	a7,0(a6)
10002162:	0785                	add	a5,a5,1
10002164:	889e                	mv	a7,t2
10002166:	887e                	mv	a6,t6
10002168:	b375                	j	10001f14 <_out_rev>
1000216a:	ec57f7e3          	bgeu	a5,t0,10002038 <_ntoa_format+0x6c>
1000216e:	02000313          	li	t1,32
10002172:	e6679fe3          	bne	a5,t1,10001ff0 <_ntoa_format+0x24>
10002176:	0103f793          	and	a5,t2,16
1000217a:	dbf9                	beqz	a5,10002150 <_ntoa_format+0x184>
1000217c:	4003f793          	and	a5,t2,1024
10002180:	fbe1                	bnez	a5,10002150 <_ntoa_format+0x184>
10002182:	02000793          	li	a5,32
10002186:	00f28463          	beq	t0,a5,1000218e <_ntoa_format+0x1c2>
1000218a:	fcff93e3          	bne	t6,a5,10002150 <_ntoa_format+0x184>
1000218e:	02000793          	li	a5,32
10002192:	487d                	li	a6,31
10002194:	bfad                	j	1000210e <_ntoa_format+0x142>
10002196:	02000813          	li	a6,32
1000219a:	ef0780e3          	beq	a5,a6,1000207a <_ntoa_format+0xae>
1000219e:	883e                	mv	a6,a5
100021a0:	0785                	add	a5,a5,1
100021a2:	bfa5                	j	1000211a <_ntoa_format+0x14e>
100021a4:	fff78813          	add	a6,a5,-1
100021a8:	f60813e3          	bnez	a6,1000210e <_ntoa_format+0x142>
100021ac:	47c1                	li	a5,16
100021ae:	eaf891e3          	bne	a7,a5,10002050 <_ntoa_format+0x84>
100021b2:	0203f793          	and	a5,t2,32
100021b6:	c3c5                	beqz	a5,10002256 <_ntoa_format+0x28a>
100021b8:	05800793          	li	a5,88
100021bc:	00f70023          	sb	a5,0(a4)
100021c0:	03000793          	li	a5,48
100021c4:	00f700a3          	sb	a5,1(a4)
100021c8:	4789                	li	a5,2
100021ca:	e80f0de3          	beqz	t5,10002064 <_ntoa_format+0x98>
100021ce:	b761                	j	10002156 <_ntoa_format+0x18a>
100021d0:	1ffd                	add	t6,t6,-1
100021d2:	b739                	j	100020e0 <_ntoa_format+0x114>
100021d4:	0203f813          	and	a6,t2,32
100021d8:	02081a63          	bnez	a6,1000220c <_ntoa_format+0x240>
100021dc:	02000813          	li	a6,32
100021e0:	f70788e3          	beq	a5,a6,10002150 <_ntoa_format+0x184>
100021e4:	00f70833          	add	a6,a4,a5
100021e8:	07800893          	li	a7,120
100021ec:	01180023          	sb	a7,0(a6)
100021f0:	0785                	add	a5,a5,1
100021f2:	bd5d                	j	100020a8 <_ntoa_format+0xdc>
100021f4:	0083f813          	and	a6,t2,8
100021f8:	e80801e3          	beqz	a6,1000207a <_ntoa_format+0xae>
100021fc:	00f70833          	add	a6,a4,a5
10002200:	02000893          	li	a7,32
10002204:	01180023          	sb	a7,0(a6)
10002208:	0785                	add	a5,a5,1
1000220a:	bd85                	j	1000207a <_ntoa_format+0xae>
1000220c:	02000813          	li	a6,32
10002210:	f50780e3          	beq	a5,a6,10002150 <_ntoa_format+0x184>
10002214:	00f70833          	add	a6,a4,a5
10002218:	05800893          	li	a7,88
1000221c:	01180023          	sb	a7,0(a6)
10002220:	0785                	add	a5,a5,1
10002222:	b559                	j	100020a8 <_ntoa_format+0xdc>
10002224:	0203f793          	and	a5,t2,32
10002228:	c79d                	beqz	a5,10002256 <_ntoa_format+0x28a>
1000222a:	05800793          	li	a5,88
1000222e:	00f70023          	sb	a5,0(a4)
10002232:	03000793          	li	a5,48
10002236:	00f700a3          	sb	a5,1(a4)
1000223a:	4789                	li	a5,2
1000223c:	e20f04e3          	beqz	t5,10002064 <_ntoa_format+0x98>
10002240:	bf19                	j	10002156 <_ntoa_format+0x18a>
10002242:	06200793          	li	a5,98
10002246:	00f70023          	sb	a5,0(a4)
1000224a:	03000793          	li	a5,48
1000224e:	00f700a3          	sb	a5,1(a4)
10002252:	4789                	li	a5,2
10002254:	bf9d                	j	100021ca <_ntoa_format+0x1fe>
10002256:	07800793          	li	a5,120
1000225a:	b7f5                	j	10002246 <_ntoa_format+0x27a>
1000225c:	e8081ae3          	bnez	a6,100020f0 <_ntoa_format+0x124>
10002260:	bf19                	j	10002176 <_ntoa_format+0x1aa>
10002262:	ffe78813          	add	a6,a5,-2
10002266:	0203f893          	and	a7,t2,32
1000226a:	983a                	add	a6,a6,a4
1000226c:	17fd                	add	a5,a5,-1
1000226e:	00089763          	bnez	a7,1000227c <_ntoa_format+0x2b0>
10002272:	07800893          	li	a7,120
10002276:	01180023          	sb	a7,0(a6)
1000227a:	bd1d                	j	100020b0 <_ntoa_format+0xe4>
1000227c:	05800893          	li	a7,88
10002280:	01180023          	sb	a7,0(a6)
10002284:	b535                	j	100020b0 <_ntoa_format+0xe4>
10002286:	0103f813          	and	a6,t2,16
1000228a:	de0808e3          	beqz	a6,1000207a <_ntoa_format+0xae>
1000228e:	4003f813          	and	a6,t2,1024
10002292:	ea081ce3          	bnez	a6,1000214a <_ntoa_format+0x17e>
10002296:	e1f793e3          	bne	a5,t6,1000209c <_ntoa_format+0xd0>
1000229a:	b729                	j	100021a4 <_ntoa_format+0x1d8>

1000229c <_out_char>:
1000229c:	e111                	bnez	a0,100022a0 <_out_char+0x4>
1000229e:	8082                	ret
100022a0:	7040106f          	j	100039a4 <__wrap_putchar>

100022a4 <_out_fct>:
100022a4:	c501                	beqz	a0,100022ac <_out_fct+0x8>
100022a6:	419c                	lw	a5,0(a1)
100022a8:	41cc                	lw	a1,4(a1)
100022aa:	8782                	jr	a5
100022ac:	8082                	ret

100022ae <_etoa>:
100022ae:	7135                	add	sp,sp,-160
100022b0:	c74e                	sw	s3,140(sp)
100022b2:	c552                	sw	s4,136(sp)
100022b4:	c356                	sw	s5,132(sp)
100022b6:	c15a                	sw	s6,128(sp)
100022b8:	89b2                	mv	s3,a2
100022ba:	8a2a                	mv	s4,a0
100022bc:	8aae                	mv	s5,a1
100022be:	8b36                	mv	s6,a3
100022c0:	863a                	mv	a2,a4
100022c2:	86be                	mv	a3,a5
100022c4:	853a                	mv	a0,a4
100022c6:	85be                	mv	a1,a5
100022c8:	cd22                	sw	s0,152(sp)
100022ca:	c94a                	sw	s2,144(sp)
100022cc:	dede                	sw	s7,124(sp)
100022ce:	dce2                	sw	s8,120(sp)
100022d0:	dae6                	sw	s9,116(sp)
100022d2:	cf06                	sw	ra,156(sp)
100022d4:	5c0a                	lw	s8,160(sp)
100022d6:	843a                	mv	s0,a4
100022d8:	893e                	mv	s2,a5
100022da:	ce4e                	sw	s3,28(sp)
100022dc:	8cc2                	mv	s9,a6
100022de:	8bc6                	mv	s7,a7
100022e0:	10001097          	auipc	ra,0x10001
100022e4:	d76080e7          	jalr	-650(ra) # 20003056 <__unorddf2>
100022e8:	1a051263          	bnez	a0,1000248c <_etoa+0x1de>
100022ec:	100076b7          	lui	a3,0x10007
100022f0:	6806a603          	lw	a2,1664(a3) # 10007680 <_usbd_driver+0x44>
100022f4:	6846a683          	lw	a3,1668(a3)
100022f8:	8522                	mv	a0,s0
100022fa:	85ca                	mv	a1,s2
100022fc:	10000097          	auipc	ra,0x10000
10002300:	f70080e7          	jalr	-144(ra) # 2000226c <__gedf2>
10002304:	18a04463          	bgtz	a0,1000248c <_etoa+0x1de>
10002308:	100076b7          	lui	a3,0x10007
1000230c:	6886a603          	lw	a2,1672(a3) # 10007688 <_usbd_driver+0x4c>
10002310:	68c6a683          	lw	a3,1676(a3)
10002314:	8522                	mv	a0,s0
10002316:	85ca                	mv	a1,s2
10002318:	10000097          	auipc	ra,0x10000
1000231c:	012080e7          	jalr	18(ra) # 2000232a <__ledf2>
10002320:	16054663          	bltz	a0,1000248c <_etoa+0x1de>
10002324:	8522                	mv	a0,s0
10002326:	85ca                	mv	a1,s2
10002328:	4601                	li	a2,0
1000232a:	4681                	li	a3,0
1000232c:	d6ee                	sw	s11,108(sp)
1000232e:	cb26                	sw	s1,148(sp)
10002330:	d8ea                	sw	s10,112(sp)
10002332:	10000097          	auipc	ra,0x10000
10002336:	ff8080e7          	jalr	-8(ra) # 2000232a <__ledf2>
1000233a:	8da2                	mv	s11,s0
1000233c:	69f91993          	binv	s3,s2,0x1f
10002340:	00054363          	bltz	a0,10002346 <_etoa+0x98>
10002344:	89ca                	mv	s3,s2
10002346:	400c7793          	and	a5,s8,1024
1000234a:	d23e                	sw	a5,36(sp)
1000234c:	e391                	bnez	a5,10002350 <_etoa+0xa2>
1000234e:	4c99                	li	s9,6
10002350:	28b01693          	bset	a3,zero,0xb
10002354:	01346733          	or	a4,s0,s3
10002358:	00dc78b3          	and	a7,s8,a3
1000235c:	14071d63          	bnez	a4,100024b6 <_etoa+0x208>
10002360:	4801                	li	a6,0
10002362:	42089c63          	bnez	a7,1000279a <_etoa+0x4ec>
10002366:	4d11                	li	s10,4
10002368:	4481                	li	s1,0
1000236a:	4881                	li	a7,0
1000236c:	017d7463          	bgeu	s10,s7,10002374 <_etoa+0xc6>
10002370:	41ab88b3          	sub	a7,s7,s10
10002374:	002c7793          	and	a5,s8,2
10002378:	d23e                	sw	a5,36(sp)
1000237a:	c799                	beqz	a5,10002388 <_etoa+0xda>
1000237c:	001d3693          	seqz	a3,s10
10002380:	40d006b3          	neg	a3,a3
10002384:	00d8f8b3          	and	a7,a7,a3
10002388:	cc89                	beqz	s1,100023a2 <_etoa+0xf4>
1000238a:	85ce                	mv	a1,s3
1000238c:	8642                	mv	a2,a6
1000238e:	8522                	mv	a0,s0
10002390:	86ba                	mv	a3,a4
10002392:	d046                	sw	a7,32(sp)
10002394:	10000097          	auipc	ra,0x10000
10002398:	91a080e7          	jalr	-1766(ra) # 20001cae <__divdf3>
1000239c:	5882                	lw	a7,32(sp)
1000239e:	8daa                	mv	s11,a0
100023a0:	89ae                	mv	s3,a1
100023a2:	8522                	mv	a0,s0
100023a4:	85ca                	mv	a1,s2
100023a6:	4601                	li	a2,0
100023a8:	4681                	li	a3,0
100023aa:	d046                	sw	a7,32(sp)
100023ac:	10000097          	auipc	ra,0x10000
100023b0:	f7e080e7          	jalr	-130(ra) # 2000232a <__ledf2>
100023b4:	5882                	lw	a7,32(sp)
100023b6:	00055463          	bgez	a0,100023be <_etoa+0x110>
100023ba:	69f99993          	binv	s3,s3,0x1f
100023be:	4672                	lw	a2,28(sp)
100023c0:	fffc7793          	and	a5,s8,-1
100023c4:	48b79793          	bclr	a5,a5,0xb
100023c8:	8866                	mv	a6,s9
100023ca:	c03e                	sw	a5,0(sp)
100023cc:	876e                	mv	a4,s11
100023ce:	87ce                	mv	a5,s3
100023d0:	86da                	mv	a3,s6
100023d2:	85d6                	mv	a1,s5
100023d4:	8552                	mv	a0,s4
100023d6:	2ef9                	jal	100027b4 <_ftoa>
100023d8:	842a                	mv	s0,a0
100023da:	080d0963          	beqz	s10,1000246c <_etoa+0x1be>
100023de:	485c5c13          	bext	s8,s8,0x5
100023e2:	1c7d                	add	s8,s8,-1
100023e4:	020c7c13          	and	s8,s8,32
100023e8:	86da                	mv	a3,s6
100023ea:	862a                	mv	a2,a0
100023ec:	85d6                	mv	a1,s5
100023ee:	045c0513          	add	a0,s8,69
100023f2:	9a02                	jalr	s4
100023f4:	40900733          	neg	a4,s1
100023f8:	01f4d813          	srl	a6,s1,0x1f
100023fc:	0405                	add	s0,s0,1
100023fe:	1d7d                	add	s10,s10,-1
10002400:	4781                	li	a5,0
10002402:	46a9                	li	a3,10
10002404:	4525                	li	a0,9
10002406:	02000893          	li	a7,32
1000240a:	0ae4e4b3          	max	s1,s1,a4
1000240e:	a019                	j	10002414 <_etoa+0x166>
10002410:	03178163          	beq	a5,a7,10002432 <_etoa+0x184>
10002414:	02d4f733          	remu	a4,s1,a3
10002418:	0090                	add	a2,sp,64
1000241a:	0785                	add	a5,a5,1
1000241c:	00f605b3          	add	a1,a2,a5
10002420:	8626                	mv	a2,s1
10002422:	03070713          	add	a4,a4,48
10002426:	fee58fa3          	sb	a4,-1(a1) # 3fffffff <__StackTop+0x1ff7dfff>
1000242a:	02d4d4b3          	divu	s1,s1,a3
1000242e:	fec561e3          	bltu	a0,a2,10002410 <_etoa+0x162>
10002432:	4715                	li	a4,5
10002434:	c43a                	sw	a4,8(sp)
10002436:	8622                	mv	a2,s0
10002438:	c26a                	sw	s10,4(sp)
1000243a:	c002                	sw	zero,0(sp)
1000243c:	48a9                	li	a7,10
1000243e:	0098                	add	a4,sp,64
10002440:	86da                	mv	a3,s6
10002442:	85d6                	mv	a1,s5
10002444:	8552                	mv	a0,s4
10002446:	3659                	jal	10001fcc <_ntoa_format>
10002448:	5792                	lw	a5,36(sp)
1000244a:	842a                	mv	s0,a0
1000244c:	c385                	beqz	a5,1000246c <_etoa+0x1be>
1000244e:	47f2                	lw	a5,28(sp)
10002450:	40f509b3          	sub	s3,a0,a5
10002454:	0179fc63          	bgeu	s3,s7,1000246c <_etoa+0x1be>
10002458:	8622                	mv	a2,s0
1000245a:	86da                	mv	a3,s6
1000245c:	85d6                	mv	a1,s5
1000245e:	02000513          	li	a0,32
10002462:	0985                	add	s3,s3,1
10002464:	0405                	add	s0,s0,1
10002466:	9a02                	jalr	s4
10002468:	ff79e8e3          	bltu	s3,s7,10002458 <_etoa+0x1aa>
1000246c:	40fa                	lw	ra,156(sp)
1000246e:	8522                	mv	a0,s0
10002470:	446a                	lw	s0,152(sp)
10002472:	44da                	lw	s1,148(sp)
10002474:	5d46                	lw	s10,112(sp)
10002476:	5db6                	lw	s11,108(sp)
10002478:	494a                	lw	s2,144(sp)
1000247a:	49ba                	lw	s3,140(sp)
1000247c:	4a2a                	lw	s4,136(sp)
1000247e:	4a9a                	lw	s5,132(sp)
10002480:	4b0a                	lw	s6,128(sp)
10002482:	5bf6                	lw	s7,124(sp)
10002484:	5c66                	lw	s8,120(sp)
10002486:	5cd6                	lw	s9,116(sp)
10002488:	610d                	add	sp,sp,160
1000248a:	8082                	ret
1000248c:	8722                	mv	a4,s0
1000248e:	446a                	lw	s0,152(sp)
10002490:	d162                	sw	s8,160(sp)
10002492:	4672                	lw	a2,28(sp)
10002494:	40fa                	lw	ra,156(sp)
10002496:	49ba                	lw	s3,140(sp)
10002498:	5c66                	lw	s8,120(sp)
1000249a:	87ca                	mv	a5,s2
1000249c:	88de                	mv	a7,s7
1000249e:	494a                	lw	s2,144(sp)
100024a0:	5bf6                	lw	s7,124(sp)
100024a2:	8866                	mv	a6,s9
100024a4:	86da                	mv	a3,s6
100024a6:	5cd6                	lw	s9,116(sp)
100024a8:	4b0a                	lw	s6,128(sp)
100024aa:	85d6                	mv	a1,s5
100024ac:	8552                	mv	a0,s4
100024ae:	4a9a                	lw	s5,132(sp)
100024b0:	4a2a                	lw	s4,136(sp)
100024b2:	610d                	add	sp,sp,160
100024b4:	a601                	j	100027b4 <_ftoa>
100024b6:	0149d513          	srl	a0,s3,0x14
100024ba:	7ff57513          	and	a0,a0,2047
100024be:	c0150513          	add	a0,a0,-1023 # 40057c01 <__StackTop+0x1ffd5c01>
100024c2:	de46                	sw	a7,60(sp)
100024c4:	10001097          	auipc	ra,0x10001
100024c8:	c8c080e7          	jalr	-884(ra) # 20003150 <__floatsidf>
100024cc:	10007737          	lui	a4,0x10007
100024d0:	69072603          	lw	a2,1680(a4) # 10007690 <_usbd_driver+0x54>
100024d4:	69472683          	lw	a3,1684(a4)
100024d8:	10000097          	auipc	ra,0x10000
100024dc:	f14080e7          	jalr	-236(ra) # 200023ec <__muldf3>
100024e0:	10007737          	lui	a4,0x10007
100024e4:	69872603          	lw	a2,1688(a4) # 10007698 <_usbd_driver+0x5c>
100024e8:	69c72683          	lw	a3,1692(a4)
100024ec:	0ffff097          	auipc	ra,0xffff
100024f0:	0a6080e7          	jalr	166(ra) # 20001592 <__adddf3>
100024f4:	00c99693          	sll	a3,s3,0xc
100024f8:	82b1                	srl	a3,a3,0xc
100024fa:	3ff00737          	lui	a4,0x3ff00
100024fe:	8f55                	or	a4,a4,a3
10002500:	100076b7          	lui	a3,0x10007
10002504:	6a06a603          	lw	a2,1696(a3) # 100076a0 <_usbd_driver+0x64>
10002508:	6a46a683          	lw	a3,1700(a3)
1000250c:	8d2a                	mv	s10,a0
1000250e:	84ae                	mv	s1,a1
10002510:	8522                	mv	a0,s0
10002512:	85ba                	mv	a1,a4
10002514:	10000097          	auipc	ra,0x10000
10002518:	3f6080e7          	jalr	1014(ra) # 2000290a <__subdf3>
1000251c:	10007737          	lui	a4,0x10007
10002520:	6a872603          	lw	a2,1704(a4) # 100076a8 <_usbd_driver+0x6c>
10002524:	6ac72683          	lw	a3,1708(a4)
10002528:	10000097          	auipc	ra,0x10000
1000252c:	ec4080e7          	jalr	-316(ra) # 200023ec <__muldf3>
10002530:	862a                	mv	a2,a0
10002532:	86ae                	mv	a3,a1
10002534:	856a                	mv	a0,s10
10002536:	85a6                	mv	a1,s1
10002538:	0ffff097          	auipc	ra,0xffff
1000253c:	05a080e7          	jalr	90(ra) # 20001592 <__adddf3>
10002540:	10001097          	auipc	ra,0x10001
10002544:	b52080e7          	jalr	-1198(ra) # 20003092 <__fixdfsi>
10002548:	84aa                	mv	s1,a0
1000254a:	10001097          	auipc	ra,0x10001
1000254e:	c06080e7          	jalr	-1018(ra) # 20003150 <__floatsidf>
10002552:	10007737          	lui	a4,0x10007
10002556:	6b072603          	lw	a2,1712(a4) # 100076b0 <_usbd_driver+0x74>
1000255a:	6b472683          	lw	a3,1716(a4)
1000255e:	8d2e                	mv	s10,a1
10002560:	d02a                	sw	a0,32(sp)
10002562:	10000097          	auipc	ra,0x10000
10002566:	e8a080e7          	jalr	-374(ra) # 200023ec <__muldf3>
1000256a:	100076b7          	lui	a3,0x10007
1000256e:	6b86a603          	lw	a2,1720(a3) # 100076b8 <_usbd_driver+0x7c>
10002572:	6bc6a683          	lw	a3,1724(a3)
10002576:	0ffff097          	auipc	ra,0xffff
1000257a:	01c080e7          	jalr	28(ra) # 20001592 <__adddf3>
1000257e:	10001097          	auipc	ra,0x10001
10002582:	b14080e7          	jalr	-1260(ra) # 20003092 <__fixdfsi>
10002586:	5702                	lw	a4,32(sp)
10002588:	100076b7          	lui	a3,0x10007
1000258c:	6c06a603          	lw	a2,1728(a3) # 100076c0 <_usbd_driver+0x84>
10002590:	6c46a683          	lw	a3,1732(a3)
10002594:	882a                	mv	a6,a0
10002596:	85ea                	mv	a1,s10
10002598:	853a                	mv	a0,a4
1000259a:	8d42                	mv	s10,a6
1000259c:	10000097          	auipc	ra,0x10000
100025a0:	e50080e7          	jalr	-432(ra) # 200023ec <__muldf3>
100025a4:	872a                	mv	a4,a0
100025a6:	856a                	mv	a0,s10
100025a8:	d03a                	sw	a4,32(sp)
100025aa:	d46a                	sw	s10,40(sp)
100025ac:	8d2e                	mv	s10,a1
100025ae:	10001097          	auipc	ra,0x10001
100025b2:	ba2080e7          	jalr	-1118(ra) # 20003150 <__floatsidf>
100025b6:	100076b7          	lui	a3,0x10007
100025ba:	6c86a603          	lw	a2,1736(a3) # 100076c8 <_usbd_driver+0x8c>
100025be:	6cc6a683          	lw	a3,1740(a3)
100025c2:	10000097          	auipc	ra,0x10000
100025c6:	e2a080e7          	jalr	-470(ra) # 200023ec <__muldf3>
100025ca:	5702                	lw	a4,32(sp)
100025cc:	862a                	mv	a2,a0
100025ce:	86ae                	mv	a3,a1
100025d0:	853a                	mv	a0,a4
100025d2:	85ea                	mv	a1,s10
100025d4:	10000097          	auipc	ra,0x10000
100025d8:	336080e7          	jalr	822(ra) # 2000290a <__subdf3>
100025dc:	862a                	mv	a2,a0
100025de:	86ae                	mv	a3,a1
100025e0:	d62a                	sw	a0,44(sp)
100025e2:	d02e                	sw	a1,32(sp)
100025e4:	10000097          	auipc	ra,0x10000
100025e8:	e08080e7          	jalr	-504(ra) # 200023ec <__muldf3>
100025ec:	5702                	lw	a4,32(sp)
100025ee:	5832                	lw	a6,44(sp)
100025f0:	8d2a                	mv	s10,a0
100025f2:	86ba                	mv	a3,a4
100025f4:	8642                	mv	a2,a6
100025f6:	8542                	mv	a0,a6
100025f8:	832e                	mv	t1,a1
100025fa:	85ba                	mv	a1,a4
100025fc:	dc42                	sw	a6,56(sp)
100025fe:	da3a                	sw	a4,52(sp)
10002600:	d01a                	sw	t1,32(sp)
10002602:	0ffff097          	auipc	ra,0xffff
10002606:	f90080e7          	jalr	-112(ra) # 20001592 <__adddf3>
1000260a:	100076b7          	lui	a3,0x10007
1000260e:	8e2e                	mv	t3,a1
10002610:	6d06a603          	lw	a2,1744(a3) # 100076d0 <_usbd_driver+0x94>
10002614:	5582                	lw	a1,32(sp)
10002616:	6d46a683          	lw	a3,1748(a3)
1000261a:	8eaa                	mv	t4,a0
1000261c:	856a                	mv	a0,s10
1000261e:	d876                	sw	t4,48(sp)
10002620:	d672                	sw	t3,44(sp)
10002622:	0ffff097          	auipc	ra,0xffff
10002626:	68c080e7          	jalr	1676(ra) # 20001cae <__divdf3>
1000262a:	10007337          	lui	t1,0x10007
1000262e:	6d832603          	lw	a2,1752(t1) # 100076d8 <_usbd_driver+0x9c>
10002632:	6dc32683          	lw	a3,1756(t1)
10002636:	0ffff097          	auipc	ra,0xffff
1000263a:	f5c080e7          	jalr	-164(ra) # 20001592 <__adddf3>
1000263e:	86ae                	mv	a3,a1
10002640:	5582                	lw	a1,32(sp)
10002642:	862a                	mv	a2,a0
10002644:	856a                	mv	a0,s10
10002646:	0ffff097          	auipc	ra,0xffff
1000264a:	668080e7          	jalr	1640(ra) # 20001cae <__divdf3>
1000264e:	100076b7          	lui	a3,0x10007
10002652:	6e06a603          	lw	a2,1760(a3) # 100076e0 <_usbd_driver+0xa4>
10002656:	6e46a683          	lw	a3,1764(a3)
1000265a:	0ffff097          	auipc	ra,0xffff
1000265e:	f38080e7          	jalr	-200(ra) # 20001592 <__adddf3>
10002662:	86ae                	mv	a3,a1
10002664:	5582                	lw	a1,32(sp)
10002666:	862a                	mv	a2,a0
10002668:	856a                	mv	a0,s10
1000266a:	0ffff097          	auipc	ra,0xffff
1000266e:	644080e7          	jalr	1604(ra) # 20001cae <__divdf3>
10002672:	5862                	lw	a6,56(sp)
10002674:	5752                	lw	a4,52(sp)
10002676:	100076b7          	lui	a3,0x10007
1000267a:	8f2a                	mv	t5,a0
1000267c:	8d2e                	mv	s10,a1
1000267e:	6e86a503          	lw	a0,1768(a3) # 100076e8 <_usbd_driver+0xac>
10002682:	6ec6a583          	lw	a1,1772(a3)
10002686:	8642                	mv	a2,a6
10002688:	86ba                	mv	a3,a4
1000268a:	d07a                	sw	t5,32(sp)
1000268c:	10000097          	auipc	ra,0x10000
10002690:	27e080e7          	jalr	638(ra) # 2000290a <__subdf3>
10002694:	5f02                	lw	t5,32(sp)
10002696:	862a                	mv	a2,a0
10002698:	86ae                	mv	a3,a1
1000269a:	857a                	mv	a0,t5
1000269c:	85ea                	mv	a1,s10
1000269e:	0ffff097          	auipc	ra,0xffff
100026a2:	ef4080e7          	jalr	-268(ra) # 20001592 <__adddf3>
100026a6:	5ec2                	lw	t4,48(sp)
100026a8:	5e32                	lw	t3,44(sp)
100026aa:	862a                	mv	a2,a0
100026ac:	86ae                	mv	a3,a1
100026ae:	8576                	mv	a0,t4
100026b0:	85f2                	mv	a1,t3
100026b2:	0ffff097          	auipc	ra,0xffff
100026b6:	5fc080e7          	jalr	1532(ra) # 20001cae <__divdf3>
100026ba:	10007737          	lui	a4,0x10007
100026be:	6f072603          	lw	a2,1776(a4) # 100076f0 <_usbd_driver+0xb4>
100026c2:	6f472683          	lw	a3,1780(a4)
100026c6:	0ffff097          	auipc	ra,0xffff
100026ca:	ecc080e7          	jalr	-308(ra) # 20001592 <__adddf3>
100026ce:	57a2                	lw	a5,40(sp)
100026d0:	4601                	li	a2,0
100026d2:	3ff78713          	add	a4,a5,1023
100026d6:	0752                	sll	a4,a4,0x14
100026d8:	86ba                	mv	a3,a4
100026da:	10000097          	auipc	ra,0x10000
100026de:	d12080e7          	jalr	-750(ra) # 200023ec <__muldf3>
100026e2:	862a                	mv	a2,a0
100026e4:	d42a                	sw	a0,40(sp)
100026e6:	86ae                	mv	a3,a1
100026e8:	d02e                	sw	a1,32(sp)
100026ea:	8522                	mv	a0,s0
100026ec:	85ce                	mv	a1,s3
100026ee:	10000097          	auipc	ra,0x10000
100026f2:	c3c080e7          	jalr	-964(ra) # 2000232a <__ledf2>
100026f6:	5702                	lw	a4,32(sp)
100026f8:	5822                	lw	a6,40(sp)
100026fa:	58f2                	lw	a7,60(sp)
100026fc:	10007337          	lui	t1,0x10007
10002700:	06054c63          	bltz	a0,10002778 <_etoa+0x4ca>
10002704:	86c2                	mv	a3,a6
10002706:	85ba                	mv	a1,a4
10002708:	06348d13          	add	s10,s1,99
1000270c:	0c600613          	li	a2,198
10002710:	01a63d33          	sltu	s10,a2,s10
10002714:	0d11                	add	s10,s10,4
10002716:	c4088ae3          	beqz	a7,1000236a <_etoa+0xbc>
1000271a:	8ecd                	or	a3,a3,a1
1000271c:	c2b9                	beqz	a3,10002762 <_etoa+0x4b4>
1000271e:	100076b7          	lui	a3,0x10007
10002722:	6f86a603          	lw	a2,1784(a3) # 100076f8 <_usbd_driver+0xbc>
10002726:	6fc6a683          	lw	a3,1788(a3)
1000272a:	8522                	mv	a0,s0
1000272c:	85ce                	mv	a1,s3
1000272e:	d43a                	sw	a4,40(sp)
10002730:	d042                	sw	a6,32(sp)
10002732:	10000097          	auipc	ra,0x10000
10002736:	b3a080e7          	jalr	-1222(ra) # 2000226c <__gedf2>
1000273a:	5802                	lw	a6,32(sp)
1000273c:	5722                	lw	a4,40(sp)
1000273e:	06054163          	bltz	a0,100027a0 <_etoa+0x4f2>
10002742:	100076b7          	lui	a3,0x10007
10002746:	7006a603          	lw	a2,1792(a3) # 10007700 <_usbd_driver+0xc4>
1000274a:	7046a683          	lw	a3,1796(a3)
1000274e:	8522                	mv	a0,s0
10002750:	85ce                	mv	a1,s3
10002752:	10000097          	auipc	ra,0x10000
10002756:	bd8080e7          	jalr	-1064(ra) # 2000232a <__ledf2>
1000275a:	5802                	lw	a6,32(sp)
1000275c:	5722                	lw	a4,40(sp)
1000275e:	04055163          	bgez	a0,100027a0 <_etoa+0x4f2>
10002762:	0594d763          	bge	s1,s9,100027b0 <_etoa+0x502>
10002766:	409c84b3          	sub	s1,s9,s1
1000276a:	fff48c93          	add	s9,s1,-1
1000276e:	400c6c13          	or	s8,s8,1024
10002772:	4d01                	li	s10,0
10002774:	4481                	li	s1,0
10002776:	bed5                	j	1000236a <_etoa+0xbc>
10002778:	6dc32683          	lw	a3,1756(t1) # 100076dc <_usbd_driver+0xa0>
1000277c:	6d832603          	lw	a2,1752(t1)
10002780:	8542                	mv	a0,a6
10002782:	85ba                	mv	a1,a4
10002784:	d046                	sw	a7,32(sp)
10002786:	0ffff097          	auipc	ra,0xffff
1000278a:	528080e7          	jalr	1320(ra) # 20001cae <__divdf3>
1000278e:	5882                	lw	a7,32(sp)
10002790:	14fd                	add	s1,s1,-1
10002792:	882a                	mv	a6,a0
10002794:	872e                	mv	a4,a1
10002796:	86aa                	mv	a3,a0
10002798:	bf85                	j	10002708 <_etoa+0x45a>
1000279a:	4701                	li	a4,0
1000279c:	4481                	li	s1,0
1000279e:	b7d1                	j	10002762 <_etoa+0x4b4>
100027a0:	bc0c85e3          	beqz	s9,1000236a <_etoa+0xbc>
100027a4:	5792                	lw	a5,36(sp)
100027a6:	00f036b3          	snez	a3,a5
100027aa:	40dc8cb3          	sub	s9,s9,a3
100027ae:	be75                	j	1000236a <_etoa+0xbc>
100027b0:	4c81                	li	s9,0
100027b2:	bf75                	j	1000276e <_etoa+0x4c0>

100027b4 <_ftoa>:
100027b4:	7119                	add	sp,sp,-128
100027b6:	d6ce                	sw	s3,108(sp)
100027b8:	cce2                	sw	s8,88(sp)
100027ba:	cae6                	sw	s9,84(sp)
100027bc:	c8ea                	sw	s10,80(sp)
100027be:	89aa                	mv	s3,a0
100027c0:	8c2e                	mv	s8,a1
100027c2:	8cb2                	mv	s9,a2
100027c4:	8d36                	mv	s10,a3
100027c6:	863a                	mv	a2,a4
100027c8:	86be                	mv	a3,a5
100027ca:	853a                	mv	a0,a4
100027cc:	85be                	mv	a1,a5
100027ce:	dca2                	sw	s0,120(sp)
100027d0:	daa6                	sw	s1,116(sp)
100027d2:	d8ca                	sw	s2,112(sp)
100027d4:	d4d2                	sw	s4,104(sp)
100027d6:	c6ee                	sw	s11,76(sp)
100027d8:	de86                	sw	ra,124(sp)
100027da:	4d8a                	lw	s11,128(sp)
100027dc:	84ba                	mv	s1,a4
100027de:	843e                	mv	s0,a5
100027e0:	8a42                	mv	s4,a6
100027e2:	8946                	mv	s2,a7
100027e4:	10001097          	auipc	ra,0x10001
100027e8:	872080e7          	jalr	-1934(ra) # 20003056 <__unorddf2>
100027ec:	44051463          	bnez	a0,10002c34 <_ftoa+0x480>
100027f0:	100077b7          	lui	a5,0x10007
100027f4:	6887a603          	lw	a2,1672(a5) # 10007688 <_usbd_driver+0x4c>
100027f8:	68c7a683          	lw	a3,1676(a5)
100027fc:	8526                	mv	a0,s1
100027fe:	85a2                	mv	a1,s0
10002800:	10000097          	auipc	ra,0x10000
10002804:	b2a080e7          	jalr	-1238(ra) # 2000232a <__ledf2>
10002808:	22054763          	bltz	a0,10002a36 <_ftoa+0x282>
1000280c:	100077b7          	lui	a5,0x10007
10002810:	6807a603          	lw	a2,1664(a5) # 10007680 <_usbd_driver+0x44>
10002814:	6847a683          	lw	a3,1668(a5)
10002818:	8526                	mv	a0,s1
1000281a:	85a2                	mv	a1,s0
1000281c:	10000097          	auipc	ra,0x10000
10002820:	a50080e7          	jalr	-1456(ra) # 2000226c <__gedf2>
10002824:	18a04c63          	bgtz	a0,100029bc <_ftoa+0x208>
10002828:	d2d6                	sw	s5,100(sp)
1000282a:	10007ab7          	lui	s5,0x10007
1000282e:	708aa603          	lw	a2,1800(s5) # 10007708 <_usbd_driver+0xcc>
10002832:	70caa683          	lw	a3,1804(s5)
10002836:	8526                	mv	a0,s1
10002838:	85a2                	mv	a1,s0
1000283a:	10000097          	auipc	ra,0x10000
1000283e:	a32080e7          	jalr	-1486(ra) # 2000226c <__gedf2>
10002842:	14a04663          	bgtz	a0,1000298e <_ftoa+0x1da>
10002846:	100077b7          	lui	a5,0x10007
1000284a:	7107a603          	lw	a2,1808(a5) # 10007710 <_usbd_driver+0xd4>
1000284e:	7147a683          	lw	a3,1812(a5)
10002852:	8526                	mv	a0,s1
10002854:	85a2                	mv	a1,s0
10002856:	10000097          	auipc	ra,0x10000
1000285a:	ad4080e7          	jalr	-1324(ra) # 2000232a <__ledf2>
1000285e:	12054863          	bltz	a0,1000298e <_ftoa+0x1da>
10002862:	8526                	mv	a0,s1
10002864:	85a2                	mv	a1,s0
10002866:	4601                	li	a2,0
10002868:	4681                	li	a3,0
1000286a:	d0da                	sw	s6,96(sp)
1000286c:	cede                	sw	s7,92(sp)
1000286e:	10000097          	auipc	ra,0x10000
10002872:	abc080e7          	jalr	-1348(ra) # 2000232a <__ledf2>
10002876:	18054463          	bltz	a0,100029fe <_ftoa+0x24a>
1000287a:	ce02                	sw	zero,28(sp)
1000287c:	400dfb13          	and	s6,s11,1024
10002880:	180b0f63          	beqz	s6,10002a1e <_ftoa+0x26a>
10002884:	47a5                	li	a5,9
10002886:	3b47ff63          	bgeu	a5,s4,10002c44 <_ftoa+0x490>
1000288a:	ff7a0b13          	add	s6,s4,-9
1000288e:	4681                	li	a3,0
10002890:	02010b93          	add	s7,sp,32
10002894:	03000513          	li	a0,48
10002898:	02000593          	li	a1,32
1000289c:	0685                	add	a3,a3,1
1000289e:	00db8633          	add	a2,s7,a3
100028a2:	fea60fa3          	sb	a0,-1(a2)
100028a6:	40da0333          	sub	t1,s4,a3
100028aa:	30b68763          	beq	a3,a1,10002bb8 <_ftoa+0x404>
100028ae:	ff6697e3          	bne	a3,s6,1000289c <_ftoa+0xe8>
100028b2:	708aa783          	lw	a5,1800(s5)
100028b6:	70caa803          	lw	a6,1804(s5)
100028ba:	c43e                	sw	a5,8(sp)
100028bc:	c642                	sw	a6,12(sp)
100028be:	85a2                	mv	a1,s0
100028c0:	8526                	mv	a0,s1
100028c2:	cc1a                	sw	t1,24(sp)
100028c4:	10000097          	auipc	ra,0x10000
100028c8:	7ce080e7          	jalr	1998(ra) # 20003092 <__fixdfsi>
100028cc:	8a2a                	mv	s4,a0
100028ce:	10001097          	auipc	ra,0x10001
100028d2:	882080e7          	jalr	-1918(ra) # 20003150 <__floatsidf>
100028d6:	862a                	mv	a2,a0
100028d8:	86ae                	mv	a3,a1
100028da:	8526                	mv	a0,s1
100028dc:	85a2                	mv	a1,s0
100028de:	10000097          	auipc	ra,0x10000
100028e2:	02c080e7          	jalr	44(ra) # 2000290a <__subdf3>
100028e6:	4622                	lw	a2,8(sp)
100028e8:	46b2                	lw	a3,12(sp)
100028ea:	10000097          	auipc	ra,0x10000
100028ee:	b02080e7          	jalr	-1278(ra) # 200023ec <__muldf3>
100028f2:	c82e                	sw	a1,16(sp)
100028f4:	ca2a                	sw	a0,20(sp)
100028f6:	10001097          	auipc	ra,0x10001
100028fa:	802080e7          	jalr	-2046(ra) # 200030f8 <__fixunsdfsi>
100028fe:	8aaa                	mv	s5,a0
10002900:	10001097          	auipc	ra,0x10001
10002904:	8be080e7          	jalr	-1858(ra) # 200031be <__floatunsidf>
10002908:	4752                	lw	a4,20(sp)
1000290a:	47c2                	lw	a5,16(sp)
1000290c:	862a                	mv	a2,a0
1000290e:	86ae                	mv	a3,a1
10002910:	853a                	mv	a0,a4
10002912:	85be                	mv	a1,a5
10002914:	10000097          	auipc	ra,0x10000
10002918:	ff6080e7          	jalr	-10(ra) # 2000290a <__subdf3>
1000291c:	100077b7          	lui	a5,0x10007
10002920:	6b87a603          	lw	a2,1720(a5) # 100076b8 <_usbd_driver+0x7c>
10002924:	6bc7a683          	lw	a3,1724(a5)
10002928:	c82a                	sw	a0,16(sp)
1000292a:	ca2e                	sw	a1,20(sp)
1000292c:	10000097          	auipc	ra,0x10000
10002930:	940080e7          	jalr	-1728(ra) # 2000226c <__gedf2>
10002934:	4362                	lw	t1,24(sp)
10002936:	22a05663          	blez	a0,10002b62 <_ftoa+0x3ae>
1000293a:	0a85                	add	s5,s5,1
1000293c:	8556                	mv	a0,s5
1000293e:	c81a                	sw	t1,16(sp)
10002940:	10001097          	auipc	ra,0x10001
10002944:	87e080e7          	jalr	-1922(ra) # 200031be <__floatunsidf>
10002948:	4622                	lw	a2,8(sp)
1000294a:	46b2                	lw	a3,12(sp)
1000294c:	10000097          	auipc	ra,0x10000
10002950:	920080e7          	jalr	-1760(ra) # 2000226c <__gedf2>
10002954:	4342                	lw	t1,16(sp)
10002956:	00054463          	bltz	a0,1000295e <_ftoa+0x1aa>
1000295a:	0a05                	add	s4,s4,1
1000295c:	4a81                	li	s5,0
1000295e:	0e030463          	beqz	t1,10002a46 <_ftoa+0x292>
10002962:	02000513          	li	a0,32
10002966:	4629                	li	a2,10
10002968:	4e25                	li	t3,9
1000296a:	24ab0463          	beq	s6,a0,10002bb2 <_ftoa+0x3fe>
1000296e:	02caf6b3          	remu	a3,s5,a2
10002972:	0b05                	add	s6,s6,1
10002974:	016b85b3          	add	a1,s7,s6
10002978:	137d                	add	t1,t1,-1
1000297a:	03068693          	add	a3,a3,48
1000297e:	fed58fa3          	sb	a3,-1(a1)
10002982:	02cad6b3          	divu	a3,s5,a2
10002986:	215e7263          	bgeu	t3,s5,10002b8a <_ftoa+0x3d6>
1000298a:	8ab6                	mv	s5,a3
1000298c:	bff9                	j	1000296a <_ftoa+0x1b6>
1000298e:	87a2                	mv	a5,s0
10002990:	5466                	lw	s0,120(sp)
10002992:	c16e                	sw	s11,128(sp)
10002994:	5a96                	lw	s5,100(sp)
10002996:	50f6                	lw	ra,124(sp)
10002998:	4db6                	lw	s11,76(sp)
1000299a:	8726                	mv	a4,s1
1000299c:	88ca                	mv	a7,s2
1000299e:	54d6                	lw	s1,116(sp)
100029a0:	5946                	lw	s2,112(sp)
100029a2:	8852                	mv	a6,s4
100029a4:	86ea                	mv	a3,s10
100029a6:	5a26                	lw	s4,104(sp)
100029a8:	4d46                	lw	s10,80(sp)
100029aa:	8666                	mv	a2,s9
100029ac:	85e2                	mv	a1,s8
100029ae:	4cd6                	lw	s9,84(sp)
100029b0:	4c66                	lw	s8,88(sp)
100029b2:	854e                	mv	a0,s3
100029b4:	59b6                	lw	s3,108(sp)
100029b6:	6109                	add	sp,sp,128
100029b8:	8f7ff06f          	j	100022ae <_etoa>
100029bc:	004df793          	and	a5,s11,4
100029c0:	eb8d                	bnez	a5,100029f2 <_ftoa+0x23e>
100029c2:	10007737          	lui	a4,0x10007
100029c6:	0f870713          	add	a4,a4,248 # 100070f8 <__EH_FRAME_BEGIN__+0x118>
100029ca:	478d                	li	a5,3
100029cc:	88ee                	mv	a7,s11
100029ce:	884a                	mv	a6,s2
100029d0:	5466                	lw	s0,120(sp)
100029d2:	50f6                	lw	ra,124(sp)
100029d4:	54d6                	lw	s1,116(sp)
100029d6:	5946                	lw	s2,112(sp)
100029d8:	5a26                	lw	s4,104(sp)
100029da:	4db6                	lw	s11,76(sp)
100029dc:	86ea                	mv	a3,s10
100029de:	8666                	mv	a2,s9
100029e0:	4d46                	lw	s10,80(sp)
100029e2:	4cd6                	lw	s9,84(sp)
100029e4:	85e2                	mv	a1,s8
100029e6:	854e                	mv	a0,s3
100029e8:	4c66                	lw	s8,88(sp)
100029ea:	59b6                	lw	s3,108(sp)
100029ec:	6109                	add	sp,sp,128
100029ee:	d26ff06f          	j	10001f14 <_out_rev>
100029f2:	10007737          	lui	a4,0x10007
100029f6:	0f070713          	add	a4,a4,240 # 100070f0 <__EH_FRAME_BEGIN__+0x110>
100029fa:	4791                	li	a5,4
100029fc:	bfc1                	j	100029cc <_ftoa+0x218>
100029fe:	8626                	mv	a2,s1
10002a00:	86a2                	mv	a3,s0
10002a02:	4501                	li	a0,0
10002a04:	4581                	li	a1,0
10002a06:	10000097          	auipc	ra,0x10000
10002a0a:	f04080e7          	jalr	-252(ra) # 2000290a <__subdf3>
10002a0e:	4785                	li	a5,1
10002a10:	ce3e                	sw	a5,28(sp)
10002a12:	400dfb13          	and	s6,s11,1024
10002a16:	84aa                	mv	s1,a0
10002a18:	842e                	mv	s0,a1
10002a1a:	e60b15e3          	bnez	s6,10002884 <_ftoa+0xd0>
10002a1e:	10007737          	lui	a4,0x10007
10002a22:	70072783          	lw	a5,1792(a4) # 10007700 <_usbd_driver+0xc4>
10002a26:	70472803          	lw	a6,1796(a4)
10002a2a:	4319                	li	t1,6
10002a2c:	c43e                	sw	a5,8(sp)
10002a2e:	c642                	sw	a6,12(sp)
10002a30:	02010b93          	add	s7,sp,32
10002a34:	b569                	j	100028be <_ftoa+0x10a>
10002a36:	10007737          	lui	a4,0x10007
10002a3a:	88ee                	mv	a7,s11
10002a3c:	884a                	mv	a6,s2
10002a3e:	4791                	li	a5,4
10002a40:	10070713          	add	a4,a4,256 # 10007100 <__EH_FRAME_BEGIN__+0x120>
10002a44:	b771                	j	100029d0 <_ftoa+0x21c>
10002a46:	8552                	mv	a0,s4
10002a48:	10000097          	auipc	ra,0x10000
10002a4c:	708080e7          	jalr	1800(ra) # 20003150 <__floatsidf>
10002a50:	862a                	mv	a2,a0
10002a52:	86ae                	mv	a3,a1
10002a54:	8526                	mv	a0,s1
10002a56:	85a2                	mv	a1,s0
10002a58:	10000097          	auipc	ra,0x10000
10002a5c:	eb2080e7          	jalr	-334(ra) # 2000290a <__subdf3>
10002a60:	100077b7          	lui	a5,0x10007
10002a64:	6b87a403          	lw	s0,1720(a5) # 100076b8 <_usbd_driver+0x7c>
10002a68:	6bc7a483          	lw	s1,1724(a5)
10002a6c:	8aaa                	mv	s5,a0
10002a6e:	8622                	mv	a2,s0
10002a70:	86a6                	mv	a3,s1
10002a72:	c42e                	sw	a1,8(sp)
10002a74:	10000097          	auipc	ra,0x10000
10002a78:	8b6080e7          	jalr	-1866(ra) # 2000232a <__ledf2>
10002a7c:	00054f63          	bltz	a0,10002a9a <_ftoa+0x2e6>
10002a80:	45a2                	lw	a1,8(sp)
10002a82:	8556                	mv	a0,s5
10002a84:	8622                	mv	a2,s0
10002a86:	86a6                	mv	a3,s1
10002a88:	0ffff097          	auipc	ra,0xffff
10002a8c:	7e4080e7          	jalr	2020(ra) # 2000226c <__gedf2>
10002a90:	00a04563          	bgtz	a0,10002a9a <_ftoa+0x2e6>
10002a94:	001a7693          	and	a3,s4,1
10002a98:	9a36                	add	s4,s4,a3
10002a9a:	02000513          	li	a0,32
10002a9e:	4629                	li	a2,10
10002aa0:	06ab0e63          	beq	s6,a0,10002b1c <_ftoa+0x368>
10002aa4:	02ca66b3          	rem	a3,s4,a2
10002aa8:	0b05                	add	s6,s6,1
10002aaa:	016b85b3          	add	a1,s7,s6
10002aae:	02ca4a33          	div	s4,s4,a2
10002ab2:	03068693          	add	a3,a3,48
10002ab6:	fed58fa3          	sb	a3,-1(a1)
10002aba:	fe0a13e3          	bnez	s4,10002aa0 <_ftoa+0x2ec>
10002abe:	003df693          	and	a3,s11,3
10002ac2:	4605                	li	a2,1
10002ac4:	1ac68063          	beq	a3,a2,10002c64 <_ftoa+0x4b0>
10002ac8:	02000693          	li	a3,32
10002acc:	00db0f63          	beq	s6,a3,10002aea <_ftoa+0x336>
10002ad0:	47f2                	lw	a5,28(sp)
10002ad2:	10078063          	beqz	a5,10002bd2 <_ftoa+0x41e>
10002ad6:	020b0793          	add	a5,s6,32
10002ada:	1018                	add	a4,sp,32
10002adc:	00e786b3          	add	a3,a5,a4
10002ae0:	02d00613          	li	a2,45
10002ae4:	fec68023          	sb	a2,-32(a3)
10002ae8:	0b05                	add	s6,s6,1
10002aea:	88ee                	mv	a7,s11
10002aec:	884a                	mv	a6,s2
10002aee:	87da                	mv	a5,s6
10002af0:	875e                	mv	a4,s7
10002af2:	86ea                	mv	a3,s10
10002af4:	8666                	mv	a2,s9
10002af6:	85e2                	mv	a1,s8
10002af8:	854e                	mv	a0,s3
10002afa:	c1aff0ef          	jal	10001f14 <_out_rev>
10002afe:	50f6                	lw	ra,124(sp)
10002b00:	5466                	lw	s0,120(sp)
10002b02:	5a96                	lw	s5,100(sp)
10002b04:	5b06                	lw	s6,96(sp)
10002b06:	4bf6                	lw	s7,92(sp)
10002b08:	54d6                	lw	s1,116(sp)
10002b0a:	5946                	lw	s2,112(sp)
10002b0c:	59b6                	lw	s3,108(sp)
10002b0e:	5a26                	lw	s4,104(sp)
10002b10:	4c66                	lw	s8,88(sp)
10002b12:	4cd6                	lw	s9,84(sp)
10002b14:	4d46                	lw	s10,80(sp)
10002b16:	4db6                	lw	s11,76(sp)
10002b18:	6109                	add	sp,sp,128
10002b1a:	8082                	ret
10002b1c:	003df693          	and	a3,s11,3
10002b20:	4605                	li	a2,1
10002b22:	fcc694e3          	bne	a3,a2,10002aea <_ftoa+0x336>
10002b26:	fc0902e3          	beqz	s2,10002aea <_ftoa+0x336>
10002b2a:	47f2                	lw	a5,28(sp)
10002b2c:	10079063          	bnez	a5,10002c2c <_ftoa+0x478>
10002b30:	00cdf693          	and	a3,s11,12
10002b34:	eee5                	bnez	a3,10002c2c <_ftoa+0x478>
10002b36:	092b7a63          	bgeu	s6,s2,10002bca <_ftoa+0x416>
10002b3a:	02000693          	li	a3,32
10002b3e:	03000613          	li	a2,48
10002b42:	02000593          	li	a1,32
10002b46:	00db0b63          	beq	s6,a3,10002b5c <_ftoa+0x3a8>
10002b4a:	0b05                	add	s6,s6,1
10002b4c:	016b86b3          	add	a3,s7,s6
10002b50:	fec68fa3          	sb	a2,-1(a3)
10002b54:	f72b0ae3          	beq	s6,s2,10002ac8 <_ftoa+0x314>
10002b58:	febb19e3          	bne	s6,a1,10002b4a <_ftoa+0x396>
10002b5c:	02000b13          	li	s6,32
10002b60:	b769                	j	10002aea <_ftoa+0x336>
10002b62:	100077b7          	lui	a5,0x10007
10002b66:	4542                	lw	a0,16(sp)
10002b68:	45d2                	lw	a1,20(sp)
10002b6a:	6b87a603          	lw	a2,1720(a5) # 100076b8 <_usbd_driver+0x7c>
10002b6e:	6bc7a683          	lw	a3,1724(a5)
10002b72:	c41a                	sw	t1,8(sp)
10002b74:	0ffff097          	auipc	ra,0xffff
10002b78:	7b6080e7          	jalr	1974(ra) # 2000232a <__ledf2>
10002b7c:	4322                	lw	t1,8(sp)
10002b7e:	de0540e3          	bltz	a0,1000295e <_ftoa+0x1aa>
10002b82:	080a9f63          	bnez	s5,10002c20 <_ftoa+0x46c>
10002b86:	0a85                	add	s5,s5,1
10002b88:	bbd9                	j	1000295e <_ftoa+0x1aa>
10002b8a:	02ab0463          	beq	s6,a0,10002bb2 <_ftoa+0x3fe>
10002b8e:	01630533          	add	a0,t1,s6
10002b92:	03000593          	li	a1,48
10002b96:	02000613          	li	a2,32
10002b9a:	00031563          	bnez	t1,10002ba4 <_ftoa+0x3f0>
10002b9e:	a899                	j	10002bf4 <_ftoa+0x440>
10002ba0:	04ab0a63          	beq	s6,a0,10002bf4 <_ftoa+0x440>
10002ba4:	0b05                	add	s6,s6,1
10002ba6:	016b86b3          	add	a3,s7,s6
10002baa:	feb68fa3          	sb	a1,-1(a3)
10002bae:	fecb19e3          	bne	s6,a2,10002ba0 <_ftoa+0x3ec>
10002bb2:	02000b13          	li	s6,32
10002bb6:	b5d5                	j	10002a9a <_ftoa+0x2e6>
10002bb8:	708aa783          	lw	a5,1800(s5)
10002bbc:	70caa803          	lw	a6,1804(s5)
10002bc0:	02000b13          	li	s6,32
10002bc4:	c43e                	sw	a5,8(sp)
10002bc6:	c642                	sw	a6,12(sp)
10002bc8:	b9dd                	j	100028be <_ftoa+0x10a>
10002bca:	02000693          	li	a3,32
10002bce:	f0db0ee3          	beq	s6,a3,10002aea <_ftoa+0x336>
10002bd2:	004df693          	and	a3,s11,4
10002bd6:	ea95                	bnez	a3,10002c0a <_ftoa+0x456>
10002bd8:	008df693          	and	a3,s11,8
10002bdc:	d699                	beqz	a3,10002aea <_ftoa+0x336>
10002bde:	020b0793          	add	a5,s6,32
10002be2:	1018                	add	a4,sp,32
10002be4:	00e786b3          	add	a3,a5,a4
10002be8:	02000613          	li	a2,32
10002bec:	fec68023          	sb	a2,-32(a3)
10002bf0:	0b05                	add	s6,s6,1
10002bf2:	bde5                	j	10002aea <_ftoa+0x336>
10002bf4:	020b0793          	add	a5,s6,32
10002bf8:	1018                	add	a4,sp,32
10002bfa:	00e786b3          	add	a3,a5,a4
10002bfe:	02e00613          	li	a2,46
10002c02:	fec68023          	sb	a2,-32(a3)
10002c06:	0b05                	add	s6,s6,1
10002c08:	bd49                	j	10002a9a <_ftoa+0x2e6>
10002c0a:	020b0793          	add	a5,s6,32
10002c0e:	1018                	add	a4,sp,32
10002c10:	00e786b3          	add	a3,a5,a4
10002c14:	02b00613          	li	a2,43
10002c18:	fec68023          	sb	a2,-32(a3)
10002c1c:	0b05                	add	s6,s6,1
10002c1e:	b5f1                	j	10002aea <_ftoa+0x336>
10002c20:	001af693          	and	a3,s5,1
10002c24:	d2068de3          	beqz	a3,1000295e <_ftoa+0x1aa>
10002c28:	0a85                	add	s5,s5,1
10002c2a:	bb15                	j	1000295e <_ftoa+0x1aa>
10002c2c:	197d                	add	s2,s2,-1
10002c2e:	f12b66e3          	bltu	s6,s2,10002b3a <_ftoa+0x386>
10002c32:	bd59                	j	10002ac8 <_ftoa+0x314>
10002c34:	10007737          	lui	a4,0x10007
10002c38:	88ee                	mv	a7,s11
10002c3a:	884a                	mv	a6,s2
10002c3c:	478d                	li	a5,3
10002c3e:	0fc70713          	add	a4,a4,252 # 100070fc <__EH_FRAME_BEGIN__+0x11c>
10002c42:	b379                	j	100029d0 <_ftoa+0x21c>
10002c44:	100077b7          	lui	a5,0x10007
10002c48:	3c078793          	add	a5,a5,960 # 100073c0 <pow10.0>
10002c4c:	20fa67b3          	sh3add	a5,s4,a5
10002c50:	0047a803          	lw	a6,4(a5)
10002c54:	439c                	lw	a5,0(a5)
10002c56:	8352                	mv	t1,s4
10002c58:	c642                	sw	a6,12(sp)
10002c5a:	c43e                	sw	a5,8(sp)
10002c5c:	4b01                	li	s6,0
10002c5e:	02010b93          	add	s7,sp,32
10002c62:	b9b1                	j	100028be <_ftoa+0x10a>
10002c64:	e60902e3          	beqz	s2,10002ac8 <_ftoa+0x314>
10002c68:	b5c9                	j	10002b2a <_ftoa+0x376>

10002c6a <_vsnprintf>:
10002c6a:	7135                	add	sp,sp,-160
10002c6c:	100037b7          	lui	a5,0x10003
10002c70:	d8ea                	sw	s10,112(sp)
10002c72:	c6a78793          	add	a5,a5,-918 # 10002c6a <_vsnprintf>
10002c76:	8d3a                	mv	s10,a4
10002c78:	cd22                	sw	s0,152(sp)
10002c7a:	c552                	sw	s4,136(sp)
10002c7c:	dce2                	sw	s8,120(sp)
10002c7e:	cf06                	sw	ra,156(sp)
10002c80:	cb26                	sw	s1,148(sp)
10002c82:	80f1ada3          	sw	a5,-2021(gp) # 20004394 <lazy_vsnprintf>
10002c86:	8a32                	mv	s4,a2
10002c88:	8436                	mv	s0,a3
10002c8a:	8c2a                	mv	s8,a0
10002c8c:	3a058563          	beqz	a1,10003036 <_vsnprintf+0x3cc>
10002c90:	00044503          	lbu	a0,0(s0)
10002c94:	4481                	li	s1,0
10002c96:	3a050963          	beqz	a0,10003048 <_vsnprintf+0x3de>
10002c9a:	100077b7          	lui	a5,0x10007
10002c9e:	c356                	sw	s5,132(sp)
10002ca0:	26878793          	add	a5,a5,616 # 10007268 <__bi_26+0x50>
10002ca4:	10007ab7          	lui	s5,0x10007
10002ca8:	c94a                	sw	s2,144(sp)
10002caa:	c74e                	sw	s3,140(sp)
10002cac:	c15a                	sw	s6,128(sp)
10002cae:	dede                	sw	s7,124(sp)
10002cb0:	dae6                	sw	s9,116(sp)
10002cb2:	02500b93          	li	s7,37
10002cb6:	49c1                	li	s3,16
10002cb8:	224a8a93          	add	s5,s5,548 # 10007224 <__bi_26+0xc>
10002cbc:	4b25                	li	s6,9
10002cbe:	cc3e                	sw	a5,24(sp)
10002cc0:	892e                	mv	s2,a1
10002cc2:	a811                	j	10002cd6 <_vsnprintf+0x6c>
10002cc4:	8626                	mv	a2,s1
10002cc6:	86d2                	mv	a3,s4
10002cc8:	85ca                	mv	a1,s2
10002cca:	0485                	add	s1,s1,1
10002ccc:	9c02                	jalr	s8
10002cce:	00044503          	lbu	a0,0(s0)
10002cd2:	10050b63          	beqz	a0,10002de8 <_vsnprintf+0x17e>
10002cd6:	0405                	add	s0,s0,1
10002cd8:	ff7516e3          	bne	a0,s7,10002cc4 <_vsnprintf+0x5a>
10002cdc:	4681                	li	a3,0
10002cde:	00044503          	lbu	a0,0(s0)
10002ce2:	00140713          	add	a4,s0,1
10002ce6:	fe050793          	add	a5,a0,-32
10002cea:	0ff7f793          	zext.b	a5,a5
10002cee:	00f9e663          	bltu	s3,a5,10002cfa <_vsnprintf+0x90>
10002cf2:	2157c7b3          	sh2add	a5,a5,s5
10002cf6:	439c                	lw	a5,0(a5)
10002cf8:	8782                	jr	a5
10002cfa:	fd050793          	add	a5,a0,-48
10002cfe:	0ff7f793          	zext.b	a5,a5
10002d02:	08fb7a63          	bgeu	s6,a5,10002d96 <_vsnprintf+0x12c>
10002d06:	02a00793          	li	a5,42
10002d0a:	4881                	li	a7,0
10002d0c:	18f50d63          	beq	a0,a5,10002ea6 <_vsnprintf+0x23c>
10002d10:	02e00793          	li	a5,46
10002d14:	4801                	li	a6,0
10002d16:	0af50663          	beq	a0,a5,10002dc2 <_vsnprintf+0x158>
10002d1a:	f9850793          	add	a5,a0,-104
10002d1e:	0ff7f793          	zext.b	a5,a5
10002d22:	4649                	li	a2,18
10002d24:	04f66063          	bltu	a2,a5,10002d64 <_vsnprintf+0xfa>
10002d28:	4662                	lw	a2,24(sp)
10002d2a:	20c7c7b3          	sh2add	a5,a5,a2
10002d2e:	439c                	lw	a5,0(a5)
10002d30:	8782                	jr	a5
10002d32:	0016e693          	or	a3,a3,1
10002d36:	843a                	mv	s0,a4
10002d38:	b75d                	j	10002cde <_vsnprintf+0x74>
10002d3a:	0026e693          	or	a3,a3,2
10002d3e:	843a                	mv	s0,a4
10002d40:	bf79                	j	10002cde <_vsnprintf+0x74>
10002d42:	0046e693          	or	a3,a3,4
10002d46:	843a                	mv	s0,a4
10002d48:	bf59                	j	10002cde <_vsnprintf+0x74>
10002d4a:	0106e693          	or	a3,a3,16
10002d4e:	843a                	mv	s0,a4
10002d50:	b779                	j	10002cde <_vsnprintf+0x74>
10002d52:	0086e693          	or	a3,a3,8
10002d56:	843a                	mv	s0,a4
10002d58:	b759                	j	10002cde <_vsnprintf+0x74>
10002d5a:	00144503          	lbu	a0,1(s0)
10002d5e:	1006e693          	or	a3,a3,256
10002d62:	0705                	add	a4,a4,1
10002d64:	06700793          	li	a5,103
10002d68:	843a                	mv	s0,a4
10002d6a:	0aa7e863          	bltu	a5,a0,10002e1a <_vsnprintf+0x1b0>
10002d6e:	02400793          	li	a5,36
10002d72:	f4a7f9e3          	bgeu	a5,a0,10002cc4 <_vsnprintf+0x5a>
10002d76:	fdb50793          	add	a5,a0,-37
10002d7a:	0ff7f793          	zext.b	a5,a5
10002d7e:	04200713          	li	a4,66
10002d82:	f4f761e3          	bltu	a4,a5,10002cc4 <_vsnprintf+0x5a>
10002d86:	10007737          	lui	a4,0x10007
10002d8a:	2b470713          	add	a4,a4,692 # 100072b4 <__bi_26+0x9c>
10002d8e:	20e7c7b3          	sh2add	a5,a5,a4
10002d92:	439c                	lw	a5,0(a5)
10002d94:	8782                	jr	a5
10002d96:	4881                	li	a7,0
10002d98:	2118c8b3          	sh2add	a7,a7,a7
10002d9c:	20a8a8b3          	sh1add	a7,a7,a0
10002da0:	00074503          	lbu	a0,0(a4)
10002da4:	843a                	mv	s0,a4
10002da6:	fd088893          	add	a7,a7,-48
10002daa:	fd050793          	add	a5,a0,-48
10002dae:	0ff7f793          	zext.b	a5,a5
10002db2:	0705                	add	a4,a4,1
10002db4:	fefb72e3          	bgeu	s6,a5,10002d98 <_vsnprintf+0x12e>
10002db8:	02e00793          	li	a5,46
10002dbc:	4801                	li	a6,0
10002dbe:	f4f51ee3          	bne	a0,a5,10002d1a <_vsnprintf+0xb0>
10002dc2:	00144503          	lbu	a0,1(s0)
10002dc6:	45a5                	li	a1,9
10002dc8:	863a                	mv	a2,a4
10002dca:	fd050793          	add	a5,a0,-48
10002dce:	0ff7f793          	zext.b	a5,a5
10002dd2:	4006e693          	or	a3,a3,1024
10002dd6:	28f5fc63          	bgeu	a1,a5,1000306e <_vsnprintf+0x404>
10002dda:	02a00793          	li	a5,42
10002dde:	2af50c63          	beq	a0,a5,10003096 <_vsnprintf+0x42c>
10002de2:	843a                	mv	s0,a4
10002de4:	0705                	add	a4,a4,1
10002de6:	bf15                	j	10002d1a <_vsnprintf+0xb0>
10002de8:	85ca                	mv	a1,s2
10002dea:	49ba                	lw	s3,140(sp)
10002dec:	494a                	lw	s2,144(sp)
10002dee:	4a9a                	lw	s5,132(sp)
10002df0:	4b0a                	lw	s6,128(sp)
10002df2:	5bf6                	lw	s7,124(sp)
10002df4:	5cd6                	lw	s9,116(sp)
10002df6:	8426                	mv	s0,s1
10002df8:	0144e463          	bltu	s1,s4,10002e00 <_vsnprintf+0x196>
10002dfc:	fffa0493          	add	s1,s4,-1
10002e00:	86d2                	mv	a3,s4
10002e02:	8626                	mv	a2,s1
10002e04:	4501                	li	a0,0
10002e06:	9c02                	jalr	s8
10002e08:	40fa                	lw	ra,156(sp)
10002e0a:	8522                	mv	a0,s0
10002e0c:	446a                	lw	s0,152(sp)
10002e0e:	44da                	lw	s1,148(sp)
10002e10:	4a2a                	lw	s4,136(sp)
10002e12:	5c66                	lw	s8,120(sp)
10002e14:	5d46                	lw	s10,112(sp)
10002e16:	610d                	add	sp,sp,160
10002e18:	8082                	ret
10002e1a:	f9750793          	add	a5,a0,-105
10002e1e:	0ff7f793          	zext.b	a5,a5
10002e22:	473d                	li	a4,15
10002e24:	eaf760e3          	bltu	a4,a5,10002cc4 <_vsnprintf+0x5a>
10002e28:	6725                	lui	a4,0x9
10002e2a:	04170713          	add	a4,a4,65 # 9041 <HeapSize+0x8841>
10002e2e:	28f01cb3          	bset	s9,zero,a5
10002e32:	00ecfcb3          	and	s9,s9,a4
10002e36:	200c9d63          	bnez	s9,10003050 <_vsnprintf+0x3e6>
10002e3a:	4729                	li	a4,10
10002e3c:	06e78f63          	beq	a5,a4,10002eba <_vsnprintf+0x250>
10002e40:	471d                	li	a4,7
10002e42:	e8e791e3          	bne	a5,a4,10002cc4 <_vsnprintf+0x5a>
10002e46:	000d2783          	lw	a5,0(s10)
10002e4a:	0216e613          	or	a2,a3,33
10002e4e:	0d11                	add	s10,s10,4
10002e50:	24078e63          	beqz	a5,100030ac <_vsnprintf+0x442>
10002e54:	0098                	add	a4,sp,64
10002e56:	48a5                	li	a7,9
10002e58:	453d                	li	a0,15
10002e5a:	02000313          	li	t1,32
10002e5e:	a021                	j	10002e66 <_vsnprintf+0x1fc>
10002e60:	026c8463          	beq	s9,t1,10002e88 <_vsnprintf+0x21e>
10002e64:	87b6                	mv	a5,a3
10002e66:	00f7fe13          	and	t3,a5,15
10002e6a:	037e0593          	add	a1,t3,55
10002e6e:	01c8e463          	bltu	a7,t3,10002e76 <_vsnprintf+0x20c>
10002e72:	030e0593          	add	a1,t3,48
10002e76:	0c85                	add	s9,s9,1
10002e78:	019706b3          	add	a3,a4,s9
10002e7c:	feb68fa3          	sb	a1,-1(a3)
10002e80:	0047d693          	srl	a3,a5,0x4
10002e84:	fcf56ee3          	bltu	a0,a5,10002e60 <_vsnprintf+0x1f6>
10002e88:	47a1                	li	a5,8
10002e8a:	c23e                	sw	a5,4(sp)
10002e8c:	c042                	sw	a6,0(sp)
10002e8e:	c432                	sw	a2,8(sp)
10002e90:	48c1                	li	a7,16
10002e92:	4801                	li	a6,0
10002e94:	87e6                	mv	a5,s9
10002e96:	8626                	mv	a2,s1
10002e98:	86d2                	mv	a3,s4
10002e9a:	85ca                	mv	a1,s2
10002e9c:	8562                	mv	a0,s8
10002e9e:	92eff0ef          	jal	10001fcc <_ntoa_format>
10002ea2:	84aa                	mv	s1,a0
10002ea4:	b52d                	j	10002cce <_vsnprintf+0x64>
10002ea6:	000d2883          	lw	a7,0(s10)
10002eaa:	0d11                	add	s10,s10,4
10002eac:	0808c663          	bltz	a7,10002f38 <_vsnprintf+0x2ce>
10002eb0:	00144503          	lbu	a0,1(s0)
10002eb4:	843a                	mv	s0,a4
10002eb6:	0705                	add	a4,a4,1
10002eb8:	bda1                	j	10002d10 <_vsnprintf+0xa6>
10002eba:	000d2703          	lw	a4,0(s10)
10002ebe:	d6ee                	sw	s11,108(sp)
10002ec0:	004d0793          	add	a5,s10,4
10002ec4:	00074583          	lbu	a1,0(a4)
10002ec8:	ce3e                	sw	a5,28(sp)
10002eca:	852e                	mv	a0,a1
10002ecc:	1e080a63          	beqz	a6,100030c0 <_vsnprintf+0x456>
10002ed0:	cd99                	beqz	a1,10002eee <_vsnprintf+0x284>
10002ed2:	fff80613          	add	a2,a6,-1
10002ed6:	0605                	add	a2,a2,1
10002ed8:	963a                	add	a2,a2,a4
10002eda:	8cba                	mv	s9,a4
10002edc:	a019                	j	10002ee2 <_vsnprintf+0x278>
10002ede:	00cc8663          	beq	s9,a2,10002eea <_vsnprintf+0x280>
10002ee2:	001cc783          	lbu	a5,1(s9)
10002ee6:	0c85                	add	s9,s9,1
10002ee8:	fbfd                	bnez	a5,10002ede <_vsnprintf+0x274>
10002eea:	40ec8cb3          	sub	s9,s9,a4
10002eee:	4006fd93          	and	s11,a3,1024
10002ef2:	000d8463          	beqz	s11,10002efa <_vsnprintf+0x290>
10002ef6:	0b0cdcb3          	minu	s9,s9,a6
10002efa:	8a89                	and	a3,a3,2
10002efc:	2e068663          	beqz	a3,100031e8 <_vsnprintf+0x57e>
10002f00:	28058463          	beqz	a1,10003188 <_vsnprintf+0x51e>
10002f04:	240d8a63          	beqz	s11,10003158 <_vsnprintf+0x4ee>
10002f08:	00980d33          	add	s10,a6,s1
10002f0c:	d036                	sw	a3,32(sp)
10002f0e:	d246                	sw	a7,36(sp)
10002f10:	87a6                	mv	a5,s1
10002f12:	8dba                	mv	s11,a4
10002f14:	d422                	sw	s0,40(sp)
10002f16:	2afd0d63          	beq	s10,a5,100031d0 <_vsnprintf+0x566>
10002f1a:	86d2                	mv	a3,s4
10002f1c:	863e                	mv	a2,a5
10002f1e:	85ca                	mv	a1,s2
10002f20:	00178413          	add	s0,a5,1
10002f24:	9c02                	jalr	s8
10002f26:	40940733          	sub	a4,s0,s1
10002f2a:	976e                	add	a4,a4,s11
10002f2c:	00074503          	lbu	a0,0(a4)
10002f30:	2a050663          	beqz	a0,100031dc <_vsnprintf+0x572>
10002f34:	87a2                	mv	a5,s0
10002f36:	b7c5                	j	10002f16 <_vsnprintf+0x2ac>
10002f38:	00144503          	lbu	a0,1(s0)
10002f3c:	0026e693          	or	a3,a3,2
10002f40:	843a                	mv	s0,a4
10002f42:	411008b3          	neg	a7,a7
10002f46:	0705                	add	a4,a4,1
10002f48:	b3e1                	j	10002d10 <_vsnprintf+0xa6>
10002f4a:	00144503          	lbu	a0,1(s0)
10002f4e:	06c00793          	li	a5,108
10002f52:	e0f516e3          	bne	a0,a5,10002d5e <_vsnprintf+0xf4>
10002f56:	00244503          	lbu	a0,2(s0)
10002f5a:	3006e693          	or	a3,a3,768
10002f5e:	00340713          	add	a4,s0,3
10002f62:	b509                	j	10002d64 <_vsnprintf+0xfa>
10002f64:	00144503          	lbu	a0,1(s0)
10002f68:	2006e693          	or	a3,a3,512
10002f6c:	0705                	add	a4,a4,1
10002f6e:	bbdd                	j	10002d64 <_vsnprintf+0xfa>
10002f70:	00144503          	lbu	a0,1(s0)
10002f74:	06800793          	li	a5,104
10002f78:	22f50f63          	beq	a0,a5,100031b6 <_vsnprintf+0x54c>
10002f7c:	0806e693          	or	a3,a3,128
10002f80:	0705                	add	a4,a4,1
10002f82:	b3cd                	j	10002d64 <_vsnprintf+0xfa>
10002f84:	06700793          	li	a5,103
10002f88:	14f50363          	beq	a0,a5,100030ce <_vsnprintf+0x464>
10002f8c:	04700793          	li	a5,71
10002f90:	20f50e63          	beq	a0,a5,100031ac <_vsnprintf+0x542>
10002f94:	04500793          	li	a5,69
10002f98:	20f50c63          	beq	a0,a5,100031b0 <_vsnprintf+0x546>
10002f9c:	0d1d                	add	s10,s10,7
10002f9e:	ff8d7d13          	and	s10,s10,-8
10002fa2:	000d2703          	lw	a4,0(s10)
10002fa6:	004d2783          	lw	a5,4(s10)
10002faa:	8626                	mv	a2,s1
10002fac:	c036                	sw	a3,0(sp)
10002fae:	85ca                	mv	a1,s2
10002fb0:	86d2                	mv	a3,s4
10002fb2:	8562                	mv	a0,s8
10002fb4:	afaff0ef          	jal	100022ae <_etoa>
10002fb8:	0d21                	add	s10,s10,8
10002fba:	84aa                	mv	s1,a0
10002fbc:	bb09                	j	10002cce <_vsnprintf+0x64>
10002fbe:	04600793          	li	a5,70
10002fc2:	10f50363          	beq	a0,a5,100030c8 <_vsnprintf+0x45e>
10002fc6:	0d1d                	add	s10,s10,7
10002fc8:	ff8d7d13          	and	s10,s10,-8
10002fcc:	000d2703          	lw	a4,0(s10)
10002fd0:	004d2783          	lw	a5,4(s10)
10002fd4:	8626                	mv	a2,s1
10002fd6:	c036                	sw	a3,0(sp)
10002fd8:	85ca                	mv	a1,s2
10002fda:	86d2                	mv	a3,s4
10002fdc:	8562                	mv	a0,s8
10002fde:	fd6ff0ef          	jal	100027b4 <_ftoa>
10002fe2:	0d21                	add	s10,s10,8
10002fe4:	84aa                	mv	s1,a0
10002fe6:	b1e5                	j	10002cce <_vsnprintf+0x64>
10002fe8:	8626                	mv	a2,s1
10002fea:	86d2                	mv	a3,s4
10002fec:	85ca                	mv	a1,s2
10002fee:	02500513          	li	a0,37
10002ff2:	0485                	add	s1,s1,1
10002ff4:	9c02                	jalr	s8
10002ff6:	b9e1                	j	10002cce <_vsnprintf+0x64>
10002ff8:	004d0793          	add	a5,s10,4
10002ffc:	8a89                	and	a3,a3,2
10002ffe:	ce3e                	sw	a5,28(sp)
10003000:	00148c93          	add	s9,s1,1
10003004:	22068763          	beqz	a3,10003232 <_vsnprintf+0x5c8>
10003008:	000d4503          	lbu	a0,0(s10)
1000300c:	d046                	sw	a7,32(sp)
1000300e:	8626                	mv	a2,s1
10003010:	86d2                	mv	a3,s4
10003012:	85ca                	mv	a1,s2
10003014:	9c02                	jalr	s8
10003016:	5882                	lw	a7,32(sp)
10003018:	4785                	li	a5,1
1000301a:	94c6                	add	s1,s1,a7
1000301c:	2717fb63          	bgeu	a5,a7,10003292 <_vsnprintf+0x628>
10003020:	8666                	mv	a2,s9
10003022:	86d2                	mv	a3,s4
10003024:	0c85                	add	s9,s9,1
10003026:	85ca                	mv	a1,s2
10003028:	02000513          	li	a0,32
1000302c:	9c02                	jalr	s8
1000302e:	fe9c99e3          	bne	s9,s1,10003020 <_vsnprintf+0x3b6>
10003032:	4d72                	lw	s10,28(sp)
10003034:	b969                	j	10002cce <_vsnprintf+0x64>
10003036:	00044503          	lbu	a0,0(s0)
1000303a:	10002337          	lui	t1,0x10002
1000303e:	f1230c13          	add	s8,t1,-238 # 10001f12 <_out_null>
10003042:	4481                	li	s1,0
10003044:	c4051be3          	bnez	a0,10002c9a <_vsnprintf+0x30>
10003048:	4401                	li	s0,0
1000304a:	db44ebe3          	bltu	s1,s4,10002e00 <_vsnprintf+0x196>
1000304e:	b37d                	j	10002dfc <_vsnprintf+0x192>
10003050:	06f00793          	li	a5,111
10003054:	08f50063          	beq	a0,a5,100030d4 <_vsnprintf+0x46a>
10003058:	2ca7fb63          	bgeu	a5,a0,1000332e <_vsnprintf+0x6c4>
1000305c:	07800793          	li	a5,120
10003060:	20f50c63          	beq	a0,a5,10003278 <_vsnprintf+0x60e>
10003064:	9abd                	and	a3,a3,-17
10003066:	4629                	li	a2,10
10003068:	4f81                	li	t6,0
1000306a:	4329                	li	t1,10
1000306c:	a0bd                	j	100030da <_vsnprintf+0x470>
1000306e:	4725                	li	a4,9
10003070:	0605                	add	a2,a2,1
10003072:	21084833          	sh2add	a6,a6,a6
10003076:	20a82833          	sh1add	a6,a6,a0
1000307a:	00064503          	lbu	a0,0(a2)
1000307e:	fd080813          	add	a6,a6,-48
10003082:	fd050793          	add	a5,a0,-48
10003086:	0ff7f793          	zext.b	a5,a5
1000308a:	fef773e3          	bgeu	a4,a5,10003070 <_vsnprintf+0x406>
1000308e:	8432                	mv	s0,a2
10003090:	00160713          	add	a4,a2,1
10003094:	b159                	j	10002d1a <_vsnprintf+0xb0>
10003096:	000d2803          	lw	a6,0(s10)
1000309a:	00244503          	lbu	a0,2(s0)
1000309e:	0409                	add	s0,s0,2
100030a0:	0d11                	add	s10,s10,4
100030a2:	00140713          	add	a4,s0,1
100030a6:	0a086833          	max	a6,a6,zero
100030aa:	b985                	j	10002d1a <_vsnprintf+0xb0>
100030ac:	fef6f613          	and	a2,a3,-17
100030b0:	4006f793          	and	a5,a3,1024
100030b4:	02166613          	or	a2,a2,33
100030b8:	0098                	add	a4,sp,64
100030ba:	dc0797e3          	bnez	a5,10002e88 <_vsnprintf+0x21e>
100030be:	bb59                	j	10002e54 <_vsnprintf+0x1ea>
100030c0:	e20587e3          	beqz	a1,10002eee <_vsnprintf+0x284>
100030c4:	5679                	li	a2,-2
100030c6:	bd01                	j	10002ed6 <_vsnprintf+0x26c>
100030c8:	0206e693          	or	a3,a3,32
100030cc:	bded                	j	10002fc6 <_vsnprintf+0x35c>
100030ce:	28b69693          	bset	a3,a3,0xb
100030d2:	b5e9                	j	10002f9c <_vsnprintf+0x332>
100030d4:	4621                	li	a2,8
100030d6:	4f81                	li	t6,0
100030d8:	4321                	li	t1,8
100030da:	ffb6fe13          	and	t3,a3,-5
100030de:	4006f513          	and	a0,a3,1024
100030e2:	ff7e7e13          	and	t3,t3,-9
100030e6:	c119                	beqz	a0,100030ec <_vsnprintf+0x482>
100030e8:	ff26fe13          	and	t3,a3,-14
100030ec:	200e7593          	and	a1,t3,512
100030f0:	1a059463          	bnez	a1,10003298 <_vsnprintf+0x62e>
100030f4:	100e7793          	and	a5,t3,256
100030f8:	004d0c93          	add	s9,s10,4
100030fc:	48079963          	bnez	a5,1000358e <_vsnprintf+0x924>
10003100:	040e7713          	and	a4,t3,64
10003104:	16071e63          	bnez	a4,10003280 <_vsnprintf+0x616>
10003108:	080e7713          	and	a4,t3,128
1000310c:	52070a63          	beqz	a4,10003640 <_vsnprintf+0x9d6>
10003110:	000d5603          	lhu	a2,0(s10)
10003114:	1c061463          	bnez	a2,100032dc <_vsnprintf+0x672>
10003118:	fefe7e13          	and	t3,t3,-17
1000311c:	1c050063          	beqz	a0,100032dc <_vsnprintf+0x672>
10003120:	4781                	li	a5,0
10003122:	0098                	add	a4,sp,64
10003124:	c246                	sw	a7,4(sp)
10003126:	c042                	sw	a6,0(sp)
10003128:	c472                	sw	t3,8(sp)
1000312a:	889a                	mv	a7,t1
1000312c:	4801                	li	a6,0
1000312e:	8626                	mv	a2,s1
10003130:	86d2                	mv	a3,s4
10003132:	85ca                	mv	a1,s2
10003134:	8562                	mv	a0,s8
10003136:	e97fe0ef          	jal	10001fcc <_ntoa_format>
1000313a:	84aa                	mv	s1,a0
1000313c:	8d66                	mv	s10,s9
1000313e:	be41                	j	10002cce <_vsnprintf+0x64>
10003140:	05800793          	li	a5,88
10003144:	08f50063          	beq	a0,a5,100031c4 <_vsnprintf+0x55a>
10003148:	06200793          	li	a5,98
1000314c:	4af51863          	bne	a0,a5,100035fc <_vsnprintf+0x992>
10003150:	4609                	li	a2,2
10003152:	4f81                	li	t6,0
10003154:	4309                	li	t1,2
10003156:	b751                	j	100030da <_vsnprintf+0x470>
10003158:	87a2                	mv	a5,s0
1000315a:	d036                	sw	a3,32(sp)
1000315c:	8d3a                	mv	s10,a4
1000315e:	d246                	sw	a7,36(sp)
10003160:	8426                	mv	s0,s1
10003162:	8dbe                	mv	s11,a5
10003164:	8622                	mv	a2,s0
10003166:	86d2                	mv	a3,s4
10003168:	85ca                	mv	a1,s2
1000316a:	9c02                	jalr	s8
1000316c:	0405                	add	s0,s0,1
1000316e:	40940733          	sub	a4,s0,s1
10003172:	976a                	add	a4,a4,s10
10003174:	00074503          	lbu	a0,0(a4)
10003178:	f575                	bnez	a0,10003164 <_vsnprintf+0x4fa>
1000317a:	5682                	lw	a3,32(sp)
1000317c:	5892                	lw	a7,36(sp)
1000317e:	87ee                	mv	a5,s11
10003180:	8da2                	mv	s11,s0
10003182:	84ee                	mv	s1,s11
10003184:	843e                	mv	s0,a5
10003186:	c285                	beqz	a3,100031a6 <_vsnprintf+0x53c>
10003188:	8da6                	mv	s11,s1
1000318a:	011cfe63          	bgeu	s9,a7,100031a6 <_vsnprintf+0x53c>
1000318e:	98a6                	add	a7,a7,s1
10003190:	419884b3          	sub	s1,a7,s9
10003194:	866e                	mv	a2,s11
10003196:	86d2                	mv	a3,s4
10003198:	0d85                	add	s11,s11,1
1000319a:	85ca                	mv	a1,s2
1000319c:	02000513          	li	a0,32
100031a0:	9c02                	jalr	s8
100031a2:	fe9d99e3          	bne	s11,s1,10003194 <_vsnprintf+0x52a>
100031a6:	4d72                	lw	s10,28(sp)
100031a8:	5db6                	lw	s11,108(sp)
100031aa:	b615                	j	10002cce <_vsnprintf+0x64>
100031ac:	28b69693          	bset	a3,a3,0xb
100031b0:	0206e693          	or	a3,a3,32
100031b4:	b3e5                	j	10002f9c <_vsnprintf+0x332>
100031b6:	00244503          	lbu	a0,2(s0)
100031ba:	0c06e693          	or	a3,a3,192
100031be:	00340713          	add	a4,s0,3
100031c2:	b64d                	j	10002d64 <_vsnprintf+0xfa>
100031c4:	0206e693          	or	a3,a3,32
100031c8:	4641                	li	a2,16
100031ca:	4f81                	li	t6,0
100031cc:	4341                	li	t1,16
100031ce:	b731                	j	100030da <_vsnprintf+0x470>
100031d0:	5682                	lw	a3,32(sp)
100031d2:	5892                	lw	a7,36(sp)
100031d4:	5422                	lw	s0,40(sp)
100031d6:	84ea                	mv	s1,s10
100031d8:	d6f9                	beqz	a3,100031a6 <_vsnprintf+0x53c>
100031da:	b77d                	j	10003188 <_vsnprintf+0x51e>
100031dc:	8da2                	mv	s11,s0
100031de:	5682                	lw	a3,32(sp)
100031e0:	5892                	lw	a7,36(sp)
100031e2:	5422                	lw	s0,40(sp)
100031e4:	84ee                	mv	s1,s11
100031e6:	b745                	j	10003186 <_vsnprintf+0x51c>
100031e8:	471cf263          	bgeu	s9,a7,1000364c <_vsnprintf+0x9e2>
100031ec:	011487b3          	add	a5,s1,a7
100031f0:	41978cb3          	sub	s9,a5,s9
100031f4:	87a2                	mv	a5,s0
100031f6:	8d36                	mv	s10,a3
100031f8:	8426                	mv	s0,s1
100031fa:	d03a                	sw	a4,32(sp)
100031fc:	d246                	sw	a7,36(sp)
100031fe:	d442                	sw	a6,40(sp)
10003200:	84be                	mv	s1,a5
10003202:	8622                	mv	a2,s0
10003204:	86d2                	mv	a3,s4
10003206:	0405                	add	s0,s0,1
10003208:	85ca                	mv	a1,s2
1000320a:	02000513          	li	a0,32
1000320e:	9c02                	jalr	s8
10003210:	ff9419e3          	bne	s0,s9,10003202 <_vsnprintf+0x598>
10003214:	5702                	lw	a4,32(sp)
10003216:	5892                	lw	a7,36(sp)
10003218:	5822                	lw	a6,40(sp)
1000321a:	00074583          	lbu	a1,0(a4)
1000321e:	87a6                	mv	a5,s1
10003220:	86ea                	mv	a3,s10
10003222:	84a2                	mv	s1,s0
10003224:	00188c93          	add	s9,a7,1
10003228:	843e                	mv	s0,a5
1000322a:	852e                	mv	a0,a1
1000322c:	cc059ce3          	bnez	a1,10002f04 <_vsnprintf+0x29a>
10003230:	bf9d                	j	100031a6 <_vsnprintf+0x53c>
10003232:	4785                	li	a5,1
10003234:	0517f963          	bgeu	a5,a7,10003286 <_vsnprintf+0x61c>
10003238:	87ea                	mv	a5,s10
1000323a:	fff48c93          	add	s9,s1,-1
1000323e:	d6ee                	sw	s11,108(sp)
10003240:	8d22                	mv	s10,s0
10003242:	9cc6                	add	s9,s9,a7
10003244:	d046                	sw	a7,32(sp)
10003246:	8426                	mv	s0,s1
10003248:	8dbe                	mv	s11,a5
1000324a:	8622                	mv	a2,s0
1000324c:	86d2                	mv	a3,s4
1000324e:	0405                	add	s0,s0,1
10003250:	85ca                	mv	a1,s2
10003252:	02000513          	li	a0,32
10003256:	9c02                	jalr	s8
10003258:	ff9419e3          	bne	s0,s9,1000324a <_vsnprintf+0x5e0>
1000325c:	87ee                	mv	a5,s11
1000325e:	5882                	lw	a7,32(sp)
10003260:	0007c503          	lbu	a0,0(a5)
10003264:	8da2                	mv	s11,s0
10003266:	866e                	mv	a2,s11
10003268:	86d2                	mv	a3,s4
1000326a:	85ca                	mv	a1,s2
1000326c:	846a                	mv	s0,s10
1000326e:	94c6                	add	s1,s1,a7
10003270:	9c02                	jalr	s8
10003272:	5db6                	lw	s11,108(sp)
10003274:	4d72                	lw	s10,28(sp)
10003276:	bca1                	j	10002cce <_vsnprintf+0x64>
10003278:	4641                	li	a2,16
1000327a:	4f81                	li	t6,0
1000327c:	4341                	li	t1,16
1000327e:	bdb1                	j	100030da <_vsnprintf+0x470>
10003280:	000d4603          	lbu	a2,0(s10)
10003284:	bd41                	j	10003114 <_vsnprintf+0x4aa>
10003286:	000d4503          	lbu	a0,0(s10)
1000328a:	86d2                	mv	a3,s4
1000328c:	8626                	mv	a2,s1
1000328e:	85ca                	mv	a1,s2
10003290:	9c02                	jalr	s8
10003292:	4d72                	lw	s10,28(sp)
10003294:	84e6                	mv	s1,s9
10003296:	bc25                	j	10002cce <_vsnprintf+0x64>
10003298:	0d1d                	add	s10,s10,7
1000329a:	ff8d7d13          	and	s10,s10,-8
1000329e:	000d2283          	lw	t0,0(s10)
100032a2:	004d2c83          	lw	s9,4(s10)
100032a6:	d6ee                	sw	s11,108(sp)
100032a8:	0d21                	add	s10,s10,8
100032aa:	0192e7b3          	or	a5,t0,s9
100032ae:	24079163          	bnez	a5,100034f0 <_vsnprintf+0x886>
100032b2:	fefe7e13          	and	t3,t3,-17
100032b6:	22050d63          	beqz	a0,100034f0 <_vsnprintf+0x886>
100032ba:	4d81                	li	s11,0
100032bc:	0098                	add	a4,sp,64
100032be:	c246                	sw	a7,4(sp)
100032c0:	c042                	sw	a6,0(sp)
100032c2:	87ee                	mv	a5,s11
100032c4:	8626                	mv	a2,s1
100032c6:	c472                	sw	t3,8(sp)
100032c8:	889a                	mv	a7,t1
100032ca:	4801                	li	a6,0
100032cc:	86d2                	mv	a3,s4
100032ce:	85ca                	mv	a1,s2
100032d0:	8562                	mv	a0,s8
100032d2:	cfbfe0ef          	jal	10001fcc <_ntoa_format>
100032d6:	84aa                	mv	s1,a0
100032d8:	5db6                	lw	s11,108(sp)
100032da:	bad5                	j	10002cce <_vsnprintf+0x64>
100032dc:	06100713          	li	a4,97
100032e0:	485e5693          	bext	a3,t3,0x5
100032e4:	c299                	beqz	a3,100032ea <_vsnprintf+0x680>
100032e6:	04100713          	li	a4,65
100032ea:	0ff77f13          	zext.b	t5,a4
100032ee:	4525                	li	a0,9
100032f0:	0098                	add	a4,sp,64
100032f2:	1f59                	add	t5,t5,-10
100032f4:	02000e93          	li	t4,32
100032f8:	a00d                	j	1000331a <_vsnprintf+0x6b0>
100032fa:	03068693          	add	a3,a3,48
100032fe:	0ff6f693          	zext.b	a3,a3
10003302:	0785                	add	a5,a5,1
10003304:	00f705b3          	add	a1,a4,a5
10003308:	fed58fa3          	sb	a3,-1(a1)
1000330c:	026656b3          	divu	a3,a2,t1
10003310:	e0666ae3          	bltu	a2,t1,10003124 <_vsnprintf+0x4ba>
10003314:	e1d788e3          	beq	a5,t4,10003124 <_vsnprintf+0x4ba>
10003318:	8636                	mv	a2,a3
1000331a:	026675b3          	remu	a1,a2,t1
1000331e:	0ff5f693          	zext.b	a3,a1
10003322:	fcb57ce3          	bgeu	a0,a1,100032fa <_vsnprintf+0x690>
10003326:	96fa                	add	a3,a3,t5
10003328:	0ff6f693          	zext.b	a3,a3
1000332c:	bfd9                	j	10003302 <_vsnprintf+0x698>
1000332e:	06900793          	li	a5,105
10003332:	fef6fe13          	and	t3,a3,-17
10003336:	30f51d63          	bne	a0,a5,10003650 <_vsnprintf+0x9e6>
1000333a:	4006f613          	and	a2,a3,1024
1000333e:	c619                	beqz	a2,1000334c <_vsnprintf+0x6e2>
10003340:	ffe6fe13          	and	t3,a3,-2
10003344:	fefe7e13          	and	t3,t3,-17
10003348:	40000613          	li	a2,1024
1000334c:	200e7693          	and	a3,t3,512
10003350:	eeb9                	bnez	a3,100033ae <_vsnprintf+0x744>
10003352:	100e7793          	and	a5,t3,256
10003356:	004d0c93          	add	s9,s10,4
1000335a:	14079063          	bnez	a5,1000349a <_vsnprintf+0x830>
1000335e:	040e7713          	and	a4,t3,64
10003362:	10070e63          	beqz	a4,1000347e <_vsnprintf+0x814>
10003366:	000d4703          	lbu	a4,0(s10)
1000336a:	86ba                	mv	a3,a4
1000336c:	01f75513          	srl	a0,a4,0x1f
10003370:	16070c63          	beqz	a4,100034e8 <_vsnprintf+0x87e>
10003374:	8636                	mv	a2,a3
10003376:	0098                	add	a4,sp,64
10003378:	45a9                	li	a1,10
1000337a:	4ea5                	li	t4,9
1000337c:	02000f13          	li	t5,32
10003380:	a019                	j	10003386 <_vsnprintf+0x71c>
10003382:	03e78063          	beq	a5,t5,100033a2 <_vsnprintf+0x738>
10003386:	02b676b3          	remu	a3,a2,a1
1000338a:	0785                	add	a5,a5,1
1000338c:	00f70fb3          	add	t6,a4,a5
10003390:	8332                	mv	t1,a2
10003392:	03068693          	add	a3,a3,48
10003396:	fedf8fa3          	sb	a3,-1(t6)
1000339a:	02b65633          	divu	a2,a2,a1
1000339e:	fe6ee2e3          	bltu	t4,t1,10003382 <_vsnprintf+0x718>
100033a2:	c246                	sw	a7,4(sp)
100033a4:	c042                	sw	a6,0(sp)
100033a6:	c472                	sw	t3,8(sp)
100033a8:	48a9                	li	a7,10
100033aa:	882a                	mv	a6,a0
100033ac:	b349                	j	1000312e <_vsnprintf+0x4c4>
100033ae:	0d1d                	add	s10,s10,7
100033b0:	ff8d7d13          	and	s10,s10,-8
100033b4:	004d2683          	lw	a3,4(s10)
100033b8:	000d2583          	lw	a1,0(s10)
100033bc:	0d21                	add	s10,s10,8
100033be:	01f6df93          	srl	t6,a3,0x1f
100033c2:	00d5e7b3          	or	a5,a1,a3
100033c6:	1a078f63          	beqz	a5,10003584 <_vsnprintf+0x91a>
100033ca:	41f6d793          	sra	a5,a3,0x1f
100033ce:	8dbd                	xor	a1,a1,a5
100033d0:	40f58733          	sub	a4,a1,a5
100033d4:	8ebd                	xor	a3,a3,a5
100033d6:	00e5b633          	sltu	a2,a1,a4
100033da:	40f687b3          	sub	a5,a3,a5
100033de:	d6ee                	sw	s11,108(sp)
100033e0:	85ba                	mv	a1,a4
100033e2:	40c786b3          	sub	a3,a5,a2
100033e6:	ccccd537          	lui	a0,0xccccd
100033ea:	ccccdeb7          	lui	t4,0xccccd
100033ee:	4781                	li	a5,0
100033f0:	0098                	add	a4,sp,64
100033f2:	4f15                	li	t5,5
100033f4:	ccd50513          	add	a0,a0,-819 # cccccccd <__StackTop+0xacc4accd>
100033f8:	ccce8e93          	add	t4,t4,-820 # cccccccc <__StackTop+0xacc4accc>
100033fc:	02000293          	li	t0,32
10003400:	8cb6                	mv	s9,a3
10003402:	019586b3          	add	a3,a1,s9
10003406:	00b6b633          	sltu	a2,a3,a1
1000340a:	9636                	add	a2,a2,a3
1000340c:	03e67633          	remu	a2,a2,t5
10003410:	8366                	mv	t1,s9
10003412:	0785                	add	a5,a5,1
10003414:	00f703b3          	add	t2,a4,a5
10003418:	80ae                	mv	ra,a1
1000341a:	40c58633          	sub	a2,a1,a2
1000341e:	00c5b6b3          	sltu	a3,a1,a2
10003422:	40dc86b3          	sub	a3,s9,a3
10003426:	03d60db3          	mul	s11,a2,t4
1000342a:	02a686b3          	mul	a3,a3,a0
1000342e:	02a63cb3          	mulhu	s9,a2,a0
10003432:	96ee                	add	a3,a3,s11
10003434:	02a60633          	mul	a2,a2,a0
10003438:	96e6                	add	a3,a3,s9
1000343a:	01f69d93          	sll	s11,a3,0x1f
1000343e:	0016dc93          	srl	s9,a3,0x1
10003442:	8205                	srl	a2,a2,0x1
10003444:	00cde633          	or	a2,s11,a2
10003448:	20c646b3          	sh2add	a3,a2,a2
1000344c:	0686                	sll	a3,a3,0x1
1000344e:	40d586b3          	sub	a3,a1,a3
10003452:	03068693          	add	a3,a3,48
10003456:	fed38fa3          	sb	a3,-1(t2)
1000345a:	85b2                	mv	a1,a2
1000345c:	00030b63          	beqz	t1,10003472 <_vsnprintf+0x808>
10003460:	fa5791e3          	bne	a5,t0,10003402 <_vsnprintf+0x798>
10003464:	5db6                	lw	s11,108(sp)
10003466:	c246                	sw	a7,4(sp)
10003468:	c042                	sw	a6,0(sp)
1000346a:	c472                	sw	t3,8(sp)
1000346c:	48a9                	li	a7,10
1000346e:	887e                	mv	a6,t6
10003470:	b41d                	j	10002e96 <_vsnprintf+0x22c>
10003472:	46a5                	li	a3,9
10003474:	fe16f8e3          	bgeu	a3,ra,10003464 <_vsnprintf+0x7fa>
10003478:	f85795e3          	bne	a5,t0,10003402 <_vsnprintf+0x798>
1000347c:	b7e5                	j	10003464 <_vsnprintf+0x7fa>
1000347e:	080e7713          	and	a4,t3,128
10003482:	18070463          	beqz	a4,1000360a <_vsnprintf+0x9a0>
10003486:	000d1703          	lh	a4,0(s10)
1000348a:	40f75593          	sra	a1,a4,0xf
1000348e:	00b746b3          	xor	a3,a4,a1
10003492:	8e8d                	sub	a3,a3,a1
10003494:	0806c6b3          	zext.h	a3,a3
10003498:	bdd1                	j	1000336c <_vsnprintf+0x702>
1000349a:	000d2783          	lw	a5,0(s10)
1000349e:	01f7d513          	srl	a0,a5,0x1f
100034a2:	18078b63          	beqz	a5,10003638 <_vsnprintf+0x9ce>
100034a6:	40f00633          	neg	a2,a5
100034aa:	0ac7e633          	max	a2,a5,a2
100034ae:	0098                	add	a4,sp,64
100034b0:	45a9                	li	a1,10
100034b2:	4ea5                	li	t4,9
100034b4:	02000f13          	li	t5,32
100034b8:	a019                	j	100034be <_vsnprintf+0x854>
100034ba:	03e68063          	beq	a3,t5,100034da <_vsnprintf+0x870>
100034be:	02b677b3          	remu	a5,a2,a1
100034c2:	0685                	add	a3,a3,1
100034c4:	00d70fb3          	add	t6,a4,a3
100034c8:	8332                	mv	t1,a2
100034ca:	03078793          	add	a5,a5,48
100034ce:	feff8fa3          	sb	a5,-1(t6)
100034d2:	02b65633          	divu	a2,a2,a1
100034d6:	fe6ee2e3          	bltu	t4,t1,100034ba <_vsnprintf+0x850>
100034da:	c246                	sw	a7,4(sp)
100034dc:	c042                	sw	a6,0(sp)
100034de:	c472                	sw	t3,8(sp)
100034e0:	48a9                	li	a7,10
100034e2:	882a                	mv	a6,a0
100034e4:	87b6                	mv	a5,a3
100034e6:	b1a1                	j	1000312e <_vsnprintf+0x4c4>
100034e8:	0098                	add	a4,sp,64
100034ea:	ea061ce3          	bnez	a2,100033a2 <_vsnprintf+0x738>
100034ee:	b561                	j	10003376 <_vsnprintf+0x70c>
100034f0:	06100793          	li	a5,97
100034f4:	485e5713          	bext	a4,t3,0x5
100034f8:	c319                	beqz	a4,100034fe <_vsnprintf+0x894>
100034fa:	04100793          	li	a5,65
100034fe:	0ff7f693          	zext.b	a3,a5
10003502:	4d81                	li	s11,0
10003504:	ff668793          	add	a5,a3,-10
10003508:	0098                	add	a4,sp,64
1000350a:	86ea                	mv	a3,s10
1000350c:	ce26                	sw	s1,28(sp)
1000350e:	d862                	sw	s8,48(sp)
10003510:	da4a                	sw	s2,52(sp)
10003512:	dc52                	sw	s4,56(sp)
10003514:	de22                	sw	s0,60(sp)
10003516:	8d6e                	mv	s10,s11
10003518:	d046                	sw	a7,32(sp)
1000351a:	d242                	sw	a6,36(sp)
1000351c:	d472                	sw	t3,40(sp)
1000351e:	d61a                	sw	t1,44(sp)
10003520:	8496                	mv	s1,t0
10003522:	8932                	mv	s2,a2
10003524:	8a7e                	mv	s4,t6
10003526:	8c3a                	mv	s8,a4
10003528:	843e                	mv	s0,a5
1000352a:	8db6                	mv	s11,a3
1000352c:	a815                	j	10003560 <_vsnprintf+0x8f6>
1000352e:	03050793          	add	a5,a0,48
10003532:	0ff7f793          	zext.b	a5,a5
10003536:	0d05                	add	s10,s10,1
10003538:	01ac0833          	add	a6,s8,s10
1000353c:	864a                	mv	a2,s2
1000353e:	4681                	li	a3,0
10003540:	8526                	mv	a0,s1
10003542:	85e6                	mv	a1,s9
10003544:	fef80fa3          	sb	a5,-1(a6)
10003548:	0fffe097          	auipc	ra,0xfffe
1000354c:	94c080e7          	jalr	-1716(ra) # 20000e94 <__udivdi3>
10003550:	0d9a0463          	beq	s4,s9,10003618 <_vsnprintf+0x9ae>
10003554:	02000793          	li	a5,32
10003558:	0cfd0263          	beq	s10,a5,1000361c <_vsnprintf+0x9b2>
1000355c:	84aa                	mv	s1,a0
1000355e:	8cae                	mv	s9,a1
10003560:	864a                	mv	a2,s2
10003562:	4681                	li	a3,0
10003564:	8526                	mv	a0,s1
10003566:	85e6                	mv	a1,s9
10003568:	0fffe097          	auipc	ra,0xfffe
1000356c:	cb6080e7          	jalr	-842(ra) # 2000121e <__umoddi3>
10003570:	0ff57513          	zext.b	a0,a0
10003574:	47a5                	li	a5,9
10003576:	faa7fce3          	bgeu	a5,a0,1000352e <_vsnprintf+0x8c4>
1000357a:	008507b3          	add	a5,a0,s0
1000357e:	0ff7f793          	zext.b	a5,a5
10003582:	bf55                	j	10003536 <_vsnprintf+0x8cc>
10003584:	e269                	bnez	a2,10003646 <_vsnprintf+0x9dc>
10003586:	d6ee                	sw	s11,108(sp)
10003588:	4581                	li	a1,0
1000358a:	4681                	li	a3,0
1000358c:	bda9                	j	100033e6 <_vsnprintf+0x77c>
1000358e:	000d2783          	lw	a5,0(s10)
10003592:	e789                	bnez	a5,1000359c <_vsnprintf+0x932>
10003594:	fefe7e13          	and	t3,t3,-17
10003598:	0098                	add	a4,sp,64
1000359a:	e931                	bnez	a0,100035ee <_vsnprintf+0x984>
1000359c:	06100713          	li	a4,97
100035a0:	485e5693          	bext	a3,t3,0x5
100035a4:	c299                	beqz	a3,100035aa <_vsnprintf+0x940>
100035a6:	04100713          	li	a4,65
100035aa:	0ff77f13          	zext.b	t5,a4
100035ae:	4ea5                	li	t4,9
100035b0:	0098                	add	a4,sp,64
100035b2:	1f59                	add	t5,t5,-10
100035b4:	02000513          	li	a0,32
100035b8:	a00d                	j	100035da <_vsnprintf+0x970>
100035ba:	03068693          	add	a3,a3,48
100035be:	0ff6f693          	zext.b	a3,a3
100035c2:	0585                	add	a1,a1,1
100035c4:	00b70633          	add	a2,a4,a1
100035c8:	fed60fa3          	sb	a3,-1(a2)
100035cc:	0267d6b3          	divu	a3,a5,t1
100035d0:	0067ef63          	bltu	a5,t1,100035ee <_vsnprintf+0x984>
100035d4:	00a58d63          	beq	a1,a0,100035ee <_vsnprintf+0x984>
100035d8:	87b6                	mv	a5,a3
100035da:	0267f633          	remu	a2,a5,t1
100035de:	0ff67693          	zext.b	a3,a2
100035e2:	fccefce3          	bgeu	t4,a2,100035ba <_vsnprintf+0x950>
100035e6:	96fa                	add	a3,a3,t5
100035e8:	0ff6f693          	zext.b	a3,a3
100035ec:	bfd9                	j	100035c2 <_vsnprintf+0x958>
100035ee:	c246                	sw	a7,4(sp)
100035f0:	c042                	sw	a6,0(sp)
100035f2:	c472                	sw	t3,8(sp)
100035f4:	889a                	mv	a7,t1
100035f6:	4801                	li	a6,0
100035f8:	87ae                	mv	a5,a1
100035fa:	be15                	j	1000312e <_vsnprintf+0x4c4>
100035fc:	4006f613          	and	a2,a3,1024
10003600:	fef6fe13          	and	t3,a3,-17
10003604:	d40604e3          	beqz	a2,1000334c <_vsnprintf+0x6e2>
10003608:	bb25                	j	10003340 <_vsnprintf+0x6d6>
1000360a:	000d2703          	lw	a4,0(s10)
1000360e:	40e006b3          	neg	a3,a4
10003612:	0ad766b3          	max	a3,a4,a3
10003616:	bb99                	j	1000336c <_vsnprintf+0x702>
10003618:	f324fee3          	bgeu	s1,s2,10003554 <_vsnprintf+0x8ea>
1000361c:	87ee                	mv	a5,s11
1000361e:	8762                	mv	a4,s8
10003620:	8dea                	mv	s11,s10
10003622:	44f2                	lw	s1,28(sp)
10003624:	5882                	lw	a7,32(sp)
10003626:	5812                	lw	a6,36(sp)
10003628:	5e22                	lw	t3,40(sp)
1000362a:	5332                	lw	t1,44(sp)
1000362c:	5952                	lw	s2,52(sp)
1000362e:	5a62                	lw	s4,56(sp)
10003630:	5472                	lw	s0,60(sp)
10003632:	5c42                	lw	s8,48(sp)
10003634:	8d3e                	mv	s10,a5
10003636:	b161                	j	100032be <_vsnprintf+0x654>
10003638:	0098                	add	a4,sp,64
1000363a:	ea0610e3          	bnez	a2,100034da <_vsnprintf+0x870>
1000363e:	bd85                	j	100034ae <_vsnprintf+0x844>
10003640:	000d2603          	lw	a2,0(s10)
10003644:	bcc1                	j	10003114 <_vsnprintf+0x4aa>
10003646:	4781                	li	a5,0
10003648:	0098                	add	a4,sp,64
1000364a:	bd31                	j	10003466 <_vsnprintf+0x7fc>
1000364c:	0c85                	add	s9,s9,1
1000364e:	bef1                	j	1000322a <_vsnprintf+0x5c0>
10003650:	86f2                	mv	a3,t3
10003652:	4629                	li	a2,10
10003654:	4f81                	li	t6,0
10003656:	4329                	li	t1,10
10003658:	b449                	j	100030da <_vsnprintf+0x470>

1000365a <vfctprintf>:
1000365a:	1101                	add	sp,sp,-32
1000365c:	882a                	mv	a6,a0
1000365e:	10002537          	lui	a0,0x10002
10003662:	87ae                	mv	a5,a1
10003664:	8736                	mv	a4,a3
10003666:	002c                	add	a1,sp,8
10003668:	86b2                	mv	a3,a2
1000366a:	2a450513          	add	a0,a0,676 # 100022a4 <_out_fct>
1000366e:	567d                	li	a2,-1
10003670:	ce06                	sw	ra,28(sp)
10003672:	c442                	sw	a6,8(sp)
10003674:	c63e                	sw	a5,12(sp)
10003676:	df4ff0ef          	jal	10002c6a <_vsnprintf>
1000367a:	40f2                	lw	ra,28(sp)
1000367c:	6105                	add	sp,sp,32
1000367e:	8082                	ret

10003680 <weak_raw_vprintf>:
10003680:	81b1a783          	lw	a5,-2021(gp) # 20004394 <lazy_vsnprintf>
10003684:	1101                	add	sp,sp,-32
10003686:	ce06                	sw	ra,28(sp)
10003688:	cf91                	beqz	a5,100036a4 <weak_raw_vprintf+0x24>
1000368a:	86aa                	mv	a3,a0
1000368c:	10002537          	lui	a0,0x10002
10003690:	872e                	mv	a4,a1
10003692:	567d                	li	a2,-1
10003694:	006c                	add	a1,sp,12
10003696:	29c50513          	add	a0,a0,668 # 1000229c <_out_char>
1000369a:	9782                	jalr	a5
1000369c:	40f2                	lw	ra,28(sp)
1000369e:	4505                	li	a0,1
100036a0:	6105                	add	sp,sp,32
100036a2:	8082                	ret
100036a4:	2655                	jal	10003a48 <__wrap_puts>
100036a6:	40f2                	lw	ra,28(sp)
100036a8:	4501                	li	a0,0
100036aa:	6105                	add	sp,sp,32
100036ac:	8082                	ret

100036ae <runtime_init_per_core_h3_irq_registers>:
100036ae:	450d                	li	a0,3
100036b0:	be251073          	csrw	0xbe2,a0
100036b4:	157d                	add	a0,a0,-1
100036b6:	fe055de3          	bgez	a0,100036b0 <runtime_init_per_core_h3_irq_registers+0x2>
100036ba:	6505                	lui	a0,0x1
100036bc:	80050513          	add	a0,a0,-2048 # 800 <HeapSize>
100036c0:	30451073          	csrw	mie,a0
100036c4:	30046073          	csrs	mstatus,8
100036c8:	34001073          	csrw	mscratch,zero
100036cc:	8082                	ret

100036ce <_exit>:
100036ce:	9002                	ebreak
100036d0:	bffd                	j	100036ce <_exit>

100036d2 <exit>:
100036d2:	1141                	add	sp,sp,-16
100036d4:	c606                	sw	ra,12(sp)
100036d6:	3fe5                	jal	100036ce <_exit>

100036d8 <runtime_init>:
100036d8:	1141                	add	sp,sp,-16
100036da:	c422                	sw	s0,8(sp)
100036dc:	c226                	sw	s1,4(sp)
100036de:	c606                	sw	ra,12(sp)
100036e0:	10007437          	lui	s0,0x10007
100036e4:	e7cfe0ef          	jal	10001d60 <runtime_run_initializers>
100036e8:	100074b7          	lui	s1,0x10007
100036ec:	fd840793          	add	a5,s0,-40 # 10006fd8 <__frame_dummy_init_array_entry>
100036f0:	fe048493          	add	s1,s1,-32 # 10006fe0 <__EH_FRAME_BEGIN__>
100036f4:	0097f963          	bgeu	a5,s1,10003706 <runtime_init+0x2e>
100036f8:	fd840413          	add	s0,s0,-40
100036fc:	401c                	lw	a5,0(s0)
100036fe:	0411                	add	s0,s0,4
10003700:	9782                	jalr	a5
10003702:	fe946de3          	bltu	s0,s1,100036fc <runtime_init+0x24>
10003706:	40b2                	lw	ra,12(sp)
10003708:	4422                	lw	s0,8(sp)
1000370a:	4492                	lw	s1,4(sp)
1000370c:	0141                	add	sp,sp,16
1000370e:	8082                	ret

10003710 <stdio_out_chars_no_crlf>:
10003710:	411c                	lw	a5,0(a0)
10003712:	852e                	mv	a0,a1
10003714:	85b2                	mv	a1,a2
10003716:	8782                	jr	a5

10003718 <stdio_out_chars_crlf>:
10003718:	01554783          	lbu	a5,21(a0)
1000371c:	1101                	add	sp,sp,-32
1000371e:	c84a                	sw	s2,16(sp)
10003720:	c64e                	sw	s3,12(sp)
10003722:	c452                	sw	s4,8(sp)
10003724:	ce06                	sw	ra,28(sp)
10003726:	89aa                	mv	s3,a0
10003728:	8a2e                	mv	s4,a1
1000372a:	8932                	mv	s2,a2
1000372c:	c3dd                	beqz	a5,100037d2 <stdio_out_chars_crlf+0xba>
1000372e:	08c05c63          	blez	a2,100037c6 <stdio_out_chars_crlf+0xae>
10003732:	cc22                	sw	s0,24(sp)
10003734:	ca26                	sw	s1,20(sp)
10003736:	c256                	sw	s5,4(sp)
10003738:	c05a                	sw	s6,0(sp)
1000373a:	842e                	mv	s0,a1
1000373c:	00044683          	lbu	a3,0(s0)
10003740:	4701                	li	a4,0
10003742:	4aa9                	li	s5,10
10003744:	01454783          	lbu	a5,20(a0)
10003748:	4601                	li	a2,0
1000374a:	10007b37          	lui	s6,0x10007
1000374e:	00170493          	add	s1,a4,1
10003752:	03568163          	beq	a3,s5,10003774 <stdio_out_chars_crlf+0x5c>
10003756:	0405                	add	s0,s0,1
10003758:	04990263          	beq	s2,s1,1000379c <stdio_out_chars_crlf+0x84>
1000375c:	fff44783          	lbu	a5,-1(s0)
10003760:	00044683          	lbu	a3,0(s0)
10003764:	8726                	mv	a4,s1
10003766:	17cd                	add	a5,a5,-13
10003768:	0017b793          	seqz	a5,a5
1000376c:	00170493          	add	s1,a4,1
10003770:	ff5693e3          	bne	a3,s5,10003756 <stdio_out_chars_crlf+0x3e>
10003774:	f3ed                	bnez	a5,10003756 <stdio_out_chars_crlf+0x3e>
10003776:	40c705b3          	sub	a1,a4,a2
1000377a:	00ca0533          	add	a0,s4,a2
1000377e:	00e65563          	bge	a2,a4,10003788 <stdio_out_chars_crlf+0x70>
10003782:	0009a783          	lw	a5,0(s3)
10003786:	9782                	jalr	a5
10003788:	0009a783          	lw	a5,0(s3)
1000378c:	4589                	li	a1,2
1000378e:	718b0513          	add	a0,s6,1816 # 10007718 <crlf_str.0>
10003792:	9782                	jalr	a5
10003794:	8626                	mv	a2,s1
10003796:	0405                	add	s0,s0,1
10003798:	fc9912e3          	bne	s2,s1,1000375c <stdio_out_chars_crlf+0x44>
1000379c:	01265963          	bge	a2,s2,100037ae <stdio_out_chars_crlf+0x96>
100037a0:	0009a783          	lw	a5,0(s3)
100037a4:	40c905b3          	sub	a1,s2,a2
100037a8:	00ca0533          	add	a0,s4,a2
100037ac:	9782                	jalr	a5
100037ae:	9a4a                	add	s4,s4,s2
100037b0:	fffa4783          	lbu	a5,-1(s4)
100037b4:	4462                	lw	s0,24(sp)
100037b6:	44d2                	lw	s1,20(sp)
100037b8:	17cd                	add	a5,a5,-13
100037ba:	4a92                	lw	s5,4(sp)
100037bc:	4b02                	lw	s6,0(sp)
100037be:	0017b793          	seqz	a5,a5
100037c2:	00f98a23          	sb	a5,20(s3)
100037c6:	40f2                	lw	ra,28(sp)
100037c8:	4942                	lw	s2,16(sp)
100037ca:	49b2                	lw	s3,12(sp)
100037cc:	4a22                	lw	s4,8(sp)
100037ce:	6105                	add	sp,sp,32
100037d0:	8082                	ret
100037d2:	411c                	lw	a5,0(a0)
100037d4:	40f2                	lw	ra,28(sp)
100037d6:	4942                	lw	s2,16(sp)
100037d8:	49b2                	lw	s3,12(sp)
100037da:	8552                	mv	a0,s4
100037dc:	4a22                	lw	s4,8(sp)
100037de:	85b2                	mv	a1,a2
100037e0:	6105                	add	sp,sp,32
100037e2:	8782                	jr	a5

100037e4 <stdio_buffered_printer>:
100037e4:	419c                	lw	a5,0(a1)
100037e6:	1101                	add	sp,sp,-32
100037e8:	ca26                	sw	s1,20(sp)
100037ea:	c84a                	sw	s2,16(sp)
100037ec:	ce06                	sw	ra,28(sp)
100037ee:	08000713          	li	a4,128
100037f2:	84ae                	mv	s1,a1
100037f4:	892a                	mv	s2,a0
100037f6:	00e78d63          	beq	a5,a4,10003810 <stdio_buffered_printer+0x2c>
100037fa:	00178713          	add	a4,a5,1
100037fe:	c098                	sw	a4,0(s1)
10003800:	94be                	add	s1,s1,a5
10003802:	01248223          	sb	s2,4(s1)
10003806:	40f2                	lw	ra,28(sp)
10003808:	44d2                	lw	s1,20(sp)
1000380a:	4942                	lw	s2,16(sp)
1000380c:	6105                	add	sp,sp,32
1000380e:	8082                	ret
10003810:	cc22                	sw	s0,24(sp)
10003812:	8231a403          	lw	s0,-2013(gp) # 2000439c <drivers>
10003816:	c64e                	sw	s3,12(sp)
10003818:	c452                	sw	s4,8(sp)
1000381a:	00458993          	add	s3,a1,4
1000381e:	e01d                	bnez	s0,10003844 <stdio_buffered_printer+0x60>
10003820:	4705                	li	a4,1
10003822:	4781                	li	a5,0
10003824:	4462                	lw	s0,24(sp)
10003826:	49b2                	lw	s3,12(sp)
10003828:	4a22                	lw	s4,8(sp)
1000382a:	c098                	sw	a4,0(s1)
1000382c:	94be                	add	s1,s1,a5
1000382e:	01248223          	sb	s2,4(s1)
10003832:	40f2                	lw	ra,28(sp)
10003834:	44d2                	lw	s1,20(sp)
10003836:	4942                	lw	s2,16(sp)
10003838:	6105                	add	sp,sp,32
1000383a:	8082                	ret
1000383c:	4090                	lw	a2,0(s1)
1000383e:	3de9                	jal	10003718 <stdio_out_chars_crlf>
10003840:	4800                	lw	s0,16(s0)
10003842:	dc79                	beqz	s0,10003820 <stdio_buffered_printer+0x3c>
10003844:	401c                	lw	a5,0(s0)
10003846:	85ce                	mv	a1,s3
10003848:	8522                	mv	a0,s0
1000384a:	dbfd                	beqz	a5,10003840 <stdio_buffered_printer+0x5c>
1000384c:	81f1a783          	lw	a5,-2017(gp) # 20004398 <filter>
10003850:	d7f5                	beqz	a5,1000383c <stdio_buffered_printer+0x58>
10003852:	fe8797e3          	bne	a5,s0,10003840 <stdio_buffered_printer+0x5c>
10003856:	4090                	lw	a2,0(s1)
10003858:	35c1                	jal	10003718 <stdio_out_chars_crlf>
1000385a:	b7dd                	j	10003840 <stdio_buffered_printer+0x5c>

1000385c <stdio_put_string>:
1000385c:	7139                	add	sp,sp,-64
1000385e:	dc22                	sw	s0,56(sp)
10003860:	da26                	sw	s1,52(sp)
10003862:	d84a                	sw	s2,48(sp)
10003864:	d452                	sw	s4,40(sp)
10003866:	de06                	sw	ra,60(sp)
10003868:	8a32                	mv	s4,a2
1000386a:	d64e                	sw	s3,44(sp)
1000386c:	d256                	sw	s5,36(sp)
1000386e:	d05a                	sw	s6,32(sp)
10003870:	892a                	mv	s2,a0
10003872:	84ae                	mv	s1,a1
10003874:	8436                	mv	s0,a3
10003876:	852fe0ef          	jal	100018c8 <time_us_64>
1000387a:	000f47b7          	lui	a5,0xf4
1000387e:	24078793          	add	a5,a5,576 # f4240 <HeapSize+0xf3a40>
10003882:	97aa                	add	a5,a5,a0
10003884:	00a7b533          	sltu	a0,a5,a0
10003888:	80000737          	lui	a4,0x80000
1000388c:	00b50633          	add	a2,a0,a1
10003890:	177d                	add	a4,a4,-1 # 7fffffff <__StackTop+0x5ff7dfff>
10003892:	85be                	mv	a1,a5
10003894:	00c77463          	bgeu	a4,a2,1000389c <stdio_put_string+0x40>
10003898:	55fd                	li	a1,-1
1000389a:	863a                	mv	a2,a4
1000389c:	20003ab7          	lui	s5,0x20003
100038a0:	638a8513          	add	a0,s5,1592 # 20003638 <print_mutex>
100038a4:	0fffd097          	auipc	ra,0xfffd
100038a8:	84e080e7          	jalr	-1970(ra) # 200000f2 <mutex_try_enter_block_until>
100038ac:	57fd                	li	a5,-1
100038ae:	8b2a                	mv	s6,a0
100038b0:	0af48163          	beq	s1,a5,10003952 <stdio_put_string+0xf6>
100038b4:	c439                	beqz	s0,10003902 <stdio_put_string+0xa6>
100038b6:	100039b7          	lui	s3,0x10003
100038ba:	71898993          	add	s3,s3,1816 # 10003718 <stdio_out_chars_crlf>
100038be:	8231a403          	lw	s0,-2013(gp) # 2000439c <drivers>
100038c2:	c01d                	beqz	s0,100038e8 <stdio_put_string+0x8c>
100038c4:	040a1463          	bnez	s4,1000390c <stdio_put_string+0xb0>
100038c8:	a019                	j	100038ce <stdio_put_string+0x72>
100038ca:	4800                	lw	s0,16(s0)
100038cc:	cc11                	beqz	s0,100038e8 <stdio_put_string+0x8c>
100038ce:	401c                	lw	a5,0(s0)
100038d0:	8626                	mv	a2,s1
100038d2:	85ca                	mv	a1,s2
100038d4:	8522                	mv	a0,s0
100038d6:	dbf5                	beqz	a5,100038ca <stdio_put_string+0x6e>
100038d8:	81f1a783          	lw	a5,-2017(gp) # 20004398 <filter>
100038dc:	c399                	beqz	a5,100038e2 <stdio_put_string+0x86>
100038de:	fef416e3          	bne	s0,a5,100038ca <stdio_put_string+0x6e>
100038e2:	9982                	jalr	s3
100038e4:	4800                	lw	s0,16(s0)
100038e6:	f465                	bnez	s0,100038ce <stdio_put_string+0x72>
100038e8:	040b1e63          	bnez	s6,10003944 <stdio_put_string+0xe8>
100038ec:	50f2                	lw	ra,60(sp)
100038ee:	5462                	lw	s0,56(sp)
100038f0:	5942                	lw	s2,48(sp)
100038f2:	59b2                	lw	s3,44(sp)
100038f4:	5a22                	lw	s4,40(sp)
100038f6:	5a92                	lw	s5,36(sp)
100038f8:	5b02                	lw	s6,32(sp)
100038fa:	8526                	mv	a0,s1
100038fc:	54d2                	lw	s1,52(sp)
100038fe:	6121                	add	sp,sp,64
10003900:	8082                	ret
10003902:	100039b7          	lui	s3,0x10003
10003906:	71098993          	add	s3,s3,1808 # 10003710 <stdio_out_chars_no_crlf>
1000390a:	bf55                	j	100038be <stdio_put_string+0x62>
1000390c:	ce5e                	sw	s7,28(sp)
1000390e:	4ba9                	li	s7,10
10003910:	a019                	j	10003916 <stdio_put_string+0xba>
10003912:	4800                	lw	s0,16(s0)
10003914:	c40d                	beqz	s0,1000393e <stdio_put_string+0xe2>
10003916:	401c                	lw	a5,0(s0)
10003918:	8626                	mv	a2,s1
1000391a:	85ca                	mv	a1,s2
1000391c:	8522                	mv	a0,s0
1000391e:	dbf5                	beqz	a5,10003912 <stdio_put_string+0xb6>
10003920:	81f1a783          	lw	a5,-2017(gp) # 20004398 <filter>
10003924:	c399                	beqz	a5,1000392a <stdio_put_string+0xce>
10003926:	fe8796e3          	bne	a5,s0,10003912 <stdio_put_string+0xb6>
1000392a:	9982                	jalr	s3
1000392c:	8522                	mv	a0,s0
1000392e:	4605                	li	a2,1
10003930:	00f10593          	add	a1,sp,15
10003934:	017107a3          	sb	s7,15(sp)
10003938:	9982                	jalr	s3
1000393a:	4800                	lw	s0,16(s0)
1000393c:	fc69                	bnez	s0,10003916 <stdio_put_string+0xba>
1000393e:	4bf2                	lw	s7,28(sp)
10003940:	fa0b06e3          	beqz	s6,100038ec <stdio_put_string+0x90>
10003944:	638a8513          	add	a0,s5,1592
10003948:	0fffd097          	auipc	ra,0xfffd
1000394c:	850080e7          	jalr	-1968(ra) # 20000198 <mutex_exit>
10003950:	bf71                	j	100038ec <stdio_put_string+0x90>
10003952:	854a                	mv	a0,s2
10003954:	5e6030ef          	jal	10006f3a <strlen>
10003958:	84aa                	mv	s1,a0
1000395a:	bfa9                	j	100038b4 <stdio_put_string+0x58>

1000395c <stdio_set_driver_enabled>:
1000395c:	8231a783          	lw	a5,-2013(gp) # 2000439c <drivers>
10003960:	c78d                	beqz	a5,1000398a <stdio_set_driver_enabled+0x2e>
10003962:	00a79563          	bne	a5,a0,1000396c <stdio_set_driver_enabled+0x10>
10003966:	a811                	j	1000397a <stdio_set_driver_enabled+0x1e>
10003968:	00f50b63          	beq	a0,a5,1000397e <stdio_set_driver_enabled+0x22>
1000396c:	01078713          	add	a4,a5,16
10003970:	4b9c                	lw	a5,16(a5)
10003972:	fbfd                	bnez	a5,10003968 <stdio_set_driver_enabled+0xc>
10003974:	c191                	beqz	a1,10003978 <stdio_set_driver_enabled+0x1c>
10003976:	c308                	sw	a0,0(a4)
10003978:	8082                	ret
1000397a:	82318713          	add	a4,gp,-2013 # 2000439c <drivers>
1000397e:	fded                	bnez	a1,10003978 <stdio_set_driver_enabled+0x1c>
10003980:	491c                	lw	a5,16(a0)
10003982:	c31c                	sw	a5,0(a4)
10003984:	00052823          	sw	zero,16(a0)
10003988:	8082                	ret
1000398a:	82318713          	add	a4,gp,-2013 # 2000439c <drivers>
1000398e:	d5ed                	beqz	a1,10003978 <stdio_set_driver_enabled+0x1c>
10003990:	b7dd                	j	10003976 <stdio_set_driver_enabled+0x1a>

10003992 <stdio_init_all>:
10003992:	1141                	add	sp,sp,-16
10003994:	c606                	sw	ra,12(sp)
10003996:	2e69                	jal	10003d30 <stdio_uart_init>
10003998:	0cb000ef          	jal	10004262 <stdio_usb_init>
1000399c:	40b2                	lw	ra,12(sp)
1000399e:	4505                	li	a0,1
100039a0:	0141                	add	sp,sp,16
100039a2:	8082                	ret

100039a4 <__wrap_putchar>:
100039a4:	7179                	add	sp,sp,-48
100039a6:	d04a                	sw	s2,32(sp)
100039a8:	d606                	sw	ra,44(sp)
100039aa:	d422                	sw	s0,40(sp)
100039ac:	ce4e                	sw	s3,28(sp)
100039ae:	cc52                	sw	s4,24(sp)
100039b0:	892a                	mv	s2,a0
100039b2:	00a107a3          	sb	a0,15(sp)
100039b6:	f13fd0ef          	jal	100018c8 <time_us_64>
100039ba:	000f47b7          	lui	a5,0xf4
100039be:	24078793          	add	a5,a5,576 # f4240 <HeapSize+0xf3a40>
100039c2:	97aa                	add	a5,a5,a0
100039c4:	00a7b633          	sltu	a2,a5,a0
100039c8:	80000737          	lui	a4,0x80000
100039cc:	962e                	add	a2,a2,a1
100039ce:	177d                	add	a4,a4,-1 # 7fffffff <__StackTop+0x5ff7dfff>
100039d0:	85be                	mv	a1,a5
100039d2:	00c77463          	bgeu	a4,a2,100039da <__wrap_putchar+0x36>
100039d6:	55fd                	li	a1,-1
100039d8:	863a                	mv	a2,a4
100039da:	20003a37          	lui	s4,0x20003
100039de:	638a0513          	add	a0,s4,1592 # 20003638 <print_mutex>
100039e2:	0fffc097          	auipc	ra,0xfffc
100039e6:	710080e7          	jalr	1808(ra) # 200000f2 <mutex_try_enter_block_until>
100039ea:	8231a403          	lw	s0,-2013(gp) # 2000439c <drivers>
100039ee:	89aa                	mv	s3,a0
100039f0:	c405                	beqz	s0,10003a18 <__wrap_putchar+0x74>
100039f2:	d226                	sw	s1,36(sp)
100039f4:	a019                	j	100039fa <__wrap_putchar+0x56>
100039f6:	4800                	lw	s0,16(s0)
100039f8:	cc19                	beqz	s0,10003a16 <__wrap_putchar+0x72>
100039fa:	401c                	lw	a5,0(s0)
100039fc:	4605                	li	a2,1
100039fe:	00f10593          	add	a1,sp,15
10003a02:	8522                	mv	a0,s0
10003a04:	dbed                	beqz	a5,100039f6 <__wrap_putchar+0x52>
10003a06:	81f1a783          	lw	a5,-2017(gp) # 20004398 <filter>
10003a0a:	c399                	beqz	a5,10003a10 <__wrap_putchar+0x6c>
10003a0c:	fef415e3          	bne	s0,a5,100039f6 <__wrap_putchar+0x52>
10003a10:	3321                	jal	10003718 <stdio_out_chars_crlf>
10003a12:	4800                	lw	s0,16(s0)
10003a14:	f07d                	bnez	s0,100039fa <__wrap_putchar+0x56>
10003a16:	5492                	lw	s1,36(sp)
10003a18:	00099a63          	bnez	s3,10003a2c <__wrap_putchar+0x88>
10003a1c:	50b2                	lw	ra,44(sp)
10003a1e:	5422                	lw	s0,40(sp)
10003a20:	49f2                	lw	s3,28(sp)
10003a22:	4a62                	lw	s4,24(sp)
10003a24:	854a                	mv	a0,s2
10003a26:	5902                	lw	s2,32(sp)
10003a28:	6145                	add	sp,sp,48
10003a2a:	8082                	ret
10003a2c:	638a0513          	add	a0,s4,1592
10003a30:	0fffc097          	auipc	ra,0xfffc
10003a34:	768080e7          	jalr	1896(ra) # 20000198 <mutex_exit>
10003a38:	50b2                	lw	ra,44(sp)
10003a3a:	5422                	lw	s0,40(sp)
10003a3c:	49f2                	lw	s3,28(sp)
10003a3e:	4a62                	lw	s4,24(sp)
10003a40:	854a                	mv	a0,s2
10003a42:	5902                	lw	s2,32(sp)
10003a44:	6145                	add	sp,sp,48
10003a46:	8082                	ret

10003a48 <__wrap_puts>:
10003a48:	1141                	add	sp,sp,-16
10003a4a:	c606                	sw	ra,12(sp)
10003a4c:	c422                	sw	s0,8(sp)
10003a4e:	c226                	sw	s1,4(sp)
10003a50:	842a                	mv	s0,a0
10003a52:	4e8030ef          	jal	10006f3a <strlen>
10003a56:	85aa                	mv	a1,a0
10003a58:	84aa                	mv	s1,a0
10003a5a:	4685                	li	a3,1
10003a5c:	8522                	mv	a0,s0
10003a5e:	4605                	li	a2,1
10003a60:	3bf5                	jal	1000385c <stdio_put_string>
10003a62:	8231a403          	lw	s0,-2013(gp) # 2000439c <drivers>
10003a66:	c411                	beqz	s0,10003a72 <__wrap_puts+0x2a>
10003a68:	405c                	lw	a5,4(s0)
10003a6a:	cb91                	beqz	a5,10003a7e <__wrap_puts+0x36>
10003a6c:	9782                	jalr	a5
10003a6e:	4800                	lw	s0,16(s0)
10003a70:	fc65                	bnez	s0,10003a68 <__wrap_puts+0x20>
10003a72:	40b2                	lw	ra,12(sp)
10003a74:	4422                	lw	s0,8(sp)
10003a76:	8526                	mv	a0,s1
10003a78:	4492                	lw	s1,4(sp)
10003a7a:	0141                	add	sp,sp,16
10003a7c:	8082                	ret
10003a7e:	4800                	lw	s0,16(s0)
10003a80:	f465                	bnez	s0,10003a68 <__wrap_puts+0x20>
10003a82:	40b2                	lw	ra,12(sp)
10003a84:	4422                	lw	s0,8(sp)
10003a86:	8526                	mv	a0,s1
10003a88:	4492                	lw	s1,4(sp)
10003a8a:	0141                	add	sp,sp,16
10003a8c:	8082                	ret

10003a8e <__wrap_vprintf>:
10003a8e:	7171                	add	sp,sp,-176
10003a90:	d522                	sw	s0,168(sp)
10003a92:	d326                	sw	s1,164(sp)
10003a94:	d706                	sw	ra,172(sp)
10003a96:	d14a                	sw	s2,160(sp)
10003a98:	cf4e                	sw	s3,156(sp)
10003a9a:	842a                	mv	s0,a0
10003a9c:	84ae                	mv	s1,a1
10003a9e:	e2bfd0ef          	jal	100018c8 <time_us_64>
10003aa2:	000f47b7          	lui	a5,0xf4
10003aa6:	24078793          	add	a5,a5,576 # f4240 <HeapSize+0xf3a40>
10003aaa:	97aa                	add	a5,a5,a0
10003aac:	00a7b633          	sltu	a2,a5,a0
10003ab0:	80000737          	lui	a4,0x80000
10003ab4:	962e                	add	a2,a2,a1
10003ab6:	177d                	add	a4,a4,-1 # 7fffffff <__StackTop+0x5ff7dfff>
10003ab8:	85be                	mv	a1,a5
10003aba:	00c77463          	bgeu	a4,a2,10003ac2 <__wrap_vprintf+0x34>
10003abe:	55fd                	li	a1,-1
10003ac0:	863a                	mv	a2,a4
10003ac2:	200039b7          	lui	s3,0x20003
10003ac6:	63898513          	add	a0,s3,1592 # 20003638 <print_mutex>
10003aca:	0fffc097          	auipc	ra,0xfffc
10003ace:	628080e7          	jalr	1576(ra) # 200000f2 <mutex_try_enter_block_until>
10003ad2:	892a                	mv	s2,a0
10003ad4:	10003537          	lui	a0,0x10003
10003ad8:	86a6                	mv	a3,s1
10003ada:	8622                	mv	a2,s0
10003adc:	006c                	add	a1,sp,12
10003ade:	7e450513          	add	a0,a0,2020 # 100037e4 <stdio_buffered_printer>
10003ae2:	c602                	sw	zero,12(sp)
10003ae4:	3e9d                	jal	1000365a <vfctprintf>
10003ae6:	47b2                	lw	a5,12(sp)
10003ae8:	84aa                	mv	s1,a0
10003aea:	e78d                	bnez	a5,10003b14 <__wrap_vprintf+0x86>
10003aec:	8231a403          	lw	s0,-2013(gp) # 2000439c <drivers>
10003af0:	c411                	beqz	s0,10003afc <__wrap_vprintf+0x6e>
10003af2:	405c                	lw	a5,4(s0)
10003af4:	cf91                	beqz	a5,10003b10 <__wrap_vprintf+0x82>
10003af6:	9782                	jalr	a5
10003af8:	4800                	lw	s0,16(s0)
10003afa:	fc65                	bnez	s0,10003af2 <__wrap_vprintf+0x64>
10003afc:	02091663          	bnez	s2,10003b28 <__wrap_vprintf+0x9a>
10003b00:	50ba                	lw	ra,172(sp)
10003b02:	542a                	lw	s0,168(sp)
10003b04:	590a                	lw	s2,160(sp)
10003b06:	49fa                	lw	s3,156(sp)
10003b08:	8526                	mv	a0,s1
10003b0a:	549a                	lw	s1,164(sp)
10003b0c:	614d                	add	sp,sp,176
10003b0e:	8082                	ret
10003b10:	4800                	lw	s0,16(s0)
10003b12:	bff9                	j	10003af0 <__wrap_vprintf+0x62>
10003b14:	cb56                	sw	s5,148(sp)
10003b16:	8231a403          	lw	s0,-2013(gp) # 2000439c <drivers>
10003b1a:	cd52                	sw	s4,152(sp)
10003b1c:	e805                	bnez	s0,10003b4c <__wrap_vprintf+0xbe>
10003b1e:	c602                	sw	zero,12(sp)
10003b20:	4a6a                	lw	s4,152(sp)
10003b22:	4ada                	lw	s5,148(sp)
10003b24:	fc090ee3          	beqz	s2,10003b00 <__wrap_vprintf+0x72>
10003b28:	63898513          	add	a0,s3,1592
10003b2c:	0fffc097          	auipc	ra,0xfffc
10003b30:	66c080e7          	jalr	1644(ra) # 20000198 <mutex_exit>
10003b34:	50ba                	lw	ra,172(sp)
10003b36:	542a                	lw	s0,168(sp)
10003b38:	590a                	lw	s2,160(sp)
10003b3a:	49fa                	lw	s3,156(sp)
10003b3c:	8526                	mv	a0,s1
10003b3e:	549a                	lw	s1,164(sp)
10003b40:	614d                	add	sp,sp,176
10003b42:	8082                	ret
10003b44:	4632                	lw	a2,12(sp)
10003b46:	3ec9                	jal	10003718 <stdio_out_chars_crlf>
10003b48:	4800                	lw	s0,16(s0)
10003b4a:	cc01                	beqz	s0,10003b62 <__wrap_vprintf+0xd4>
10003b4c:	401c                	lw	a5,0(s0)
10003b4e:	080c                	add	a1,sp,16
10003b50:	8522                	mv	a0,s0
10003b52:	dbfd                	beqz	a5,10003b48 <__wrap_vprintf+0xba>
10003b54:	81f1a783          	lw	a5,-2017(gp) # 20004398 <filter>
10003b58:	d7f5                	beqz	a5,10003b44 <__wrap_vprintf+0xb6>
10003b5a:	fe8785e3          	beq	a5,s0,10003b44 <__wrap_vprintf+0xb6>
10003b5e:	4800                	lw	s0,16(s0)
10003b60:	f475                	bnez	s0,10003b4c <__wrap_vprintf+0xbe>
10003b62:	8231a403          	lw	s0,-2013(gp) # 2000439c <drivers>
10003b66:	4a6a                	lw	s4,152(sp)
10003b68:	4ada                	lw	s5,148(sp)
10003b6a:	c602                	sw	zero,12(sp)
10003b6c:	b751                	j	10003af0 <__wrap_vprintf+0x62>

10003b6e <__wrap_printf>:
10003b6e:	7139                	add	sp,sp,-64
10003b70:	02410313          	add	t1,sp,36
10003b74:	d22e                	sw	a1,36(sp)
10003b76:	859a                	mv	a1,t1
10003b78:	ce06                	sw	ra,28(sp)
10003b7a:	d432                	sw	a2,40(sp)
10003b7c:	d636                	sw	a3,44(sp)
10003b7e:	d83a                	sw	a4,48(sp)
10003b80:	da3e                	sw	a5,52(sp)
10003b82:	dc42                	sw	a6,56(sp)
10003b84:	de46                	sw	a7,60(sp)
10003b86:	c61a                	sw	t1,12(sp)
10003b88:	3719                	jal	10003a8e <__wrap_vprintf>
10003b8a:	40f2                	lw	ra,28(sp)
10003b8c:	6121                	add	sp,sp,64
10003b8e:	8082                	ret

10003b90 <stdio_uart_out_chars>:
10003b90:	02b05e63          	blez	a1,10003bcc <stdio_uart_out_chars+0x3c>
10003b94:	82f1a703          	lw	a4,-2001(gp) # 200043a8 <uart_instance>
10003b98:	bff887b7          	lui	a5,0xbff88
10003b9c:	97ba                	add	a5,a5,a4
10003b9e:	0017b793          	seqz	a5,a5
10003ba2:	81318693          	add	a3,gp,-2029 # 2000438c <uart_char_to_line_feed>
10003ba6:	20d7a7b3          	sh1add	a5,a5,a3
10003baa:	00079803          	lh	a6,0(a5) # bff88000 <__StackTop+0x9ff06000>
10003bae:	00b50633          	add	a2,a0,a1
10003bb2:	45b5                	li	a1,13
10003bb4:	00054683          	lbu	a3,0(a0)
10003bb8:	00d80b63          	beq	a6,a3,10003bce <stdio_uart_out_chars+0x3e>
10003bbc:	4f1c                	lw	a5,24(a4)
10003bbe:	0207f793          	and	a5,a5,32
10003bc2:	ffed                	bnez	a5,10003bbc <stdio_uart_out_chars+0x2c>
10003bc4:	c314                	sw	a3,0(a4)
10003bc6:	0505                	add	a0,a0,1
10003bc8:	fec516e3          	bne	a0,a2,10003bb4 <stdio_uart_out_chars+0x24>
10003bcc:	8082                	ret
10003bce:	4f1c                	lw	a5,24(a4)
10003bd0:	0207f793          	and	a5,a5,32
10003bd4:	ffed                	bnez	a5,10003bce <stdio_uart_out_chars+0x3e>
10003bd6:	c30c                	sw	a1,0(a4)
10003bd8:	b7d5                	j	10003bbc <stdio_uart_out_chars+0x2c>

10003bda <stdio_uart_in_chars>:
10003bda:	82b1a803          	lw	a6,-2005(gp) # 200043a4 <chars_available_callback>
10003bde:	862a                	mv	a2,a0
10003be0:	06b05163          	blez	a1,10003c42 <stdio_uart_in_chars+0x68>
10003be4:	82f1a703          	lw	a4,-2001(gp) # 200043a8 <uart_instance>
10003be8:	4501                	li	a0,0
10003bea:	4f1c                	lw	a5,24(a4)
10003bec:	8bc1                	and	a5,a5,16
10003bee:	eb9d                	bnez	a5,10003c24 <stdio_uart_in_chars+0x4a>
10003bf0:	0505                	add	a0,a0,1
10003bf2:	4f1c                	lw	a5,24(a4)
10003bf4:	8bc1                	and	a5,a5,16
10003bf6:	fff5                	bnez	a5,10003bf2 <stdio_uart_in_chars+0x18>
10003bf8:	4314                	lw	a3,0(a4)
10003bfa:	00a607b3          	add	a5,a2,a0
10003bfe:	fed78fa3          	sb	a3,-1(a5)
10003c02:	fea594e3          	bne	a1,a0,10003bea <stdio_uart_in_chars+0x10>
10003c06:	00080d63          	beqz	a6,10003c20 <stdio_uart_in_chars+0x46>
10003c0a:	05000793          	li	a5,80
10003c0e:	df1c                	sw	a5,56(a4)
10003c10:	5b5c                	lw	a5,52(a4)
10003c12:	6685                	lui	a3,0x1
10003c14:	03468693          	add	a3,a3,52 # 1034 <HeapSize+0x834>
10003c18:	0387f793          	and	a5,a5,56
10003c1c:	9736                	add	a4,a4,a3
10003c1e:	c31c                	sw	a5,0(a4)
10003c20:	852e                	mv	a0,a1
10003c22:	8082                	ret
10003c24:	00080d63          	beqz	a6,10003c3e <stdio_uart_in_chars+0x64>
10003c28:	05000793          	li	a5,80
10003c2c:	df1c                	sw	a5,56(a4)
10003c2e:	5b5c                	lw	a5,52(a4)
10003c30:	6685                	lui	a3,0x1
10003c32:	03468693          	add	a3,a3,52 # 1034 <HeapSize+0x834>
10003c36:	0387f793          	and	a5,a5,56
10003c3a:	9736                	add	a4,a4,a3
10003c3c:	c31c                	sw	a5,0(a4)
10003c3e:	c10d                	beqz	a0,10003c60 <stdio_uart_in_chars+0x86>
10003c40:	8082                	ret
10003c42:	00080f63          	beqz	a6,10003c60 <stdio_uart_in_chars+0x86>
10003c46:	82f1a783          	lw	a5,-2001(gp) # 200043a8 <uart_instance>
10003c4a:	05000713          	li	a4,80
10003c4e:	6685                	lui	a3,0x1
10003c50:	df98                	sw	a4,56(a5)
10003c52:	5bd8                	lw	a4,52(a5)
10003c54:	03468693          	add	a3,a3,52 # 1034 <HeapSize+0x834>
10003c58:	97b6                	add	a5,a5,a3
10003c5a:	03877713          	and	a4,a4,56
10003c5e:	c398                	sw	a4,0(a5)
10003c60:	5575                	li	a0,-3
10003c62:	8082                	ret

10003c64 <on_uart_rx>:
10003c64:	82b1a783          	lw	a5,-2005(gp) # 200043a4 <chars_available_callback>
10003c68:	cb81                	beqz	a5,10003c78 <on_uart_rx+0x14>
10003c6a:	82f1a703          	lw	a4,-2001(gp) # 200043a8 <uart_instance>
10003c6e:	8271a503          	lw	a0,-2009(gp) # 200043a0 <chars_available_param>
10003c72:	02072c23          	sw	zero,56(a4)
10003c76:	8782                	jr	a5
10003c78:	8082                	ret

10003c7a <stdio_uart_out_flush>:
10003c7a:	82f1a703          	lw	a4,-2001(gp) # 200043a8 <uart_instance>
10003c7e:	4f1c                	lw	a5,24(a4)
10003c80:	8ba1                	and	a5,a5,8
10003c82:	fff5                	bnez	a5,10003c7e <stdio_uart_out_flush+0x4>
10003c84:	8082                	ret

10003c86 <stdio_uart_set_chars_available_callback>:
10003c86:	1141                	add	sp,sp,-16
10003c88:	c04a                	sw	s2,0(sp)
10003c8a:	82f1a603          	lw	a2,-2001(gp) # 200043a8 <uart_instance>
10003c8e:	400787b7          	lui	a5,0x40078
10003c92:	c422                	sw	s0,8(sp)
10003c94:	40f607b3          	sub	a5,a2,a5
10003c98:	c226                	sw	s1,4(sp)
10003c9a:	0017b793          	seqz	a5,a5
10003c9e:	872a                	mv	a4,a0
10003ca0:	c606                	sw	ra,12(sp)
10003ca2:	82b1a503          	lw	a0,-2005(gp) # 200043a4 <chars_available_callback>
10003ca6:	02178413          	add	s0,a5,33 # 40078021 <__StackTop+0x1fff6021>
10003caa:	cb01                	beqz	a4,10003cba <stdio_uart_set_chars_available_callback+0x34>
10003cac:	cd1d                	beqz	a0,10003cea <stdio_uart_set_chars_available_callback+0x64>
10003cae:	40b2                	lw	ra,12(sp)
10003cb0:	4422                	lw	s0,8(sp)
10003cb2:	4492                	lw	s1,4(sp)
10003cb4:	4902                	lw	s2,0(sp)
10003cb6:	0141                	add	sp,sp,16
10003cb8:	8082                	ret
10003cba:	d975                	beqz	a0,10003cae <stdio_uart_set_chars_available_callback+0x28>
10003cbc:	8522                	mv	a0,s0
10003cbe:	02062c23          	sw	zero,56(a2)
10003cc2:	4581                	li	a1,0
10003cc4:	fbafc0ef          	jal	1000047e <irq_set_enabled>
10003cc8:	100045b7          	lui	a1,0x10004
10003ccc:	8522                	mv	a0,s0
10003cce:	c6458593          	add	a1,a1,-924 # 10003c64 <on_uart_rx>
10003cd2:	c9dfc0ef          	jal	1000096e <irq_remove_handler>
10003cd6:	40b2                	lw	ra,12(sp)
10003cd8:	4422                	lw	s0,8(sp)
10003cda:	8201a5a3          	sw	zero,-2005(gp) # 200043a4 <chars_available_callback>
10003cde:	8201a3a3          	sw	zero,-2009(gp) # 200043a0 <chars_available_param>
10003ce2:	4492                	lw	s1,4(sp)
10003ce4:	4902                	lw	s2,0(sp)
10003ce6:	0141                	add	sp,sp,16
10003ce8:	8082                	ret
10003cea:	86ae                	mv	a3,a1
10003cec:	100045b7          	lui	a1,0x10004
10003cf0:	8522                	mv	a0,s0
10003cf2:	c6458593          	add	a1,a1,-924 # 10003c64 <on_uart_rx>
10003cf6:	82e1a5a3          	sw	a4,-2005(gp) # 200043a4 <chars_available_callback>
10003cfa:	82d1a3a3          	sw	a3,-2009(gp) # 200043a0 <chars_available_param>
10003cfe:	807fc0ef          	jal	10000504 <irq_set_exclusive_handler>
10003d02:	8522                	mv	a0,s0
10003d04:	4585                	li	a1,1
10003d06:	f78fc0ef          	jal	1000047e <irq_set_enabled>
10003d0a:	82f1a783          	lw	a5,-2001(gp) # 200043a8 <uart_instance>
10003d0e:	05000713          	li	a4,80
10003d12:	6685                	lui	a3,0x1
10003d14:	df98                	sw	a4,56(a5)
10003d16:	5bd8                	lw	a4,52(a5)
10003d18:	40b2                	lw	ra,12(sp)
10003d1a:	4422                	lw	s0,8(sp)
10003d1c:	03468693          	add	a3,a3,52 # 1034 <HeapSize+0x834>
10003d20:	97b6                	add	a5,a5,a3
10003d22:	03877713          	and	a4,a4,56
10003d26:	c398                	sw	a4,0(a5)
10003d28:	4492                	lw	s1,4(sp)
10003d2a:	4902                	lw	s2,0(sp)
10003d2c:	0141                	add	sp,sp,16
10003d2e:	8082                	ret

10003d30 <stdio_uart_init>:
10003d30:	100077b7          	lui	a5,0x10007
10003d34:	7507c783          	lbu	a5,1872(a5) # 10007750 <__bi_ptr45.13>
10003d38:	1141                	add	sp,sp,-16
10003d3a:	c422                	sw	s0,8(sp)
10003d3c:	400707b7          	lui	a5,0x40070
10003d40:	82f1a7a3          	sw	a5,-2001(gp) # 200043a8 <uart_instance>
10003d44:	100077b7          	lui	a5,0x10007
10003d48:	74c7c783          	lbu	a5,1868(a5) # 1000774c <__bi_ptr49.12>
10003d4c:	4589                	li	a1,2
10003d4e:	100077b7          	lui	a5,0x10007
10003d52:	7487c783          	lbu	a5,1864(a5) # 10007748 <__bi_ptr50.11>
10003d56:	4501                	li	a0,0
10003d58:	c606                	sw	ra,12(sp)
10003d5a:	ce8fc0ef          	jal	10000242 <gpio_set_function>
10003d5e:	4589                	li	a1,2
10003d60:	4505                	li	a0,1
10003d62:	ce0fc0ef          	jal	10000242 <gpio_set_function>
10003d66:	82f1a503          	lw	a0,-2001(gp) # 200043a8 <uart_instance>
10003d6a:	65f1                	lui	a1,0x1c
10003d6c:	20058593          	add	a1,a1,512 # 1c200 <HeapSize+0x1ba00>
10003d70:	c07fd0ef          	jal	10001976 <uart_init>
10003d74:	4422                	lw	s0,8(sp)
10003d76:	40b2                	lw	ra,12(sp)
10003d78:	20003537          	lui	a0,0x20003
10003d7c:	4585                	li	a1,1
10003d7e:	5e850513          	add	a0,a0,1512 # 200035e8 <stdio_uart>
10003d82:	0141                	add	sp,sp,16
10003d84:	bee1                	j	1000395c <stdio_set_driver_enabled>

10003d86 <resetd_init>:
10003d86:	8082                	ret

10003d88 <resetd_reset>:
10003d88:	820189a3          	sb	zero,-1997(gp) # 200043ac <itf_num>
10003d8c:	8082                	ret

10003d8e <resetd_open>:
10003d8e:	0055c703          	lbu	a4,5(a1)
10003d92:	0ff00793          	li	a5,255
10003d96:	4501                	li	a0,0
10003d98:	02f71263          	bne	a4,a5,10003dbc <resetd_open+0x2e>
10003d9c:	0065c783          	lbu	a5,6(a1)
10003da0:	ef91                	bnez	a5,10003dbc <resetd_open+0x2e>
10003da2:	0075c703          	lbu	a4,7(a1)
10003da6:	4785                	li	a5,1
10003da8:	00f71a63          	bne	a4,a5,10003dbc <resetd_open+0x2e>
10003dac:	47a1                	li	a5,8
10003dae:	00c7f763          	bgeu	a5,a2,10003dbc <resetd_open+0x2e>
10003db2:	0025c703          	lbu	a4,2(a1)
10003db6:	4525                	li	a0,9
10003db8:	82e189a3          	sb	a4,-1997(gp) # 200043ac <itf_num>
10003dbc:	8082                	ret

10003dbe <resetd_xfer_cb>:
10003dbe:	4505                	li	a0,1
10003dc0:	8082                	ret

10003dc2 <resetd_control_xfer_cb>:
10003dc2:	4785                	li	a5,1
10003dc4:	00f58463          	beq	a1,a5,10003dcc <resetd_control_xfer_cb+0xa>
10003dc8:	4505                	li	a0,1
10003dca:	8082                	ret
10003dcc:	00564783          	lbu	a5,5(a2)
10003dd0:	00464683          	lbu	a3,4(a2)
10003dd4:	8331c703          	lbu	a4,-1997(gp) # 200043ac <itf_num>
10003dd8:	07a2                	sll	a5,a5,0x8
10003dda:	8fd5                	or	a5,a5,a3
10003ddc:	4501                	li	a0,0
10003dde:	00f70363          	beq	a4,a5,10003de4 <resetd_control_xfer_cb+0x22>
10003de2:	8082                	ret
10003de4:	1141                	add	sp,sp,-16
10003de6:	c606                	sw	ra,12(sp)
10003de8:	00164783          	lbu	a5,1(a2)
10003dec:	02b78063          	beq	a5,a1,10003e0c <resetd_control_xfer_cb+0x4a>
10003df0:	4709                	li	a4,2
10003df2:	00e78563          	beq	a5,a4,10003dfc <resetd_control_xfer_cb+0x3a>
10003df6:	40b2                	lw	ra,12(sp)
10003df8:	0141                	add	sp,sp,16
10003dfa:	8082                	ret
10003dfc:	4501                	li	a0,0
10003dfe:	06400613          	li	a2,100
10003e02:	4581                	li	a1,0
10003e04:	e07fd0ef          	jal	10001c0a <watchdog_reboot>
10003e08:	4505                	li	a0,1
10003e0a:	b7f5                	j	10003df6 <resetd_control_xfer_cb+0x34>
10003e0c:	00364583          	lbu	a1,3(a2)
10003e10:	00264703          	lbu	a4,2(a2)
10003e14:	05a2                	sll	a1,a1,0x8
10003e16:	1005f793          	and	a5,a1,256
10003e1a:	8dd9                	or	a1,a1,a4
10003e1c:	cb89                	beqz	a5,10003e2e <resetd_control_xfer_cb+0x6c>
10003e1e:	0095d613          	srl	a2,a1,0x9
10003e22:	8532                	mv	a0,a2
10003e24:	8a05                	and	a2,a2,1
10003e26:	07f5f593          	and	a1,a1,127
10003e2a:	e91fd0ef          	jal	10001cba <rom_reset_usb_boot_extra>
10003e2e:	557d                	li	a0,-1
10003e30:	0095d613          	srl	a2,a1,0x9
10003e34:	bfc5                	j	10003e24 <resetd_control_xfer_cb+0x62>

10003e36 <tud_descriptor_bos_cb>:
10003e36:	10007537          	lui	a0,0x10007
10003e3a:	4e450513          	add	a0,a0,1252 # 100074e4 <desc_bos>
10003e3e:	8082                	ret

10003e40 <tud_vendor_control_xfer_cb>:
10003e40:	4705                	li	a4,1
10003e42:	87b2                	mv	a5,a2
10003e44:	02e59963          	bne	a1,a4,10003e76 <tud_vendor_control_xfer_cb+0x36>
10003e48:	00164703          	lbu	a4,1(a2)
10003e4c:	02b71863          	bne	a4,a1,10003e7c <tud_vendor_control_xfer_cb+0x3c>
10003e50:	00564683          	lbu	a3,5(a2)
10003e54:	00464703          	lbu	a4,4(a2)
10003e58:	461d                	li	a2,7
10003e5a:	06a2                	sll	a3,a3,0x8
10003e5c:	8ed9                	or	a3,a3,a4
10003e5e:	4701                	li	a4,0
10003e60:	00c69c63          	bne	a3,a2,10003e78 <tud_vendor_control_xfer_cb+0x38>
10003e64:	10007637          	lui	a2,0x10007
10003e68:	0a600693          	li	a3,166
10003e6c:	43c60613          	add	a2,a2,1084 # 1000743c <desc_ms_os_20>
10003e70:	85be                	mv	a1,a5
10003e72:	7300106f          	j	100055a2 <tud_control_xfer>
10003e76:	4705                	li	a4,1
10003e78:	853a                	mv	a0,a4
10003e7a:	8082                	ret
10003e7c:	4701                	li	a4,0
10003e7e:	853a                	mv	a0,a4
10003e80:	8082                	ret

10003e82 <usbd_app_driver_get_cb>:
10003e82:	4785                	li	a5,1
10003e84:	00f50023          	sb	a5,0(a0)
10003e88:	10007537          	lui	a0,0x10007
10003e8c:	41c50513          	add	a0,a0,1052 # 1000741c <_resetd_driver>
10003e90:	8082                	ret

10003e92 <tud_cdc_line_coding_cb>:
10003e92:	0015c683          	lbu	a3,1(a1)
10003e96:	0005c603          	lbu	a2,0(a1)
10003e9a:	0025c703          	lbu	a4,2(a1)
10003e9e:	0035c783          	lbu	a5,3(a1)
10003ea2:	06a2                	sll	a3,a3,0x8
10003ea4:	8ed1                	or	a3,a3,a2
10003ea6:	0742                	sll	a4,a4,0x10
10003ea8:	8f55                	or	a4,a4,a3
10003eaa:	07e2                	sll	a5,a5,0x18
10003eac:	8fd9                	or	a5,a5,a4
10003eae:	4b000713          	li	a4,1200
10003eb2:	00e78363          	beq	a5,a4,10003eb8 <tud_cdc_line_coding_cb+0x26>
10003eb6:	8082                	ret
10003eb8:	1141                	add	sp,sp,-16
10003eba:	4601                	li	a2,0
10003ebc:	4581                	li	a1,0
10003ebe:	557d                	li	a0,-1
10003ec0:	c606                	sw	ra,12(sp)
10003ec2:	df9fd0ef          	jal	10001cba <rom_reset_usb_boot_extra>

10003ec6 <stdio_usb_set_chars_available_callback>:
10003ec6:	84a1a7a3          	sw	a0,-1969(gp) # 200043c8 <chars_available_callback>
10003eca:	84b1a5a3          	sw	a1,-1973(gp) # 200043c4 <chars_available_param>
10003ece:	8082                	ret

10003ed0 <usb_irq>:
10003ed0:	83f1c503          	lbu	a0,-1985(gp) # 200043b8 <low_priority_irq_num>
10003ed4:	df6fc06f          	j	100004ca <irq_set_pending>

10003ed8 <timer_task>:
10003ed8:	84318713          	add	a4,gp,-1981 # 200043bc <one_shot_timer_crit_sec>
10003edc:	431c                	lw	a5,0(a4)
10003ede:	1141                	add	sp,sp,-16
10003ee0:	c606                	sw	ra,12(sp)
10003ee2:	c422                	sw	s0,8(sp)
10003ee4:	c226                	sw	s1,4(sp)
10003ee6:	c04a                	sw	s2,0(sp)
10003ee8:	c7b5                	beqz	a5,10003f54 <timer_task+0x7c>
10003eea:	300476f3          	csrrc	a3,mstatus,8
10003eee:	00379613          	sll	a2,a5,0x3
10003ef2:	28c01633          	bset	a2,zero,a2
10003ef6:	9bf1                	and	a5,a5,-4
10003ef8:	44c7a5af          	amoor.w.aq	a1,a2,(a5)
10003efc:	8df1                	and	a1,a1,a2
10003efe:	fded                	bnez	a1,10003ef8 <timer_task+0x20>
10003f00:	0330000f          	fence	rw,rw
10003f04:	84018023          	sb	zero,-1984(gp) # 200043b9 <one_shot_timer_pending>
10003f08:	c354                	sw	a3,4(a4)
10003f0a:	431c                	lw	a5,0(a4)
10003f0c:	0330000f          	fence	rw,rw
10003f10:	00078023          	sb	zero,0(a5)
10003f14:	8aa1                	and	a3,a3,8
10003f16:	3006a073          	csrs	mstatus,a3
10003f1a:	4401                	li	s0,0
10003f1c:	4481                	li	s1,0
10003f1e:	83f1c503          	lbu	a0,-1985(gp) # 200043b8 <low_priority_irq_num>
10003f22:	d96fc0ef          	jal	100004b8 <irq_is_enabled>
10003f26:	e919                	bnez	a0,10003f3c <timer_task+0x64>
10003f28:	4401                	li	s0,0
10003f2a:	40b2                	lw	ra,12(sp)
10003f2c:	8522                	mv	a0,s0
10003f2e:	4422                	lw	s0,8(sp)
10003f30:	4481                	li	s1,0
10003f32:	4902                	lw	s2,0(sp)
10003f34:	85a6                	mv	a1,s1
10003f36:	4492                	lw	s1,4(sp)
10003f38:	0141                	add	sp,sp,16
10003f3a:	8082                	ret
10003f3c:	83f1c503          	lbu	a0,-1985(gp) # 200043b8 <low_priority_irq_num>
10003f40:	d8afc0ef          	jal	100004ca <irq_set_pending>
10003f44:	40b2                	lw	ra,12(sp)
10003f46:	8522                	mv	a0,s0
10003f48:	4422                	lw	s0,8(sp)
10003f4a:	4902                	lw	s2,0(sp)
10003f4c:	85a6                	mv	a1,s1
10003f4e:	4492                	lw	s1,4(sp)
10003f50:	0141                	add	sp,sp,16
10003f52:	8082                	ret
10003f54:	3e800413          	li	s0,1000
10003f58:	4481                	li	s1,0
10003f5a:	b7d1                	j	10003f1e <timer_task+0x46>

10003f5c <stdio_usb_in_chars>:
10003f5c:	1141                	add	sp,sp,-16
10003f5e:	c422                	sw	s0,8(sp)
10003f60:	842a                	mv	s0,a0
10003f62:	4501                	li	a0,0
10003f64:	c226                	sw	s1,4(sp)
10003f66:	c606                	sw	ra,12(sp)
10003f68:	84ae                	mv	s1,a1
10003f6a:	16d010ef          	jal	100058d6 <tud_cdc_n_connected>
10003f6e:	c159                	beqz	a0,10003ff4 <stdio_usb_in_chars+0x98>
10003f70:	4501                	li	a0,0
10003f72:	1a9010ef          	jal	1000591a <tud_cdc_n_available>
10003f76:	cd3d                	beqz	a0,10003ff4 <stdio_usb_in_chars+0x98>
10003f78:	c04a                	sw	s2,0(sp)
10003f7a:	94ffd0ef          	jal	100018c8 <time_us_64>
10003f7e:	000f47b7          	lui	a5,0xf4
10003f82:	24078793          	add	a5,a5,576 # f4240 <HeapSize+0xf3a40>
10003f86:	97aa                	add	a5,a5,a0
10003f88:	00a7b633          	sltu	a2,a5,a0
10003f8c:	80000737          	lui	a4,0x80000
10003f90:	962e                	add	a2,a2,a1
10003f92:	177d                	add	a4,a4,-1 # 7fffffff <__StackTop+0x5ff7dfff>
10003f94:	85be                	mv	a1,a5
10003f96:	04c76363          	bltu	a4,a2,10003fdc <stdio_usb_in_chars+0x80>
10003f9a:	85318513          	add	a0,gp,-1965 # 200043cc <stdio_usb_mutex>
10003f9e:	0fffc097          	auipc	ra,0xfffc
10003fa2:	154080e7          	jalr	340(ra) # 200000f2 <mutex_try_enter_block_until>
10003fa6:	c531                	beqz	a0,10003ff2 <stdio_usb_in_chars+0x96>
10003fa8:	4501                	li	a0,0
10003faa:	12d010ef          	jal	100058d6 <tud_cdc_n_connected>
10003fae:	c509                	beqz	a0,10003fb8 <stdio_usb_in_chars+0x5c>
10003fb0:	4501                	li	a0,0
10003fb2:	169010ef          	jal	1000591a <tud_cdc_n_available>
10003fb6:	e515                	bnez	a0,10003fe2 <stdio_usb_in_chars+0x86>
10003fb8:	4581                	li	a1,0
10003fba:	557d                	li	a0,-1
10003fbc:	3f7000ef          	jal	10004bb2 <tud_task_ext>
10003fc0:	5475                	li	s0,-3
10003fc2:	85318513          	add	a0,gp,-1965 # 200043cc <stdio_usb_mutex>
10003fc6:	0fffc097          	auipc	ra,0xfffc
10003fca:	1d2080e7          	jalr	466(ra) # 20000198 <mutex_exit>
10003fce:	4902                	lw	s2,0(sp)
10003fd0:	40b2                	lw	ra,12(sp)
10003fd2:	8522                	mv	a0,s0
10003fd4:	4422                	lw	s0,8(sp)
10003fd6:	4492                	lw	s1,4(sp)
10003fd8:	0141                	add	sp,sp,16
10003fda:	8082                	ret
10003fdc:	55fd                	li	a1,-1
10003fde:	863a                	mv	a2,a4
10003fe0:	bf6d                	j	10003f9a <stdio_usb_in_chars+0x3e>
10003fe2:	85a2                	mv	a1,s0
10003fe4:	8626                	mv	a2,s1
10003fe6:	4501                	li	a0,0
10003fe8:	15b010ef          	jal	10005942 <tud_cdc_n_read>
10003fec:	842a                	mv	s0,a0
10003fee:	f971                	bnez	a0,10003fc2 <stdio_usb_in_chars+0x66>
10003ff0:	bfc1                	j	10003fc0 <stdio_usb_in_chars+0x64>
10003ff2:	4902                	lw	s2,0(sp)
10003ff4:	5475                	li	s0,-3
10003ff6:	bfe9                	j	10003fd0 <stdio_usb_in_chars+0x74>

10003ff8 <stdio_usb_out_flush>:
10003ff8:	1141                	add	sp,sp,-16
10003ffa:	c606                	sw	ra,12(sp)
10003ffc:	c422                	sw	s0,8(sp)
10003ffe:	8cbfd0ef          	jal	100018c8 <time_us_64>
10004002:	000f47b7          	lui	a5,0xf4
10004006:	24078793          	add	a5,a5,576 # f4240 <HeapSize+0xf3a40>
1000400a:	97aa                	add	a5,a5,a0
1000400c:	00a7b633          	sltu	a2,a5,a0
10004010:	80000737          	lui	a4,0x80000
10004014:	962e                	add	a2,a2,a1
10004016:	177d                	add	a4,a4,-1 # 7fffffff <__StackTop+0x5ff7dfff>
10004018:	85be                	mv	a1,a5
1000401a:	00c77463          	bgeu	a4,a2,10004022 <stdio_usb_out_flush+0x2a>
1000401e:	55fd                	li	a1,-1
10004020:	863a                	mv	a2,a4
10004022:	85318513          	add	a0,gp,-1965 # 200043cc <stdio_usb_mutex>
10004026:	0fffc097          	auipc	ra,0xfffc
1000402a:	0cc080e7          	jalr	204(ra) # 200000f2 <mutex_try_enter_block_until>
1000402e:	c115                	beqz	a0,10004052 <stdio_usb_out_flush+0x5a>
10004030:	557d                	li	a0,-1
10004032:	4581                	li	a1,0
10004034:	37f000ef          	jal	10004bb2 <tud_task_ext>
10004038:	4501                	li	a0,0
1000403a:	1df010ef          	jal	10005a18 <tud_cdc_n_write_flush>
1000403e:	f96d                	bnez	a0,10004030 <stdio_usb_out_flush+0x38>
10004040:	85318513          	add	a0,gp,-1965 # 200043cc <stdio_usb_mutex>
10004044:	4422                	lw	s0,8(sp)
10004046:	40b2                	lw	ra,12(sp)
10004048:	0141                	add	sp,sp,16
1000404a:	0fffc317          	auipc	t1,0xfffc
1000404e:	14e30067          	jr	334(t1) # 20000198 <mutex_exit>
10004052:	40b2                	lw	ra,12(sp)
10004054:	4422                	lw	s0,8(sp)
10004056:	0141                	add	sp,sp,16
10004058:	8082                	ret

1000405a <stdio_usb_out_chars>:
1000405a:	1101                	add	sp,sp,-32
1000405c:	c84a                	sw	s2,16(sp)
1000405e:	c64e                	sw	s3,12(sp)
10004060:	ce06                	sw	ra,28(sp)
10004062:	c452                	sw	s4,8(sp)
10004064:	89aa                	mv	s3,a0
10004066:	892e                	mv	s2,a1
10004068:	861fd0ef          	jal	100018c8 <time_us_64>
1000406c:	000f47b7          	lui	a5,0xf4
10004070:	24078793          	add	a5,a5,576 # f4240 <HeapSize+0xf3a40>
10004074:	97aa                	add	a5,a5,a0
10004076:	00a7b633          	sltu	a2,a5,a0
1000407a:	80000737          	lui	a4,0x80000
1000407e:	962e                	add	a2,a2,a1
10004080:	177d                	add	a4,a4,-1 # 7fffffff <__StackTop+0x5ff7dfff>
10004082:	85be                	mv	a1,a5
10004084:	00c77463          	bgeu	a4,a2,1000408c <stdio_usb_out_chars+0x32>
10004088:	55fd                	li	a1,-1
1000408a:	863a                	mv	a2,a4
1000408c:	85318513          	add	a0,gp,-1965 # 200043cc <stdio_usb_mutex>
10004090:	0fffc097          	auipc	ra,0xfffc
10004094:	062080e7          	jalr	98(ra) # 200000f2 <mutex_try_enter_block_until>
10004098:	e519                	bnez	a0,100040a6 <stdio_usb_out_chars+0x4c>
1000409a:	40f2                	lw	ra,28(sp)
1000409c:	4942                	lw	s2,16(sp)
1000409e:	49b2                	lw	s3,12(sp)
100040a0:	4a22                	lw	s4,8(sp)
100040a2:	6105                	add	sp,sp,32
100040a4:	8082                	ret
100040a6:	4501                	li	a0,0
100040a8:	02f010ef          	jal	100058d6 <tud_cdc_n_connected>
100040ac:	cd55                	beqz	a0,10004168 <stdio_usb_out_chars+0x10e>
100040ae:	cc22                	sw	s0,24(sp)
100040b0:	c256                	sw	s5,4(sp)
100040b2:	c05a                	sw	s6,0(sp)
100040b4:	0007ab37          	lui	s6,0x7a
100040b8:	4401                	li	s0,0
100040ba:	120b0b13          	add	s6,s6,288 # 7a120 <HeapSize+0x79920>
100040be:	0d205663          	blez	s2,1000418a <stdio_usb_out_chars+0x130>
100040c2:	ca26                	sw	s1,20(sp)
100040c4:	4501                	li	a0,0
100040c6:	267010ef          	jal	10005b2c <tud_cdc_n_write_available>
100040ca:	862a                	mv	a2,a0
100040cc:	408904b3          	sub	s1,s2,s0
100040d0:	008985b3          	add	a1,s3,s0
100040d4:	4501                	li	a0,0
100040d6:	0a964633          	min	a2,a2,s1
100040da:	c239                	beqz	a2,10004120 <stdio_usb_out_chars+0xc6>
100040dc:	1eb010ef          	jal	10005ac6 <tud_cdc_n_write>
100040e0:	4581                	li	a1,0
100040e2:	84aa                	mv	s1,a0
100040e4:	557d                	li	a0,-1
100040e6:	2cd000ef          	jal	10004bb2 <tud_task_ext>
100040ea:	4501                	li	a0,0
100040ec:	12d010ef          	jal	10005a18 <tud_cdc_n_write_flush>
100040f0:	fd8fd0ef          	jal	100018c8 <time_us_64>
100040f4:	9426                	add	s0,s0,s1
100040f6:	82a1aba3          	sw	a0,-1993(gp) # 200043b0 <last_avail_time.1>
100040fa:	82b1ada3          	sw	a1,-1989(gp) # 200043b4 <last_avail_time.1+0x4>
100040fe:	fd2443e3          	blt	s0,s2,100040c4 <stdio_usb_out_chars+0x6a>
10004102:	4462                	lw	s0,24(sp)
10004104:	44d2                	lw	s1,20(sp)
10004106:	4a92                	lw	s5,4(sp)
10004108:	4b02                	lw	s6,0(sp)
1000410a:	40f2                	lw	ra,28(sp)
1000410c:	4942                	lw	s2,16(sp)
1000410e:	49b2                	lw	s3,12(sp)
10004110:	85318513          	add	a0,gp,-1965 # 200043cc <stdio_usb_mutex>
10004114:	4a22                	lw	s4,8(sp)
10004116:	6105                	add	sp,sp,32
10004118:	0fffc317          	auipc	t1,0xfffc
1000411c:	08030067          	jr	128(t1) # 20000198 <mutex_exit>
10004120:	4581                	li	a1,0
10004122:	557d                	li	a0,-1
10004124:	28f000ef          	jal	10004bb2 <tud_task_ext>
10004128:	4501                	li	a0,0
1000412a:	0ef010ef          	jal	10005a18 <tud_cdc_n_write_flush>
1000412e:	4501                	li	a0,0
10004130:	7a6010ef          	jal	100058d6 <tud_cdc_n_connected>
10004134:	87aa                	mv	a5,a0
10004136:	4501                	li	a0,0
10004138:	d7e9                	beqz	a5,10004102 <stdio_usb_out_chars+0xa8>
1000413a:	1f3010ef          	jal	10005b2c <tud_cdc_n_write_available>
1000413e:	f161                	bnez	a0,100040fe <stdio_usb_out_chars+0xa4>
10004140:	f88fd0ef          	jal	100018c8 <time_us_64>
10004144:	8371a783          	lw	a5,-1993(gp) # 200043b0 <last_avail_time.1>
10004148:	83b1a683          	lw	a3,-1989(gp) # 200043b4 <last_avail_time.1+0x4>
1000414c:	01678733          	add	a4,a5,s6
10004150:	00f737b3          	sltu	a5,a4,a5
10004154:	97b6                	add	a5,a5,a3
10004156:	fab7e6e3          	bltu	a5,a1,10004102 <stdio_usb_out_chars+0xa8>
1000415a:	faf592e3          	bne	a1,a5,100040fe <stdio_usb_out_chars+0xa4>
1000415e:	faa762e3          	bltu	a4,a0,10004102 <stdio_usb_out_chars+0xa8>
10004162:	f72441e3          	blt	s0,s2,100040c4 <stdio_usb_out_chars+0x6a>
10004166:	bf71                	j	10004102 <stdio_usb_out_chars+0xa8>
10004168:	40f2                	lw	ra,28(sp)
1000416a:	4942                	lw	s2,16(sp)
1000416c:	49b2                	lw	s3,12(sp)
1000416e:	4681                	li	a3,0
10004170:	4701                	li	a4,0
10004172:	85318513          	add	a0,gp,-1965 # 200043cc <stdio_usb_mutex>
10004176:	4a22                	lw	s4,8(sp)
10004178:	82d1aba3          	sw	a3,-1993(gp) # 200043b0 <last_avail_time.1>
1000417c:	82e1ada3          	sw	a4,-1989(gp) # 200043b4 <last_avail_time.1+0x4>
10004180:	6105                	add	sp,sp,32
10004182:	0fffc317          	auipc	t1,0xfffc
10004186:	01630067          	jr	22(t1) # 20000198 <mutex_exit>
1000418a:	4462                	lw	s0,24(sp)
1000418c:	4a92                	lw	s5,4(sp)
1000418e:	4b02                	lw	s6,0(sp)
10004190:	bfad                	j	1000410a <stdio_usb_out_chars+0xb0>

10004192 <low_priority_worker_irq>:
10004192:	1141                	add	sp,sp,-16
10004194:	c422                	sw	s0,8(sp)
10004196:	4581                	li	a1,0
10004198:	85318513          	add	a0,gp,-1965 # 200043cc <stdio_usb_mutex>
1000419c:	c606                	sw	ra,12(sp)
1000419e:	0fffc097          	auipc	ra,0xfffc
100041a2:	e62080e7          	jalr	-414(ra) # 20000000 <mutex_try_enter>
100041a6:	e539                	bnez	a0,100041f4 <low_priority_worker_irq+0x62>
100041a8:	84318713          	add	a4,gp,-1981 # 200043bc <one_shot_timer_crit_sec>
100041ac:	431c                	lw	a5,0(a4)
100041ae:	cf9d                	beqz	a5,100041ec <low_priority_worker_irq+0x5a>
100041b0:	300476f3          	csrrc	a3,mstatus,8
100041b4:	00379613          	sll	a2,a5,0x3
100041b8:	28c01633          	bset	a2,zero,a2
100041bc:	9bf1                	and	a5,a5,-4
100041be:	44c7a5af          	amoor.w.aq	a1,a2,(a5)
100041c2:	8df1                	and	a1,a1,a2
100041c4:	fded                	bnez	a1,100041be <low_priority_worker_irq+0x2c>
100041c6:	0330000f          	fence	rw,rw
100041ca:	8401c783          	lbu	a5,-1984(gp) # 200043b9 <one_shot_timer_pending>
100041ce:	430c                	lw	a1,0(a4)
100041d0:	c354                	sw	a3,4(a4)
100041d2:	4705                	li	a4,1
100041d4:	0ff7f793          	zext.b	a5,a5
100041d8:	84e18023          	sb	a4,-1984(gp) # 200043b9 <one_shot_timer_pending>
100041dc:	0330000f          	fence	rw,rw
100041e0:	00058023          	sb	zero,0(a1)
100041e4:	8aa1                	and	a3,a3,8
100041e6:	3006a073          	csrs	mstatus,a3
100041ea:	cf95                	beqz	a5,10004226 <low_priority_worker_irq+0x94>
100041ec:	40b2                	lw	ra,12(sp)
100041ee:	4422                	lw	s0,8(sp)
100041f0:	0141                	add	sp,sp,16
100041f2:	8082                	ret
100041f4:	4581                	li	a1,0
100041f6:	557d                	li	a0,-1
100041f8:	1bb000ef          	jal	10004bb2 <tud_task_ext>
100041fc:	4501                	li	a0,0
100041fe:	71c010ef          	jal	1000591a <tud_cdc_n_available>
10004202:	87aa                	mv	a5,a0
10004204:	85318513          	add	a0,gp,-1965 # 200043cc <stdio_usb_mutex>
10004208:	843e                	mv	s0,a5
1000420a:	0fffc097          	auipc	ra,0xfffc
1000420e:	f8e080e7          	jalr	-114(ra) # 20000198 <mutex_exit>
10004212:	dc69                	beqz	s0,100041ec <low_priority_worker_irq+0x5a>
10004214:	84f1a783          	lw	a5,-1969(gp) # 200043c8 <chars_available_callback>
10004218:	dbf1                	beqz	a5,100041ec <low_priority_worker_irq+0x5a>
1000421a:	4422                	lw	s0,8(sp)
1000421c:	40b2                	lw	ra,12(sp)
1000421e:	84b1a503          	lw	a0,-1973(gp) # 200043c4 <chars_available_param>
10004222:	0141                	add	sp,sp,16
10004224:	8782                	jr	a5
10004226:	9aafd0ef          	jal	100013d0 <alarm_pool_get_default>
1000422a:	842a                	mv	s0,a0
1000422c:	e9cfd0ef          	jal	100018c8 <time_us_64>
10004230:	3e850793          	add	a5,a0,1000
10004234:	00a7b633          	sltu	a2,a5,a0
10004238:	80000737          	lui	a4,0x80000
1000423c:	962e                	add	a2,a2,a1
1000423e:	177d                	add	a4,a4,-1 # 7fffffff <__StackTop+0x5ff7dfff>
10004240:	85be                	mv	a1,a5
10004242:	00c77463          	bgeu	a4,a2,1000424a <low_priority_worker_irq+0xb8>
10004246:	55fd                	li	a1,-1
10004248:	863a                	mv	a2,a4
1000424a:	8522                	mv	a0,s0
1000424c:	4422                	lw	s0,8(sp)
1000424e:	40b2                	lw	ra,12(sp)
10004250:	100046b7          	lui	a3,0x10004
10004254:	4785                	li	a5,1
10004256:	4701                	li	a4,0
10004258:	ed868693          	add	a3,a3,-296 # 10003ed8 <timer_task>
1000425c:	0141                	add	sp,sp,16
1000425e:	97cfd06f          	j	100013da <alarm_pool_add_alarm_at>

10004262 <stdio_usb_init>:
10004262:	1141                	add	sp,sp,-16
10004264:	d00007b7          	lui	a5,0xd0000
10004268:	c422                	sw	s0,8(sp)
1000426a:	4380                	lw	s0,0(a5)
1000426c:	c606                	sw	ra,12(sp)
1000426e:	962fd0ef          	jal	100013d0 <alarm_pool_get_default>
10004272:	bfcfd0ef          	jal	1000166e <alarm_pool_core_num>
10004276:	00850763          	beq	a0,s0,10004284 <stdio_usb_init+0x22>
1000427a:	40b2                	lw	ra,12(sp)
1000427c:	4422                	lw	s0,8(sp)
1000427e:	4501                	li	a0,0
10004280:	0141                	add	sp,sp,16
10004282:	8082                	ret
10004284:	100077b7          	lui	a5,0x10007
10004288:	7547c783          	lbu	a5,1876(a5) # 10007754 <__bi_ptr197.2>
1000428c:	07a020ef          	jal	10006306 <tusb_init>
10004290:	8531a783          	lw	a5,-1965(gp) # 200043cc <stdio_usb_mutex>
10004294:	cbc5                	beqz	a5,10004344 <stdio_usb_init+0xe2>
10004296:	4505                	li	a0,1
10004298:	b47fc0ef          	jal	10000dde <user_irq_claim_unused>
1000429c:	100045b7          	lui	a1,0x10004
100042a0:	87aa                	mv	a5,a0
100042a2:	19258593          	add	a1,a1,402 # 10004192 <low_priority_worker_irq>
100042a6:	0ff57513          	zext.b	a0,a0
100042aa:	82f18fa3          	sb	a5,-1985(gp) # 200043b8 <low_priority_irq_num>
100042ae:	a56fc0ef          	jal	10000504 <irq_set_exclusive_handler>
100042b2:	83f1c503          	lbu	a0,-1985(gp) # 200043b8 <low_priority_irq_num>
100042b6:	4585                	li	a1,1
100042b8:	9c6fc0ef          	jal	1000047e <irq_set_enabled>
100042bc:	4539                	li	a0,14
100042be:	a20fc0ef          	jal	100004de <irq_has_shared_handler>
100042c2:	e125                	bnez	a0,10004322 <stdio_usb_init+0xc0>
100042c4:	84318793          	add	a5,gp,-1981 # 200043bc <one_shot_timer_crit_sec>
100042c8:	0007a023          	sw	zero,0(a5)
100042cc:	0007a223          	sw	zero,4(a5)
100042d0:	900fd0ef          	jal	100013d0 <alarm_pool_get_default>
100042d4:	842a                	mv	s0,a0
100042d6:	df2fd0ef          	jal	100018c8 <time_us_64>
100042da:	3e850793          	add	a5,a0,1000
100042de:	00a7b633          	sltu	a2,a5,a0
100042e2:	80000737          	lui	a4,0x80000
100042e6:	962e                	add	a2,a2,a1
100042e8:	177d                	add	a4,a4,-1 # 7fffffff <__StackTop+0x5ff7dfff>
100042ea:	85be                	mv	a1,a5
100042ec:	00c77463          	bgeu	a4,a2,100042f4 <stdio_usb_init+0x92>
100042f0:	55fd                	li	a1,-1
100042f2:	863a                	mv	a2,a4
100042f4:	100046b7          	lui	a3,0x10004
100042f8:	4785                	li	a5,1
100042fa:	4701                	li	a4,0
100042fc:	ed868693          	add	a3,a3,-296 # 10003ed8 <timer_task>
10004300:	8522                	mv	a0,s0
10004302:	8d8fd0ef          	jal	100013da <alarm_pool_add_alarm_at>
10004306:	f6054ae3          	bltz	a0,1000427a <stdio_usb_init+0x18>
1000430a:	20003537          	lui	a0,0x20003
1000430e:	60050513          	add	a0,a0,1536 # 20003600 <stdio_usb>
10004312:	4585                	li	a1,1
10004314:	e48ff0ef          	jal	1000395c <stdio_set_driver_enabled>
10004318:	40b2                	lw	ra,12(sp)
1000431a:	4422                	lw	s0,8(sp)
1000431c:	4505                	li	a0,1
1000431e:	0141                	add	sp,sp,16
10004320:	8082                	ret
10004322:	4505                	li	a0,1
10004324:	8ecfc0ef          	jal	10000410 <spin_lock_claim_unused>
10004328:	85aa                	mv	a1,a0
1000432a:	84318513          	add	a0,gp,-1981 # 200043bc <one_shot_timer_crit_sec>
1000432e:	ba7fc0ef          	jal	10000ed4 <critical_section_init_with_lock_num>
10004332:	100045b7          	lui	a1,0x10004
10004336:	4601                	li	a2,0
10004338:	ed058593          	add	a1,a1,-304 # 10003ed0 <usb_irq>
1000433c:	4539                	li	a0,14
1000433e:	a52fc0ef          	jal	10000590 <irq_add_shared_handler>
10004342:	b7e1                	j	1000430a <stdio_usb_init+0xa8>
10004344:	85318513          	add	a0,gp,-1965 # 200043cc <stdio_usb_mutex>
10004348:	b43fc0ef          	jal	10000e8a <mutex_init>
1000434c:	b7a9                	j	10004296 <stdio_usb_init+0x34>

1000434e <tud_descriptor_device_cb>:
1000434e:	10007537          	lui	a0,0x10007
10004352:	58050513          	add	a0,a0,1408 # 10007580 <usbd_desc_device>
10004356:	8082                	ret

10004358 <tud_descriptor_configuration_cb>:
10004358:	10007537          	lui	a0,0x10007
1000435c:	52c50513          	add	a0,a0,1324 # 1000752c <usbd_desc_cfg>
10004360:	8082                	ret

10004362 <tud_descriptor_string_cb>:
10004362:	200047b7          	lui	a5,0x20004
10004366:	3687c703          	lbu	a4,872(a5) # 20004368 <usbd_serial_str>
1000436a:	1141                	add	sp,sp,-16
1000436c:	c422                	sw	s0,8(sp)
1000436e:	c606                	sw	ra,12(sp)
10004370:	842a                	mv	s0,a0
10004372:	cb2d                	beqz	a4,100043e4 <tud_descriptor_string_cb+0x82>
10004374:	e01d                	bnez	s0,1000439a <tud_descriptor_string_cb+0x38>
10004376:	20004537          	lui	a0,0x20004
1000437a:	40900793          	li	a5,1033
1000437e:	f2050713          	add	a4,a0,-224 # 20003f20 <desc_str.0>
10004382:	00f71123          	sh	a5,2(a4)
10004386:	30400793          	li	a5,772
1000438a:	00f71023          	sh	a5,0(a4)
1000438e:	f2050513          	add	a0,a0,-224
10004392:	40b2                	lw	ra,12(sp)
10004394:	4422                	lw	s0,8(sp)
10004396:	0141                	add	sp,sp,16
10004398:	8082                	ret
1000439a:	4795                	li	a5,5
1000439c:	0487e963          	bltu	a5,s0,100043ee <tud_descriptor_string_cb+0x8c>
100043a0:	100077b7          	lui	a5,0x10007
100043a4:	51478793          	add	a5,a5,1300 # 10007514 <usbd_desc_str>
100043a8:	20004737          	lui	a4,0x20004
100043ac:	20f44433          	sh2add	s0,s0,a5
100043b0:	f2270713          	add	a4,a4,-222 # 20003f22 <desc_str.0+0x2>
100043b4:	4014                	lw	a3,0(s0)
100043b6:	4781                	li	a5,0
100043b8:	45cd                	li	a1,19
100043ba:	a039                	j	100043c8 <tud_descriptor_string_cb+0x66>
100043bc:	00c71023          	sh	a2,0(a4)
100043c0:	0685                	add	a3,a3,1
100043c2:	0709                	add	a4,a4,2
100043c4:	02b78763          	beq	a5,a1,100043f2 <tud_descriptor_string_cb+0x90>
100043c8:	0006c603          	lbu	a2,0(a3)
100043cc:	0785                	add	a5,a5,1
100043ce:	0ff7f793          	zext.b	a5,a5
100043d2:	f66d                	bnez	a2,100043bc <tud_descriptor_string_cb+0x5a>
100043d4:	0786                	sll	a5,a5,0x1
100043d6:	20004537          	lui	a0,0x20004
100043da:	3007e793          	or	a5,a5,768
100043de:	f2050713          	add	a4,a0,-224 # 20003f20 <desc_str.0>
100043e2:	b765                	j	1000438a <tud_descriptor_string_cb+0x28>
100043e4:	45c5                	li	a1,17
100043e6:	36878513          	add	a0,a5,872
100043ea:	20a9                	jal	10004434 <pico_get_unique_board_id_string>
100043ec:	b761                	j	10004374 <tud_descriptor_string_cb+0x12>
100043ee:	4501                	li	a0,0
100043f0:	b74d                	j	10004392 <tud_descriptor_string_cb+0x30>
100043f2:	20004537          	lui	a0,0x20004
100043f6:	32800793          	li	a5,808
100043fa:	f2050713          	add	a4,a0,-224 # 20003f20 <desc_str.0>
100043fe:	b771                	j	1000438a <tud_descriptor_string_cb+0x28>

10004400 <_retrieve_unique_id_on_boot>:
10004400:	6515                	lui	a0,0x5
10004402:	7139                	add	sp,sp,-64
10004404:	34750513          	add	a0,a0,839 # 5347 <HeapSize+0x4b47>
10004408:	de06                	sw	ra,60(sp)
1000440a:	8a7fd0ef          	jal	10001cb0 <rom_func_lookup>
1000440e:	87aa                	mv	a5,a0
10004410:	4605                	li	a2,1
10004412:	0068                	add	a0,sp,12
10004414:	45a5                	li	a1,9
10004416:	9782                	jalr	a5
10004418:	47d2                	lw	a5,20(sp)
1000441a:	85b18613          	add	a2,gp,-1957 # 200043d4 <retrieved_id>
1000441e:	4762                	lw	a4,24(sp)
10004420:	6987d793          	rev8	a5,a5
10004424:	c25c                	sw	a5,4(a2)
10004426:	50f2                	lw	ra,60(sp)
10004428:	69875713          	rev8	a4,a4
1000442c:	84e1ada3          	sw	a4,-1957(gp) # 200043d4 <retrieved_id>
10004430:	6121                	add	sp,sp,64
10004432:	8082                	ret

10004434 <pico_get_unique_board_id_string>:
10004434:	4785                	li	a5,1
10004436:	fff58813          	add	a6,a1,-1
1000443a:	1cf58463          	beq	a1,a5,10004602 <pico_get_unique_board_id_string+0x1ce>
1000443e:	85b18793          	add	a5,gp,-1957 # 200043d4 <retrieved_id>
10004442:	0007c703          	lbu	a4,0(a5)
10004446:	45a5                	li	a1,9
10004448:	00475613          	srl	a2,a4,0x4
1000444c:	40475893          	sra	a7,a4,0x4
10004450:	03060693          	add	a3,a2,48
10004454:	1b15ca63          	blt	a1,a7,10004608 <pico_get_unique_board_id_string+0x1d4>
10004458:	00d50023          	sb	a3,0(a0)
1000445c:	4685                	li	a3,1
1000445e:	1ed80d63          	beq	a6,a3,10004658 <pico_get_unique_board_id_string+0x224>
10004462:	8b3d                	and	a4,a4,15
10004464:	4625                	li	a2,9
10004466:	03070693          	add	a3,a4,48
1000446a:	1ae66263          	bltu	a2,a4,1000460e <pico_get_unique_board_id_string+0x1da>
1000446e:	00d500a3          	sb	a3,1(a0)
10004472:	4709                	li	a4,2
10004474:	1ee80263          	beq	a6,a4,10004658 <pico_get_unique_board_id_string+0x224>
10004478:	0017c703          	lbu	a4,1(a5)
1000447c:	45a5                	li	a1,9
1000447e:	00475613          	srl	a2,a4,0x4
10004482:	40475893          	sra	a7,a4,0x4
10004486:	03060693          	add	a3,a2,48
1000448a:	1915c563          	blt	a1,a7,10004614 <pico_get_unique_board_id_string+0x1e0>
1000448e:	00d50123          	sb	a3,2(a0)
10004492:	468d                	li	a3,3
10004494:	1cd80263          	beq	a6,a3,10004658 <pico_get_unique_board_id_string+0x224>
10004498:	8b3d                	and	a4,a4,15
1000449a:	4625                	li	a2,9
1000449c:	03070693          	add	a3,a4,48
100044a0:	16e66d63          	bltu	a2,a4,1000461a <pico_get_unique_board_id_string+0x1e6>
100044a4:	00d501a3          	sb	a3,3(a0)
100044a8:	4711                	li	a4,4
100044aa:	1ae80763          	beq	a6,a4,10004658 <pico_get_unique_board_id_string+0x224>
100044ae:	0027c703          	lbu	a4,2(a5)
100044b2:	45a5                	li	a1,9
100044b4:	00475613          	srl	a2,a4,0x4
100044b8:	40475893          	sra	a7,a4,0x4
100044bc:	03060693          	add	a3,a2,48
100044c0:	1715c063          	blt	a1,a7,10004620 <pico_get_unique_board_id_string+0x1ec>
100044c4:	00d50223          	sb	a3,4(a0)
100044c8:	4695                	li	a3,5
100044ca:	18d80763          	beq	a6,a3,10004658 <pico_get_unique_board_id_string+0x224>
100044ce:	8b3d                	and	a4,a4,15
100044d0:	4625                	li	a2,9
100044d2:	03070693          	add	a3,a4,48
100044d6:	14e66863          	bltu	a2,a4,10004626 <pico_get_unique_board_id_string+0x1f2>
100044da:	00d502a3          	sb	a3,5(a0)
100044de:	4719                	li	a4,6
100044e0:	16e80c63          	beq	a6,a4,10004658 <pico_get_unique_board_id_string+0x224>
100044e4:	0037c703          	lbu	a4,3(a5)
100044e8:	45a5                	li	a1,9
100044ea:	00475613          	srl	a2,a4,0x4
100044ee:	40475893          	sra	a7,a4,0x4
100044f2:	03060693          	add	a3,a2,48
100044f6:	1315cb63          	blt	a1,a7,1000462c <pico_get_unique_board_id_string+0x1f8>
100044fa:	00d50323          	sb	a3,6(a0)
100044fe:	469d                	li	a3,7
10004500:	14d80c63          	beq	a6,a3,10004658 <pico_get_unique_board_id_string+0x224>
10004504:	8b3d                	and	a4,a4,15
10004506:	4625                	li	a2,9
10004508:	03070693          	add	a3,a4,48
1000450c:	12e66363          	bltu	a2,a4,10004632 <pico_get_unique_board_id_string+0x1fe>
10004510:	00d503a3          	sb	a3,7(a0)
10004514:	4721                	li	a4,8
10004516:	14e80163          	beq	a6,a4,10004658 <pico_get_unique_board_id_string+0x224>
1000451a:	0047c703          	lbu	a4,4(a5)
1000451e:	45a5                	li	a1,9
10004520:	00475613          	srl	a2,a4,0x4
10004524:	40475893          	sra	a7,a4,0x4
10004528:	03060693          	add	a3,a2,48
1000452c:	1115c663          	blt	a1,a7,10004638 <pico_get_unique_board_id_string+0x204>
10004530:	00d50423          	sb	a3,8(a0)
10004534:	46a5                	li	a3,9
10004536:	12d80163          	beq	a6,a3,10004658 <pico_get_unique_board_id_string+0x224>
1000453a:	8b3d                	and	a4,a4,15
1000453c:	03070613          	add	a2,a4,48
10004540:	0ee6ef63          	bltu	a3,a4,1000463e <pico_get_unique_board_id_string+0x20a>
10004544:	00c504a3          	sb	a2,9(a0)
10004548:	4729                	li	a4,10
1000454a:	10e80763          	beq	a6,a4,10004658 <pico_get_unique_board_id_string+0x224>
1000454e:	0057c703          	lbu	a4,5(a5)
10004552:	45a5                	li	a1,9
10004554:	00475613          	srl	a2,a4,0x4
10004558:	40475893          	sra	a7,a4,0x4
1000455c:	03060693          	add	a3,a2,48
10004560:	0f15c263          	blt	a1,a7,10004644 <pico_get_unique_board_id_string+0x210>
10004564:	00d50523          	sb	a3,10(a0)
10004568:	46ad                	li	a3,11
1000456a:	0ed80763          	beq	a6,a3,10004658 <pico_get_unique_board_id_string+0x224>
1000456e:	8b3d                	and	a4,a4,15
10004570:	4625                	li	a2,9
10004572:	03070693          	add	a3,a4,48
10004576:	0ce66a63          	bltu	a2,a4,1000464a <pico_get_unique_board_id_string+0x216>
1000457a:	00d505a3          	sb	a3,11(a0)
1000457e:	4731                	li	a4,12
10004580:	0ce80c63          	beq	a6,a4,10004658 <pico_get_unique_board_id_string+0x224>
10004584:	0067c703          	lbu	a4,6(a5)
10004588:	45a5                	li	a1,9
1000458a:	00475613          	srl	a2,a4,0x4
1000458e:	40475893          	sra	a7,a4,0x4
10004592:	03060693          	add	a3,a2,48
10004596:	0115d463          	bge	a1,a7,1000459e <pico_get_unique_board_id_string+0x16a>
1000459a:	03760693          	add	a3,a2,55
1000459e:	00d50623          	sb	a3,12(a0)
100045a2:	46b5                	li	a3,13
100045a4:	0ad80a63          	beq	a6,a3,10004658 <pico_get_unique_board_id_string+0x224>
100045a8:	8b3d                	and	a4,a4,15
100045aa:	4625                	li	a2,9
100045ac:	03070693          	add	a3,a4,48
100045b0:	00e67463          	bgeu	a2,a4,100045b8 <pico_get_unique_board_id_string+0x184>
100045b4:	03770693          	add	a3,a4,55
100045b8:	00d506a3          	sb	a3,13(a0)
100045bc:	4739                	li	a4,14
100045be:	08e80d63          	beq	a6,a4,10004658 <pico_get_unique_board_id_string+0x224>
100045c2:	0077c783          	lbu	a5,7(a5)
100045c6:	4625                	li	a2,9
100045c8:	0047d693          	srl	a3,a5,0x4
100045cc:	4047d593          	sra	a1,a5,0x4
100045d0:	03068713          	add	a4,a3,48
100045d4:	00b65463          	bge	a2,a1,100045dc <pico_get_unique_board_id_string+0x1a8>
100045d8:	03768713          	add	a4,a3,55
100045dc:	00e50723          	sb	a4,14(a0)
100045e0:	473d                	li	a4,15
100045e2:	06e80b63          	beq	a6,a4,10004658 <pico_get_unique_board_id_string+0x224>
100045e6:	8bbd                	and	a5,a5,15
100045e8:	46a5                	li	a3,9
100045ea:	03778713          	add	a4,a5,55
100045ee:	00f6e463          	bltu	a3,a5,100045f6 <pico_get_unique_board_id_string+0x1c2>
100045f2:	03078713          	add	a4,a5,48
100045f6:	00e507a3          	sb	a4,15(a0)
100045fa:	47c1                	li	a5,16
100045fc:	04f80e63          	beq	a6,a5,10004658 <pico_get_unique_board_id_string+0x224>
10004600:	0541                	add	a0,a0,16
10004602:	00050023          	sb	zero,0(a0)
10004606:	8082                	ret
10004608:	03760693          	add	a3,a2,55
1000460c:	b5b1                	j	10004458 <pico_get_unique_board_id_string+0x24>
1000460e:	03770693          	add	a3,a4,55
10004612:	bdb1                	j	1000446e <pico_get_unique_board_id_string+0x3a>
10004614:	03760693          	add	a3,a2,55
10004618:	bd9d                	j	1000448e <pico_get_unique_board_id_string+0x5a>
1000461a:	03770693          	add	a3,a4,55
1000461e:	b559                	j	100044a4 <pico_get_unique_board_id_string+0x70>
10004620:	03760693          	add	a3,a2,55
10004624:	b545                	j	100044c4 <pico_get_unique_board_id_string+0x90>
10004626:	03770693          	add	a3,a4,55
1000462a:	bd45                	j	100044da <pico_get_unique_board_id_string+0xa6>
1000462c:	03760693          	add	a3,a2,55
10004630:	b5e9                	j	100044fa <pico_get_unique_board_id_string+0xc6>
10004632:	03770693          	add	a3,a4,55
10004636:	bde9                	j	10004510 <pico_get_unique_board_id_string+0xdc>
10004638:	03760693          	add	a3,a2,55
1000463c:	bdd5                	j	10004530 <pico_get_unique_board_id_string+0xfc>
1000463e:	03770613          	add	a2,a4,55
10004642:	b709                	j	10004544 <pico_get_unique_board_id_string+0x110>
10004644:	03760693          	add	a3,a2,55
10004648:	bf31                	j	10004564 <pico_get_unique_board_id_string+0x130>
1000464a:	03770693          	add	a3,a4,55
1000464e:	00d505a3          	sb	a3,11(a0)
10004652:	4731                	li	a4,12
10004654:	f2e818e3          	bne	a6,a4,10004584 <pico_get_unique_board_id_string+0x150>
10004658:	9542                	add	a0,a0,a6
1000465a:	00050023          	sb	zero,0(a0)
1000465e:	8082                	ret

10004660 <dcd_init>:
10004660:	1101                	add	sp,sp,-32
10004662:	ce06                	sw	ra,28(sp)
10004664:	cc22                	sw	s0,24(sp)
10004666:	ca26                	sw	s1,20(sp)
10004668:	c84a                	sw	s2,16(sp)
1000466a:	c64e                	sw	s3,12(sp)
1000466c:	24c9                	jal	1000492e <rp2040_usb_init>
1000466e:	501104b7          	lui	s1,0x50110
10004672:	47b1                	li	a5,12
10004674:	200005b7          	lui	a1,0x20000
10004678:	dcbc                	sw	a5,120(s1)
1000467a:	0ff00613          	li	a2,255
1000467e:	33a58593          	add	a1,a1,826 # 2000033a <dcd_rp2040_irq>
10004682:	4539                	li	a0,14
10004684:	f0dfb0ef          	jal	10000590 <irq_add_shared_handler>
10004688:	20004437          	lui	s0,0x20004
1000468c:	04000613          	li	a2,64
10004690:	4581                	li	a1,0
10004692:	f4840513          	add	a0,s0,-184 # 20003f48 <hw_endpoints>
10004696:	6b6020ef          	jal	10006d4c <memset>
1000469a:	501006b7          	lui	a3,0x50100
1000469e:	f4840413          	add	s0,s0,-184
100046a2:	04000993          	li	s3,64
100046a6:	08468693          	add	a3,a3,132 # 50100084 <__StackTop+0x3007e084>
100046aa:	4905                	li	s2,1
100046ac:	012400a3          	sb	s2,1(s0)
100046b0:	01341c23          	sh	s3,24(s0)
100046b4:	c414                	sw	a3,8(s0)
100046b6:	50100737          	lui	a4,0x50100
100046ba:	501007b7          	lui	a5,0x50100
100046be:	0006a023          	sw	zero,0(a3)
100046c2:	10078793          	add	a5,a5,256 # 50100100 <__StackTop+0x3007e100>
100046c6:	08070713          	add	a4,a4,128 # 50100080 <__StackTop+0x3007e080>
100046ca:	08000693          	li	a3,128
100046ce:	c45c                	sw	a5,12(s0)
100046d0:	03341c23          	sh	s3,56(s0)
100046d4:	d418                	sw	a4,40(s0)
100046d6:	00042223          	sw	zero,4(s0)
100046da:	020400a3          	sb	zero,33(s0)
100046de:	02d41123          	sh	a3,34(s0)
100046e2:	02040da3          	sb	zero,59(s0)
100046e6:	00072023          	sw	zero,0(a4)
100046ea:	d45c                	sw	a5,44(s0)
100046ec:	02042223          	sw	zero,36(s0)
100046f0:	0fffc097          	auipc	ra,0xfffc
100046f4:	ae2080e7          	jalr	-1310(ra) # 200001d2 <reset_non_control_endpoints>
100046f8:	20000737          	lui	a4,0x20000
100046fc:	0524a023          	sw	s2,64(s1) # 50110040 <__StackTop+0x3008e040>
10004700:	67f5                	lui	a5,0x1d
10004702:	c4f8                	sw	a4,76(s1)
10004704:	40f2                	lw	ra,28(sp)
10004706:	4462                	lw	s0,24(sp)
10004708:	07c1                	add	a5,a5,16 # 1d010 <HeapSize+0x1c810>
1000470a:	08f4a823          	sw	a5,144(s1)
1000470e:	6741                	lui	a4,0x10
10004710:	501127b7          	lui	a5,0x50112
10004714:	c7f8                	sw	a4,76(a5)
10004716:	44d2                	lw	s1,20(sp)
10004718:	4942                	lw	s2,16(sp)
1000471a:	49b2                	lw	s3,12(sp)
1000471c:	6105                	add	sp,sp,32
1000471e:	8082                	ret

10004720 <dcd_int_enable>:
10004720:	4585                	li	a1,1
10004722:	4539                	li	a0,14
10004724:	d5bfb06f          	j	1000047e <irq_set_enabled>

10004728 <dcd_set_address>:
10004728:	20004537          	lui	a0,0x20004
1000472c:	4601                	li	a2,0
1000472e:	4581                	li	a1,0
10004730:	f6850513          	add	a0,a0,-152 # 20003f68 <hw_endpoints+0x20>
10004734:	ac2d                	j	1000496e <hw_endpoint_xfer_start>

10004736 <dcd_sof_enable>:
10004736:	86b181a3          	sb	a1,-1949(gp) # 200043dc <_sof_enable>
1000473a:	c599                	beqz	a1,10004748 <dcd_sof_enable+0x12>
1000473c:	501127b7          	lui	a5,0x50112
10004740:	00020737          	lui	a4,0x20
10004744:	08e7a823          	sw	a4,144(a5) # 50112090 <__StackTop+0x30090090>
10004748:	8082                	ret

1000474a <dcd_edpt0_status_complete>:
1000474a:	0005c783          	lbu	a5,0(a1)
1000474e:	07f7f793          	and	a5,a5,127
10004752:	e791                	bnez	a5,1000475e <dcd_edpt0_status_complete+0x14>
10004754:	0015c703          	lbu	a4,1(a1)
10004758:	4795                	li	a5,5
1000475a:	00f70363          	beq	a4,a5,10004760 <dcd_edpt0_status_complete+0x16>
1000475e:	8082                	ret
10004760:	0025c703          	lbu	a4,2(a1)
10004764:	501107b7          	lui	a5,0x50110
10004768:	c398                	sw	a4,0(a5)
1000476a:	8082                	ret

1000476c <dcd_edpt_open>:
1000476c:	1101                	add	sp,sp,-32
1000476e:	cc22                	sw	s0,24(sp)
10004770:	ca26                	sw	s1,20(sp)
10004772:	c84a                	sw	s2,16(sp)
10004774:	c64e                	sw	s3,12(sp)
10004776:	ce06                	sw	ra,28(sp)
10004778:	0025c603          	lbu	a2,2(a1)
1000477c:	0055c783          	lbu	a5,5(a1)
10004780:	0045c703          	lbu	a4,4(a1)
10004784:	0035c403          	lbu	s0,3(a1)
10004788:	07f67693          	and	a3,a2,127
1000478c:	00765493          	srl	s1,a2,0x7
10004790:	07a2                	sll	a5,a5,0x8
10004792:	20004937          	lui	s2,0x20004
10004796:	8fd9                	or	a5,a5,a4
10004798:	f4890913          	add	s2,s2,-184 # 20003f48 <hw_endpoints>
1000479c:	2096a733          	sh1add	a4,a3,s1
100047a0:	0716                	sll	a4,a4,0x5
100047a2:	974a                	add	a4,a4,s2
100047a4:	0014c593          	xor	a1,s1,1
100047a8:	7ff7f793          	and	a5,a5,2047
100047ac:	880d                	and	s0,s0,3
100047ae:	00b700a3          	sb	a1,1(a4) # 20001 <HeapSize+0x1f801>
100047b2:	00c70123          	sb	a2,2(a4)
100047b6:	000701a3          	sb	zero,3(a4)
100047ba:	00f71c23          	sh	a5,24(a4)
100047be:	00870da3          	sb	s0,27(a4)
100047c2:	00169993          	sll	s3,a3,0x1
100047c6:	00369713          	sll	a4,a3,0x3
100047ca:	501005b7          	lui	a1,0x50100
100047ce:	e0c1                	bnez	s1,1000484e <dcd_edpt_open+0xe2>
100047d0:	08458593          	add	a1,a1,132 # 50100084 <__StackTop+0x3007e084>
100047d4:	00669613          	sll	a2,a3,0x6
100047d8:	972e                	add	a4,a4,a1
100047da:	964a                	add	a2,a2,s2
100047dc:	c618                	sw	a4,8(a2)
100047de:	00072023          	sw	zero,0(a4)
100047e2:	c2c1                	beqz	a3,10004862 <dcd_edpt_open+0xf6>
100047e4:	50100737          	lui	a4,0x50100
100047e8:	c452                	sw	s4,8(sp)
100047ea:	0711                	add	a4,a4,4 # 50100004 <__StackTop+0x3007e004>
100047ec:	20e6e6b3          	sh3add	a3,a3,a4
100047f0:	c254                	sw	a3,4(a2)
100047f2:	03f78793          	add	a5,a5,63 # 5011003f <__StackTop+0x3008e03f>
100047f6:	4709                	li	a4,2
100047f8:	fc07f793          	and	a5,a5,-64
100047fc:	00e41363          	bne	s0,a4,10004802 <dcd_edpt_open+0x96>
10004800:	0786                	sll	a5,a5,0x1
10004802:	8671a703          	lw	a4,-1945(gp) # 200043e0 <next_buffer_ptr>
10004806:	009986b3          	add	a3,s3,s1
1000480a:	0696                	sll	a3,a3,0x5
1000480c:	97ba                	add	a5,a5,a4
1000480e:	50100637          	lui	a2,0x50100
10004812:	96ca                	add	a3,a3,s2
10004814:	c6d8                	sw	a4,12(a3)
10004816:	86f1a3a3          	sw	a5,-1945(gp) # 200043e0 <next_buffer_ptr>
1000481a:	6685                	lui	a3,0x1
1000481c:	8fb1                	xor	a5,a5,a2
1000481e:	00c74a33          	xor	s4,a4,a2
10004822:	06f6ea63          	bltu	a3,a5,10004896 <dcd_edpt_open+0x12a>
10004826:	99a6                	add	s3,s3,s1
10004828:	0996                	sll	s3,s3,0x5
1000482a:	994e                	add	s2,s2,s3
1000482c:	00492783          	lw	a5,4(s2)
10004830:	046a                	sll	s0,s0,0x1a
10004832:	01446433          	or	s0,s0,s4
10004836:	29f41413          	bset	s0,s0,0x1f
1000483a:	40f2                	lw	ra,28(sp)
1000483c:	c380                	sw	s0,0(a5)
1000483e:	4462                	lw	s0,24(sp)
10004840:	4a22                	lw	s4,8(sp)
10004842:	44d2                	lw	s1,20(sp)
10004844:	4942                	lw	s2,16(sp)
10004846:	49b2                	lw	s3,12(sp)
10004848:	4505                	li	a0,1
1000484a:	6105                	add	sp,sp,32
1000484c:	8082                	ret
1000484e:	08058593          	add	a1,a1,128
10004852:	00669613          	sll	a2,a3,0x6
10004856:	972e                	add	a4,a4,a1
10004858:	964a                	add	a2,a2,s2
1000485a:	d618                	sw	a4,40(a2)
1000485c:	00072023          	sw	zero,0(a4)
10004860:	e295                	bnez	a3,10004884 <dcd_edpt_open+0x118>
10004862:	40f2                	lw	ra,28(sp)
10004864:	4462                	lw	s0,24(sp)
10004866:	0496                	sll	s1,s1,0x5
10004868:	501007b7          	lui	a5,0x50100
1000486c:	94ca                	add	s1,s1,s2
1000486e:	10078793          	add	a5,a5,256 # 50100100 <__StackTop+0x3007e100>
10004872:	0004a223          	sw	zero,4(s1)
10004876:	c4dc                	sw	a5,12(s1)
10004878:	4942                	lw	s2,16(sp)
1000487a:	44d2                	lw	s1,20(sp)
1000487c:	49b2                	lw	s3,12(sp)
1000487e:	4505                	li	a0,1
10004880:	6105                	add	sp,sp,32
10004882:	8082                	ret
10004884:	50100737          	lui	a4,0x50100
10004888:	c452                	sw	s4,8(sp)
1000488a:	16fd                	add	a3,a3,-1 # fff <HeapSize+0x7ff>
1000488c:	0721                	add	a4,a4,8 # 50100008 <__StackTop+0x3007e008>
1000488e:	20e6e6b3          	sh3add	a3,a3,a4
10004892:	d254                	sw	a3,36(a2)
10004894:	bfb9                	j	100047f2 <dcd_edpt_open+0x86>
10004896:	cbafd0ef          	jal	10001d50 <hard_assertion_failure>
1000489a:	b771                	j	10004826 <dcd_edpt_open+0xba>

1000489c <dcd_edpt_close_all>:
1000489c:	0fffc317          	auipc	t1,0xfffc
100048a0:	93630067          	jr	-1738(t1) # 200001d2 <reset_non_control_endpoints>

100048a4 <dcd_edpt_xfer>:
100048a4:	0075d793          	srl	a5,a1,0x7
100048a8:	07f5f513          	and	a0,a1,127
100048ac:	20f52533          	sh1add	a0,a0,a5
100048b0:	00551793          	sll	a5,a0,0x5
100048b4:	20004537          	lui	a0,0x20004
100048b8:	f4850513          	add	a0,a0,-184 # 20003f48 <hw_endpoints>
100048bc:	1141                	add	sp,sp,-16
100048be:	85b2                	mv	a1,a2
100048c0:	953e                	add	a0,a0,a5
100048c2:	8636                	mv	a2,a3
100048c4:	c606                	sw	ra,12(sp)
100048c6:	2065                	jal	1000496e <hw_endpoint_xfer_start>
100048c8:	40b2                	lw	ra,12(sp)
100048ca:	4505                	li	a0,1
100048cc:	0141                	add	sp,sp,16
100048ce:	8082                	ret

100048d0 <dcd_edpt_stall>:
100048d0:	07f5f513          	and	a0,a1,127
100048d4:	819d                	srl	a1,a1,0x7
100048d6:	e511                	bnez	a0,100048e2 <dcd_edpt_stall+0x12>
100048d8:	4789                	li	a5,2
100048da:	8f8d                	sub	a5,a5,a1
100048dc:	50112737          	lui	a4,0x50112
100048e0:	d73c                	sw	a5,104(a4)
100048e2:	200047b7          	lui	a5,0x20004
100048e6:	20b52533          	sh1add	a0,a0,a1
100048ea:	f4878793          	add	a5,a5,-184 # 20003f48 <hw_endpoints>
100048ee:	0516                	sll	a0,a0,0x5
100048f0:	28b01613          	bset	a2,zero,0xb
100048f4:	4581                	li	a1,0
100048f6:	953e                	add	a0,a0,a5
100048f8:	0fffc317          	auipc	t1,0xfffc
100048fc:	1dc30067          	jr	476(t1) # 20000ad4 <_hw_endpoint_buffer_control_update32>

10004900 <dcd_edpt_clear_stall>:
10004900:	07f5f793          	and	a5,a1,127
10004904:	e391                	bnez	a5,10004908 <dcd_edpt_clear_stall+0x8>
10004906:	8082                	ret
10004908:	819d                	srl	a1,a1,0x7
1000490a:	20004537          	lui	a0,0x20004
1000490e:	20b7a7b3          	sh1add	a5,a5,a1
10004912:	f4850513          	add	a0,a0,-184 # 20003f48 <hw_endpoints>
10004916:	0796                	sll	a5,a5,0x5
10004918:	75fd                	lui	a1,0xfffff
1000491a:	953e                	add	a0,a0,a5
1000491c:	4601                	li	a2,0
1000491e:	7ff58593          	add	a1,a1,2047 # fffff7ff <__StackTop+0xdff7d7ff>
10004922:	000501a3          	sb	zero,3(a0)
10004926:	0fffc317          	auipc	t1,0xfffc
1000492a:	1ae30067          	jr	430(t1) # 20000ad4 <_hw_endpoint_buffer_control_update32>

1000492e <rp2040_usb_init>:
1000492e:	1141                	add	sp,sp,-16
10004930:	c606                	sw	ra,12(sp)
10004932:	100007b7          	lui	a5,0x10000
10004936:	40022737          	lui	a4,0x40022
1000493a:	c31c                	sw	a5,0(a4)
1000493c:	400236b7          	lui	a3,0x40023
10004940:	40020737          	lui	a4,0x40020
10004944:	c29c                	sw	a5,0(a3)
10004946:	0721                	add	a4,a4,8 # 40020008 <__StackTop+0x1ff9e008>
10004948:	100006b7          	lui	a3,0x10000
1000494c:	431c                	lw	a5,0(a4)
1000494e:	40f6f7b3          	andn	a5,a3,a5
10004952:	ffed                	bnez	a5,1000494c <rp2040_usb_init+0x1e>
10004954:	6605                	lui	a2,0x1
10004956:	4581                	li	a1,0
10004958:	50100537          	lui	a0,0x50100
1000495c:	3f0020ef          	jal	10006d4c <memset>
10004960:	40b2                	lw	ra,12(sp)
10004962:	501107b7          	lui	a5,0x50110
10004966:	4725                	li	a4,9
10004968:	dbf8                	sw	a4,116(a5)
1000496a:	0141                	add	sp,sp,16
1000496c:	8082                	ret

1000496e <hw_endpoint_xfer_start>:
1000496e:	1141                	add	sp,sp,-16
10004970:	c422                	sw	s0,8(sp)
10004972:	c606                	sw	ra,12(sp)
10004974:	4785                	li	a5,1
10004976:	00c51a23          	sh	a2,20(a0) # 50100014 <__StackTop+0x3007e014>
1000497a:	00051b23          	sh	zero,22(a0)
1000497e:	00f50d23          	sb	a5,26(a0)
10004982:	c90c                	sw	a1,16(a0)
10004984:	842a                	mv	s0,a0
10004986:	0fffc097          	auipc	ra,0xfffc
1000498a:	0f6080e7          	jalr	246(ra) # 20000a7c <e15_is_bulkin_ep>
1000498e:	c519                	beqz	a0,1000499c <hw_endpoint_xfer_start+0x2e>
10004990:	501127b7          	lui	a5,0x50112
10004994:	00020737          	lui	a4,0x20
10004998:	08e7a823          	sw	a4,144(a5) # 50112090 <__StackTop+0x30090090>
1000499c:	8522                	mv	a0,s0
1000499e:	0fffc097          	auipc	ra,0xfffc
100049a2:	106080e7          	jalr	262(ra) # 20000aa4 <e15_is_critical_frame_period>
100049a6:	c901                	beqz	a0,100049b6 <hw_endpoint_xfer_start+0x48>
100049a8:	4785                	li	a5,1
100049aa:	00f40e23          	sb	a5,28(s0)
100049ae:	40b2                	lw	ra,12(sp)
100049b0:	4422                	lw	s0,8(sp)
100049b2:	0141                	add	sp,sp,16
100049b4:	8082                	ret
100049b6:	8522                	mv	a0,s0
100049b8:	4422                	lw	s0,8(sp)
100049ba:	40b2                	lw	ra,12(sp)
100049bc:	0141                	add	sp,sp,16
100049be:	0fffc317          	auipc	t1,0xfffc
100049c2:	16a30067          	jr	362(t1) # 20000b28 <hw_endpoint_start_next_buffer>

100049c6 <configuration_reset>:
100049c6:	1101                	add	sp,sp,-32
100049c8:	c84a                	sw	s2,16(sp)
100049ca:	c64e                	sw	s3,12(sp)
100049cc:	100079b7          	lui	s3,0x10007
100049d0:	cc22                	sw	s0,24(sp)
100049d2:	ca26                	sw	s1,20(sp)
100049d4:	c452                	sw	s4,8(sp)
100049d6:	87f1c703          	lbu	a4,-1921(gp) # 200043f8 <_app_driver_count>
100049da:	ce06                	sw	ra,28(sp)
100049dc:	84aa                	mv	s1,a0
100049de:	4401                	li	s0,0
100049e0:	4781                	li	a5,0
100049e2:	63c98993          	add	s3,s3,1596 # 1000763c <_usbd_driver>
100049e6:	a015                	j	10004a0a <configuration_reset+0x44>
100049e8:	8831a783          	lw	a5,-1917(gp) # 200043fc <_app_driver>
100049ec:	97b6                	add	a5,a5,a3
100049ee:	cfa5                	beqz	a5,10004a66 <configuration_reset+0xa0>
100049f0:	47dc                	lw	a5,12(a5)
100049f2:	8526                	mv	a0,s1
100049f4:	0405                	add	s0,s0,1
100049f6:	9782                	jalr	a5
100049f8:	87f1c703          	lbu	a4,-1921(gp) # 200043f8 <_app_driver_count>
100049fc:	0ff47413          	zext.b	s0,s0
10004a00:	87a2                	mv	a5,s0
10004a02:	00170693          	add	a3,a4,1 # 20001 <HeapSize+0x1f801>
10004a06:	0086ca63          	blt	a3,s0,10004a1a <configuration_reset+0x54>
10004a0a:	8f99                	sub	a5,a5,a4
10004a0c:	00541693          	sll	a3,s0,0x5
10004a10:	0796                	sll	a5,a5,0x5
10004a12:	fce46be3          	bltu	s0,a4,100049e8 <configuration_reset+0x22>
10004a16:	97ce                	add	a5,a5,s3
10004a18:	bfe1                	j	100049f0 <configuration_reset+0x2a>
10004a1a:	20004537          	lui	a0,0x20004
10004a1e:	05400613          	li	a2,84
10004a22:	4581                	li	a1,0
10004a24:	b1850513          	add	a0,a0,-1256 # 20003b18 <_usbd_dev>
10004a28:	324020ef          	jal	10006d4c <memset>
10004a2c:	200046b7          	lui	a3,0x20004
10004a30:	57fd                	li	a5,-1
10004a32:	b1c68693          	add	a3,a3,-1252 # 20003b1c <_usbd_dev+0x4>
10004a36:	20004737          	lui	a4,0x20004
10004a3a:	c6dc                	sw	a5,12(a3)
10004a3c:	c69c                	sw	a5,8(a3)
10004a3e:	b2c70713          	add	a4,a4,-1236 # 20003b2c <_usbd_dev+0x14>
10004a42:	c2dc                	sw	a5,4(a3)
10004a44:	c29c                	sw	a5,0(a3)
10004a46:	c31c                	sw	a5,0(a4)
10004a48:	c35c                	sw	a5,4(a4)
10004a4a:	c71c                	sw	a5,8(a4)
10004a4c:	c75c                	sw	a5,12(a4)
10004a4e:	cb1c                	sw	a5,16(a4)
10004a50:	cb5c                	sw	a5,20(a4)
10004a52:	cf1c                	sw	a5,24(a4)
10004a54:	cf5c                	sw	a5,28(a4)
10004a56:	40f2                	lw	ra,28(sp)
10004a58:	4462                	lw	s0,24(sp)
10004a5a:	44d2                	lw	s1,20(sp)
10004a5c:	4942                	lw	s2,16(sp)
10004a5e:	49b2                	lw	s3,12(sp)
10004a60:	4a22                	lw	s4,8(sp)
10004a62:	6105                	add	sp,sp,32
10004a64:	8082                	ret
10004a66:	9002                	ebreak
10004a68:	40f2                	lw	ra,28(sp)
10004a6a:	4462                	lw	s0,24(sp)
10004a6c:	44d2                	lw	s1,20(sp)
10004a6e:	4942                	lw	s2,16(sp)
10004a70:	49b2                	lw	s3,12(sp)
10004a72:	4a22                	lw	s4,8(sp)
10004a74:	6105                	add	sp,sp,32
10004a76:	8082                	ret

10004a78 <tud_event_hook_cb>:
10004a78:	8082                	ret

10004a7a <tud_sof_cb>:
10004a7a:	8082                	ret

10004a7c <tud_descriptor_device_qualifier_cb>:
10004a7c:	4501                	li	a0,0
10004a7e:	8082                	ret

10004a80 <tud_descriptor_other_speed_configuration_cb>:
10004a80:	4501                	li	a0,0
10004a82:	8082                	ret

10004a84 <tud_mount_cb>:
10004a84:	8082                	ret

10004a86 <tud_umount_cb>:
10004a86:	8082                	ret

10004a88 <tud_suspend_cb>:
10004a88:	8082                	ret

10004a8a <tud_resume_cb>:
10004a8a:	8082                	ret

10004a8c <tud_mounted>:
10004a8c:	200047b7          	lui	a5,0x20004
10004a90:	b1878793          	add	a5,a5,-1256 # 20003b18 <_usbd_dev>
10004a94:	0017c503          	lbu	a0,1(a5)
10004a98:	00a03533          	snez	a0,a0
10004a9c:	8082                	ret

10004a9e <tud_suspended>:
10004a9e:	200047b7          	lui	a5,0x20004
10004aa2:	b187a503          	lw	a0,-1256(a5) # 20003b18 <_usbd_dev>
10004aa6:	48255513          	bext	a0,a0,0x2
10004aaa:	8082                	ret

10004aac <tud_init>:
10004aac:	1101                	add	sp,sp,-32
10004aae:	c452                	sw	s4,8(sp)
10004ab0:	20003a37          	lui	s4,0x20003
10004ab4:	635a4703          	lbu	a4,1589(s4) # 20003635 <_usbd_rhport>
10004ab8:	ce06                	sw	ra,28(sp)
10004aba:	0ff00793          	li	a5,255
10004abe:	00f70763          	beq	a4,a5,10004acc <tud_init+0x20>
10004ac2:	40f2                	lw	ra,28(sp)
10004ac4:	4a22                	lw	s4,8(sp)
10004ac6:	4505                	li	a0,1
10004ac8:	6105                	add	sp,sp,32
10004aca:	8082                	ret
10004acc:	c84a                	sw	s2,16(sp)
10004ace:	892a                	mv	s2,a0
10004ad0:	20004537          	lui	a0,0x20004
10004ad4:	05400613          	li	a2,84
10004ad8:	4581                	li	a1,0
10004ada:	b1850513          	add	a0,a0,-1256 # 20003b18 <_usbd_dev>
10004ade:	cc22                	sw	s0,24(sp)
10004ae0:	ca26                	sw	s1,20(sp)
10004ae2:	c64e                	sw	s3,12(sp)
10004ae4:	c256                	sw	s5,4(sp)
10004ae6:	266020ef          	jal	10006d4c <memset>
10004aea:	87318513          	add	a0,gp,-1933 # 200043ec <_ubsd_mutexdef>
10004aee:	880183a3          	sb	zero,-1913(gp) # 20004400 <_usbd_queued_setup>
10004af2:	b98fc0ef          	jal	10000e8a <mutex_init>
10004af6:	20003537          	lui	a0,0x20003
10004afa:	87318413          	add	s0,gp,-1933 # 200043ec <_ubsd_mutexdef>
10004afe:	62c50513          	add	a0,a0,1580 # 2000362c <_usbd_qdef+0x14>
10004b02:	8681a7a3          	sw	s0,-1937(gp) # 200043e8 <_usbd_mutex>
10004b06:	ba8fc0ef          	jal	10000eae <critical_section_init>
10004b0a:	20003437          	lui	s0,0x20003
10004b0e:	61840513          	add	a0,s0,1560 # 20003618 <_usbd_qdef>
10004b12:	190020ef          	jal	10006ca2 <tu_fifo_clear>
10004b16:	61840413          	add	s0,s0,1560
10004b1a:	8681ada3          	sw	s0,-1925(gp) # 200043f4 <_usbd_q>
10004b1e:	100047b7          	lui	a5,0x10004
10004b22:	e8278793          	add	a5,a5,-382 # 10003e82 <usbd_app_driver_get_cb>
10004b26:	c7ad                	beqz	a5,10004b90 <tud_init+0xe4>
10004b28:	87f18513          	add	a0,gp,-1921 # 200043f8 <_app_driver_count>
10004b2c:	b56ff0ef          	jal	10003e82 <usbd_app_driver_get_cb>
10004b30:	87f1c703          	lbu	a4,-1921(gp) # 200043f8 <_app_driver_count>
10004b34:	88a1a1a3          	sw	a0,-1917(gp) # 200043fc <_app_driver>
10004b38:	100079b7          	lui	s3,0x10007
10004b3c:	4401                	li	s0,0
10004b3e:	4781                	li	a5,0
10004b40:	63c98993          	add	s3,s3,1596 # 1000763c <_usbd_driver>
10004b44:	a015                	j	10004b68 <tud_init+0xbc>
10004b46:	8831a783          	lw	a5,-1917(gp) # 200043fc <_app_driver>
10004b4a:	97b6                	add	a5,a5,a3
10004b4c:	c79d                	beqz	a5,10004b7a <tud_init+0xce>
10004b4e:	43dc                	lw	a5,4(a5)
10004b50:	c78d                	beqz	a5,10004b7a <tud_init+0xce>
10004b52:	9782                	jalr	a5
10004b54:	87f1c703          	lbu	a4,-1921(gp) # 200043f8 <_app_driver_count>
10004b58:	0405                	add	s0,s0,1
10004b5a:	0ff47413          	zext.b	s0,s0
10004b5e:	00170693          	add	a3,a4,1
10004b62:	87a2                	mv	a5,s0
10004b64:	0286c963          	blt	a3,s0,10004b96 <tud_init+0xea>
10004b68:	8f99                	sub	a5,a5,a4
10004b6a:	00541693          	sll	a3,s0,0x5
10004b6e:	0796                	sll	a5,a5,0x5
10004b70:	fce46be3          	bltu	s0,a4,10004b46 <tud_init+0x9a>
10004b74:	97ce                	add	a5,a5,s3
10004b76:	43dc                	lw	a5,4(a5)
10004b78:	ffe9                	bnez	a5,10004b52 <tud_init+0xa6>
10004b7a:	9002                	ebreak
10004b7c:	4462                	lw	s0,24(sp)
10004b7e:	40f2                	lw	ra,28(sp)
10004b80:	44d2                	lw	s1,20(sp)
10004b82:	4942                	lw	s2,16(sp)
10004b84:	49b2                	lw	s3,12(sp)
10004b86:	4a92                	lw	s5,4(sp)
10004b88:	4a22                	lw	s4,8(sp)
10004b8a:	4501                	li	a0,0
10004b8c:	6105                	add	sp,sp,32
10004b8e:	8082                	ret
10004b90:	87f1c703          	lbu	a4,-1921(gp) # 200043f8 <_app_driver_count>
10004b94:	b755                	j	10004b38 <tud_init+0x8c>
10004b96:	854a                	mv	a0,s2
10004b98:	632a0aa3          	sb	s2,1589(s4)
10004b9c:	ac5ff0ef          	jal	10004660 <dcd_init>
10004ba0:	854a                	mv	a0,s2
10004ba2:	b7fff0ef          	jal	10004720 <dcd_int_enable>
10004ba6:	4462                	lw	s0,24(sp)
10004ba8:	44d2                	lw	s1,20(sp)
10004baa:	4942                	lw	s2,16(sp)
10004bac:	49b2                	lw	s3,12(sp)
10004bae:	4a92                	lw	s5,4(sp)
10004bb0:	bf09                	j	10004ac2 <tud_init+0x16>

10004bb2 <tud_task_ext>:
10004bb2:	7159                	add	sp,sp,-112
10004bb4:	c8da                	sw	s6,80(sp)
10004bb6:	20003b37          	lui	s6,0x20003
10004bba:	635b4703          	lbu	a4,1589(s6) # 20003635 <_usbd_rhport>
10004bbe:	d686                	sw	ra,108(sp)
10004bc0:	0ff00793          	li	a5,255
10004bc4:	1ef70d63          	beq	a4,a5,10004dbe <tud_task_ext+0x20c>
10004bc8:	d4a2                	sw	s0,104(sp)
10004bca:	cece                	sw	s3,92(sp)
10004bcc:	10007437          	lui	s0,0x10007
10004bd0:	200049b7          	lui	s3,0x20004
10004bd4:	d2a6                	sw	s1,100(sp)
10004bd6:	d0ca                	sw	s2,96(sp)
10004bd8:	ccd2                	sw	s4,88(sp)
10004bda:	cad6                	sw	s5,84(sp)
10004bdc:	c6de                	sw	s7,76(sp)
10004bde:	4921                	li	s2,8
10004be0:	59440413          	add	s0,s0,1428 # 10007594 <usbd_desc_device+0x14>
10004be4:	b1898993          	add	s3,s3,-1256 # 20003b18 <_usbd_dev>
10004be8:	87b1ab83          	lw	s7,-1925(gp) # 200043f4 <_usbd_q>
10004bec:	014ba783          	lw	a5,20(s7)
10004bf0:	30047773          	csrrc	a4,mstatus,8
10004bf4:	00379693          	sll	a3,a5,0x3
10004bf8:	28d016b3          	bset	a3,zero,a3
10004bfc:	9bf1                	and	a5,a5,-4
10004bfe:	44d7a62f          	amoor.w.aq	a2,a3,(a5)
10004c02:	8e75                	and	a2,a2,a3
10004c04:	fe6d                	bnez	a2,10004bfe <tud_task_ext+0x4c>
10004c06:	0330000f          	fence	rw,rw
10004c0a:	00ebac23          	sw	a4,24(s7)
10004c0e:	104c                	add	a1,sp,36
10004c10:	855e                	mv	a0,s7
10004c12:	3dd010ef          	jal	100067ee <tu_fifo_read>
10004c16:	014ba703          	lw	a4,20(s7)
10004c1a:	018ba783          	lw	a5,24(s7)
10004c1e:	0330000f          	fence	rw,rw
10004c22:	00070023          	sb	zero,0(a4)
10004c26:	8ba1                	and	a5,a5,8
10004c28:	3007a073          	csrs	mstatus,a5
10004c2c:	18050263          	beqz	a0,10004db0 <tud_task_ext+0x1fe>
10004c30:	02514783          	lbu	a5,37(sp)
10004c34:	16f96763          	bltu	s2,a5,10004da2 <tud_task_ext+0x1f0>
10004c38:	2087c7b3          	sh2add	a5,a5,s0
10004c3c:	439c                	lw	a5,0(a5)
10004c3e:	8782                	jr	a5
10004c40:	57a2                	lw	a5,40(sp)
10004c42:	d3dd                	beqz	a5,10004be8 <tud_task_ext+0x36>
10004c44:	5532                	lw	a0,44(sp)
10004c46:	9782                	jalr	a5
10004c48:	b745                	j	10004be8 <tud_task_ext+0x36>
10004c4a:	02814583          	lbu	a1,40(sp)
10004c4e:	0075d713          	srl	a4,a1,0x7
10004c52:	07f5f693          	and	a3,a1,127
10004c56:	2136a7b3          	sh1add	a5,a3,s3
10004c5a:	97ba                	add	a5,a5,a4
10004c5c:	0347c703          	lbu	a4,52(a5)
10004c60:	9b79                	and	a4,a4,-2
10004c62:	02e78a23          	sb	a4,52(a5)
10004c66:	0347c703          	lbu	a4,52(a5)
10004c6a:	9b6d                	and	a4,a4,-5
10004c6c:	02e78a23          	sb	a4,52(a5)
10004c70:	14068b63          	beqz	a3,10004dc6 <tud_task_ext+0x214>
10004c74:	0147c783          	lbu	a5,20(a5)
10004c78:	87f1c703          	lbu	a4,-1921(gp) # 200043f8 <_app_driver_count>
10004c7c:	12e7f563          	bgeu	a5,a4,10004da6 <tud_task_ext+0x1f4>
10004c80:	8831a703          	lw	a4,-1917(gp) # 200043fc <_app_driver>
10004c84:	0796                	sll	a5,a5,0x5
10004c86:	97ba                	add	a5,a5,a4
10004c88:	12078363          	beqz	a5,10004dae <tud_task_ext+0x1fc>
10004c8c:	4f9c                	lw	a5,24(a5)
10004c8e:	56b2                	lw	a3,44(sp)
10004c90:	02914603          	lbu	a2,41(sp)
10004c94:	02414503          	lbu	a0,36(sp)
10004c98:	9782                	jalr	a5
10004c9a:	b7b9                	j	10004be8 <tud_task_ext+0x36>
10004c9c:	8871c783          	lbu	a5,-1913(gp) # 20004400 <_usbd_queued_setup>
10004ca0:	10078763          	beqz	a5,10004dae <tud_task_ext+0x1fc>
10004ca4:	8871c783          	lbu	a5,-1913(gp) # 20004400 <_usbd_queued_setup>
10004ca8:	17fd                	add	a5,a5,-1
10004caa:	0ff7f793          	zext.b	a5,a5
10004cae:	88f183a3          	sb	a5,-1913(gp) # 20004400 <_usbd_queued_setup>
10004cb2:	8871c783          	lbu	a5,-1913(gp) # 20004400 <_usbd_queued_setup>
10004cb6:	fb8d                	bnez	a5,10004be8 <tud_task_ext+0x36>
10004cb8:	c0ea                	sw	s10,64(sp)
10004cba:	20004d37          	lui	s10,0x20004
10004cbe:	de6e                	sw	s11,60(sp)
10004cc0:	b18d0d93          	add	s11,s10,-1256 # 20003b18 <_usbd_dev>
10004cc4:	000dc703          	lbu	a4,0(s11)
10004cc8:	4501                	li	a0,0
10004cca:	02414b83          	lbu	s7,36(sp)
10004cce:	00176713          	or	a4,a4,1
10004cd2:	00ed8023          	sb	a4,0(s11)
10004cd6:	034dc703          	lbu	a4,52(s11)
10004cda:	9b79                	and	a4,a4,-2
10004cdc:	02ed8a23          	sb	a4,52(s11)
10004ce0:	034dc703          	lbu	a4,52(s11)
10004ce4:	9b6d                	and	a4,a4,-5
10004ce6:	02ed8a23          	sb	a4,52(s11)
10004cea:	035dc703          	lbu	a4,53(s11)
10004cee:	9b79                	and	a4,a4,-2
10004cf0:	02ed8aa3          	sb	a4,53(s11)
10004cf4:	035dc703          	lbu	a4,53(s11)
10004cf8:	9b6d                	and	a4,a4,-5
10004cfa:	02ed8aa3          	sb	a4,53(s11)
10004cfe:	1bb000ef          	jal	100056b8 <usbd_control_set_complete_callback>
10004d02:	02814703          	lbu	a4,40(sp)
10004d06:	06000693          	li	a3,96
10004d0a:	06077713          	and	a4,a4,96
10004d0e:	00d70f63          	beq	a4,a3,10004d2c <tud_task_ext+0x17a>
10004d12:	04000693          	li	a3,64
10004d16:	0ed70a63          	beq	a4,a3,10004e0a <tud_task_ext+0x258>
10004d1a:	56a2                	lw	a3,40(sp)
10004d1c:	4605                	li	a2,1
10004d1e:	8afd                	and	a3,a3,31
10004d20:	14c68863          	beq	a3,a2,10004e70 <tud_task_ext+0x2be>
10004d24:	4609                	li	a2,2
10004d26:	10c68263          	beq	a3,a2,10004e2a <tud_task_ext+0x278>
10004d2a:	ced5                	beqz	a3,10004de6 <tud_task_ext+0x234>
10004d2c:	9002                	ebreak
10004d2e:	02414503          	lbu	a0,36(sp)
10004d32:	4581                	li	a1,0
10004d34:	b9dff0ef          	jal	100048d0 <dcd_edpt_stall>
10004d38:	02414503          	lbu	a0,36(sp)
10004d3c:	08000593          	li	a1,128
10004d40:	b91ff0ef          	jal	100048d0 <dcd_edpt_stall>
10004d44:	4d06                	lw	s10,64(sp)
10004d46:	5df2                	lw	s11,60(sp)
10004d48:	b545                	j	10004be8 <tud_task_ext+0x36>
10004d4a:	0009a783          	lw	a5,0(s3)
10004d4e:	8b85                	and	a5,a5,1
10004d50:	e8078ce3          	beqz	a5,10004be8 <tud_task_ext+0x36>
10004d54:	3b1d                	jal	10004a8a <tud_resume_cb>
10004d56:	bd49                	j	10004be8 <tud_task_ext+0x36>
10004d58:	02414503          	lbu	a0,36(sp)
10004d5c:	c6bff0ef          	jal	100049c6 <configuration_reset>
10004d60:	13b000ef          	jal	1000569a <usbd_control_reset>
10004d64:	57a2                	lw	a5,40(sp)
10004d66:	00f98123          	sb	a5,2(s3)
10004d6a:	bdbd                	j	10004be8 <tud_task_ext+0x36>
10004d6c:	0039c783          	lbu	a5,3(s3)
10004d70:	8b85                	and	a5,a5,1
10004d72:	e6078be3          	beqz	a5,10004be8 <tud_task_ext+0x36>
10004d76:	5522                	lw	a0,40(sp)
10004d78:	3309                	jal	10004a7a <tud_sof_cb>
10004d7a:	b5bd                	j	10004be8 <tud_task_ext+0x36>
10004d7c:	02414503          	lbu	a0,36(sp)
10004d80:	c47ff0ef          	jal	100049c6 <configuration_reset>
10004d84:	117000ef          	jal	1000569a <usbd_control_reset>
10004d88:	39fd                	jal	10004a86 <tud_umount_cb>
10004d8a:	bdb9                	j	10004be8 <tud_task_ext+0x36>
10004d8c:	0009a783          	lw	a5,0(s3)
10004d90:	8b85                	and	a5,a5,1
10004d92:	e4078be3          	beqz	a5,10004be8 <tud_task_ext+0x36>
10004d96:	0009a503          	lw	a0,0(s3)
10004d9a:	48355513          	bext	a0,a0,0x3
10004d9e:	31ed                	jal	10004a88 <tud_suspend_cb>
10004da0:	b5a1                	j	10004be8 <tud_task_ext+0x36>
10004da2:	9002                	ebreak
10004da4:	b591                	j	10004be8 <tud_task_ext+0x36>
10004da6:	00170693          	add	a3,a4,1
10004daa:	02f6d663          	bge	a3,a5,10004dd6 <tud_task_ext+0x224>
10004dae:	9002                	ebreak
10004db0:	5426                	lw	s0,104(sp)
10004db2:	5496                	lw	s1,100(sp)
10004db4:	5906                	lw	s2,96(sp)
10004db6:	49f6                	lw	s3,92(sp)
10004db8:	4a66                	lw	s4,88(sp)
10004dba:	4ad6                	lw	s5,84(sp)
10004dbc:	4bb6                	lw	s7,76(sp)
10004dbe:	50b6                	lw	ra,108(sp)
10004dc0:	4b46                	lw	s6,80(sp)
10004dc2:	6165                	add	sp,sp,112
10004dc4:	8082                	ret
10004dc6:	56b2                	lw	a3,44(sp)
10004dc8:	02914603          	lbu	a2,41(sp)
10004dcc:	02414503          	lbu	a0,36(sp)
10004dd0:	145000ef          	jal	10005714 <usbd_control_xfer_cb>
10004dd4:	bd11                	j	10004be8 <tud_task_ext+0x36>
10004dd6:	8f99                	sub	a5,a5,a4
10004dd8:	10007737          	lui	a4,0x10007
10004ddc:	0796                	sll	a5,a5,0x5
10004dde:	63c70713          	add	a4,a4,1596 # 1000763c <_usbd_driver>
10004de2:	97ba                	add	a5,a5,a4
10004de4:	b565                	j	10004c8c <tud_task_ext+0xda>
10004de6:	02000693          	li	a3,32
10004dea:	32d70363          	beq	a4,a3,10005110 <tud_task_ext+0x55e>
10004dee:	ff1d                	bnez	a4,10004d2c <tud_task_ext+0x17a>
10004df0:	02914703          	lbu	a4,41(sp)
10004df4:	46a5                	li	a3,9
10004df6:	f2e6ebe3          	bltu	a3,a4,10004d2c <tud_task_ext+0x17a>
10004dfa:	100076b7          	lui	a3,0x10007
10004dfe:	5b868693          	add	a3,a3,1464 # 100075b8 <usbd_desc_device+0x38>
10004e02:	20d74733          	sh2add	a4,a4,a3
10004e06:	4318                	lw	a4,0(a4)
10004e08:	8702                	jr	a4
10004e0a:	10004537          	lui	a0,0x10004
10004e0e:	e4050513          	add	a0,a0,-448 # 10003e40 <tud_vendor_control_xfer_cb>
10004e12:	0a7000ef          	jal	100056b8 <usbd_control_set_complete_callback>
10004e16:	1030                	add	a2,sp,40
10004e18:	4585                	li	a1,1
10004e1a:	855e                	mv	a0,s7
10004e1c:	824ff0ef          	jal	10003e40 <tud_vendor_control_xfer_cb>
10004e20:	f00507e3          	beqz	a0,10004d2e <tud_task_ext+0x17c>
10004e24:	4d06                	lw	s10,64(sp)
10004e26:	5df2                	lw	s11,60(sp)
10004e28:	b3c1                	j	10004be8 <tud_task_ext+0x36>
10004e2a:	02c14583          	lbu	a1,44(sp)
10004e2e:	0705f693          	and	a3,a1,112
10004e32:	ee069de3          	bnez	a3,10004d2c <tud_task_ext+0x17a>
10004e36:	07f5f613          	and	a2,a1,127
10004e3a:	0075dd13          	srl	s10,a1,0x7
10004e3e:	c4e2                	sw	s8,72(sp)
10004e40:	c2e6                	sw	s9,68(sp)
10004e42:	21b626b3          	sh1add	a3,a2,s11
10004e46:	96ea                	add	a3,a3,s10
10004e48:	0146c683          	lbu	a3,20(a3)
10004e4c:	87f1c503          	lbu	a0,-1921(gp) # 200043f8 <_app_driver_count>
10004e50:	00161c13          	sll	s8,a2,0x1
10004e54:	08a6f063          	bgeu	a3,a0,10004ed4 <tud_task_ext+0x322>
10004e58:	8831a603          	lw	a2,-1917(gp) # 200043fc <_app_driver>
10004e5c:	0696                	sll	a3,a3,0x5
10004e5e:	00d60cb3          	add	s9,a2,a3
10004e62:	2e070963          	beqz	a4,10005154 <tud_task_ext+0x5a2>
10004e66:	080c9563          	bnez	s9,10004ef0 <tud_task_ext+0x33e>
10004e6a:	4c26                	lw	s8,72(sp)
10004e6c:	4c96                	lw	s9,68(sp)
10004e6e:	b5c1                	j	10004d2e <tud_task_ext+0x17c>
10004e70:	02c14703          	lbu	a4,44(sp)
10004e74:	46bd                	li	a3,15
10004e76:	eae6ece3          	bltu	a3,a4,10004d2e <tud_task_ext+0x17c>
10004e7a:	976e                	add	a4,a4,s11
10004e7c:	c4e2                	sw	s8,72(sp)
10004e7e:	00474783          	lbu	a5,4(a4)
10004e82:	87f1c703          	lbu	a4,-1921(gp) # 200043f8 <_app_driver_count>
10004e86:	08e7e263          	bltu	a5,a4,10004f0a <tud_task_ext+0x358>
10004e8a:	00170693          	add	a3,a4,1
10004e8e:	04f6c163          	blt	a3,a5,10004ed0 <tud_task_ext+0x31e>
10004e92:	40e78c33          	sub	s8,a5,a4
10004e96:	100077b7          	lui	a5,0x10007
10004e9a:	0c16                	sll	s8,s8,0x5
10004e9c:	63c78793          	add	a5,a5,1596 # 1000763c <_usbd_driver>
10004ea0:	9c3e                	add	s8,s8,a5
10004ea2:	014c2503          	lw	a0,20(s8)
10004ea6:	013000ef          	jal	100056b8 <usbd_control_set_complete_callback>
10004eaa:	014c2783          	lw	a5,20(s8)
10004eae:	1030                	add	a2,sp,40
10004eb0:	4585                	li	a1,1
10004eb2:	855e                	mv	a0,s7
10004eb4:	9782                	jalr	a5
10004eb6:	2e051363          	bnez	a0,1000519c <tud_task_ext+0x5ea>
10004eba:	02814783          	lbu	a5,40(sp)
10004ebe:	0607f793          	and	a5,a5,96
10004ec2:	e799                	bnez	a5,10004ed0 <tud_task_ext+0x31e>
10004ec4:	02914783          	lbu	a5,41(sp)
10004ec8:	4705                	li	a4,1
10004eca:	17d9                	add	a5,a5,-10
10004ecc:	04f77863          	bgeu	a4,a5,10004f1c <tud_task_ext+0x36a>
10004ed0:	4c26                	lw	s8,72(sp)
10004ed2:	bdb1                	j	10004d2e <tud_task_ext+0x17c>
10004ed4:	00150613          	add	a2,a0,1
10004ed8:	26d64b63          	blt	a2,a3,1000514e <tud_task_ext+0x59c>
10004edc:	8e89                	sub	a3,a3,a0
10004ede:	10007637          	lui	a2,0x10007
10004ee2:	0696                	sll	a3,a3,0x5
10004ee4:	63c60613          	add	a2,a2,1596 # 1000763c <_usbd_driver>
10004ee8:	00c68cb3          	add	s9,a3,a2
10004eec:	26070463          	beqz	a4,10005154 <tud_task_ext+0x5a2>
10004ef0:	014ca503          	lw	a0,20(s9)
10004ef4:	7c4000ef          	jal	100056b8 <usbd_control_set_complete_callback>
10004ef8:	014ca783          	lw	a5,20(s9)
10004efc:	1030                	add	a2,sp,40
10004efe:	4585                	li	a1,1
10004f00:	855e                	mv	a0,s7
10004f02:	9782                	jalr	a5
10004f04:	4c26                	lw	s8,72(sp)
10004f06:	4c96                	lw	s9,68(sp)
10004f08:	bf21                	j	10004e20 <tud_task_ext+0x26e>
10004f0a:	8831a703          	lw	a4,-1917(gp) # 200043fc <_app_driver>
10004f0e:	0796                	sll	a5,a5,0x5
10004f10:	00f70c33          	add	s8,a4,a5
10004f14:	f80c17e3          	bnez	s8,10004ea2 <tud_task_ext+0x2f0>
10004f18:	4c26                	lw	s8,72(sp)
10004f1a:	bd11                	j	10004d2e <tud_task_ext+0x17c>
10004f1c:	79c000ef          	jal	100056b8 <usbd_control_set_complete_callback>
10004f20:	02914703          	lbu	a4,41(sp)
10004f24:	47a9                	li	a5,10
10004f26:	26f70363          	beq	a4,a5,1000518c <tud_task_ext+0x5da>
10004f2a:	102c                	add	a1,sp,40
10004f2c:	855e                	mv	a0,s7
10004f2e:	2d09                	jal	10005540 <tud_control_status>
10004f30:	4c26                	lw	s8,72(sp)
10004f32:	4d06                	lw	s10,64(sp)
10004f34:	5df2                	lw	s11,60(sp)
10004f36:	b94d                	j	10004be8 <tud_task_ext+0x36>
10004f38:	001dc783          	lbu	a5,1(s11)
10004f3c:	4685                	li	a3,1
10004f3e:	02210613          	add	a2,sp,34
10004f42:	102c                	add	a1,sp,40
10004f44:	855e                	mv	a0,s7
10004f46:	02f10123          	sb	a5,34(sp)
10004f4a:	2da1                	jal	100055a2 <tud_control_xfer>
10004f4c:	4d06                	lw	s10,64(sp)
10004f4e:	5df2                	lw	s11,60(sp)
10004f50:	b961                	j	10004be8 <tud_task_ext+0x36>
10004f52:	02a15503          	lhu	a0,42(sp)
10004f56:	473d                	li	a4,15
10004f58:	00855793          	srl	a5,a0,0x8
10004f5c:	86be                	mv	a3,a5
10004f5e:	0ff57513          	zext.b	a0,a0
10004f62:	dcf766e3          	bltu	a4,a5,10004d2e <tud_task_ext+0x17c>
10004f66:	10007737          	lui	a4,0x10007
10004f6a:	5e070713          	add	a4,a4,1504 # 100075e0 <usbd_desc_device+0x60>
10004f6e:	20e7c7b3          	sh2add	a5,a5,a4
10004f72:	439c                	lw	a5,0(a5)
10004f74:	8782                	jr	a5
10004f76:	c4e2                	sw	s8,72(sp)
10004f78:	001dc703          	lbu	a4,1(s11)
10004f7c:	02a14c03          	lbu	s8,42(sp)
10004f80:	faec05e3          	beq	s8,a4,10004f2a <tud_task_ext+0x378>
10004f84:	001dc703          	lbu	a4,1(s11)
10004f88:	2a071a63          	bnez	a4,1000523c <tud_task_ext+0x68a>
10004f8c:	018d80a3          	sb	s8,1(s11)
10004f90:	2a0c0363          	beqz	s8,10005236 <tud_task_ext+0x684>
10004f94:	fffc0513          	add	a0,s8,-1
10004f98:	0ff57513          	zext.b	a0,a0
10004f9c:	bbcff0ef          	jal	10004358 <tud_descriptor_configuration_cb>
10004fa0:	30050563          	beqz	a0,100052aa <tud_task_ext+0x6f8>
10004fa4:	00154783          	lbu	a5,1(a0)
10004fa8:	4709                	li	a4,2
10004faa:	c43e                	sw	a5,8(sp)
10004fac:	2ee79f63          	bne	a5,a4,100052aa <tud_task_ext+0x6f8>
10004fb0:	c2e6                	sw	s9,68(sp)
10004fb2:	00754683          	lbu	a3,7(a0)
10004fb6:	b18d4603          	lbu	a2,-1256(s10)
10004fba:	4866d713          	bext	a4,a3,0x6
10004fbe:	4856d693          	bext	a3,a3,0x5
10004fc2:	0716                	sll	a4,a4,0x5
10004fc4:	0692                	sll	a3,a3,0x4
10004fc6:	8f55                	or	a4,a4,a3
10004fc8:	fef67693          	and	a3,a2,-17
10004fcc:	fdf6f693          	and	a3,a3,-33
10004fd0:	8f55                	or	a4,a4,a3
10004fd2:	b0ed0c23          	sb	a4,-1256(s10)
10004fd6:	00354703          	lbu	a4,3(a0)
10004fda:	00254683          	lbu	a3,2(a0)
10004fde:	00950d13          	add	s10,a0,9
10004fe2:	0722                	sll	a4,a4,0x8
10004fe4:	8f55                	or	a4,a4,a3
10004fe6:	00e507b3          	add	a5,a0,a4
10004fea:	10007737          	lui	a4,0x10007
10004fee:	c23e                	sw	a5,4(sp)
10004ff0:	63c70793          	add	a5,a4,1596 # 1000763c <_usbd_driver>
10004ff4:	c63e                	sw	a5,12(sp)
10004ff6:	4792                	lw	a5,4(sp)
10004ff8:	2afd7563          	bgeu	s10,a5,100052a2 <tud_task_ext+0x6f0>
10004ffc:	001d4703          	lbu	a4,1(s10)
10005000:	47ad                	li	a5,11
10005002:	4305                	li	t1,1
10005004:	00f71963          	bne	a4,a5,10005016 <tud_task_ext+0x464>
10005008:	000d4703          	lbu	a4,0(s10)
1000500c:	003d4303          	lbu	t1,3(s10)
10005010:	9d3a                	add	s10,s10,a4
10005012:	001d4703          	lbu	a4,1(s10)
10005016:	4691                	li	a3,4
10005018:	06d71163          	bne	a4,a3,1000507a <tud_task_ext+0x4c8>
1000501c:	4792                	lw	a5,4(sp)
1000501e:	87f1c703          	lbu	a4,-1921(gp) # 200043f8 <_app_driver_count>
10005022:	4681                	li	a3,0
10005024:	41a78eb3          	sub	t4,a5,s10
10005028:	4c01                	li	s8,0
1000502a:	080eceb3          	zext.h	t4,t4
1000502e:	16e6fb63          	bgeu	a3,a4,100051a4 <tud_task_ext+0x5f2>
10005032:	8831a703          	lw	a4,-1917(gp) # 200043fc <_app_driver>
10005036:	00569613          	sll	a2,a3,0x5
1000503a:	9732                	add	a4,a4,a2
1000503c:	cf1d                	beqz	a4,1000507a <tud_task_ext+0x4c8>
1000503e:	01072f03          	lw	t5,16(a4)
10005042:	8676                	mv	a2,t4
10005044:	85ea                	mv	a1,s10
10005046:	855e                	mv	a0,s7
10005048:	ce36                	sw	a3,28(sp)
1000504a:	cc1a                	sw	t1,24(sp)
1000504c:	c876                	sw	t4,16(sp)
1000504e:	ca3a                	sw	a4,20(sp)
10005050:	9f02                	jalr	t5
10005052:	4e21                	li	t3,8
10005054:	4ec2                	lw	t4,16(sp)
10005056:	4362                	lw	t1,24(sp)
10005058:	46f2                	lw	a3,28(sp)
1000505a:	862a                	mv	a2,a0
1000505c:	00ae7563          	bgeu	t3,a0,10005066 <tud_task_ext+0x4b4>
10005060:	4752                	lw	a4,20(sp)
10005062:	2aaef063          	bgeu	t4,a0,10005302 <tud_task_ext+0x750>
10005066:	87f1c703          	lbu	a4,-1921(gp) # 200043f8 <_app_driver_count>
1000506a:	0685                	add	a3,a3,1
1000506c:	0ff6f693          	zext.b	a3,a3
10005070:	00170613          	add	a2,a4,1
10005074:	8c36                	mv	s8,a3
10005076:	fad65ce3          	bge	a2,a3,1000502e <tud_task_ext+0x47c>
1000507a:	9002                	ebreak
1000507c:	4c96                	lw	s9,68(sp)
1000507e:	9002                	ebreak
10005080:	000d80a3          	sb	zero,1(s11)
10005084:	4c26                	lw	s8,72(sp)
10005086:	b165                	j	10004d2e <tud_task_ext+0x17c>
10005088:	1028                	add	a0,sp,40
1000508a:	2d25                	jal	100056c2 <usbd_control_set_request>
1000508c:	02a14583          	lbu	a1,42(sp)
10005090:	855e                	mv	a0,s7
10005092:	e96ff0ef          	jal	10004728 <dcd_set_address>
10005096:	000dc703          	lbu	a4,0(s11)
1000509a:	4d06                	lw	s10,64(sp)
1000509c:	00276713          	or	a4,a4,2
100050a0:	00ed8023          	sb	a4,0(s11)
100050a4:	5df2                	lw	s11,60(sp)
100050a6:	b689                	j	10004be8 <tud_task_ext+0x36>
100050a8:	02a15683          	lhu	a3,42(sp)
100050ac:	4705                	li	a4,1
100050ae:	c8e690e3          	bne	a3,a4,10004d2e <tud_task_ext+0x17c>
100050b2:	000dc703          	lbu	a4,0(s11)
100050b6:	102c                	add	a1,sp,40
100050b8:	855e                	mv	a0,s7
100050ba:	00876713          	or	a4,a4,8
100050be:	00ed8023          	sb	a4,0(s11)
100050c2:	29bd                	jal	10005540 <tud_control_status>
100050c4:	4d06                	lw	s10,64(sp)
100050c6:	5df2                	lw	s11,60(sp)
100050c8:	b605                	j	10004be8 <tud_task_ext+0x36>
100050ca:	02a15683          	lhu	a3,42(sp)
100050ce:	4705                	li	a4,1
100050d0:	c4e69fe3          	bne	a3,a4,10004d2e <tud_task_ext+0x17c>
100050d4:	000dc703          	lbu	a4,0(s11)
100050d8:	102c                	add	a1,sp,40
100050da:	855e                	mv	a0,s7
100050dc:	9b5d                	and	a4,a4,-9
100050de:	00ed8023          	sb	a4,0(s11)
100050e2:	29b9                	jal	10005540 <tud_control_status>
100050e4:	4d06                	lw	s10,64(sp)
100050e6:	5df2                	lw	s11,60(sp)
100050e8:	b601                	j	10004be8 <tud_task_ext+0x36>
100050ea:	000dc783          	lbu	a5,0(s11)
100050ee:	4689                	li	a3,2
100050f0:	02210613          	add	a2,sp,34
100050f4:	0027d713          	srl	a4,a5,0x2
100050f8:	8b09                	and	a4,a4,2
100050fa:	102c                	add	a1,sp,40
100050fc:	855e                	mv	a0,s7
100050fe:	4857d793          	bext	a5,a5,0x5
10005102:	8fd9                	or	a5,a5,a4
10005104:	02f11123          	sh	a5,34(sp)
10005108:	2969                	jal	100055a2 <tud_control_xfer>
1000510a:	4d06                	lw	s10,64(sp)
1000510c:	5df2                	lw	s11,60(sp)
1000510e:	bce9                	j	10004be8 <tud_task_ext+0x36>
10005110:	02c14703          	lbu	a4,44(sp)
10005114:	46bd                	li	a3,15
10005116:	c0e6ece3          	bltu	a3,a4,10004d2e <tud_task_ext+0x17c>
1000511a:	976e                	add	a4,a4,s11
1000511c:	c4e2                	sw	s8,72(sp)
1000511e:	00474783          	lbu	a5,4(a4)
10005122:	87f1c703          	lbu	a4,-1921(gp) # 200043f8 <_app_driver_count>
10005126:	08e7f563          	bgeu	a5,a4,100051b0 <tud_task_ext+0x5fe>
1000512a:	8831a703          	lw	a4,-1917(gp) # 200043fc <_app_driver>
1000512e:	0796                	sll	a5,a5,0x5
10005130:	00f70c33          	add	s8,a4,a5
10005134:	d80c0ee3          	beqz	s8,10004ed0 <tud_task_ext+0x31e>
10005138:	014c2503          	lw	a0,20(s8)
1000513c:	2bb5                	jal	100056b8 <usbd_control_set_complete_callback>
1000513e:	014c2783          	lw	a5,20(s8)
10005142:	1030                	add	a2,sp,40
10005144:	4585                	li	a1,1
10005146:	855e                	mv	a0,s7
10005148:	9782                	jalr	a5
1000514a:	4c26                	lw	s8,72(sp)
1000514c:	b9d1                	j	10004e20 <tud_task_ext+0x26e>
1000514e:	4c81                	li	s9,0
10005150:	d0071de3          	bnez	a4,10004e6a <tud_task_ext+0x2b8>
10005154:	02914703          	lbu	a4,41(sp)
10005158:	4605                	li	a2,1
1000515a:	0fd77693          	and	a3,a4,253
1000515e:	06c68a63          	beq	a3,a2,100051d2 <tud_task_ext+0x620>
10005162:	e725                	bnez	a4,100051ca <tud_task_ext+0x618>
10005164:	018d87b3          	add	a5,s11,s8
10005168:	97ea                	add	a5,a5,s10
1000516a:	0347c783          	lbu	a5,52(a5)
1000516e:	4689                	li	a3,2
10005170:	02210613          	add	a2,sp,34
10005174:	4817d793          	bext	a5,a5,0x1
10005178:	102c                	add	a1,sp,40
1000517a:	855e                	mv	a0,s7
1000517c:	02f11123          	sh	a5,34(sp)
10005180:	210d                	jal	100055a2 <tud_control_xfer>
10005182:	4c26                	lw	s8,72(sp)
10005184:	4c96                	lw	s9,68(sp)
10005186:	4d06                	lw	s10,64(sp)
10005188:	5df2                	lw	s11,60(sp)
1000518a:	bcb9                	j	10004be8 <tud_task_ext+0x36>
1000518c:	4685                	li	a3,1
1000518e:	02210613          	add	a2,sp,34
10005192:	102c                	add	a1,sp,40
10005194:	855e                	mv	a0,s7
10005196:	02010123          	sb	zero,34(sp)
1000519a:	2121                	jal	100055a2 <tud_control_xfer>
1000519c:	4c26                	lw	s8,72(sp)
1000519e:	4d06                	lw	s10,64(sp)
100051a0:	5df2                	lw	s11,60(sp)
100051a2:	b499                	j	10004be8 <tud_task_ext+0x36>
100051a4:	47b2                	lw	a5,12(sp)
100051a6:	40ec0733          	sub	a4,s8,a4
100051aa:	0716                	sll	a4,a4,0x5
100051ac:	973e                	add	a4,a4,a5
100051ae:	bd41                	j	1000503e <tud_task_ext+0x48c>
100051b0:	00170693          	add	a3,a4,1
100051b4:	d0f6cee3          	blt	a3,a5,10004ed0 <tud_task_ext+0x31e>
100051b8:	40e78c33          	sub	s8,a5,a4
100051bc:	100077b7          	lui	a5,0x10007
100051c0:	0c16                	sll	s8,s8,0x5
100051c2:	63c78793          	add	a5,a5,1596 # 1000763c <_usbd_driver>
100051c6:	9c3e                	add	s8,s8,a5
100051c8:	bf85                	j	10005138 <tud_task_ext+0x586>
100051ca:	9002                	ebreak
100051cc:	4c26                	lw	s8,72(sp)
100051ce:	4c96                	lw	s9,68(sp)
100051d0:	beb9                	j	10004d2e <tud_task_ext+0x17c>
100051d2:	02a15603          	lhu	a2,42(sp)
100051d6:	e615                	bnez	a2,10005202 <tud_task_ext+0x650>
100051d8:	635b4503          	lbu	a0,1589(s6)
100051dc:	0ad70363          	beq	a4,a3,10005282 <tud_task_ext+0x6d0>
100051e0:	ef0ff0ef          	jal	100048d0 <dcd_edpt_stall>
100051e4:	018d8733          	add	a4,s11,s8
100051e8:	976a                	add	a4,a4,s10
100051ea:	03474683          	lbu	a3,52(a4)
100051ee:	0026e693          	or	a3,a3,2
100051f2:	02d70a23          	sb	a3,52(a4)
100051f6:	03474683          	lbu	a3,52(a4)
100051fa:	0016e693          	or	a3,a3,1
100051fe:	02d70a23          	sb	a3,52(a4)
10005202:	f80c80e3          	beqz	s9,10005182 <tud_task_ext+0x5d0>
10005206:	014ca503          	lw	a0,20(s9)
1000520a:	217d                	jal	100056b8 <usbd_control_set_complete_callback>
1000520c:	014ca703          	lw	a4,20(s9)
10005210:	1030                	add	a2,sp,40
10005212:	4585                	li	a1,1
10005214:	855e                	mv	a0,s7
10005216:	9702                	jalr	a4
10005218:	4501                	li	a0,0
1000521a:	2979                	jal	100056b8 <usbd_control_set_complete_callback>
1000521c:	034da783          	lw	a5,52(s11)
10005220:	4887d793          	bext	a5,a5,0x8
10005224:	ffb9                	bnez	a5,10005182 <tud_task_ext+0x5d0>
10005226:	102c                	add	a1,sp,40
10005228:	855e                	mv	a0,s7
1000522a:	2e19                	jal	10005540 <tud_control_status>
1000522c:	4c26                	lw	s8,72(sp)
1000522e:	4c96                	lw	s9,68(sp)
10005230:	4d06                	lw	s10,64(sp)
10005232:	5df2                	lw	s11,60(sp)
10005234:	ba55                	j	10004be8 <tud_task_ext+0x36>
10005236:	851ff0ef          	jal	10004a86 <tud_umount_cb>
1000523a:	b9c5                	j	10004f2a <tud_task_ext+0x378>
1000523c:	4581                	li	a1,0
1000523e:	855e                	mv	a0,s7
10005240:	c2e6                	sw	s9,68(sp)
10005242:	cf4ff0ef          	jal	10004736 <dcd_sof_enable>
10005246:	855e                	mv	a0,s7
10005248:	e54ff0ef          	jal	1000489c <dcd_edpt_close_all>
1000524c:	002dcc83          	lbu	s9,2(s11)
10005250:	855e                	mv	a0,s7
10005252:	f74ff0ef          	jal	100049c6 <configuration_reset>
10005256:	019d8123          	sb	s9,2(s11)
1000525a:	4c96                	lw	s9,68(sp)
1000525c:	bb05                	j	10004f8c <tud_task_ext+0x3da>
1000525e:	bd9fe0ef          	jal	10003e36 <tud_descriptor_bos_cb>
10005262:	862a                	mv	a2,a0
10005264:	ac0505e3          	beqz	a0,10004d2e <tud_task_ext+0x17c>
10005268:	00364783          	lbu	a5,3(a2)
1000526c:	00264683          	lbu	a3,2(a2)
10005270:	102c                	add	a1,sp,40
10005272:	07a2                	sll	a5,a5,0x8
10005274:	8edd                	or	a3,a3,a5
10005276:	855e                	mv	a0,s7
10005278:	262d                	jal	100055a2 <tud_control_xfer>
1000527a:	87aa                	mv	a5,a0
1000527c:	ba0794e3          	bnez	a5,10004e24 <tud_task_ext+0x272>
10005280:	b47d                	j	10004d2e <tud_task_ext+0x17c>
10005282:	e7eff0ef          	jal	10004900 <dcd_edpt_clear_stall>
10005286:	018d8733          	add	a4,s11,s8
1000528a:	976a                	add	a4,a4,s10
1000528c:	03474683          	lbu	a3,52(a4)
10005290:	9af5                	and	a3,a3,-3
10005292:	02d70a23          	sb	a3,52(a4)
10005296:	03474683          	lbu	a3,52(a4)
1000529a:	9af9                	and	a3,a3,-2
1000529c:	02d70a23          	sb	a3,52(a4)
100052a0:	b78d                	j	10005202 <tud_task_ext+0x650>
100052a2:	fe2ff0ef          	jal	10004a84 <tud_mount_cb>
100052a6:	4c96                	lw	s9,68(sp)
100052a8:	b149                	j	10004f2a <tud_task_ext+0x378>
100052aa:	9002                	ebreak
100052ac:	bbc9                	j	1000507e <tud_task_ext+0x4cc>
100052ae:	fceff0ef          	jal	10004a7c <tud_descriptor_device_qualifier_cb>
100052b2:	862a                	mv	a2,a0
100052b4:	a6050de3          	beqz	a0,10004d2e <tud_task_ext+0x17c>
100052b8:	00064683          	lbu	a3,0(a2)
100052bc:	102c                	add	a1,sp,40
100052be:	855e                	mv	a0,s7
100052c0:	24cd                	jal	100055a2 <tud_control_xfer>
100052c2:	87aa                	mv	a5,a0
100052c4:	b60790e3          	bnez	a5,10004e24 <tud_task_ext+0x272>
100052c8:	b49d                	j	10004d2e <tud_task_ext+0x17c>
100052ca:	02c15583          	lhu	a1,44(sp)
100052ce:	894ff0ef          	jal	10004362 <tud_descriptor_string_cb>
100052d2:	862a                	mv	a2,a0
100052d4:	f175                	bnez	a0,100052b8 <tud_task_ext+0x706>
100052d6:	bca1                	j	10004d2e <tud_task_ext+0x17c>
100052d8:	4789                	li	a5,2
100052da:	08f68963          	beq	a3,a5,1000536c <tud_task_ext+0x7ba>
100052de:	fa2ff0ef          	jal	10004a80 <tud_descriptor_other_speed_configuration_cb>
100052e2:	862a                	mv	a2,a0
100052e4:	f151                	bnez	a0,10005268 <tud_task_ext+0x6b6>
100052e6:	b4a1                	j	10004d2e <tud_task_ext+0x17c>
100052e8:	866ff0ef          	jal	1000434e <tud_descriptor_device_cb>
100052ec:	862a                	mv	a2,a0
100052ee:	a2050fe3          	beqz	a0,10004d2c <tud_task_ext+0x17a>
100052f2:	46c9                	li	a3,18
100052f4:	102c                	add	a1,sp,40
100052f6:	855e                	mv	a0,s7
100052f8:	246d                	jal	100055a2 <tud_control_xfer>
100052fa:	87aa                	mv	a5,a0
100052fc:	b20794e3          	bnez	a5,10004e24 <tud_task_ext+0x272>
10005300:	b43d                	j	10004d2e <tud_task_ext+0x17c>
10005302:	4505                	li	a0,1
10005304:	04a30b63          	beq	t1,a0,1000535a <tud_task_ext+0x7a8>
10005308:	02030963          	beqz	t1,1000533a <tud_task_ext+0x788>
1000530c:	002d4e83          	lbu	t4,2(s10)
10005310:	4701                	li	a4,0
10005312:	0ff00e13          	li	t3,255
10005316:	a801                	j	10005326 <tud_task_ext+0x774>
10005318:	0705                	add	a4,a4,1
1000531a:	00d50223          	sb	a3,4(a0)
1000531e:	0ff77713          	zext.b	a4,a4
10005322:	00677c63          	bgeu	a4,t1,1000533a <tud_task_ext+0x788>
10005326:	00ee8533          	add	a0,t4,a4
1000532a:	0ff57513          	zext.b	a0,a0
1000532e:	956e                	add	a0,a0,s11
10005330:	00454f03          	lbu	t5,4(a0)
10005334:	ffcf02e3          	beq	t5,t3,10005318 <tud_task_ext+0x766>
10005338:	b389                	j	1000507a <tud_task_ext+0x4c8>
1000533a:	200047b7          	lui	a5,0x20004
1000533e:	85ea                	mv	a1,s10
10005340:	b2c78513          	add	a0,a5,-1236 # 20003b2c <_usbd_dev+0x14>
10005344:	c832                	sw	a2,16(sp)
10005346:	11c010ef          	jal	10006462 <tu_edpt_bind_driver>
1000534a:	87f1c703          	lbu	a4,-1921(gp) # 200043f8 <_app_driver_count>
1000534e:	4642                	lw	a2,16(sp)
10005350:	0705                	add	a4,a4,1
10005352:	9d32                	add	s10,s10,a2
10005354:	cb8751e3          	bge	a4,s8,10004ff6 <tud_task_ext+0x444>
10005358:	b30d                	j	1000507a <tud_task_ext+0x4c8>
1000535a:	4b08                	lw	a0,16(a4)
1000535c:	10006737          	lui	a4,0x10006
10005360:	ca270713          	add	a4,a4,-862 # 10005ca2 <cdcd_open>
10005364:	fae514e3          	bne	a0,a4,1000530c <tud_task_ext+0x75a>
10005368:	4322                	lw	t1,8(sp)
1000536a:	b74d                	j	1000530c <tud_task_ext+0x75a>
1000536c:	fedfe0ef          	jal	10004358 <tud_descriptor_configuration_cb>
10005370:	862a                	mv	a2,a0
10005372:	ee051be3          	bnez	a0,10005268 <tud_task_ext+0x6b6>
10005376:	ba5d                	j	10004d2c <tud_task_ext+0x17a>

10005378 <usbd_open_edpt_pair>:
10005378:	c279                	beqz	a2,1000543e <usbd_open_edpt_pair+0xc6>
1000537a:	7179                	add	sp,sp,-48
1000537c:	c65e                	sw	s7,12(sp)
1000537e:	20004bb7          	lui	s7,0x20004
10005382:	d422                	sw	s0,40(sp)
10005384:	d226                	sw	s1,36(sp)
10005386:	d04a                	sw	s2,32(sp)
10005388:	ce4e                	sw	s3,28(sp)
1000538a:	cc52                	sw	s4,24(sp)
1000538c:	ca56                	sw	s5,20(sp)
1000538e:	c85a                	sw	s6,16(sp)
10005390:	c462                	sw	s8,8(sp)
10005392:	c266                	sw	s9,4(sp)
10005394:	d606                	sw	ra,44(sp)
10005396:	c06a                	sw	s10,0(sp)
10005398:	84b2                	mv	s1,a2
1000539a:	842e                	mv	s0,a1
1000539c:	8936                	mv	s2,a3
1000539e:	8b3a                	mv	s6,a4
100053a0:	8c3e                	mv	s8,a5
100053a2:	4c81                	li	s9,0
100053a4:	4995                	li	s3,5
100053a6:	20003a37          	lui	s4,0x20003
100053aa:	b18b8b93          	add	s7,s7,-1256 # 20003b18 <_usbd_dev>
100053ae:	4a85                	li	s5,1
100053b0:	00144783          	lbu	a5,1(s0)
100053b4:	8522                	mv	a0,s0
100053b6:	05379a63          	bne	a5,s3,1000540a <usbd_open_edpt_pair+0x92>
100053ba:	00344583          	lbu	a1,3(s0)
100053be:	898d                	and	a1,a1,3
100053c0:	05259563          	bne	a1,s2,1000540a <usbd_open_edpt_pair+0x92>
100053c4:	00244583          	lbu	a1,2(s0)
100053c8:	635a4d03          	lbu	s10,1589(s4) # 20003635 <_usbd_rhport>
100053cc:	0705f593          	and	a1,a1,112
100053d0:	ed85                	bnez	a1,10005408 <usbd_open_edpt_pair+0x90>
100053d2:	002bc583          	lbu	a1,2(s7)
100053d6:	018010ef          	jal	100063ee <tu_edpt_validate>
100053da:	87aa                	mv	a5,a0
100053dc:	85a2                	mv	a1,s0
100053de:	856a                	mv	a0,s10
100053e0:	c785                	beqz	a5,10005408 <usbd_open_edpt_pair+0x90>
100053e2:	b8aff0ef          	jal	1000476c <dcd_edpt_open>
100053e6:	c115                	beqz	a0,1000540a <usbd_open_edpt_pair+0x92>
100053e8:	00244783          	lbu	a5,2(s0)
100053ec:	0077d713          	srl	a4,a5,0x7
100053f0:	03570d63          	beq	a4,s5,1000542a <usbd_open_edpt_pair+0xb2>
100053f4:	00fb0023          	sb	a5,0(s6)
100053f8:	00044783          	lbu	a5,0(s0)
100053fc:	0c85                	add	s9,s9,1
100053fe:	943e                	add	s0,s0,a5
10005400:	fb9498e3          	bne	s1,s9,100053b0 <usbd_open_edpt_pair+0x38>
10005404:	4505                	li	a0,1
10005406:	a021                	j	1000540e <usbd_open_edpt_pair+0x96>
10005408:	9002                	ebreak
1000540a:	9002                	ebreak
1000540c:	4501                	li	a0,0
1000540e:	50b2                	lw	ra,44(sp)
10005410:	5422                	lw	s0,40(sp)
10005412:	5492                	lw	s1,36(sp)
10005414:	5902                	lw	s2,32(sp)
10005416:	49f2                	lw	s3,28(sp)
10005418:	4a62                	lw	s4,24(sp)
1000541a:	4ad2                	lw	s5,20(sp)
1000541c:	4b42                	lw	s6,16(sp)
1000541e:	4bb2                	lw	s7,12(sp)
10005420:	4c22                	lw	s8,8(sp)
10005422:	4c92                	lw	s9,4(sp)
10005424:	4d02                	lw	s10,0(sp)
10005426:	6145                	add	sp,sp,48
10005428:	8082                	ret
1000542a:	00fc0023          	sb	a5,0(s8)
1000542e:	00044783          	lbu	a5,0(s0)
10005432:	0c85                	add	s9,s9,1
10005434:	943e                	add	s0,s0,a5
10005436:	f7949de3          	bne	s1,s9,100053b0 <usbd_open_edpt_pair+0x38>
1000543a:	4505                	li	a0,1
1000543c:	bfc9                	j	1000540e <usbd_open_edpt_pair+0x96>
1000543e:	4505                	li	a0,1
10005440:	8082                	ret

10005442 <usbd_edpt_open>:
10005442:	1141                	add	sp,sp,-16
10005444:	c226                	sw	s1,4(sp)
10005446:	c606                	sw	ra,12(sp)
10005448:	0025c783          	lbu	a5,2(a1)
1000544c:	20003737          	lui	a4,0x20003
10005450:	63574483          	lbu	s1,1589(a4) # 20003635 <_usbd_rhport>
10005454:	0707f793          	and	a5,a5,112
10005458:	c799                	beqz	a5,10005466 <usbd_edpt_open+0x24>
1000545a:	9002                	ebreak
1000545c:	40b2                	lw	ra,12(sp)
1000545e:	4492                	lw	s1,4(sp)
10005460:	4501                	li	a0,0
10005462:	0141                	add	sp,sp,16
10005464:	8082                	ret
10005466:	200047b7          	lui	a5,0x20004
1000546a:	c422                	sw	s0,8(sp)
1000546c:	842e                	mv	s0,a1
1000546e:	b1a7c583          	lbu	a1,-1254(a5) # 20003b1a <_usbd_dev+0x2>
10005472:	8522                	mv	a0,s0
10005474:	77b000ef          	jal	100063ee <tu_edpt_validate>
10005478:	e901                	bnez	a0,10005488 <usbd_edpt_open+0x46>
1000547a:	9002                	ebreak
1000547c:	4422                	lw	s0,8(sp)
1000547e:	40b2                	lw	ra,12(sp)
10005480:	4492                	lw	s1,4(sp)
10005482:	4501                	li	a0,0
10005484:	0141                	add	sp,sp,16
10005486:	8082                	ret
10005488:	85a2                	mv	a1,s0
1000548a:	4422                	lw	s0,8(sp)
1000548c:	40b2                	lw	ra,12(sp)
1000548e:	8526                	mv	a0,s1
10005490:	4492                	lw	s1,4(sp)
10005492:	0141                	add	sp,sp,16
10005494:	ad8ff06f          	j	1000476c <dcd_edpt_open>

10005498 <usbd_edpt_claim>:
10005498:	852e                	mv	a0,a1
1000549a:	0075d793          	srl	a5,a1,0x7
1000549e:	03478793          	add	a5,a5,52
100054a2:	07f57513          	and	a0,a0,127
100054a6:	20f52533          	sh1add	a0,a0,a5
100054aa:	86f1a583          	lw	a1,-1937(gp) # 200043e8 <_usbd_mutex>
100054ae:	200047b7          	lui	a5,0x20004
100054b2:	b1878793          	add	a5,a5,-1256 # 20003b18 <_usbd_dev>
100054b6:	953e                	add	a0,a0,a5
100054b8:	6630006f          	j	1000631a <tu_edpt_claim>

100054bc <usbd_edpt_release>:
100054bc:	852e                	mv	a0,a1
100054be:	0075d793          	srl	a5,a1,0x7
100054c2:	03478793          	add	a5,a5,52
100054c6:	07f57513          	and	a0,a0,127
100054ca:	20f52533          	sh1add	a0,a0,a5
100054ce:	86f1a583          	lw	a1,-1937(gp) # 200043e8 <_usbd_mutex>
100054d2:	200047b7          	lui	a5,0x20004
100054d6:	b1878793          	add	a5,a5,-1256 # 20003b18 <_usbd_dev>
100054da:	953e                	add	a0,a0,a5
100054dc:	6bf0006f          	j	1000639a <tu_edpt_release>

100054e0 <usbd_edpt_xfer>:
100054e0:	1141                	add	sp,sp,-16
100054e2:	20004737          	lui	a4,0x20004
100054e6:	c422                	sw	s0,8(sp)
100054e8:	0075d793          	srl	a5,a1,0x7
100054ec:	b1870713          	add	a4,a4,-1256 # 20003b18 <_usbd_dev>
100054f0:	07f5f413          	and	s0,a1,127
100054f4:	20e42433          	sh1add	s0,s0,a4
100054f8:	c606                	sw	ra,12(sp)
100054fa:	943e                	add	s0,s0,a5
100054fc:	03444783          	lbu	a5,52(s0)
10005500:	20003737          	lui	a4,0x20003
10005504:	63574503          	lbu	a0,1589(a4) # 20003635 <_usbd_rhport>
10005508:	8b85                	and	a5,a5,1
1000550a:	c799                	beqz	a5,10005518 <usbd_edpt_xfer+0x38>
1000550c:	9002                	ebreak
1000550e:	4501                	li	a0,0
10005510:	40b2                	lw	ra,12(sp)
10005512:	4422                	lw	s0,8(sp)
10005514:	0141                	add	sp,sp,16
10005516:	8082                	ret
10005518:	03444783          	lbu	a5,52(s0)
1000551c:	0017e793          	or	a5,a5,1
10005520:	02f40a23          	sb	a5,52(s0)
10005524:	b80ff0ef          	jal	100048a4 <dcd_edpt_xfer>
10005528:	f565                	bnez	a0,10005510 <usbd_edpt_xfer+0x30>
1000552a:	03444783          	lbu	a5,52(s0)
1000552e:	9bf9                	and	a5,a5,-2
10005530:	02f40a23          	sb	a5,52(s0)
10005534:	03444783          	lbu	a5,52(s0)
10005538:	9bed                	and	a5,a5,-5
1000553a:	02f40a23          	sb	a5,52(s0)
1000553e:	b7f9                	j	1000550c <usbd_edpt_xfer+0x2c>

10005540 <tud_control_status>:
10005540:	0005c683          	lbu	a3,0(a1)
10005544:	200047b7          	lui	a5,0x20004
10005548:	aa478793          	add	a5,a5,-1372 # 20003aa4 <_ctrl_xfer>
1000554c:	0015cf03          	lbu	t5,1(a1)
10005550:	0025ce83          	lbu	t4,2(a1)
10005554:	0035ce03          	lbu	t3,3(a1)
10005558:	0045c303          	lbu	t1,4(a1)
1000555c:	0055c883          	lbu	a7,5(a1)
10005560:	0065c803          	lbu	a6,6(a1)
10005564:	0075c703          	lbu	a4,7(a1)
10005568:	00d78023          	sb	a3,0(a5)
1000556c:	0005c583          	lbu	a1,0(a1)
10005570:	4681                	li	a3,0
10005572:	4601                	li	a2,0
10005574:	fff5c593          	not	a1,a1
10005578:	0805f593          	and	a1,a1,128
1000557c:	01e780a3          	sb	t5,1(a5)
10005580:	01d78123          	sb	t4,2(a5)
10005584:	01c781a3          	sb	t3,3(a5)
10005588:	00678223          	sb	t1,4(a5)
1000558c:	011782a3          	sb	a7,5(a5)
10005590:	01078323          	sb	a6,6(a5)
10005594:	00e783a3          	sb	a4,7(a5)
10005598:	0007a423          	sw	zero,8(a5)
1000559c:	0007a623          	sw	zero,12(a5)
100055a0:	b781                	j	100054e0 <usbd_edpt_xfer>

100055a2 <tud_control_xfer>:
100055a2:	0075c703          	lbu	a4,7(a1)
100055a6:	0005c283          	lbu	t0,0(a1)
100055aa:	0015cf83          	lbu	t6,1(a1)
100055ae:	0025cf03          	lbu	t5,2(a1)
100055b2:	0035ce83          	lbu	t4,3(a1)
100055b6:	0045ce03          	lbu	t3,4(a1)
100055ba:	0055c303          	lbu	t1,5(a1)
100055be:	0065c883          	lbu	a7,6(a1)
100055c2:	1101                	add	sp,sp,-32
100055c4:	200047b7          	lui	a5,0x20004
100055c8:	ce06                	sw	ra,28(sp)
100055ca:	aa478793          	add	a5,a5,-1372 # 20003aa4 <_ctrl_xfer>
100055ce:	00578023          	sb	t0,0(a5)
100055d2:	01f780a3          	sb	t6,1(a5)
100055d6:	01e78123          	sb	t5,2(a5)
100055da:	01d781a3          	sb	t4,3(a5)
100055de:	01c78223          	sb	t3,4(a5)
100055e2:	006782a3          	sb	t1,5(a5)
100055e6:	01178323          	sb	a7,6(a5)
100055ea:	00e783a3          	sb	a4,7(a5)
100055ee:	c790                	sw	a2,8(a5)
100055f0:	00079723          	sh	zero,14(a5)
100055f4:	0075c703          	lbu	a4,7(a1)
100055f8:	8832                	mv	a6,a2
100055fa:	0065c603          	lbu	a2,6(a1)
100055fe:	0722                	sll	a4,a4,0x8
10005600:	8f51                	or	a4,a4,a2
10005602:	0ad756b3          	minu	a3,a4,a3
10005606:	00d79623          	sh	a3,12(a5)
1000560a:	cf05                	beqz	a4,10005642 <tud_control_xfer+0xa0>
1000560c:	cc22                	sw	s0,24(sp)
1000560e:	842a                	mv	s0,a0
10005610:	cab1                	beqz	a3,10005664 <tud_control_xfer+0xc2>
10005612:	02080263          	beqz	a6,10005636 <tud_control_xfer+0x94>
10005616:	00078783          	lb	a5,0(a5)
1000561a:	04000713          	li	a4,64
1000561e:	0ae6d6b3          	minu	a3,a3,a4
10005622:	0407cb63          	bltz	a5,10005678 <tud_control_xfer+0xd6>
10005626:	20004637          	lui	a2,0x20004
1000562a:	4581                	li	a1,0
1000562c:	ad860613          	add	a2,a2,-1320 # 20003ad8 <_usbd_ctrl_buf>
10005630:	8522                	mv	a0,s0
10005632:	357d                	jal	100054e0 <usbd_edpt_xfer>
10005634:	e121                	bnez	a0,10005674 <tud_control_xfer+0xd2>
10005636:	9002                	ebreak
10005638:	4462                	lw	s0,24(sp)
1000563a:	4501                	li	a0,0
1000563c:	40f2                	lw	ra,28(sp)
1000563e:	6105                	add	sp,sp,32
10005640:	8082                	ret
10005642:	0005c583          	lbu	a1,0(a1)
10005646:	4681                	li	a3,0
10005648:	4601                	li	a2,0
1000564a:	fff5c593          	not	a1,a1
1000564e:	0805f593          	and	a1,a1,128
10005652:	3579                	jal	100054e0 <usbd_edpt_xfer>
10005654:	c509                	beqz	a0,1000565e <tud_control_xfer+0xbc>
10005656:	40f2                	lw	ra,28(sp)
10005658:	4505                	li	a0,1
1000565a:	6105                	add	sp,sp,32
1000565c:	8082                	ret
1000565e:	9002                	ebreak
10005660:	4501                	li	a0,0
10005662:	bfe9                	j	1000563c <tud_control_xfer+0x9a>
10005664:	0007c583          	lbu	a1,0(a5)
10005668:	4601                	li	a2,0
1000566a:	0805f593          	and	a1,a1,128
1000566e:	8522                	mv	a0,s0
10005670:	3d85                	jal	100054e0 <usbd_edpt_xfer>
10005672:	d171                	beqz	a0,10005636 <tud_control_xfer+0x94>
10005674:	4462                	lw	s0,24(sp)
10005676:	b7c5                	j	10005656 <tud_control_xfer+0xb4>
10005678:	ca26                	sw	s1,20(sp)
1000567a:	200044b7          	lui	s1,0x20004
1000567e:	8636                	mv	a2,a3
10005680:	85c2                	mv	a1,a6
10005682:	ad848513          	add	a0,s1,-1320 # 20003ad8 <_usbd_ctrl_buf>
10005686:	c636                	sw	a3,12(sp)
10005688:	76c010ef          	jal	10006df4 <memcpy>
1000568c:	ad848613          	add	a2,s1,-1320
10005690:	46b2                	lw	a3,12(sp)
10005692:	44d2                	lw	s1,20(sp)
10005694:	08000593          	li	a1,128
10005698:	bfd9                	j	1000566e <tud_control_xfer+0xcc>

1000569a <usbd_control_reset>:
1000569a:	200047b7          	lui	a5,0x20004
1000569e:	aa478793          	add	a5,a5,-1372 # 20003aa4 <_ctrl_xfer>
100056a2:	0007a023          	sw	zero,0(a5)
100056a6:	0007a223          	sw	zero,4(a5)
100056aa:	0007a423          	sw	zero,8(a5)
100056ae:	0007a623          	sw	zero,12(a5)
100056b2:	0007a823          	sw	zero,16(a5)
100056b6:	8082                	ret

100056b8 <usbd_control_set_complete_callback>:
100056b8:	200047b7          	lui	a5,0x20004
100056bc:	aaa7aa23          	sw	a0,-1356(a5) # 20003ab4 <_ctrl_xfer+0x10>
100056c0:	8082                	ret

100056c2 <usbd_control_set_request>:
100056c2:	00054e03          	lbu	t3,0(a0)
100056c6:	00154303          	lbu	t1,1(a0)
100056ca:	00254883          	lbu	a7,2(a0)
100056ce:	00354803          	lbu	a6,3(a0)
100056d2:	00454583          	lbu	a1,4(a0)
100056d6:	00554603          	lbu	a2,5(a0)
100056da:	00654683          	lbu	a3,6(a0)
100056de:	00754703          	lbu	a4,7(a0)
100056e2:	200047b7          	lui	a5,0x20004
100056e6:	aa478793          	add	a5,a5,-1372 # 20003aa4 <_ctrl_xfer>
100056ea:	01c78023          	sb	t3,0(a5)
100056ee:	006780a3          	sb	t1,1(a5)
100056f2:	01178123          	sb	a7,2(a5)
100056f6:	010781a3          	sb	a6,3(a5)
100056fa:	00b78223          	sb	a1,4(a5)
100056fe:	00c782a3          	sb	a2,5(a5)
10005702:	00d78323          	sb	a3,6(a5)
10005706:	00e783a3          	sb	a4,7(a5)
1000570a:	0007a423          	sw	zero,8(a5)
1000570e:	0007a623          	sw	zero,12(a5)
10005712:	8082                	ret

10005714 <usbd_control_xfer_cb>:
10005714:	1101                	add	sp,sp,-32
10005716:	ca4a                	sw	s2,20(sp)
10005718:	20004937          	lui	s2,0x20004
1000571c:	cc22                	sw	s0,24(sp)
1000571e:	aa490413          	add	s0,s2,-1372 # 20003aa4 <_ctrl_xfer>
10005722:	401c                	lw	a5,0(s0)
10005724:	c84e                	sw	s3,16(sp)
10005726:	ce06                	sw	ra,28(sp)
10005728:	819d                	srl	a1,a1,0x7
1000572a:	89aa                	mv	s3,a0
1000572c:	4877d793          	bext	a5,a5,0x7
10005730:	02b78d63          	beq	a5,a1,1000576a <usbd_control_xfer_cb+0x56>
10005734:	ca89                	beqz	a3,10005746 <usbd_control_xfer_cb+0x32>
10005736:	9002                	ebreak
10005738:	40f2                	lw	ra,28(sp)
1000573a:	4462                	lw	s0,24(sp)
1000573c:	4952                	lw	s2,20(sp)
1000573e:	49c2                	lw	s3,16(sp)
10005740:	4501                	li	a0,0
10005742:	6105                	add	sp,sp,32
10005744:	8082                	ret
10005746:	aa490593          	add	a1,s2,-1372
1000574a:	800ff0ef          	jal	1000474a <dcd_edpt0_status_complete>
1000574e:	481c                	lw	a5,16(s0)
10005750:	c791                	beqz	a5,1000575c <usbd_control_xfer_cb+0x48>
10005752:	aa490613          	add	a2,s2,-1372
10005756:	458d                	li	a1,3
10005758:	854e                	mv	a0,s3
1000575a:	9782                	jalr	a5
1000575c:	4505                	li	a0,1
1000575e:	40f2                	lw	ra,28(sp)
10005760:	4462                	lw	s0,24(sp)
10005762:	4952                	lw	s2,20(sp)
10005764:	49c2                	lw	s3,16(sp)
10005766:	6105                	add	sp,sp,32
10005768:	8082                	ret
1000576a:	00040783          	lb	a5,0(s0)
1000576e:	4408                	lw	a0,8(s0)
10005770:	0007cc63          	bltz	a5,10005788 <usbd_control_xfer_cb+0x74>
10005774:	d171                	beqz	a0,10005738 <usbd_control_xfer_cb+0x24>
10005776:	200045b7          	lui	a1,0x20004
1000577a:	8636                	mv	a2,a3
1000577c:	ad858593          	add	a1,a1,-1320 # 20003ad8 <_usbd_ctrl_buf>
10005780:	c636                	sw	a3,12(sp)
10005782:	672010ef          	jal	10006df4 <memcpy>
10005786:	46b2                	lw	a3,12(sp)
10005788:	00e45783          	lhu	a5,14(s0)
1000578c:	440c                	lw	a1,8(s0)
1000578e:	00645703          	lhu	a4,6(s0)
10005792:	97b6                	add	a5,a5,a3
10005794:	95b6                	add	a1,a1,a3
10005796:	0807c7b3          	zext.h	a5,a5
1000579a:	c40c                	sw	a1,8(s0)
1000579c:	00f41723          	sh	a5,14(s0)
100057a0:	04f70163          	beq	a4,a5,100057e2 <usbd_control_xfer_cb+0xce>
100057a4:	03f00713          	li	a4,63
100057a8:	02d77d63          	bgeu	a4,a3,100057e2 <usbd_control_xfer_cb+0xce>
100057ac:	00c45703          	lhu	a4,12(s0)
100057b0:	00040603          	lb	a2,0(s0)
100057b4:	04000513          	li	a0,64
100057b8:	40f706b3          	sub	a3,a4,a5
100057bc:	0806c6b3          	zext.h	a3,a3
100057c0:	0aa6d6b3          	minu	a3,a3,a0
100057c4:	06064063          	bltz	a2,10005824 <usbd_control_xfer_cb+0x110>
100057c8:	4581                	li	a1,0
100057ca:	08e78163          	beq	a5,a4,1000584c <usbd_control_xfer_cb+0x138>
100057ce:	20004637          	lui	a2,0x20004
100057d2:	ad860613          	add	a2,a2,-1320 # 20003ad8 <_usbd_ctrl_buf>
100057d6:	854e                	mv	a0,s3
100057d8:	d09ff0ef          	jal	100054e0 <usbd_edpt_xfer>
100057dc:	dd29                	beqz	a0,10005736 <usbd_control_xfer_cb+0x22>
100057de:	4505                	li	a0,1
100057e0:	bfbd                	j	1000575e <usbd_control_xfer_cb+0x4a>
100057e2:	481c                	lw	a5,16(s0)
100057e4:	c799                	beqz	a5,100057f2 <usbd_control_xfer_cb+0xde>
100057e6:	aa490613          	add	a2,s2,-1372
100057ea:	4589                	li	a1,2
100057ec:	854e                	mv	a0,s3
100057ee:	9782                	jalr	a5
100057f0:	cd19                	beqz	a0,1000580e <usbd_control_xfer_cb+0xfa>
100057f2:	00044583          	lbu	a1,0(s0)
100057f6:	4681                	li	a3,0
100057f8:	4601                	li	a2,0
100057fa:	fff5c593          	not	a1,a1
100057fe:	0805f593          	and	a1,a1,128
10005802:	854e                	mv	a0,s3
10005804:	cddff0ef          	jal	100054e0 <usbd_edpt_xfer>
10005808:	d51d                	beqz	a0,10005736 <usbd_control_xfer_cb+0x22>
1000580a:	4505                	li	a0,1
1000580c:	bf89                	j	1000575e <usbd_control_xfer_cb+0x4a>
1000580e:	4581                	li	a1,0
10005810:	854e                	mv	a0,s3
10005812:	8beff0ef          	jal	100048d0 <dcd_edpt_stall>
10005816:	854e                	mv	a0,s3
10005818:	08000593          	li	a1,128
1000581c:	8b4ff0ef          	jal	100048d0 <dcd_edpt_stall>
10005820:	4505                	li	a0,1
10005822:	bf35                	j	1000575e <usbd_control_xfer_cb+0x4a>
10005824:	02e78063          	beq	a5,a4,10005844 <usbd_control_xfer_cb+0x130>
10005828:	20004437          	lui	s0,0x20004
1000582c:	8636                	mv	a2,a3
1000582e:	ad840513          	add	a0,s0,-1320 # 20003ad8 <_usbd_ctrl_buf>
10005832:	c636                	sw	a3,12(sp)
10005834:	5c0010ef          	jal	10006df4 <memcpy>
10005838:	46b2                	lw	a3,12(sp)
1000583a:	08000593          	li	a1,128
1000583e:	ad840613          	add	a2,s0,-1320
10005842:	bf51                	j	100057d6 <usbd_control_xfer_cb+0xc2>
10005844:	08000593          	li	a1,128
10005848:	4601                	li	a2,0
1000584a:	b771                	j	100057d6 <usbd_control_xfer_cb+0xc2>
1000584c:	4601                	li	a2,0
1000584e:	b761                	j	100057d6 <usbd_control_xfer_cb+0xc2>

10005850 <_prep_out_transaction.isra.0>:
10005850:	1141                	add	sp,sp,-16
10005852:	c422                	sw	s0,8(sp)
10005854:	c606                	sw	ra,12(sp)
10005856:	842a                	mv	s0,a0
10005858:	a34ff0ef          	jal	10004a8c <tud_mounted>
1000585c:	e509                	bnez	a0,10005866 <_prep_out_transaction.isra.0+0x16>
1000585e:	40b2                	lw	ra,12(sp)
10005860:	4422                	lw	s0,8(sp)
10005862:	0141                	add	sp,sp,16
10005864:	8082                	ret
10005866:	a38ff0ef          	jal	10004a9e <tud_suspended>
1000586a:	f975                	bnez	a0,1000585e <_prep_out_transaction.isra.0+0xe>
1000586c:	00344783          	lbu	a5,3(s0)
10005870:	d7fd                	beqz	a5,1000585e <_prep_out_transaction.isra.0+0xe>
10005872:	c04a                	sw	s2,0(sp)
10005874:	01040913          	add	s2,s0,16
10005878:	854a                	mv	a0,s2
1000587a:	c226                	sw	s1,4(sp)
1000587c:	743000ef          	jal	100067be <tu_fifo_remaining>
10005880:	03f00493          	li	s1,63
10005884:	00a4e863          	bltu	s1,a0,10005894 <_prep_out_transaction.isra.0+0x44>
10005888:	40b2                	lw	ra,12(sp)
1000588a:	4422                	lw	s0,8(sp)
1000588c:	4492                	lw	s1,4(sp)
1000588e:	4902                	lw	s2,0(sp)
10005890:	0141                	add	sp,sp,16
10005892:	8082                	ret
10005894:	00344583          	lbu	a1,3(s0)
10005898:	4501                	li	a0,0
1000589a:	bffff0ef          	jal	10005498 <usbd_edpt_claim>
1000589e:	d56d                	beqz	a0,10005888 <_prep_out_transaction.isra.0+0x38>
100058a0:	854a                	mv	a0,s2
100058a2:	71d000ef          	jal	100067be <tu_fifo_remaining>
100058a6:	00344583          	lbu	a1,3(s0)
100058aa:	00a4fe63          	bgeu	s1,a0,100058c6 <_prep_out_transaction.isra.0+0x76>
100058ae:	24840613          	add	a2,s0,584
100058b2:	4422                	lw	s0,8(sp)
100058b4:	4492                	lw	s1,4(sp)
100058b6:	4902                	lw	s2,0(sp)
100058b8:	40b2                	lw	ra,12(sp)
100058ba:	04000693          	li	a3,64
100058be:	4501                	li	a0,0
100058c0:	0141                	add	sp,sp,16
100058c2:	c1fff06f          	j	100054e0 <usbd_edpt_xfer>
100058c6:	4422                	lw	s0,8(sp)
100058c8:	4492                	lw	s1,4(sp)
100058ca:	4902                	lw	s2,0(sp)
100058cc:	40b2                	lw	ra,12(sp)
100058ce:	4501                	li	a0,0
100058d0:	0141                	add	sp,sp,16
100058d2:	bebff06f          	j	100054bc <usbd_edpt_release>

100058d6 <tud_cdc_n_connected>:
100058d6:	1141                	add	sp,sp,-16
100058d8:	c422                	sw	s0,8(sp)
100058da:	c606                	sw	ra,12(sp)
100058dc:	842a                	mv	s0,a0
100058de:	9aeff0ef          	jal	10004a8c <tud_mounted>
100058e2:	e511                	bnez	a0,100058ee <tud_cdc_n_connected+0x18>
100058e4:	40b2                	lw	ra,12(sp)
100058e6:	4422                	lw	s0,8(sp)
100058e8:	4501                	li	a0,0
100058ea:	0141                	add	sp,sp,16
100058ec:	8082                	ret
100058ee:	9b0ff0ef          	jal	10004a9e <tud_suspended>
100058f2:	f96d                	bnez	a0,100058e4 <tud_cdc_n_connected+0xe>
100058f4:	20003737          	lui	a4,0x20003
100058f8:	7dc70713          	add	a4,a4,2012 # 200037dc <_cdcd_itf>
100058fc:	40b2                	lw	ra,12(sp)
100058fe:	208447b3          	sh2add	a5,s0,s0
10005902:	2087a7b3          	sh1add	a5,a5,s0
10005906:	2087e7b3          	sh3add	a5,a5,s0
1000590a:	4422                	lw	s0,8(sp)
1000590c:	20e7e7b3          	sh3add	a5,a5,a4
10005910:	0047c503          	lbu	a0,4(a5)
10005914:	0141                	add	sp,sp,16
10005916:	8905                	and	a0,a0,1
10005918:	8082                	ret

1000591a <tud_cdc_n_available>:
1000591a:	20a547b3          	sh2add	a5,a0,a0
1000591e:	20a7a7b3          	sh1add	a5,a5,a0
10005922:	20a7e7b3          	sh3add	a5,a5,a0
10005926:	20003537          	lui	a0,0x20003
1000592a:	078e                	sll	a5,a5,0x3
1000592c:	07c1                	add	a5,a5,16
1000592e:	7dc50513          	add	a0,a0,2012 # 200037dc <_cdcd_itf>
10005932:	1141                	add	sp,sp,-16
10005934:	953e                	add	a0,a0,a5
10005936:	c606                	sw	ra,12(sp)
10005938:	64d000ef          	jal	10006784 <tu_fifo_count>
1000593c:	40b2                	lw	ra,12(sp)
1000593e:	0141                	add	sp,sp,16
10005940:	8082                	ret

10005942 <tud_cdc_n_read>:
10005942:	1101                	add	sp,sp,-32
10005944:	cc22                	sw	s0,24(sp)
10005946:	ca26                	sw	s1,20(sp)
10005948:	20a54433          	sh2add	s0,a0,a0
1000594c:	200034b7          	lui	s1,0x20003
10005950:	20a42433          	sh1add	s0,s0,a0
10005954:	20a46433          	sh3add	s0,s0,a0
10005958:	040e                	sll	s0,s0,0x3
1000595a:	c84a                	sw	s2,16(sp)
1000595c:	7dc48493          	add	s1,s1,2012 # 200037dc <_cdcd_itf>
10005960:	01040913          	add	s2,s0,16
10005964:	9926                	add	s2,s2,s1
10005966:	67c1                	lui	a5,0x10
10005968:	17fd                	add	a5,a5,-1 # ffff <HeapSize+0xf7ff>
1000596a:	854a                	mv	a0,s2
1000596c:	c64e                	sw	s3,12(sp)
1000596e:	ce06                	sw	ra,28(sp)
10005970:	0af65633          	minu	a2,a2,a5
10005974:	08064633          	zext.h	a2,a2
10005978:	74f000ef          	jal	100068c6 <tu_fifo_read_n>
1000597c:	89aa                	mv	s3,a0
1000597e:	90eff0ef          	jal	10004a8c <tud_mounted>
10005982:	e909                	bnez	a0,10005994 <tud_cdc_n_read+0x52>
10005984:	40f2                	lw	ra,28(sp)
10005986:	4462                	lw	s0,24(sp)
10005988:	44d2                	lw	s1,20(sp)
1000598a:	4942                	lw	s2,16(sp)
1000598c:	854e                	mv	a0,s3
1000598e:	49b2                	lw	s3,12(sp)
10005990:	6105                	add	sp,sp,32
10005992:	8082                	ret
10005994:	c452                	sw	s4,8(sp)
10005996:	908ff0ef          	jal	10004a9e <tud_suspended>
1000599a:	e905                	bnez	a0,100059ca <tud_cdc_n_read+0x88>
1000599c:	00848a33          	add	s4,s1,s0
100059a0:	003a4783          	lbu	a5,3(s4)
100059a4:	c39d                	beqz	a5,100059ca <tud_cdc_n_read+0x88>
100059a6:	854a                	mv	a0,s2
100059a8:	c256                	sw	s5,4(sp)
100059aa:	615000ef          	jal	100067be <tu_fifo_remaining>
100059ae:	03f00a93          	li	s5,63
100059b2:	02aae563          	bltu	s5,a0,100059dc <tud_cdc_n_read+0x9a>
100059b6:	40f2                	lw	ra,28(sp)
100059b8:	4462                	lw	s0,24(sp)
100059ba:	4a22                	lw	s4,8(sp)
100059bc:	4a92                	lw	s5,4(sp)
100059be:	44d2                	lw	s1,20(sp)
100059c0:	4942                	lw	s2,16(sp)
100059c2:	854e                	mv	a0,s3
100059c4:	49b2                	lw	s3,12(sp)
100059c6:	6105                	add	sp,sp,32
100059c8:	8082                	ret
100059ca:	40f2                	lw	ra,28(sp)
100059cc:	4462                	lw	s0,24(sp)
100059ce:	4a22                	lw	s4,8(sp)
100059d0:	44d2                	lw	s1,20(sp)
100059d2:	4942                	lw	s2,16(sp)
100059d4:	854e                	mv	a0,s3
100059d6:	49b2                	lw	s3,12(sp)
100059d8:	6105                	add	sp,sp,32
100059da:	8082                	ret
100059dc:	003a4583          	lbu	a1,3(s4)
100059e0:	4501                	li	a0,0
100059e2:	ab7ff0ef          	jal	10005498 <usbd_edpt_claim>
100059e6:	d961                	beqz	a0,100059b6 <tud_cdc_n_read+0x74>
100059e8:	854a                	mv	a0,s2
100059ea:	5d5000ef          	jal	100067be <tu_fifo_remaining>
100059ee:	003a4583          	lbu	a1,3(s4)
100059f2:	00aafd63          	bgeu	s5,a0,10005a0c <tud_cdc_n_read+0xca>
100059f6:	24840613          	add	a2,s0,584
100059fa:	04000693          	li	a3,64
100059fe:	9626                	add	a2,a2,s1
10005a00:	4501                	li	a0,0
10005a02:	adfff0ef          	jal	100054e0 <usbd_edpt_xfer>
10005a06:	4a22                	lw	s4,8(sp)
10005a08:	4a92                	lw	s5,4(sp)
10005a0a:	bfad                	j	10005984 <tud_cdc_n_read+0x42>
10005a0c:	4501                	li	a0,0
10005a0e:	aafff0ef          	jal	100054bc <usbd_edpt_release>
10005a12:	4a22                	lw	s4,8(sp)
10005a14:	4a92                	lw	s5,4(sp)
10005a16:	b7bd                	j	10005984 <tud_cdc_n_read+0x42>

10005a18 <tud_cdc_n_write_flush>:
10005a18:	1101                	add	sp,sp,-32
10005a1a:	cc22                	sw	s0,24(sp)
10005a1c:	ce06                	sw	ra,28(sp)
10005a1e:	842a                	mv	s0,a0
10005a20:	86cff0ef          	jal	10004a8c <tud_mounted>
10005a24:	e511                	bnez	a0,10005a30 <tud_cdc_n_write_flush+0x18>
10005a26:	4501                	li	a0,0
10005a28:	40f2                	lw	ra,28(sp)
10005a2a:	4462                	lw	s0,24(sp)
10005a2c:	6105                	add	sp,sp,32
10005a2e:	8082                	ret
10005a30:	ca26                	sw	s1,20(sp)
10005a32:	c84a                	sw	s2,16(sp)
10005a34:	86aff0ef          	jal	10004a9e <tud_suspended>
10005a38:	e121                	bnez	a0,10005a78 <tud_cdc_n_write_flush+0x60>
10005a3a:	208447b3          	sh2add	a5,s0,s0
10005a3e:	200034b7          	lui	s1,0x20003
10005a42:	2087a7b3          	sh1add	a5,a5,s0
10005a46:	2087e433          	sh3add	s0,a5,s0
10005a4a:	040e                	sll	s0,s0,0x3
10005a4c:	02440913          	add	s2,s0,36
10005a50:	7dc48493          	add	s1,s1,2012 # 200037dc <_cdcd_itf>
10005a54:	9926                	add	s2,s2,s1
10005a56:	854a                	mv	a0,s2
10005a58:	52d000ef          	jal	10006784 <tu_fifo_count>
10005a5c:	cd11                	beqz	a0,10005a78 <tud_cdc_n_write_flush+0x60>
10005a5e:	c64e                	sw	s3,12(sp)
10005a60:	008489b3          	add	s3,s1,s0
10005a64:	0029c583          	lbu	a1,2(s3)
10005a68:	4501                	li	a0,0
10005a6a:	a2fff0ef          	jal	10005498 <usbd_edpt_claim>
10005a6e:	e901                	bnez	a0,10005a7e <tud_cdc_n_write_flush+0x66>
10005a70:	44d2                	lw	s1,20(sp)
10005a72:	4942                	lw	s2,16(sp)
10005a74:	49b2                	lw	s3,12(sp)
10005a76:	bf45                	j	10005a26 <tud_cdc_n_write_flush+0xe>
10005a78:	44d2                	lw	s1,20(sp)
10005a7a:	4942                	lw	s2,16(sp)
10005a7c:	b76d                	j	10005a26 <tud_cdc_n_write_flush+0xe>
10005a7e:	28840413          	add	s0,s0,648
10005a82:	9426                	add	s0,s0,s1
10005a84:	85a2                	mv	a1,s0
10005a86:	04000613          	li	a2,64
10005a8a:	854a                	mv	a0,s2
10005a8c:	63b000ef          	jal	100068c6 <tu_fifo_read_n>
10005a90:	0029c583          	lbu	a1,2(s3)
10005a94:	84aa                	mv	s1,a0
10005a96:	c115                	beqz	a0,10005aba <tud_cdc_n_write_flush+0xa2>
10005a98:	86aa                	mv	a3,a0
10005a9a:	8622                	mv	a2,s0
10005a9c:	4501                	li	a0,0
10005a9e:	a43ff0ef          	jal	100054e0 <usbd_edpt_xfer>
10005aa2:	87aa                	mv	a5,a0
10005aa4:	8526                	mv	a0,s1
10005aa6:	e791                	bnez	a5,10005ab2 <tud_cdc_n_write_flush+0x9a>
10005aa8:	9002                	ebreak
10005aaa:	44d2                	lw	s1,20(sp)
10005aac:	4942                	lw	s2,16(sp)
10005aae:	49b2                	lw	s3,12(sp)
10005ab0:	bf9d                	j	10005a26 <tud_cdc_n_write_flush+0xe>
10005ab2:	44d2                	lw	s1,20(sp)
10005ab4:	4942                	lw	s2,16(sp)
10005ab6:	49b2                	lw	s3,12(sp)
10005ab8:	bf85                	j	10005a28 <tud_cdc_n_write_flush+0x10>
10005aba:	a03ff0ef          	jal	100054bc <usbd_edpt_release>
10005abe:	44d2                	lw	s1,20(sp)
10005ac0:	4942                	lw	s2,16(sp)
10005ac2:	49b2                	lw	s3,12(sp)
10005ac4:	b78d                	j	10005a26 <tud_cdc_n_write_flush+0xe>

10005ac6 <tud_cdc_n_write>:
10005ac6:	1141                	add	sp,sp,-16
10005ac8:	c422                	sw	s0,8(sp)
10005aca:	200037b7          	lui	a5,0x20003
10005ace:	20a54433          	sh2add	s0,a0,a0
10005ad2:	20a42433          	sh1add	s0,s0,a0
10005ad6:	20a46433          	sh3add	s0,s0,a0
10005ada:	040e                	sll	s0,s0,0x3
10005adc:	7dc78793          	add	a5,a5,2012 # 200037dc <_cdcd_itf>
10005ae0:	02440413          	add	s0,s0,36
10005ae4:	943e                	add	s0,s0,a5
10005ae6:	67c1                	lui	a5,0x10
10005ae8:	17fd                	add	a5,a5,-1 # ffff <HeapSize+0xf7ff>
10005aea:	c226                	sw	s1,4(sp)
10005aec:	84aa                	mv	s1,a0
10005aee:	8522                	mv	a0,s0
10005af0:	0af65633          	minu	a2,a2,a5
10005af4:	c606                	sw	ra,12(sp)
10005af6:	08064633          	zext.h	a2,a2
10005afa:	7fb000ef          	jal	10006af4 <tu_fifo_write_n>
10005afe:	87aa                	mv	a5,a0
10005b00:	8522                	mv	a0,s0
10005b02:	843e                	mv	s0,a5
10005b04:	481000ef          	jal	10006784 <tu_fifo_count>
10005b08:	03f00793          	li	a5,63
10005b0c:	00a7e863          	bltu	a5,a0,10005b1c <tud_cdc_n_write+0x56>
10005b10:	40b2                	lw	ra,12(sp)
10005b12:	8522                	mv	a0,s0
10005b14:	4422                	lw	s0,8(sp)
10005b16:	4492                	lw	s1,4(sp)
10005b18:	0141                	add	sp,sp,16
10005b1a:	8082                	ret
10005b1c:	8526                	mv	a0,s1
10005b1e:	3ded                	jal	10005a18 <tud_cdc_n_write_flush>
10005b20:	40b2                	lw	ra,12(sp)
10005b22:	8522                	mv	a0,s0
10005b24:	4422                	lw	s0,8(sp)
10005b26:	4492                	lw	s1,4(sp)
10005b28:	0141                	add	sp,sp,16
10005b2a:	8082                	ret

10005b2c <tud_cdc_n_write_available>:
10005b2c:	20a547b3          	sh2add	a5,a0,a0
10005b30:	20a7a7b3          	sh1add	a5,a5,a0
10005b34:	20a7e7b3          	sh3add	a5,a5,a0
10005b38:	20003537          	lui	a0,0x20003
10005b3c:	078e                	sll	a5,a5,0x3
10005b3e:	02478793          	add	a5,a5,36
10005b42:	7dc50513          	add	a0,a0,2012 # 200037dc <_cdcd_itf>
10005b46:	1141                	add	sp,sp,-16
10005b48:	953e                	add	a0,a0,a5
10005b4a:	c606                	sw	ra,12(sp)
10005b4c:	473000ef          	jal	100067be <tu_fifo_remaining>
10005b50:	40b2                	lw	ra,12(sp)
10005b52:	0141                	add	sp,sp,16
10005b54:	8082                	ret

10005b56 <cdcd_init>:
10005b56:	1141                	add	sp,sp,-16
10005b58:	c422                	sw	s0,8(sp)
10005b5a:	20003437          	lui	s0,0x20003
10005b5e:	2c800613          	li	a2,712
10005b62:	4581                	li	a1,0
10005b64:	7dc40513          	add	a0,s0,2012 # 200037dc <_cdcd_itf>
10005b68:	c606                	sw	ra,12(sp)
10005b6a:	c226                	sw	s1,4(sp)
10005b6c:	c04a                	sw	s2,0(sp)
10005b6e:	1de010ef          	jal	10006d4c <memset>
10005b72:	67f1                	lui	a5,0x1c
10005b74:	7dc40413          	add	s0,s0,2012
10005b78:	20078793          	add	a5,a5,512 # 1c200 <HeapSize+0x1ba00>
10005b7c:	200045b7          	lui	a1,0x20004
10005b80:	20003537          	lui	a0,0x20003
10005b84:	c41c                	sw	a5,8(s0)
10005b86:	4701                	li	a4,0
10005b88:	47a1                	li	a5,8
10005b8a:	4685                	li	a3,1
10005b8c:	10000613          	li	a2,256
10005b90:	81458593          	add	a1,a1,-2028 # 20003814 <_cdcd_itf+0x38>
10005b94:	880185a3          	sb	zero,-1909(gp) # 20004404 <_cdcd_fifo_cfg>
10005b98:	7ec50513          	add	a0,a0,2028 # 200037ec <_cdcd_itf+0x10>
10005b9c:	587d                	li	a6,-1
10005b9e:	010402a3          	sb	a6,5(s0)
10005ba2:	00f40723          	sb	a5,14(s0)
10005ba6:	357000ef          	jal	100066fc <tu_fifo_config>
10005baa:	200045b7          	lui	a1,0x20004
10005bae:	20004537          	lui	a0,0x20004
10005bb2:	4705                	li	a4,1
10005bb4:	4685                	li	a3,1
10005bb6:	10000613          	li	a2,256
10005bba:	91458593          	add	a1,a1,-1772 # 20003914 <_cdcd_itf+0x138>
10005bbe:	80050513          	add	a0,a0,-2048 # 20003800 <_cdcd_itf+0x24>
10005bc2:	33b000ef          	jal	100066fc <tu_fifo_config>
10005bc6:	20004937          	lui	s2,0x20004
10005bca:	a1490513          	add	a0,s2,-1516 # 20003a14 <_cdcd_itf+0x238>
10005bce:	abcfb0ef          	jal	10000e8a <mutex_init>
10005bd2:	200044b7          	lui	s1,0x20004
10005bd6:	a1c48513          	add	a0,s1,-1508 # 20003a1c <_cdcd_itf+0x240>
10005bda:	ab0fb0ef          	jal	10000e8a <mutex_init>
10005bde:	a1490913          	add	s2,s2,-1516
10005be2:	a1c48493          	add	s1,s1,-1508
10005be6:	03242023          	sw	s2,32(s0)
10005bea:	d804                	sw	s1,48(s0)
10005bec:	40b2                	lw	ra,12(sp)
10005bee:	00042e23          	sw	zero,28(s0)
10005bf2:	02042a23          	sw	zero,52(s0)
10005bf6:	4422                	lw	s0,8(sp)
10005bf8:	4492                	lw	s1,4(sp)
10005bfa:	4902                	lw	s2,0(sp)
10005bfc:	0141                	add	sp,sp,16
10005bfe:	8082                	ret

10005c00 <cdcd_deinit>:
10005c00:	200037b7          	lui	a5,0x20003
10005c04:	7dc78793          	add	a5,a5,2012 # 200037dc <_cdcd_itf>
10005c08:	5b98                	lw	a4,48(a5)
10005c0a:	cf09                	beqz	a4,10005c24 <cdcd_deinit+0x24>
10005c0c:	5398                	lw	a4,32(a5)
10005c0e:	c31d                	beqz	a4,10005c34 <cdcd_deinit+0x34>
10005c10:	0207a023          	sw	zero,32(a5)
10005c14:	0207a823          	sw	zero,48(a5)
10005c18:	0007ae23          	sw	zero,28(a5)
10005c1c:	0207aa23          	sw	zero,52(a5)
10005c20:	4505                	li	a0,1
10005c22:	8082                	ret
10005c24:	5398                	lw	a4,32(a5)
10005c26:	df6d                	beqz	a4,10005c20 <cdcd_deinit+0x20>
10005c28:	0007ae23          	sw	zero,28(a5)
10005c2c:	0207a023          	sw	zero,32(a5)
10005c30:	4505                	li	a0,1
10005c32:	8082                	ret
10005c34:	0207a823          	sw	zero,48(a5)
10005c38:	b7d5                	j	10005c1c <cdcd_deinit+0x1c>

10005c3a <cdcd_reset>:
10005c3a:	1141                	add	sp,sp,-16
10005c3c:	c422                	sw	s0,8(sp)
10005c3e:	88b1c783          	lbu	a5,-1909(gp) # 20004404 <_cdcd_fifo_cfg>
10005c42:	20003737          	lui	a4,0x20003
10005c46:	7dc70713          	add	a4,a4,2012 # 200037dc <_cdcd_itf>
10005c4a:	c606                	sw	ra,12(sp)
10005c4c:	00072023          	sw	zero,0(a4)
10005c50:	00070223          	sb	zero,4(a4)
10005c54:	0017f713          	and	a4,a5,1
10005c58:	cf09                	beqz	a4,10005c72 <cdcd_reset+0x38>
10005c5a:	8b89                	and	a5,a5,2
10005c5c:	20004437          	lui	s0,0x20004
10005c60:	c78d                	beqz	a5,10005c8a <cdcd_reset+0x50>
10005c62:	80040513          	add	a0,s0,-2048 # 20003800 <_cdcd_itf+0x24>
10005c66:	4422                	lw	s0,8(sp)
10005c68:	40b2                	lw	ra,12(sp)
10005c6a:	4585                	li	a1,1
10005c6c:	0141                	add	sp,sp,16
10005c6e:	0820106f          	j	10006cf0 <tu_fifo_set_overwritable>
10005c72:	20003537          	lui	a0,0x20003
10005c76:	7ec50513          	add	a0,a0,2028 # 200037ec <_cdcd_itf+0x10>
10005c7a:	028010ef          	jal	10006ca2 <tu_fifo_clear>
10005c7e:	88b1c783          	lbu	a5,-1909(gp) # 20004404 <_cdcd_fifo_cfg>
10005c82:	20004437          	lui	s0,0x20004
10005c86:	8b89                	and	a5,a5,2
10005c88:	ffe9                	bnez	a5,10005c62 <cdcd_reset+0x28>
10005c8a:	80040513          	add	a0,s0,-2048 # 20003800 <_cdcd_itf+0x24>
10005c8e:	014010ef          	jal	10006ca2 <tu_fifo_clear>
10005c92:	80040513          	add	a0,s0,-2048
10005c96:	4422                	lw	s0,8(sp)
10005c98:	40b2                	lw	ra,12(sp)
10005c9a:	4585                	li	a1,1
10005c9c:	0141                	add	sp,sp,16
10005c9e:	0520106f          	j	10006cf0 <tu_fifo_set_overwritable>

10005ca2 <cdcd_open>:
10005ca2:	1101                	add	sp,sp,-32
10005ca4:	ce06                	sw	ra,28(sp)
10005ca6:	ca26                	sw	s1,20(sp)
10005ca8:	0055c783          	lbu	a5,5(a1)
10005cac:	4709                	li	a4,2
10005cae:	00e78863          	beq	a5,a4,10005cbe <cdcd_open+0x1c>
10005cb2:	4481                	li	s1,0
10005cb4:	40f2                	lw	ra,28(sp)
10005cb6:	8526                	mv	a0,s1
10005cb8:	44d2                	lw	s1,20(sp)
10005cba:	6105                	add	sp,sp,32
10005cbc:	8082                	ret
10005cbe:	0065c703          	lbu	a4,6(a1)
10005cc2:	fef718e3          	bne	a4,a5,10005cb2 <cdcd_open+0x10>
10005cc6:	c452                	sw	s4,8(sp)
10005cc8:	20003a37          	lui	s4,0x20003
10005ccc:	c64e                	sw	s3,12(sp)
10005cce:	7dca0993          	add	s3,s4,2012 # 200037dc <_cdcd_itf>
10005cd2:	0029c783          	lbu	a5,2(s3)
10005cd6:	efd9                	bnez	a5,10005d74 <cdcd_open+0xd2>
10005cd8:	cc22                	sw	s0,24(sp)
10005cda:	c84a                	sw	s2,16(sp)
10005cdc:	0025c703          	lbu	a4,2(a1)
10005ce0:	02400793          	li	a5,36
10005ce4:	892a                	mv	s2,a0
10005ce6:	00e98023          	sb	a4,0(s3)
10005cea:	0005c703          	lbu	a4,0(a1)
10005cee:	00e58433          	add	s0,a1,a4
10005cf2:	00144703          	lbu	a4,1(s0)
10005cf6:	0af71b63          	bne	a4,a5,10005dac <cdcd_open+0x10a>
10005cfa:	47a1                	li	a5,8
10005cfc:	44a5                	li	s1,9
10005cfe:	02400693          	li	a3,36
10005d02:	00c7e563          	bltu	a5,a2,10005d0c <cdcd_open+0x6a>
10005d06:	a8b1                	j	10005d62 <cdcd_open+0xc0>
10005d08:	04966d63          	bltu	a2,s1,10005d62 <cdcd_open+0xc0>
10005d0c:	00044783          	lbu	a5,0(s0)
10005d10:	943e                	add	s0,s0,a5
10005d12:	00144703          	lbu	a4,1(s0)
10005d16:	94be                	add	s1,s1,a5
10005d18:	0804c4b3          	zext.h	s1,s1
10005d1c:	fed706e3          	beq	a4,a3,10005d08 <cdcd_open+0x66>
10005d20:	4795                	li	a5,5
10005d22:	04f70d63          	beq	a4,a5,10005d7c <cdcd_open+0xda>
10005d26:	4791                	li	a5,4
10005d28:	02f71d63          	bne	a4,a5,10005d62 <cdcd_open+0xc0>
10005d2c:	00544703          	lbu	a4,5(s0)
10005d30:	47a9                	li	a5,10
10005d32:	02f71863          	bne	a4,a5,10005d62 <cdcd_open+0xc0>
10005d36:	00044983          	lbu	s3,0(s0)
10005d3a:	200037b7          	lui	a5,0x20003
10005d3e:	20003737          	lui	a4,0x20003
10005d42:	7de78793          	add	a5,a5,2014 # 200037de <_cdcd_itf+0x2>
10005d46:	7df70713          	add	a4,a4,2015 # 200037df <_cdcd_itf+0x3>
10005d4a:	4689                	li	a3,2
10005d4c:	4609                	li	a2,2
10005d4e:	013405b3          	add	a1,s0,s3
10005d52:	854a                	mv	a0,s2
10005d54:	e24ff0ef          	jal	10005378 <usbd_open_edpt_pair>
10005d58:	c521                	beqz	a0,10005da0 <cdcd_open+0xfe>
10005d5a:	04b9                	add	s1,s1,14
10005d5c:	94ce                	add	s1,s1,s3
10005d5e:	0804c4b3          	zext.h	s1,s1
10005d62:	7dca0513          	add	a0,s4,2012
10005d66:	aebff0ef          	jal	10005850 <_prep_out_transaction.isra.0>
10005d6a:	4462                	lw	s0,24(sp)
10005d6c:	4942                	lw	s2,16(sp)
10005d6e:	49b2                	lw	s3,12(sp)
10005d70:	4a22                	lw	s4,8(sp)
10005d72:	b789                	j	10005cb4 <cdcd_open+0x12>
10005d74:	9002                	ebreak
10005d76:	49b2                	lw	s3,12(sp)
10005d78:	4a22                	lw	s4,8(sp)
10005d7a:	bf25                	j	10005cb2 <cdcd_open+0x10>
10005d7c:	85a2                	mv	a1,s0
10005d7e:	854a                	mv	a0,s2
10005d80:	ec2ff0ef          	jal	10005442 <usbd_edpt_open>
10005d84:	cd11                	beqz	a0,10005da0 <cdcd_open+0xfe>
10005d86:	00244783          	lbu	a5,2(s0)
10005d8a:	00f980a3          	sb	a5,1(s3)
10005d8e:	00044783          	lbu	a5,0(s0)
10005d92:	943e                	add	s0,s0,a5
10005d94:	94be                	add	s1,s1,a5
10005d96:	00144703          	lbu	a4,1(s0)
10005d9a:	0804c4b3          	zext.h	s1,s1
10005d9e:	b761                	j	10005d26 <cdcd_open+0x84>
10005da0:	9002                	ebreak
10005da2:	4462                	lw	s0,24(sp)
10005da4:	4942                	lw	s2,16(sp)
10005da6:	49b2                	lw	s3,12(sp)
10005da8:	4a22                	lw	s4,8(sp)
10005daa:	b721                	j	10005cb2 <cdcd_open+0x10>
10005dac:	44a5                	li	s1,9
10005dae:	bf8d                	j	10005d20 <cdcd_open+0x7e>

10005db0 <cdcd_control_xfer_cb>:
10005db0:	00064703          	lbu	a4,0(a2)
10005db4:	02000693          	li	a3,32
10005db8:	06077713          	and	a4,a4,96
10005dbc:	04d71a63          	bne	a4,a3,10005e10 <cdcd_control_xfer_cb+0x60>
10005dc0:	00564683          	lbu	a3,5(a2)
10005dc4:	200038b7          	lui	a7,0x20003
10005dc8:	882a                	mv	a6,a0
10005dca:	7dc88893          	add	a7,a7,2012 # 200037dc <_cdcd_itf>
10005dce:	00464503          	lbu	a0,4(a2)
10005dd2:	87b2                	mv	a5,a2
10005dd4:	0008c603          	lbu	a2,0(a7)
10005dd8:	06a2                	sll	a3,a3,0x8
10005dda:	8ec9                	or	a3,a3,a0
10005ddc:	4501                	li	a0,0
10005dde:	02d61b63          	bne	a2,a3,10005e14 <cdcd_control_xfer_cb+0x64>
10005de2:	1141                	add	sp,sp,-16
10005de4:	c606                	sw	ra,12(sp)
10005de6:	0017c683          	lbu	a3,1(a5)
10005dea:	02200613          	li	a2,34
10005dee:	04c68e63          	beq	a3,a2,10005e4a <cdcd_control_xfer_cb+0x9a>
10005df2:	02d66263          	bltu	a2,a3,10005e16 <cdcd_control_xfer_cb+0x66>
10005df6:	0ae68e63          	beq	a3,a4,10005eb2 <cdcd_control_xfer_cb+0x102>
10005dfa:	02100713          	li	a4,33
10005dfe:	00e69663          	bne	a3,a4,10005e0a <cdcd_control_xfer_cb+0x5a>
10005e02:	4705                	li	a4,1
10005e04:	08e58c63          	beq	a1,a4,10005e9c <cdcd_control_xfer_cb+0xec>
10005e08:	4505                	li	a0,1
10005e0a:	40b2                	lw	ra,12(sp)
10005e0c:	0141                	add	sp,sp,16
10005e0e:	8082                	ret
10005e10:	4501                	li	a0,0
10005e12:	8082                	ret
10005e14:	8082                	ret
10005e16:	02300713          	li	a4,35
10005e1a:	fee698e3          	bne	a3,a4,10005e0a <cdcd_control_xfer_cb+0x5a>
10005e1e:	4705                	li	a4,1
10005e20:	0ae58d63          	beq	a1,a4,10005eda <cdcd_control_xfer_cb+0x12a>
10005e24:	470d                	li	a4,3
10005e26:	fee591e3          	bne	a1,a4,10005e08 <cdcd_control_xfer_cb+0x58>
10005e2a:	00000713          	li	a4,0
10005e2e:	df69                	beqz	a4,10005e08 <cdcd_control_xfer_cb+0x58>
10005e30:	0037c703          	lbu	a4,3(a5)
10005e34:	0027c583          	lbu	a1,2(a5)
10005e38:	4501                	li	a0,0
10005e3a:	0722                	sll	a4,a4,0x8
10005e3c:	8dd9                	or	a1,a1,a4
10005e3e:	00000097          	auipc	ra,0x0
10005e42:	000000e7          	jalr	zero # 0 <next_slot_number-0x5>
10005e46:	4505                	li	a0,1
10005e48:	b7c9                	j	10005e0a <cdcd_control_xfer_cb+0x5a>
10005e4a:	4705                	li	a4,1
10005e4c:	08e58763          	beq	a1,a4,10005eda <cdcd_control_xfer_cb+0x12a>
10005e50:	470d                	li	a4,3
10005e52:	fae59be3          	bne	a1,a4,10005e08 <cdcd_control_xfer_cb+0x58>
10005e56:	c226                	sw	s1,4(sp)
10005e58:	c422                	sw	s0,8(sp)
10005e5a:	0027c703          	lbu	a4,2(a5)
10005e5e:	0037c403          	lbu	s0,3(a5)
10005e62:	20004537          	lui	a0,0x20004
10005e66:	00177493          	and	s1,a4,1
10005e6a:	0422                	sll	s0,s0,0x8
10005e6c:	8c59                	or	s0,s0,a4
10005e6e:	0014c593          	xor	a1,s1,1
10005e72:	80050513          	add	a0,a0,-2048 # 20003800 <_cdcd_itf+0x24>
10005e76:	00888223          	sb	s0,4(a7)
10005e7a:	677000ef          	jal	10006cf0 <tu_fifo_set_overwritable>
10005e7e:	00000793          	li	a5,0
10005e82:	c3b5                	beqz	a5,10005ee6 <cdcd_control_xfer_cb+0x136>
10005e84:	85a6                	mv	a1,s1
10005e86:	4501                	li	a0,0
10005e88:	48145613          	bext	a2,s0,0x1
10005e8c:	00000097          	auipc	ra,0x0
10005e90:	000000e7          	jalr	zero # 0 <next_slot_number-0x5>
10005e94:	4505                	li	a0,1
10005e96:	4422                	lw	s0,8(sp)
10005e98:	4492                	lw	s1,4(sp)
10005e9a:	bf85                	j	10005e0a <cdcd_control_xfer_cb+0x5a>
10005e9c:	20003637          	lui	a2,0x20003
10005ea0:	469d                	li	a3,7
10005ea2:	7e460613          	add	a2,a2,2020 # 200037e4 <_cdcd_itf+0x8>
10005ea6:	85be                	mv	a1,a5
10005ea8:	8542                	mv	a0,a6
10005eaa:	ef8ff0ef          	jal	100055a2 <tud_control_xfer>
10005eae:	4505                	li	a0,1
10005eb0:	bfa9                	j	10005e0a <cdcd_control_xfer_cb+0x5a>
10005eb2:	4705                	li	a4,1
10005eb4:	fee584e3          	beq	a1,a4,10005e9c <cdcd_control_xfer_cb+0xec>
10005eb8:	478d                	li	a5,3
10005eba:	f4f597e3          	bne	a1,a5,10005e08 <cdcd_control_xfer_cb+0x58>
10005ebe:	100047b7          	lui	a5,0x10004
10005ec2:	e9278793          	add	a5,a5,-366 # 10003e92 <tud_cdc_line_coding_cb>
10005ec6:	d3a9                	beqz	a5,10005e08 <cdcd_control_xfer_cb+0x58>
10005ec8:	200035b7          	lui	a1,0x20003
10005ecc:	4501                	li	a0,0
10005ece:	7e458593          	add	a1,a1,2020 # 200037e4 <_cdcd_itf+0x8>
10005ed2:	fc1fd0ef          	jal	10003e92 <tud_cdc_line_coding_cb>
10005ed6:	4505                	li	a0,1
10005ed8:	bf0d                	j	10005e0a <cdcd_control_xfer_cb+0x5a>
10005eda:	85be                	mv	a1,a5
10005edc:	8542                	mv	a0,a6
10005ede:	e62ff0ef          	jal	10005540 <tud_control_status>
10005ee2:	4505                	li	a0,1
10005ee4:	b71d                	j	10005e0a <cdcd_control_xfer_cb+0x5a>
10005ee6:	4422                	lw	s0,8(sp)
10005ee8:	4492                	lw	s1,4(sp)
10005eea:	4505                	li	a0,1
10005eec:	bf39                	j	10005e0a <cdcd_control_xfer_cb+0x5a>

10005eee <cdcd_xfer_cb>:
10005eee:	7179                	add	sp,sp,-48
10005ef0:	d04a                	sw	s2,32(sp)
10005ef2:	20003937          	lui	s2,0x20003
10005ef6:	d226                	sw	s1,36(sp)
10005ef8:	7dc90493          	add	s1,s2,2012 # 200037dc <_cdcd_itf>
10005efc:	0034c783          	lbu	a5,3(s1)
10005f00:	d422                	sw	s0,40(sp)
10005f02:	cc52                	sw	s4,24(sp)
10005f04:	ca56                	sw	s5,20(sp)
10005f06:	d606                	sw	ra,44(sp)
10005f08:	0024c703          	lbu	a4,2(s1)
10005f0c:	842e                	mv	s0,a1
10005f0e:	8aaa                	mv	s5,a0
10005f10:	8a36                	mv	s4,a3
10005f12:	0ab78263          	beq	a5,a1,10005fb6 <cdcd_xfer_cb+0xc8>
10005f16:	02b70c63          	beq	a4,a1,10005f4e <cdcd_xfer_cb+0x60>
10005f1a:	9002                	ebreak
10005f1c:	50b2                	lw	ra,44(sp)
10005f1e:	5422                	lw	s0,40(sp)
10005f20:	5492                	lw	s1,36(sp)
10005f22:	5902                	lw	s2,32(sp)
10005f24:	4a62                	lw	s4,24(sp)
10005f26:	4ad2                	lw	s5,20(sp)
10005f28:	4501                	li	a0,0
10005f2a:	6145                	add	sp,sp,48
10005f2c:	8082                	ret
10005f2e:	49f2                	lw	s3,28(sp)
10005f30:	4b42                	lw	s6,16(sp)
10005f32:	00000793          	li	a5,0
10005f36:	c799                	beqz	a5,10005f44 <cdcd_xfer_cb+0x56>
10005f38:	7ecb8513          	add	a0,s7,2028
10005f3c:	071000ef          	jal	100067ac <tu_fifo_empty>
10005f40:	0c050f63          	beqz	a0,1000601e <cdcd_xfer_cb+0x130>
10005f44:	7dc90513          	add	a0,s2,2012
10005f48:	909ff0ef          	jal	10005850 <_prep_out_transaction.isra.0>
10005f4c:	4bb2                	lw	s7,12(sp)
10005f4e:	0024c783          	lbu	a5,2(s1)
10005f52:	00878b63          	beq	a5,s0,10005f68 <cdcd_xfer_cb+0x7a>
10005f56:	4505                	li	a0,1
10005f58:	50b2                	lw	ra,44(sp)
10005f5a:	5422                	lw	s0,40(sp)
10005f5c:	5492                	lw	s1,36(sp)
10005f5e:	5902                	lw	s2,32(sp)
10005f60:	4a62                	lw	s4,24(sp)
10005f62:	4ad2                	lw	s5,20(sp)
10005f64:	6145                	add	sp,sp,48
10005f66:	8082                	ret
10005f68:	00000793          	li	a5,0
10005f6c:	c791                	beqz	a5,10005f78 <cdcd_xfer_cb+0x8a>
10005f6e:	4501                	li	a0,0
10005f70:	00000097          	auipc	ra,0x0
10005f74:	000000e7          	jalr	zero # 0 <next_slot_number-0x5>
10005f78:	4501                	li	a0,0
10005f7a:	a9fff0ef          	jal	10005a18 <tud_cdc_n_write_flush>
10005f7e:	fd61                	bnez	a0,10005f56 <cdcd_xfer_cb+0x68>
10005f80:	20004537          	lui	a0,0x20004
10005f84:	80050513          	add	a0,a0,-2048 # 20003800 <_cdcd_itf+0x24>
10005f88:	7fc000ef          	jal	10006784 <tu_fifo_count>
10005f8c:	f569                	bnez	a0,10005f56 <cdcd_xfer_cb+0x68>
10005f8e:	fc0a04e3          	beqz	s4,10005f56 <cdcd_xfer_cb+0x68>
10005f92:	03fa7693          	and	a3,s4,63
10005f96:	f2e1                	bnez	a3,10005f56 <cdcd_xfer_cb+0x68>
10005f98:	0024c583          	lbu	a1,2(s1)
10005f9c:	8556                	mv	a0,s5
10005f9e:	cfaff0ef          	jal	10005498 <usbd_edpt_claim>
10005fa2:	d955                	beqz	a0,10005f56 <cdcd_xfer_cb+0x68>
10005fa4:	0024c583          	lbu	a1,2(s1)
10005fa8:	4681                	li	a3,0
10005faa:	4601                	li	a2,0
10005fac:	8556                	mv	a0,s5
10005fae:	d32ff0ef          	jal	100054e0 <usbd_edpt_xfer>
10005fb2:	4505                	li	a0,1
10005fb4:	b755                	j	10005f58 <cdcd_xfer_cb+0x6a>
10005fb6:	c65e                	sw	s7,12(sp)
10005fb8:	200045b7          	lui	a1,0x20004
10005fbc:	20003bb7          	lui	s7,0x20003
10005fc0:	a2458593          	add	a1,a1,-1500 # 20003a24 <_cdcd_itf+0x248>
10005fc4:	7ecb8513          	add	a0,s7,2028 # 200037ec <_cdcd_itf+0x10>
10005fc8:	0806c633          	zext.h	a2,a3
10005fcc:	329000ef          	jal	10006af4 <tu_fifo_write_n>
10005fd0:	00000793          	li	a5,0
10005fd4:	dfb9                	beqz	a5,10005f32 <cdcd_xfer_cb+0x44>
10005fd6:	0054c783          	lbu	a5,5(s1)
10005fda:	0ff00713          	li	a4,255
10005fde:	f4e78ae3          	beq	a5,a4,10005f32 <cdcd_xfer_cb+0x44>
10005fe2:	f40a08e3          	beqz	s4,10005f32 <cdcd_xfer_cb+0x44>
10005fe6:	ce4e                	sw	s3,28(sp)
10005fe8:	c85a                	sw	s6,16(sp)
10005fea:	7dc90993          	add	s3,s2,2012
10005fee:	01448b33          	add	s6,s1,s4
10005ff2:	a031                	j	10005ffe <cdcd_xfer_cb+0x110>
10005ff4:	0985                	add	s3,s3,1
10005ff6:	f33b0ce3          	beq	s6,s3,10005f2e <cdcd_xfer_cb+0x40>
10005ffa:	0054c783          	lbu	a5,5(s1)
10005ffe:	2489c703          	lbu	a4,584(s3)
10006002:	fef719e3          	bne	a4,a5,10005ff4 <cdcd_xfer_cb+0x106>
10006006:	7ecb8513          	add	a0,s7,2028
1000600a:	7a2000ef          	jal	100067ac <tu_fifo_empty>
1000600e:	f17d                	bnez	a0,10005ff4 <cdcd_xfer_cb+0x106>
10006010:	0054c583          	lbu	a1,5(s1)
10006014:	00000097          	auipc	ra,0x0
10006018:	000000e7          	jalr	zero # 0 <next_slot_number-0x5>
1000601c:	bfe1                	j	10005ff4 <cdcd_xfer_cb+0x106>
1000601e:	00000097          	auipc	ra,0x0
10006022:	000000e7          	jalr	zero # 0 <next_slot_number-0x5>
10006026:	bf39                	j	10005f44 <cdcd_xfer_cb+0x56>

10006028 <vendord_init>:
10006028:	20004537          	lui	a0,0x20004
1000602c:	1141                	add	sp,sp,-16
1000602e:	2cc00613          	li	a2,716
10006032:	4581                	li	a1,0
10006034:	c2c50513          	add	a0,a0,-980 # 20003c2c <_vendord_itf>
10006038:	c606                	sw	ra,12(sp)
1000603a:	513000ef          	jal	10006d4c <memset>
1000603e:	20004837          	lui	a6,0x20004
10006042:	20004737          	lui	a4,0x20004
10006046:	20004537          	lui	a0,0x20004
1000604a:	04000893          	li	a7,64
1000604e:	c3080813          	add	a6,a6,-976 # 20003c30 <_vendord_itf+0x4>
10006052:	10000793          	li	a5,256
10006056:	df870713          	add	a4,a4,-520 # 20003df8 <_vendord_itf+0x1cc>
1000605a:	4681                	li	a3,0
1000605c:	4601                	li	a2,0
1000605e:	4581                	li	a1,0
10006060:	dd450513          	add	a0,a0,-556 # 20003dd4 <_vendord_itf+0x1a8>
10006064:	292d                	jal	1000649e <tu_edpt_stream_init>
10006066:	40b2                	lw	ra,12(sp)
10006068:	20004837          	lui	a6,0x20004
1000606c:	20004737          	lui	a4,0x20004
10006070:	20004537          	lui	a0,0x20004
10006074:	04000893          	li	a7,64
10006078:	c7080813          	add	a6,a6,-912 # 20003c70 <_vendord_itf+0x44>
1000607c:	10000793          	li	a5,256
10006080:	cd470713          	add	a4,a4,-812 # 20003cd4 <_vendord_itf+0xa8>
10006084:	4681                	li	a3,0
10006086:	4605                	li	a2,1
10006088:	4581                	li	a1,0
1000608a:	cb050513          	add	a0,a0,-848 # 20003cb0 <_vendord_itf+0x84>
1000608e:	0141                	add	sp,sp,16
10006090:	a139                	j	1000649e <tu_edpt_stream_init>

10006092 <vendord_deinit>:
10006092:	20004537          	lui	a0,0x20004
10006096:	1141                	add	sp,sp,-16
10006098:	dd450513          	add	a0,a0,-556 # 20003dd4 <_vendord_itf+0x1a8>
1000609c:	c606                	sw	ra,12(sp)
1000609e:	2995                	jal	10006512 <tu_edpt_stream_deinit>
100060a0:	20004537          	lui	a0,0x20004
100060a4:	cb050513          	add	a0,a0,-848 # 20003cb0 <_vendord_itf+0x84>
100060a8:	21ad                	jal	10006512 <tu_edpt_stream_deinit>
100060aa:	40b2                	lw	ra,12(sp)
100060ac:	4505                	li	a0,1
100060ae:	0141                	add	sp,sp,16
100060b0:	8082                	ret

100060b2 <vendord_reset>:
100060b2:	20004537          	lui	a0,0x20004
100060b6:	1141                	add	sp,sp,-16
100060b8:	200047b7          	lui	a5,0x20004
100060bc:	ddc50513          	add	a0,a0,-548 # 20003ddc <_vendord_itf+0x1b0>
100060c0:	c606                	sw	ra,12(sp)
100060c2:	c2078623          	sb	zero,-980(a5) # 20003c2c <_vendord_itf>
100060c6:	3dd000ef          	jal	10006ca2 <tu_fifo_clear>
100060ca:	40b2                	lw	ra,12(sp)
100060cc:	20004537          	lui	a0,0x20004
100060d0:	cb850513          	add	a0,a0,-840 # 20003cb8 <_vendord_itf+0x8c>
100060d4:	0141                	add	sp,sp,16
100060d6:	3cd0006f          	j	10006ca2 <tu_fifo_clear>

100060da <vendord_open>:
100060da:	0055c703          	lbu	a4,5(a1)
100060de:	0ff00793          	li	a5,255
100060e2:	00f70463          	beq	a4,a5,100060ea <vendord_open+0x10>
100060e6:	4501                	li	a0,0
100060e8:	8082                	ret
100060ea:	7139                	add	sp,sp,-64
100060ec:	d84a                	sw	s2,48(sp)
100060ee:	20004937          	lui	s2,0x20004
100060f2:	c2c90913          	add	s2,s2,-980 # 20003c2c <_vendord_itf>
100060f6:	1a994783          	lbu	a5,425(s2)
100060fa:	d64e                	sw	s3,44(sp)
100060fc:	de06                	sw	ra,60(sp)
100060fe:	dc22                	sw	s0,56(sp)
10006100:	0005c403          	lbu	s0,0(a1)
10006104:	89ae                	mv	s3,a1
10006106:	e795                	bnez	a5,10006132 <vendord_open+0x58>
10006108:	da26                	sw	s1,52(sp)
1000610a:	08594483          	lbu	s1,133(s2)
1000610e:	d452                	sw	s4,40(sp)
10006110:	d256                	sw	s5,36(sp)
10006112:	d05a                	sw	s6,32(sp)
10006114:	ce5e                	sw	s7,28(sp)
10006116:	cc62                	sw	s8,24(sp)
10006118:	ca66                	sw	s9,20(sp)
1000611a:	c86a                	sw	s10,16(sp)
1000611c:	c66e                	sw	s11,12(sp)
1000611e:	cc81                	beqz	s1,10006136 <vendord_open+0x5c>
10006120:	54d2                	lw	s1,52(sp)
10006122:	5a22                	lw	s4,40(sp)
10006124:	5a92                	lw	s5,36(sp)
10006126:	5b02                	lw	s6,32(sp)
10006128:	4bf2                	lw	s7,28(sp)
1000612a:	4c62                	lw	s8,24(sp)
1000612c:	4cd2                	lw	s9,20(sp)
1000612e:	4d42                	lw	s10,16(sp)
10006130:	4db2                	lw	s11,12(sp)
10006132:	4501                	li	a0,0
10006134:	a0f1                	j	10006200 <vendord_open+0x126>
10006136:	0025c703          	lbu	a4,2(a1)
1000613a:	0045c783          	lbu	a5,4(a1)
1000613e:	942e                	add	s0,s0,a1
10006140:	00e90023          	sb	a4,0(s2)
10006144:	c3cd                	beqz	a5,100061e6 <vendord_open+0x10c>
10006146:	8a2a                	mv	s4,a0
10006148:	00c40d33          	add	s10,s0,a2
1000614c:	4d95                	li	s11,5
1000614e:	4a85                	li	s5,1
10006150:	20004bb7          	lui	s7,0x20004
10006154:	20004b37          	lui	s6,0x20004
10006158:	20004cb7          	lui	s9,0x20004
1000615c:	20004c37          	lui	s8,0x20004
10006160:	00144783          	lbu	a5,1(s0)
10006164:	01b78b63          	beq	a5,s11,1000617a <vendord_open+0xa0>
10006168:	07a47f63          	bgeu	s0,s10,100061e6 <vendord_open+0x10c>
1000616c:	00044783          	lbu	a5,0(s0)
10006170:	943e                	add	s0,s0,a5
10006172:	00144783          	lbu	a5,1(s0)
10006176:	ffb799e3          	bne	a5,s11,10006168 <vendord_open+0x8e>
1000617a:	07a47663          	bgeu	s0,s10,100061e6 <vendord_open+0x10c>
1000617e:	85a2                	mv	a1,s0
10006180:	8552                	mv	a0,s4
10006182:	ac0ff0ef          	jal	10005442 <usbd_edpt_open>
10006186:	c179                	beqz	a0,1000624c <vendord_open+0x172>
10006188:	00244783          	lbu	a5,2(s0)
1000618c:	0485                	add	s1,s1,1
1000618e:	0ff4f493          	zext.b	s1,s1
10006192:	839d                	srl	a5,a5,0x7
10006194:	07578c63          	beq	a5,s5,1000620c <vendord_open+0x132>
10006198:	ddcb8513          	add	a0,s7,-548 # 20003ddc <_vendord_itf+0x1b0>
1000619c:	307000ef          	jal	10006ca2 <tu_fifo_clear>
100061a0:	00244783          	lbu	a5,2(s0)
100061a4:	1a894703          	lbu	a4,424(s2)
100061a8:	dd4b0593          	add	a1,s6,-556 # 20003dd4 <_vendord_itf+0x1a8>
100061ac:	1af904a3          	sb	a5,425(s2)
100061b0:	00544783          	lbu	a5,5(s0)
100061b4:	00444683          	lbu	a3,4(s0)
100061b8:	9b75                	and	a4,a4,-3
100061ba:	07a2                	sll	a5,a5,0x8
100061bc:	8fd5                	or	a5,a5,a3
100061be:	7ff7f793          	and	a5,a5,2047
100061c2:	e0078793          	add	a5,a5,-512
100061c6:	0017b793          	seqz	a5,a5
100061ca:	0786                	sll	a5,a5,0x1
100061cc:	8fd9                	or	a5,a5,a4
100061ce:	8552                	mv	a0,s4
100061d0:	1af90423          	sb	a5,424(s2)
100061d4:	290d                	jal	10006606 <tu_edpt_stream_read_xfer>
100061d6:	c93d                	beqz	a0,1000624c <vendord_open+0x172>
100061d8:	00044703          	lbu	a4,0(s0)
100061dc:	0049c783          	lbu	a5,4(s3)
100061e0:	943a                	add	s0,s0,a4
100061e2:	f6f4efe3          	bltu	s1,a5,10006160 <vendord_open+0x86>
100061e6:	54d2                	lw	s1,52(sp)
100061e8:	5a22                	lw	s4,40(sp)
100061ea:	5a92                	lw	s5,36(sp)
100061ec:	5b02                	lw	s6,32(sp)
100061ee:	4bf2                	lw	s7,28(sp)
100061f0:	4c62                	lw	s8,24(sp)
100061f2:	4cd2                	lw	s9,20(sp)
100061f4:	4d42                	lw	s10,16(sp)
100061f6:	4db2                	lw	s11,12(sp)
100061f8:	413405b3          	sub	a1,s0,s3
100061fc:	0805c533          	zext.h	a0,a1
10006200:	50f2                	lw	ra,60(sp)
10006202:	5462                	lw	s0,56(sp)
10006204:	5942                	lw	s2,48(sp)
10006206:	59b2                	lw	s3,44(sp)
10006208:	6121                	add	sp,sp,64
1000620a:	8082                	ret
1000620c:	cb8c8513          	add	a0,s9,-840 # 20003cb8 <_vendord_itf+0x8c>
10006210:	293000ef          	jal	10006ca2 <tu_fifo_clear>
10006214:	00244783          	lbu	a5,2(s0)
10006218:	08494703          	lbu	a4,132(s2)
1000621c:	cb0c0593          	add	a1,s8,-848 # 20003cb0 <_vendord_itf+0x84>
10006220:	08f902a3          	sb	a5,133(s2)
10006224:	00544783          	lbu	a5,5(s0)
10006228:	00444683          	lbu	a3,4(s0)
1000622c:	9b75                	and	a4,a4,-3
1000622e:	07a2                	sll	a5,a5,0x8
10006230:	8fd5                	or	a5,a5,a3
10006232:	7ff7f793          	and	a5,a5,2047
10006236:	e0078793          	add	a5,a5,-512
1000623a:	0017b793          	seqz	a5,a5
1000623e:	0786                	sll	a5,a5,0x1
10006240:	8fd9                	or	a5,a5,a4
10006242:	4501                	li	a0,0
10006244:	08f90223          	sb	a5,132(s2)
10006248:	26a1                	jal	10006590 <tu_edpt_stream_write_xfer>
1000624a:	b779                	j	100061d8 <vendord_open+0xfe>
1000624c:	9002                	ebreak
1000624e:	bdc9                	j	10006120 <vendord_open+0x46>

10006250 <vendord_xfer_cb>:
10006250:	1101                	add	sp,sp,-32
10006252:	200047b7          	lui	a5,0x20004
10006256:	cc22                	sw	s0,24(sp)
10006258:	ce06                	sw	ra,28(sp)
1000625a:	c2c78793          	add	a5,a5,-980 # 20003c2c <_vendord_itf>
1000625e:	1a97c703          	lbu	a4,425(a5)
10006262:	842a                	mv	s0,a0
10006264:	04b70363          	beq	a4,a1,100062aa <vendord_xfer_cb+0x5a>
10006268:	0857c783          	lbu	a5,133(a5)
1000626c:	4501                	li	a0,0
1000626e:	02b79a63          	bne	a5,a1,100062a2 <vendord_xfer_cb+0x52>
10006272:	ca26                	sw	s1,20(sp)
10006274:	00000793          	li	a5,0
10006278:	cb91                	beqz	a5,1000628c <vendord_xfer_cb+0x3c>
1000627a:	4501                	li	a0,0
1000627c:	c636                	sw	a3,12(sp)
1000627e:	0806c5b3          	zext.h	a1,a3
10006282:	00000097          	auipc	ra,0x0
10006286:	000000e7          	jalr	zero # 0 <next_slot_number-0x5>
1000628a:	46b2                	lw	a3,12(sp)
1000628c:	200044b7          	lui	s1,0x20004
10006290:	cb048593          	add	a1,s1,-848 # 20003cb0 <_vendord_itf+0x84>
10006294:	8522                	mv	a0,s0
10006296:	c636                	sw	a3,12(sp)
10006298:	2ce5                	jal	10006590 <tu_edpt_stream_write_xfer>
1000629a:	46b2                	lw	a3,12(sp)
1000629c:	cd29                	beqz	a0,100062f6 <vendord_xfer_cb+0xa6>
1000629e:	44d2                	lw	s1,20(sp)
100062a0:	4505                	li	a0,1
100062a2:	40f2                	lw	ra,28(sp)
100062a4:	4462                	lw	s0,24(sp)
100062a6:	6105                	add	sp,sp,32
100062a8:	8082                	ret
100062aa:	1b47d703          	lhu	a4,436(a5)
100062ae:	e71d                	bnez	a4,100062dc <vendord_xfer_cb+0x8c>
100062b0:	00000793          	li	a5,0
100062b4:	cf81                	beqz	a5,100062cc <vendord_xfer_cb+0x7c>
100062b6:	200045b7          	lui	a1,0x20004
100062ba:	c3058593          	add	a1,a1,-976 # 20003c30 <_vendord_itf+0x4>
100062be:	4501                	li	a0,0
100062c0:	0806c633          	zext.h	a2,a3
100062c4:	00000097          	auipc	ra,0x0
100062c8:	000000e7          	jalr	zero # 0 <next_slot_number-0x5>
100062cc:	200045b7          	lui	a1,0x20004
100062d0:	dd458593          	add	a1,a1,-556 # 20003dd4 <_vendord_itf+0x1a8>
100062d4:	8522                	mv	a0,s0
100062d6:	2e05                	jal	10006606 <tu_edpt_stream_read_xfer>
100062d8:	4505                	li	a0,1
100062da:	b7e1                	j	100062a2 <vendord_xfer_cb+0x52>
100062dc:	1ac7a583          	lw	a1,428(a5)
100062e0:	20004537          	lui	a0,0x20004
100062e4:	ddc50513          	add	a0,a0,-548 # 20003ddc <_vendord_itf+0x1b0>
100062e8:	c636                	sw	a3,12(sp)
100062ea:	0806c633          	zext.h	a2,a3
100062ee:	007000ef          	jal	10006af4 <tu_fifo_write_n>
100062f2:	46b2                	lw	a3,12(sp)
100062f4:	bf75                	j	100062b0 <vendord_xfer_cb+0x60>
100062f6:	cb048593          	add	a1,s1,-848
100062fa:	8636                	mv	a2,a3
100062fc:	8522                	mv	a0,s0
100062fe:	2c21                	jal	10006516 <tu_edpt_stream_write_zlp_if_needed>
10006300:	4505                	li	a0,1
10006302:	44d2                	lw	s1,20(sp)
10006304:	bf79                	j	100062a2 <vendord_xfer_cb+0x52>

10006306 <tusb_init>:
10006306:	1141                	add	sp,sp,-16
10006308:	4501                	li	a0,0
1000630a:	c606                	sw	ra,12(sp)
1000630c:	fa0fe0ef          	jal	10004aac <tud_init>
10006310:	e111                	bnez	a0,10006314 <tusb_init+0xe>
10006312:	9002                	ebreak
10006314:	40b2                	lw	ra,12(sp)
10006316:	0141                	add	sp,sp,16
10006318:	8082                	ret

1000631a <tu_edpt_claim>:
1000631a:	1141                	add	sp,sp,-16
1000631c:	c422                	sw	s0,8(sp)
1000631e:	00054403          	lbu	s0,0(a0)
10006322:	c606                	sw	ra,12(sp)
10006324:	8805                	and	s0,s0,1
10006326:	e439                	bnez	s0,10006374 <tu_edpt_claim+0x5a>
10006328:	00054783          	lbu	a5,0(a0)
1000632c:	c226                	sw	s1,4(sp)
1000632e:	84aa                	mv	s1,a0
10006330:	4827d793          	bext	a5,a5,0x2
10006334:	c799                	beqz	a5,10006342 <tu_edpt_claim+0x28>
10006336:	40b2                	lw	ra,12(sp)
10006338:	8522                	mv	a0,s0
1000633a:	4422                	lw	s0,8(sp)
1000633c:	4492                	lw	s1,4(sp)
1000633e:	0141                	add	sp,sp,16
10006340:	8082                	ret
10006342:	c04a                	sw	s2,0(sp)
10006344:	892e                	mv	s2,a1
10006346:	854a                	mv	a0,s2
10006348:	55fd                	li	a1,-1
1000634a:	0fffa097          	auipc	ra,0xfffa
1000634e:	e06080e7          	jalr	-506(ra) # 20000150 <mutex_enter_timeout_ms>
10006352:	0004c403          	lbu	s0,0(s1)
10006356:	8805                	and	s0,s0,1
10006358:	e405                	bnez	s0,10006380 <tu_edpt_claim+0x66>
1000635a:	0004c783          	lbu	a5,0(s1)
1000635e:	4827d793          	bext	a5,a5,0x2
10006362:	e385                	bnez	a5,10006382 <tu_edpt_claim+0x68>
10006364:	0004c783          	lbu	a5,0(s1)
10006368:	4405                	li	s0,1
1000636a:	0047e793          	or	a5,a5,4
1000636e:	00f48023          	sb	a5,0(s1)
10006372:	a801                	j	10006382 <tu_edpt_claim+0x68>
10006374:	4401                	li	s0,0
10006376:	40b2                	lw	ra,12(sp)
10006378:	8522                	mv	a0,s0
1000637a:	4422                	lw	s0,8(sp)
1000637c:	0141                	add	sp,sp,16
1000637e:	8082                	ret
10006380:	4401                	li	s0,0
10006382:	854a                	mv	a0,s2
10006384:	0fffa097          	auipc	ra,0xfffa
10006388:	e14080e7          	jalr	-492(ra) # 20000198 <mutex_exit>
1000638c:	40b2                	lw	ra,12(sp)
1000638e:	8522                	mv	a0,s0
10006390:	4422                	lw	s0,8(sp)
10006392:	4492                	lw	s1,4(sp)
10006394:	4902                	lw	s2,0(sp)
10006396:	0141                	add	sp,sp,16
10006398:	8082                	ret

1000639a <tu_edpt_release>:
1000639a:	1141                	add	sp,sp,-16
1000639c:	c226                	sw	s1,4(sp)
1000639e:	84ae                	mv	s1,a1
100063a0:	c04a                	sw	s2,0(sp)
100063a2:	55fd                	li	a1,-1
100063a4:	892a                	mv	s2,a0
100063a6:	8526                	mv	a0,s1
100063a8:	c422                	sw	s0,8(sp)
100063aa:	c606                	sw	ra,12(sp)
100063ac:	0fffa097          	auipc	ra,0xfffa
100063b0:	da4080e7          	jalr	-604(ra) # 20000150 <mutex_enter_timeout_ms>
100063b4:	00094403          	lbu	s0,0(s2)
100063b8:	48245413          	bext	s0,s0,0x2
100063bc:	ec09                	bnez	s0,100063d6 <tu_edpt_release+0x3c>
100063be:	8526                	mv	a0,s1
100063c0:	0fffa097          	auipc	ra,0xfffa
100063c4:	dd8080e7          	jalr	-552(ra) # 20000198 <mutex_exit>
100063c8:	40b2                	lw	ra,12(sp)
100063ca:	8522                	mv	a0,s0
100063cc:	4422                	lw	s0,8(sp)
100063ce:	4492                	lw	s1,4(sp)
100063d0:	4902                	lw	s2,0(sp)
100063d2:	0141                	add	sp,sp,16
100063d4:	8082                	ret
100063d6:	00094783          	lbu	a5,0(s2)
100063da:	8b85                	and	a5,a5,1
100063dc:	e799                	bnez	a5,100063ea <tu_edpt_release+0x50>
100063de:	00094783          	lbu	a5,0(s2)
100063e2:	9bed                	and	a5,a5,-5
100063e4:	00f90023          	sb	a5,0(s2)
100063e8:	bfd9                	j	100063be <tu_edpt_release+0x24>
100063ea:	4401                	li	s0,0
100063ec:	bfc9                	j	100063be <tu_edpt_release+0x24>

100063ee <tu_edpt_validate>:
100063ee:	00554783          	lbu	a5,5(a0)
100063f2:	00454683          	lbu	a3,4(a0)
100063f6:	00354703          	lbu	a4,3(a0)
100063fa:	07a2                	sll	a5,a5,0x8
100063fc:	8fd5                	or	a5,a5,a3
100063fe:	8b0d                	and	a4,a4,3
10006400:	4689                	li	a3,2
10006402:	7ff7f793          	and	a5,a5,2047
10006406:	02d70d63          	beq	a4,a3,10006440 <tu_edpt_validate+0x52>
1000640a:	460d                	li	a2,3
1000640c:	00c70763          	beq	a4,a2,1000641a <tu_edpt_validate+0x2c>
10006410:	4685                	li	a3,1
10006412:	00d70c63          	beq	a4,a3,1000642a <tu_edpt_validate+0x3c>
10006416:	4501                	li	a0,0
10006418:	8082                	ret
1000641a:	04000713          	li	a4,64
1000641e:	02d58f63          	beq	a1,a3,1000645c <tu_edpt_validate+0x6e>
10006422:	4505                	li	a0,1
10006424:	00f76b63          	bltu	a4,a5,1000643a <tu_edpt_validate+0x4c>
10006428:	8082                	ret
1000642a:	15f9                	add	a1,a1,-2
1000642c:	0015b593          	seqz	a1,a1
10006430:	3ff58593          	add	a1,a1,1023
10006434:	4505                	li	a0,1
10006436:	fef5f9e3          	bgeu	a1,a5,10006428 <tu_edpt_validate+0x3a>
1000643a:	9002                	ebreak
1000643c:	4501                	li	a0,0
1000643e:	8082                	ret
10006440:	00e58863          	beq	a1,a4,10006450 <tu_edpt_validate+0x62>
10006444:	04000713          	li	a4,64
10006448:	4505                	li	a0,1
1000644a:	fef768e3          	bltu	a4,a5,1000643a <tu_edpt_validate+0x4c>
1000644e:	8082                	ret
10006450:	20000713          	li	a4,512
10006454:	4505                	li	a0,1
10006456:	fce789e3          	beq	a5,a4,10006428 <tu_edpt_validate+0x3a>
1000645a:	b7c5                	j	1000643a <tu_edpt_validate+0x4c>
1000645c:	40000713          	li	a4,1024
10006460:	b7c9                	j	10006422 <tu_edpt_validate+0x34>

10006462 <tu_edpt_bind_driver>:
10006462:	962e                	add	a2,a2,a1
10006464:	00c5fc63          	bgeu	a1,a2,1000647c <tu_edpt_bind_driver+0x1a>
10006468:	4815                	li	a6,5
1000646a:	0015c783          	lbu	a5,1(a1)
1000646e:	01078863          	beq	a5,a6,1000647e <tu_edpt_bind_driver+0x1c>
10006472:	0005c783          	lbu	a5,0(a1)
10006476:	95be                	add	a1,a1,a5
10006478:	fec5e9e3          	bltu	a1,a2,1000646a <tu_edpt_bind_driver+0x8>
1000647c:	8082                	ret
1000647e:	0025c703          	lbu	a4,2(a1)
10006482:	07f77793          	and	a5,a4,127
10006486:	831d                	srl	a4,a4,0x7
10006488:	20a7a7b3          	sh1add	a5,a5,a0
1000648c:	97ba                	add	a5,a5,a4
1000648e:	00d78023          	sb	a3,0(a5)
10006492:	0005c783          	lbu	a5,0(a1)
10006496:	95be                	add	a1,a1,a5
10006498:	fcc5e9e3          	bltu	a1,a2,1000646a <tu_edpt_bind_driver+0x8>
1000649c:	8082                	ret

1000649e <tu_edpt_stream_init>:
1000649e:	1101                	add	sp,sp,-32
100064a0:	cc22                	sw	s0,24(sp)
100064a2:	842a                	mv	s0,a0
100064a4:	00054503          	lbu	a0,0(a0)
100064a8:	8985                	and	a1,a1,1
100064aa:	ca26                	sw	s1,20(sp)
100064ac:	9979                	and	a0,a0,-2
100064ae:	c84a                	sw	s2,16(sp)
100064b0:	c64e                	sw	s3,12(sp)
100064b2:	c452                	sw	s4,8(sp)
100064b4:	c256                	sw	s5,4(sp)
100064b6:	84ba                	mv	s1,a4
100064b8:	8d4d                	or	a0,a0,a1
100064ba:	ce06                	sw	ra,28(sp)
100064bc:	8736                	mv	a4,a3
100064be:	8ab2                	mv	s5,a2
100064c0:	00a40023          	sb	a0,0(s0)
100064c4:	4685                	li	a3,1
100064c6:	863e                	mv	a2,a5
100064c8:	85a6                	mv	a1,s1
100064ca:	00840513          	add	a0,s0,8
100064ce:	893e                	mv	s2,a5
100064d0:	8a42                	mv	s4,a6
100064d2:	89c6                	mv	s3,a7
100064d4:	2425                	jal	100066fc <tu_fifo_config>
100064d6:	c099                	beqz	s1,100064dc <tu_edpt_stream_init+0x3e>
100064d8:	02091063          	bnez	s2,100064f8 <tu_edpt_stream_init+0x5a>
100064dc:	01442223          	sw	s4,4(s0)
100064e0:	01341123          	sh	s3,2(s0)
100064e4:	40f2                	lw	ra,28(sp)
100064e6:	4462                	lw	s0,24(sp)
100064e8:	44d2                	lw	s1,20(sp)
100064ea:	4942                	lw	s2,16(sp)
100064ec:	49b2                	lw	s3,12(sp)
100064ee:	4a22                	lw	s4,8(sp)
100064f0:	4a92                	lw	s5,4(sp)
100064f2:	4505                	li	a0,1
100064f4:	6105                	add	sp,sp,32
100064f6:	8082                	ret
100064f8:	01c40493          	add	s1,s0,28
100064fc:	8526                	mv	a0,s1
100064fe:	98dfa0ef          	jal	10000e8a <mutex_init>
10006502:	4781                	li	a5,0
10006504:	000a8463          	beqz	s5,1000650c <tu_edpt_stream_init+0x6e>
10006508:	87a6                	mv	a5,s1
1000650a:	4481                	li	s1,0
1000650c:	c85c                	sw	a5,20(s0)
1000650e:	cc04                	sw	s1,24(s0)
10006510:	b7f1                	j	100064dc <tu_edpt_stream_init+0x3e>

10006512 <tu_edpt_stream_deinit>:
10006512:	4505                	li	a0,1
10006514:	8082                	ret

10006516 <tu_edpt_stream_write_zlp_if_needed>:
10006516:	0005c783          	lbu	a5,0(a1)
1000651a:	1101                	add	sp,sp,-32
1000651c:	c64e                	sw	s3,12(sp)
1000651e:	4817d793          	bext	a5,a5,0x1
10006522:	89aa                	mv	s3,a0
10006524:	17fd                	add	a5,a5,-1
10006526:	00858513          	add	a0,a1,8
1000652a:	cc22                	sw	s0,24(sp)
1000652c:	ca26                	sw	s1,20(sp)
1000652e:	c84a                	sw	s2,16(sp)
10006530:	ce06                	sw	ra,28(sp)
10006532:	84ae                	mv	s1,a1
10006534:	e407f413          	and	s0,a5,-448
10006538:	8932                	mv	s2,a2
1000653a:	24a9                	jal	10006784 <tu_fifo_count>
1000653c:	ed09                	bnez	a0,10006556 <tu_edpt_stream_write_zlp_if_needed+0x40>
1000653e:	00090c63          	beqz	s2,10006556 <tu_edpt_stream_write_zlp_if_needed+0x40>
10006542:	1ff40413          	add	s0,s0,511
10006546:	00897933          	and	s2,s2,s0
1000654a:	00091663          	bnez	s2,10006556 <tu_edpt_stream_write_zlp_if_needed+0x40>
1000654e:	0004c783          	lbu	a5,0(s1)
10006552:	8b85                	and	a5,a5,1
10006554:	cb89                	beqz	a5,10006566 <tu_edpt_stream_write_zlp_if_needed+0x50>
10006556:	4501                	li	a0,0
10006558:	40f2                	lw	ra,28(sp)
1000655a:	4462                	lw	s0,24(sp)
1000655c:	44d2                	lw	s1,20(sp)
1000655e:	4942                	lw	s2,16(sp)
10006560:	49b2                	lw	s3,12(sp)
10006562:	6105                	add	sp,sp,32
10006564:	8082                	ret
10006566:	0014c583          	lbu	a1,1(s1)
1000656a:	854e                	mv	a0,s3
1000656c:	f2dfe0ef          	jal	10005498 <usbd_edpt_claim>
10006570:	d17d                	beqz	a0,10006556 <tu_edpt_stream_write_zlp_if_needed+0x40>
10006572:	0004c783          	lbu	a5,0(s1)
10006576:	8b85                	and	a5,a5,1
10006578:	c399                	beqz	a5,1000657e <tu_edpt_stream_write_zlp_if_needed+0x68>
1000657a:	9002                	ebreak
1000657c:	bfe9                	j	10006556 <tu_edpt_stream_write_zlp_if_needed+0x40>
1000657e:	0014c583          	lbu	a1,1(s1)
10006582:	4681                	li	a3,0
10006584:	4601                	li	a2,0
10006586:	854e                	mv	a0,s3
10006588:	f59fe0ef          	jal	100054e0 <usbd_edpt_xfer>
1000658c:	f571                	bnez	a0,10006558 <tu_edpt_stream_write_zlp_if_needed+0x42>
1000658e:	b7f5                	j	1000657a <tu_edpt_stream_write_zlp_if_needed+0x64>

10006590 <tu_edpt_stream_write_xfer>:
10006590:	1141                	add	sp,sp,-16
10006592:	c226                	sw	s1,4(sp)
10006594:	00858493          	add	s1,a1,8
10006598:	c04a                	sw	s2,0(sp)
1000659a:	892a                	mv	s2,a0
1000659c:	8526                	mv	a0,s1
1000659e:	c422                	sw	s0,8(sp)
100065a0:	c606                	sw	ra,12(sp)
100065a2:	842e                	mv	s0,a1
100065a4:	22c5                	jal	10006784 <tu_fifo_count>
100065a6:	c509                	beqz	a0,100065b0 <tu_edpt_stream_write_xfer+0x20>
100065a8:	00044783          	lbu	a5,0(s0)
100065ac:	8b85                	and	a5,a5,1
100065ae:	cb81                	beqz	a5,100065be <tu_edpt_stream_write_xfer+0x2e>
100065b0:	4501                	li	a0,0
100065b2:	40b2                	lw	ra,12(sp)
100065b4:	4422                	lw	s0,8(sp)
100065b6:	4492                	lw	s1,4(sp)
100065b8:	4902                	lw	s2,0(sp)
100065ba:	0141                	add	sp,sp,16
100065bc:	8082                	ret
100065be:	00144583          	lbu	a1,1(s0)
100065c2:	854a                	mv	a0,s2
100065c4:	ed5fe0ef          	jal	10005498 <usbd_edpt_claim>
100065c8:	d565                	beqz	a0,100065b0 <tu_edpt_stream_write_xfer+0x20>
100065ca:	00245603          	lhu	a2,2(s0)
100065ce:	404c                	lw	a1,4(s0)
100065d0:	8526                	mv	a0,s1
100065d2:	2cd5                	jal	100068c6 <tu_fifo_read_n>
100065d4:	00044783          	lbu	a5,0(s0)
100065d8:	84aa                	mv	s1,a0
100065da:	8b85                	and	a5,a5,1
100065dc:	c501                	beqz	a0,100065e4 <tu_edpt_stream_write_xfer+0x54>
100065de:	cb91                	beqz	a5,100065f2 <tu_edpt_stream_write_xfer+0x62>
100065e0:	9002                	ebreak
100065e2:	b7f9                	j	100065b0 <tu_edpt_stream_write_xfer+0x20>
100065e4:	f7f1                	bnez	a5,100065b0 <tu_edpt_stream_write_xfer+0x20>
100065e6:	00144583          	lbu	a1,1(s0)
100065ea:	854a                	mv	a0,s2
100065ec:	ed1fe0ef          	jal	100054bc <usbd_edpt_release>
100065f0:	b7c1                	j	100065b0 <tu_edpt_stream_write_xfer+0x20>
100065f2:	4050                	lw	a2,4(s0)
100065f4:	00144583          	lbu	a1,1(s0)
100065f8:	86aa                	mv	a3,a0
100065fa:	854a                	mv	a0,s2
100065fc:	ee5fe0ef          	jal	100054e0 <usbd_edpt_xfer>
10006600:	d165                	beqz	a0,100065e0 <tu_edpt_stream_write_xfer+0x50>
10006602:	8526                	mv	a0,s1
10006604:	b77d                	j	100065b2 <tu_edpt_stream_write_xfer+0x22>

10006606 <tu_edpt_stream_read_xfer>:
10006606:	00c5d703          	lhu	a4,12(a1)
1000660a:	1101                	add	sp,sp,-32
1000660c:	cc22                	sw	s0,24(sp)
1000660e:	c84a                	sw	s2,16(sp)
10006610:	ce06                	sw	ra,28(sp)
10006612:	0005c783          	lbu	a5,0(a1)
10006616:	842e                	mv	s0,a1
10006618:	892a                	mv	s2,a0
1000661a:	eb09                	bnez	a4,1000662c <tu_edpt_stream_read_xfer+0x26>
1000661c:	8b85                	and	a5,a5,1
1000661e:	c7a1                	beqz	a5,10006666 <tu_edpt_stream_read_xfer+0x60>
10006620:	4501                	li	a0,0
10006622:	40f2                	lw	ra,28(sp)
10006624:	4462                	lw	s0,24(sp)
10006626:	4942                	lw	s2,16(sp)
10006628:	6105                	add	sp,sp,32
1000662a:	8082                	ret
1000662c:	ca26                	sw	s1,20(sp)
1000662e:	c64e                	sw	s3,12(sp)
10006630:	c452                	sw	s4,8(sp)
10006632:	8b89                	and	a5,a5,2
10006634:	64c1                	lui	s1,0x10
10006636:	c39d                	beqz	a5,1000665c <tu_edpt_stream_read_xfer+0x56>
10006638:	e0048493          	add	s1,s1,-512 # fe00 <HeapSize+0xf600>
1000663c:	20000993          	li	s3,512
10006640:	00840a13          	add	s4,s0,8
10006644:	8552                	mv	a0,s4
10006646:	2aa5                	jal	100067be <tu_fifo_remaining>
10006648:	01356663          	bltu	a0,s3,10006654 <tu_edpt_stream_read_xfer+0x4e>
1000664c:	00044783          	lbu	a5,0(s0)
10006650:	8b85                	and	a5,a5,1
10006652:	c79d                	beqz	a5,10006680 <tu_edpt_stream_read_xfer+0x7a>
10006654:	44d2                	lw	s1,20(sp)
10006656:	49b2                	lw	s3,12(sp)
10006658:	4a22                	lw	s4,8(sp)
1000665a:	b7d9                	j	10006620 <tu_edpt_stream_read_xfer+0x1a>
1000665c:	fc048493          	add	s1,s1,-64
10006660:	04000993          	li	s3,64
10006664:	bff1                	j	10006640 <tu_edpt_stream_read_xfer+0x3a>
10006666:	0015c583          	lbu	a1,1(a1)
1000666a:	e2ffe0ef          	jal	10005498 <usbd_edpt_claim>
1000666e:	d94d                	beqz	a0,10006620 <tu_edpt_stream_read_xfer+0x1a>
10006670:	00044783          	lbu	a5,0(s0)
10006674:	00245683          	lhu	a3,2(s0)
10006678:	8b85                	and	a5,a5,1
1000667a:	cb85                	beqz	a5,100066aa <tu_edpt_stream_read_xfer+0xa4>
1000667c:	9002                	ebreak
1000667e:	b74d                	j	10006620 <tu_edpt_stream_read_xfer+0x1a>
10006680:	00144583          	lbu	a1,1(s0)
10006684:	854a                	mv	a0,s2
10006686:	e13fe0ef          	jal	10005498 <usbd_edpt_claim>
1000668a:	d569                	beqz	a0,10006654 <tu_edpt_stream_read_xfer+0x4e>
1000668c:	8552                	mv	a0,s4
1000668e:	2a05                	jal	100067be <tu_fifo_remaining>
10006690:	00044783          	lbu	a5,0(s0)
10006694:	03356763          	bltu	a0,s3,100066c2 <tu_edpt_stream_read_xfer+0xbc>
10006698:	8b85                	and	a5,a5,1
1000669a:	00245703          	lhu	a4,2(s0)
1000669e:	cf8d                	beqz	a5,100066d8 <tu_edpt_stream_read_xfer+0xd2>
100066a0:	9002                	ebreak
100066a2:	44d2                	lw	s1,20(sp)
100066a4:	49b2                	lw	s3,12(sp)
100066a6:	4a22                	lw	s4,8(sp)
100066a8:	bfa5                	j	10006620 <tu_edpt_stream_read_xfer+0x1a>
100066aa:	00144583          	lbu	a1,1(s0)
100066ae:	4601                	li	a2,0
100066b0:	c291                	beqz	a3,100066b4 <tu_edpt_stream_read_xfer+0xae>
100066b2:	4050                	lw	a2,4(s0)
100066b4:	854a                	mv	a0,s2
100066b6:	e2bfe0ef          	jal	100054e0 <usbd_edpt_xfer>
100066ba:	d169                	beqz	a0,1000667c <tu_edpt_stream_read_xfer+0x76>
100066bc:	00245503          	lhu	a0,2(s0)
100066c0:	b78d                	j	10006622 <tu_edpt_stream_read_xfer+0x1c>
100066c2:	8b85                	and	a5,a5,1
100066c4:	fbc1                	bnez	a5,10006654 <tu_edpt_stream_read_xfer+0x4e>
100066c6:	00144583          	lbu	a1,1(s0)
100066ca:	854a                	mv	a0,s2
100066cc:	df1fe0ef          	jal	100054bc <usbd_edpt_release>
100066d0:	44d2                	lw	s1,20(sp)
100066d2:	49b2                	lw	s3,12(sp)
100066d4:	4a22                	lw	s4,8(sp)
100066d6:	b7a9                	j	10006620 <tu_edpt_stream_read_xfer+0x1a>
100066d8:	8ce9                	and	s1,s1,a0
100066da:	00144583          	lbu	a1,1(s0)
100066de:	4601                	li	a2,0
100066e0:	0ae4d4b3          	minu	s1,s1,a4
100066e4:	c091                	beqz	s1,100066e8 <tu_edpt_stream_read_xfer+0xe2>
100066e6:	4050                	lw	a2,4(s0)
100066e8:	86a6                	mv	a3,s1
100066ea:	854a                	mv	a0,s2
100066ec:	df5fe0ef          	jal	100054e0 <usbd_edpt_xfer>
100066f0:	d945                	beqz	a0,100066a0 <tu_edpt_stream_read_xfer+0x9a>
100066f2:	8526                	mv	a0,s1
100066f4:	49b2                	lw	s3,12(sp)
100066f6:	44d2                	lw	s1,20(sp)
100066f8:	4a22                	lw	s4,8(sp)
100066fa:	b725                	j	10006622 <tu_edpt_stream_read_xfer+0x1c>

100066fc <tu_fifo_config>:
100066fc:	67a1                	lui	a5,0x8
100066fe:	08c7e163          	bltu	a5,a2,10006780 <tu_fifo_config+0x84>
10006702:	1101                	add	sp,sp,-32
10006704:	cc22                	sw	s0,24(sp)
10006706:	842a                	mv	s0,a0
10006708:	4548                	lw	a0,12(a0)
1000670a:	ca26                	sw	s1,20(sp)
1000670c:	c84a                	sw	s2,16(sp)
1000670e:	c64e                	sw	s3,12(sp)
10006710:	c452                	sw	s4,8(sp)
10006712:	ce06                	sw	ra,28(sp)
10006714:	89b2                	mv	s3,a2
10006716:	8a2e                	mv	s4,a1
10006718:	8936                	mv	s2,a3
1000671a:	84ba                	mv	s1,a4
1000671c:	c511                	beqz	a0,10006728 <tu_fifo_config+0x2c>
1000671e:	55fd                	li	a1,-1
10006720:	0fffa097          	auipc	ra,0xfffa
10006724:	a30080e7          	jalr	-1488(ra) # 20000150 <mutex_enter_timeout_ms>
10006728:	4808                	lw	a0,16(s0)
1000672a:	c511                	beqz	a0,10006736 <tu_fifo_config+0x3a>
1000672c:	55fd                	li	a1,-1
1000672e:	0fffa097          	auipc	ra,0xfffa
10006732:	a22080e7          	jalr	-1502(ra) # 20000150 <mutex_enter_timeout_ms>
10006736:	01191693          	sll	a3,s2,0x11
1000673a:	00f49713          	sll	a4,s1,0xf
1000673e:	82c5                	srl	a3,a3,0x11
10006740:	4448                	lw	a0,12(s0)
10006742:	8f55                	or	a4,a4,a3
10006744:	00041523          	sh	zero,10(s0)
10006748:	01442023          	sw	s4,0(s0)
1000674c:	01341223          	sh	s3,4(s0)
10006750:	00e41323          	sh	a4,6(s0)
10006754:	00041423          	sh	zero,8(s0)
10006758:	c509                	beqz	a0,10006762 <tu_fifo_config+0x66>
1000675a:	0fffa097          	auipc	ra,0xfffa
1000675e:	a3e080e7          	jalr	-1474(ra) # 20000198 <mutex_exit>
10006762:	4808                	lw	a0,16(s0)
10006764:	c509                	beqz	a0,1000676e <tu_fifo_config+0x72>
10006766:	0fffa097          	auipc	ra,0xfffa
1000676a:	a32080e7          	jalr	-1486(ra) # 20000198 <mutex_exit>
1000676e:	40f2                	lw	ra,28(sp)
10006770:	4462                	lw	s0,24(sp)
10006772:	44d2                	lw	s1,20(sp)
10006774:	4942                	lw	s2,16(sp)
10006776:	49b2                	lw	s3,12(sp)
10006778:	4a22                	lw	s4,8(sp)
1000677a:	4505                	li	a0,1
1000677c:	6105                	add	sp,sp,32
1000677e:	8082                	ret
10006780:	4501                	li	a0,0
10006782:	8082                	ret

10006784 <tu_fifo_count>:
10006784:	00855683          	lhu	a3,8(a0)
10006788:	00a55703          	lhu	a4,10(a0)
1000678c:	00455503          	lhu	a0,4(a0)
10006790:	0806c7b3          	zext.h	a5,a3
10006794:	08074633          	zext.h	a2,a4
10006798:	00e6f463          	bgeu	a3,a4,100067a0 <tu_fifo_count+0x1c>
1000679c:	20f527b3          	sh1add	a5,a0,a5
100067a0:	8f91                	sub	a5,a5,a2
100067a2:	0807c7b3          	zext.h	a5,a5
100067a6:	0af55533          	minu	a0,a0,a5
100067aa:	8082                	ret

100067ac <tu_fifo_empty>:
100067ac:	00855783          	lhu	a5,8(a0)
100067b0:	00a55703          	lhu	a4,10(a0)
100067b4:	40e78533          	sub	a0,a5,a4
100067b8:	00153513          	seqz	a0,a0
100067bc:	8082                	ret

100067be <tu_fifo_remaining>:
100067be:	00855603          	lhu	a2,8(a0)
100067c2:	00a55683          	lhu	a3,10(a0)
100067c6:	00455703          	lhu	a4,4(a0)
100067ca:	080647b3          	zext.h	a5,a2
100067ce:	0806c5b3          	zext.h	a1,a3
100067d2:	00d67463          	bgeu	a2,a3,100067da <tu_fifo_remaining+0x1c>
100067d6:	20f727b3          	sh1add	a5,a4,a5
100067da:	8f8d                	sub	a5,a5,a1
100067dc:	4501                	li	a0,0
100067de:	0807c7b3          	zext.h	a5,a5
100067e2:	00e7f563          	bgeu	a5,a4,100067ec <tu_fifo_remaining+0x2e>
100067e6:	8f1d                	sub	a4,a4,a5
100067e8:	08074533          	zext.h	a0,a4
100067ec:	8082                	ret

100067ee <tu_fifo_read>:
100067ee:	1141                	add	sp,sp,-16
100067f0:	c422                	sw	s0,8(sp)
100067f2:	842a                	mv	s0,a0
100067f4:	4908                	lw	a0,16(a0)
100067f6:	c226                	sw	s1,4(sp)
100067f8:	c606                	sw	ra,12(sp)
100067fa:	84ae                	mv	s1,a1
100067fc:	c511                	beqz	a0,10006808 <tu_fifo_read+0x1a>
100067fe:	55fd                	li	a1,-1
10006800:	0fffa097          	auipc	ra,0xfffa
10006804:	950080e7          	jalr	-1712(ra) # 20000150 <mutex_enter_timeout_ms>
10006808:	00845583          	lhu	a1,8(s0)
1000680c:	00a45683          	lhu	a3,10(s0)
10006810:	00445703          	lhu	a4,4(s0)
10006814:	0805c633          	zext.h	a2,a1
10006818:	0806c7b3          	zext.h	a5,a3
1000681c:	08d5e063          	bltu	a1,a3,1000689c <tu_fifo_read+0xae>
10006820:	40f606b3          	sub	a3,a2,a5
10006824:	0806c6b3          	zext.h	a3,a3
10006828:	c2c1                	beqz	a3,100068a8 <tu_fifo_read+0xba>
1000682a:	06d76163          	bltu	a4,a3,1000688c <tu_fifo_read+0x9e>
1000682e:	00e7e763          	bltu	a5,a4,1000683c <tu_fifo_read+0x4e>
10006832:	8f99                	sub	a5,a5,a4
10006834:	0807c7b3          	zext.h	a5,a5
10006838:	fee7fde3          	bgeu	a5,a4,10006832 <tu_fifo_read+0x44>
1000683c:	00645603          	lhu	a2,6(s0)
10006840:	400c                	lw	a1,0(s0)
10006842:	8526                	mv	a0,s1
10006844:	0646                	sll	a2,a2,0x11
10006846:	8245                	srl	a2,a2,0x11
10006848:	02c787b3          	mul	a5,a5,a2
1000684c:	4485                	li	s1,1
1000684e:	95be                	add	a1,a1,a5
10006850:	2355                	jal	10006df4 <memcpy>
10006852:	00a45683          	lhu	a3,10(s0)
10006856:	00445703          	lhu	a4,4(s0)
1000685a:	00168793          	add	a5,a3,1
1000685e:	0807c7b3          	zext.h	a5,a5
10006862:	04d7f863          	bgeu	a5,a3,100068b2 <tu_fifo_read+0xc4>
10006866:	4781                	li	a5,0
10006868:	0706                	sll	a4,a4,0x1
1000686a:	8f99                	sub	a5,a5,a4
1000686c:	0807c7b3          	zext.h	a5,a5
10006870:	4808                	lw	a0,16(s0)
10006872:	00f41523          	sh	a5,10(s0)
10006876:	c509                	beqz	a0,10006880 <tu_fifo_read+0x92>
10006878:	0fffa097          	auipc	ra,0xfffa
1000687c:	920080e7          	jalr	-1760(ra) # 20000198 <mutex_exit>
10006880:	40b2                	lw	ra,12(sp)
10006882:	4422                	lw	s0,8(sp)
10006884:	8526                	mv	a0,s1
10006886:	4492                	lw	s1,4(sp)
10006888:	0141                	add	sp,sp,16
1000688a:	8082                	ret
1000688c:	02e66763          	bltu	a2,a4,100068ba <tu_fifo_read+0xcc>
10006890:	8e19                	sub	a2,a2,a4
10006892:	080647b3          	zext.h	a5,a2
10006896:	00f41523          	sh	a5,10(s0)
1000689a:	bf51                	j	1000682e <tu_fifo_read+0x40>
1000689c:	20c726b3          	sh1add	a3,a4,a2
100068a0:	8e9d                	sub	a3,a3,a5
100068a2:	0806c6b3          	zext.h	a3,a3
100068a6:	f2d1                	bnez	a3,1000682a <tu_fifo_read+0x3c>
100068a8:	00a45783          	lhu	a5,10(s0)
100068ac:	4481                	li	s1,0
100068ae:	0807c7b3          	zext.h	a5,a5
100068b2:	0706                	sll	a4,a4,0x1
100068b4:	fae7cee3          	blt	a5,a4,10006870 <tu_fifo_read+0x82>
100068b8:	bf4d                	j	1000686a <tu_fifo_read+0x7c>
100068ba:	963a                	add	a2,a2,a4
100068bc:	080647b3          	zext.h	a5,a2
100068c0:	00f41523          	sh	a5,10(s0)
100068c4:	b7ad                	j	1000682e <tu_fifo_read+0x40>

100068c6 <tu_fifo_read_n>:
100068c6:	1101                	add	sp,sp,-32
100068c8:	c84a                	sw	s2,16(sp)
100068ca:	892a                	mv	s2,a0
100068cc:	4908                	lw	a0,16(a0)
100068ce:	c452                	sw	s4,8(sp)
100068d0:	c256                	sw	s5,4(sp)
100068d2:	ce06                	sw	ra,28(sp)
100068d4:	cc22                	sw	s0,24(sp)
100068d6:	ca26                	sw	s1,20(sp)
100068d8:	c64e                	sw	s3,12(sp)
100068da:	8aae                	mv	s5,a1
100068dc:	8a32                	mv	s4,a2
100068de:	c511                	beqz	a0,100068ea <tu_fifo_read_n+0x24>
100068e0:	55fd                	li	a1,-1
100068e2:	0fffa097          	auipc	ra,0xfffa
100068e6:	86e080e7          	jalr	-1938(ra) # 20000150 <mutex_enter_timeout_ms>
100068ea:	00895683          	lhu	a3,8(s2)
100068ee:	00a95703          	lhu	a4,10(s2)
100068f2:	00495483          	lhu	s1,4(s2)
100068f6:	0806c7b3          	zext.h	a5,a3
100068fa:	08074433          	zext.h	s0,a4
100068fe:	0ee6eb63          	bltu	a3,a4,100069f4 <tu_fifo_read_n+0x12e>
10006902:	408789b3          	sub	s3,a5,s0
10006906:	0809c9b3          	zext.h	s3,s3
1000690a:	0e098d63          	beqz	s3,10006a04 <tu_fifo_read_n+0x13e>
1000690e:	c05a                	sw	s6,0(sp)
10006910:	0d34e963          	bltu	s1,s3,100069e2 <tu_fifo_read_n+0x11c>
10006914:	0b3a5633          	minu	a2,s4,s3
10006918:	080649b3          	zext.h	s3,a2
1000691c:	00946763          	bltu	s0,s1,1000692a <tu_fifo_read_n+0x64>
10006920:	8c05                	sub	s0,s0,s1
10006922:	08044433          	zext.h	s0,s0
10006926:	fe947de3          	bgeu	s0,s1,10006920 <tu_fifo_read_n+0x5a>
1000692a:	00695b03          	lhu	s6,6(s2)
1000692e:	00092583          	lw	a1,0(s2)
10006932:	408487b3          	sub	a5,s1,s0
10006936:	0b46                	sll	s6,s6,0x11
10006938:	011b5b13          	srl	s6,s6,0x11
1000693c:	03640733          	mul	a4,s0,s6
10006940:	0807c7b3          	zext.h	a5,a5
10006944:	95ba                	add	a1,a1,a4
10006946:	0737f863          	bgeu	a5,s3,100069b6 <tu_fifo_read_n+0xf0>
1000694a:	036787b3          	mul	a5,a5,s6
1000694e:	409984b3          	sub	s1,s3,s1
10006952:	8556                	mv	a0,s5
10006954:	9426                	add	s0,s0,s1
10006956:	0807ca33          	zext.h	s4,a5
1000695a:	8652                	mv	a2,s4
1000695c:	2961                	jal	10006df4 <memcpy>
1000695e:	028b0633          	mul	a2,s6,s0
10006962:	00092583          	lw	a1,0(s2)
10006966:	014a8533          	add	a0,s5,s4
1000696a:	08064633          	zext.h	a2,a2
1000696e:	2159                	jal	10006df4 <memcpy>
10006970:	00a95683          	lhu	a3,10(s2)
10006974:	00495483          	lhu	s1,4(s2)
10006978:	4b02                	lw	s6,0(sp)
1000697a:	013687b3          	add	a5,a3,s3
1000697e:	00149713          	sll	a4,s1,0x1
10006982:	0807c7b3          	zext.h	a5,a5
10006986:	04d7f963          	bgeu	a5,a3,100069d8 <tu_fifo_read_n+0x112>
1000698a:	8f99                	sub	a5,a5,a4
1000698c:	0807c7b3          	zext.h	a5,a5
10006990:	01092503          	lw	a0,16(s2)
10006994:	00f91523          	sh	a5,10(s2)
10006998:	c509                	beqz	a0,100069a2 <tu_fifo_read_n+0xdc>
1000699a:	0fff9097          	auipc	ra,0xfff9
1000699e:	7fe080e7          	jalr	2046(ra) # 20000198 <mutex_exit>
100069a2:	40f2                	lw	ra,28(sp)
100069a4:	4462                	lw	s0,24(sp)
100069a6:	44d2                	lw	s1,20(sp)
100069a8:	4942                	lw	s2,16(sp)
100069aa:	4a22                	lw	s4,8(sp)
100069ac:	4a92                	lw	s5,4(sp)
100069ae:	854e                	mv	a0,s3
100069b0:	49b2                	lw	s3,12(sp)
100069b2:	6105                	add	sp,sp,32
100069b4:	8082                	ret
100069b6:	03698633          	mul	a2,s3,s6
100069ba:	8556                	mv	a0,s5
100069bc:	2925                	jal	10006df4 <memcpy>
100069be:	00a95683          	lhu	a3,10(s2)
100069c2:	00495483          	lhu	s1,4(s2)
100069c6:	4b02                	lw	s6,0(sp)
100069c8:	013687b3          	add	a5,a3,s3
100069cc:	00149713          	sll	a4,s1,0x1
100069d0:	0807c7b3          	zext.h	a5,a5
100069d4:	fad7ebe3          	bltu	a5,a3,1000698a <tu_fifo_read_n+0xc4>
100069d8:	00149713          	sll	a4,s1,0x1
100069dc:	fae7cae3          	blt	a5,a4,10006990 <tu_fifo_read_n+0xca>
100069e0:	b76d                	j	1000698a <tu_fifo_read_n+0xc4>
100069e2:	0297fa63          	bgeu	a5,s1,10006a16 <tu_fifo_read_n+0x150>
100069e6:	97a6                	add	a5,a5,s1
100069e8:	0807c433          	zext.h	s0,a5
100069ec:	00891523          	sh	s0,10(s2)
100069f0:	89a6                	mv	s3,s1
100069f2:	b70d                	j	10006914 <tu_fifo_read_n+0x4e>
100069f4:	20f4a9b3          	sh1add	s3,s1,a5
100069f8:	408989b3          	sub	s3,s3,s0
100069fc:	0809c9b3          	zext.h	s3,s3
10006a00:	f00997e3          	bnez	s3,1000690e <tu_fifo_read_n+0x48>
10006a04:	00a95783          	lhu	a5,10(s2)
10006a08:	00149713          	sll	a4,s1,0x1
10006a0c:	0807c7b3          	zext.h	a5,a5
10006a10:	f8e7c0e3          	blt	a5,a4,10006990 <tu_fifo_read_n+0xca>
10006a14:	bf9d                	j	1000698a <tu_fifo_read_n+0xc4>
10006a16:	8f85                	sub	a5,a5,s1
10006a18:	0807c433          	zext.h	s0,a5
10006a1c:	bfc1                	j	100069ec <tu_fifo_read_n+0x126>

10006a1e <tu_fifo_write>:
10006a1e:	1101                	add	sp,sp,-32
10006a20:	cc22                	sw	s0,24(sp)
10006a22:	842a                	mv	s0,a0
10006a24:	4548                	lw	a0,12(a0)
10006a26:	c64e                	sw	s3,12(sp)
10006a28:	ce06                	sw	ra,28(sp)
10006a2a:	ca26                	sw	s1,20(sp)
10006a2c:	c84a                	sw	s2,16(sp)
10006a2e:	89ae                	mv	s3,a1
10006a30:	c511                	beqz	a0,10006a3c <tu_fifo_write+0x1e>
10006a32:	55fd                	li	a1,-1
10006a34:	0fff9097          	auipc	ra,0xfff9
10006a38:	71c080e7          	jalr	1820(ra) # 20000150 <mutex_enter_timeout_ms>
10006a3c:	00845483          	lhu	s1,8(s0)
10006a40:	00845603          	lhu	a2,8(s0)
10006a44:	00a45683          	lhu	a3,10(s0)
10006a48:	00445703          	lhu	a4,4(s0)
10006a4c:	0804c4b3          	zext.h	s1,s1
10006a50:	080647b3          	zext.h	a5,a2
10006a54:	0806c533          	zext.h	a0,a3
10006a58:	00d67463          	bgeu	a2,a3,10006a60 <tu_fifo_write+0x42>
10006a5c:	20f727b3          	sh1add	a5,a4,a5
10006a60:	8f89                	sub	a5,a5,a0
10006a62:	4050                	lw	a2,4(s0)
10006a64:	0807c7b3          	zext.h	a5,a5
10006a68:	02e7e463          	bltu	a5,a4,10006a90 <tu_fifo_write+0x72>
10006a6c:	01f65913          	srl	s2,a2,0x1f
10006a70:	02064063          	bltz	a2,10006a90 <tu_fifo_write+0x72>
10006a74:	4448                	lw	a0,12(s0)
10006a76:	c509                	beqz	a0,10006a80 <tu_fifo_write+0x62>
10006a78:	0fff9097          	auipc	ra,0xfff9
10006a7c:	720080e7          	jalr	1824(ra) # 20000198 <mutex_exit>
10006a80:	40f2                	lw	ra,28(sp)
10006a82:	4462                	lw	s0,24(sp)
10006a84:	44d2                	lw	s1,20(sp)
10006a86:	49b2                	lw	s3,12(sp)
10006a88:	854a                	mv	a0,s2
10006a8a:	4942                	lw	s2,16(sp)
10006a8c:	6105                	add	sp,sp,32
10006a8e:	8082                	ret
10006a90:	04e4e163          	bltu	s1,a4,10006ad2 <tu_fifo_write+0xb4>
10006a94:	87a6                	mv	a5,s1
10006a96:	8f99                	sub	a5,a5,a4
10006a98:	0807c7b3          	zext.h	a5,a5
10006a9c:	fee7fde3          	bgeu	a5,a4,10006a96 <tu_fifo_write+0x78>
10006aa0:	0606                	sll	a2,a2,0x1
10006aa2:	8245                	srl	a2,a2,0x11
10006aa4:	02c787b3          	mul	a5,a5,a2
10006aa8:	4008                	lw	a0,0(s0)
10006aaa:	85ce                	mv	a1,s3
10006aac:	953e                	add	a0,a0,a5
10006aae:	2699                	jal	10006df4 <memcpy>
10006ab0:	00148793          	add	a5,s1,1
10006ab4:	00445703          	lhu	a4,4(s0)
10006ab8:	0807c7b3          	zext.h	a5,a5
10006abc:	0297f863          	bgeu	a5,s1,10006aec <tu_fifo_write+0xce>
10006ac0:	4781                	li	a5,0
10006ac2:	0706                	sll	a4,a4,0x1
10006ac4:	8f99                	sub	a5,a5,a4
10006ac6:	0807c7b3          	zext.h	a5,a5
10006aca:	00f41423          	sh	a5,8(s0)
10006ace:	4905                	li	s2,1
10006ad0:	b755                	j	10006a74 <tu_fifo_write+0x56>
10006ad2:	0606                	sll	a2,a2,0x1
10006ad4:	8245                	srl	a2,a2,0x11
10006ad6:	029607b3          	mul	a5,a2,s1
10006ada:	4008                	lw	a0,0(s0)
10006adc:	85ce                	mv	a1,s3
10006ade:	0485                	add	s1,s1,1
10006ae0:	953e                	add	a0,a0,a5
10006ae2:	2e09                	jal	10006df4 <memcpy>
10006ae4:	00445703          	lhu	a4,4(s0)
10006ae8:	0804c7b3          	zext.h	a5,s1
10006aec:	0706                	sll	a4,a4,0x1
10006aee:	fce7cee3          	blt	a5,a4,10006aca <tu_fifo_write+0xac>
10006af2:	bfc9                	j	10006ac4 <tu_fifo_write+0xa6>

10006af4 <tu_fifo_write_n>:
10006af4:	7179                	add	sp,sp,-48
10006af6:	c65e                	sw	s7,12(sp)
10006af8:	d606                	sw	ra,44(sp)
10006afa:	4b81                	li	s7,0
10006afc:	ce69                	beqz	a2,10006bd6 <tu_fifo_write_n+0xe2>
10006afe:	d04a                	sw	s2,32(sp)
10006b00:	892a                	mv	s2,a0
10006b02:	4548                	lw	a0,12(a0)
10006b04:	d422                	sw	s0,40(sp)
10006b06:	ca56                	sw	s5,20(sp)
10006b08:	ce4e                	sw	s3,28(sp)
10006b0a:	cc52                	sw	s4,24(sp)
10006b0c:	c85a                	sw	s6,16(sp)
10006b0e:	c462                	sw	s8,8(sp)
10006b10:	8432                	mv	s0,a2
10006b12:	8aae                	mv	s5,a1
10006b14:	c511                	beqz	a0,10006b20 <tu_fifo_write_n+0x2c>
10006b16:	55fd                	li	a1,-1
10006b18:	0fff9097          	auipc	ra,0xfff9
10006b1c:	638080e7          	jalr	1592(ra) # 20000150 <mutex_enter_timeout_ms>
10006b20:	00895983          	lhu	s3,8(s2)
10006b24:	00492683          	lw	a3,4(s2)
10006b28:	00a95703          	lhu	a4,10(s2)
10006b2c:	00495783          	lhu	a5,4(s2)
10006b30:	0809c9b3          	zext.h	s3,s3
10006b34:	08074733          	zext.h	a4,a4
10006b38:	0a06c463          	bltz	a3,10006be0 <tu_fifo_write_n+0xec>
10006b3c:	0ce9fc63          	bgeu	s3,a4,10006c14 <tu_fifo_write_n+0x120>
10006b40:	2137a633          	sh1add	a2,a5,s3
10006b44:	40e60733          	sub	a4,a2,a4
10006b48:	08074733          	zext.h	a4,a4
10006b4c:	4b81                	li	s7,0
10006b4e:	06f77663          	bgeu	a4,a5,10006bba <tu_fifo_write_n+0xc6>
10006b52:	40e78733          	sub	a4,a5,a4
10006b56:	0686                	sll	a3,a3,0x1
10006b58:	08074733          	zext.h	a4,a4
10006b5c:	0116da13          	srl	s4,a3,0x11
10006b60:	0a875bb3          	minu	s7,a4,s0
10006b64:	01798b33          	add	s6,s3,s7
10006b68:	40fb8c33          	sub	s8,s7,a5
10006b6c:	080b4b33          	zext.h	s6,s6
10006b70:	080c4c33          	zext.h	s8,s8
10006b74:	844e                	mv	s0,s3
10006b76:	00f9e763          	bltu	s3,a5,10006b84 <tu_fifo_write_n+0x90>
10006b7a:	8c1d                	sub	s0,s0,a5
10006b7c:	08044433          	zext.h	s0,s0
10006b80:	fef47de3          	bgeu	s0,a5,10006b7a <tu_fifo_write_n+0x86>
10006b84:	03440733          	mul	a4,s0,s4
10006b88:	00092503          	lw	a0,0(s2)
10006b8c:	8f81                	sub	a5,a5,s0
10006b8e:	0807c7b3          	zext.h	a5,a5
10006b92:	953a                	add	a0,a0,a4
10006b94:	0b77e463          	bltu	a5,s7,10006c3c <tu_fifo_write_n+0x148>
10006b98:	034b8633          	mul	a2,s7,s4
10006b9c:	85d6                	mv	a1,s5
10006b9e:	2c99                	jal	10006df4 <memcpy>
10006ba0:	00495783          	lhu	a5,4(s2)
10006ba4:	0786                	sll	a5,a5,0x1
10006ba6:	013b6463          	bltu	s6,s3,10006bae <tu_fifo_write_n+0xba>
10006baa:	00fb4663          	blt	s6,a5,10006bb6 <tu_fifo_write_n+0xc2>
10006bae:	40fb07b3          	sub	a5,s6,a5
10006bb2:	0807cb33          	zext.h	s6,a5
10006bb6:	01691423          	sh	s6,8(s2)
10006bba:	00c92503          	lw	a0,12(s2)
10006bbe:	c509                	beqz	a0,10006bc8 <tu_fifo_write_n+0xd4>
10006bc0:	0fff9097          	auipc	ra,0xfff9
10006bc4:	5d8080e7          	jalr	1496(ra) # 20000198 <mutex_exit>
10006bc8:	5422                	lw	s0,40(sp)
10006bca:	5902                	lw	s2,32(sp)
10006bcc:	49f2                	lw	s3,28(sp)
10006bce:	4a62                	lw	s4,24(sp)
10006bd0:	4ad2                	lw	s5,20(sp)
10006bd2:	4b42                	lw	s6,16(sp)
10006bd4:	4c22                	lw	s8,8(sp)
10006bd6:	50b2                	lw	ra,44(sp)
10006bd8:	855e                	mv	a0,s7
10006bda:	4bb2                	lw	s7,12(sp)
10006bdc:	6145                	add	sp,sp,48
10006bde:	8082                	ret
10006be0:	0686                	sll	a3,a3,0x1
10006be2:	0116da13          	srl	s4,a3,0x11
10006be6:	02f47c63          	bgeu	s0,a5,10006c1e <tu_fifo_write_n+0x12a>
10006bea:	0ae9e063          	bltu	s3,a4,10006c8a <tu_fifo_write_n+0x196>
10006bee:	40e986b3          	sub	a3,s3,a4
10006bf2:	00179613          	sll	a2,a5,0x1
10006bf6:	0806c6b3          	zext.h	a3,a3
10006bfa:	40f40c33          	sub	s8,s0,a5
10006bfe:	96a2                	add	a3,a3,s0
10006c00:	080c4c33          	zext.h	s8,s8
10006c04:	06c6d063          	bge	a3,a2,10006c64 <tu_fifo_write_n+0x170>
10006c08:	01340b33          	add	s6,s0,s3
10006c0c:	8ba2                	mv	s7,s0
10006c0e:	080b4b33          	zext.h	s6,s6
10006c12:	b78d                	j	10006b74 <tu_fifo_write_n+0x80>
10006c14:	40e98733          	sub	a4,s3,a4
10006c18:	08074733          	zext.h	a4,a4
10006c1c:	bf05                	j	10006b4c <tu_fifo_write_n+0x58>
10006c1e:	4b81                	li	s7,0
10006c20:	dfc9                	beqz	a5,10006bba <tu_fifo_write_n+0xc6>
10006c22:	40f406b3          	sub	a3,s0,a5
10006c26:	034686b3          	mul	a3,a3,s4
10006c2a:	00f70b33          	add	s6,a4,a5
10006c2e:	89ba                	mv	s3,a4
10006c30:	8bbe                	mv	s7,a5
10006c32:	4c01                	li	s8,0
10006c34:	080b4b33          	zext.h	s6,s6
10006c38:	9ab6                	add	s5,s5,a3
10006c3a:	bf2d                	j	10006b74 <tu_fifo_write_n+0x80>
10006c3c:	034787b3          	mul	a5,a5,s4
10006c40:	d226                	sw	s1,36(sp)
10006c42:	85d6                	mv	a1,s5
10006c44:	9462                	add	s0,s0,s8
10006c46:	0807c4b3          	zext.h	s1,a5
10006c4a:	8626                	mv	a2,s1
10006c4c:	2265                	jal	10006df4 <memcpy>
10006c4e:	028a0633          	mul	a2,s4,s0
10006c52:	00092503          	lw	a0,0(s2)
10006c56:	009a85b3          	add	a1,s5,s1
10006c5a:	08064633          	zext.h	a2,a2
10006c5e:	2a59                	jal	10006df4 <memcpy>
10006c60:	5492                	lw	s1,36(sp)
10006c62:	bf3d                	j	10006ba0 <tu_fifo_write_n+0xac>
10006c64:	00f70b33          	add	s6,a4,a5
10006c68:	080b4b33          	zext.h	s6,s6
10006c6c:	408b09b3          	sub	s3,s6,s0
10006c70:	0809c9b3          	zext.h	s3,s3
10006c74:	02e9f363          	bgeu	s3,a4,10006c9a <tu_fifo_write_n+0x1a6>
10006c78:	40c98633          	sub	a2,s3,a2
10006c7c:	8ba2                	mv	s7,s0
10006c7e:	080649b3          	zext.h	s3,a2
10006c82:	944e                	add	s0,s0,s3
10006c84:	08044b33          	zext.h	s6,s0
10006c88:	b5f5                	j	10006b74 <tu_fifo_write_n+0x80>
10006c8a:	00179613          	sll	a2,a5,0x1
10006c8e:	40e606b3          	sub	a3,a2,a4
10006c92:	96ce                	add	a3,a3,s3
10006c94:	0806c6b3          	zext.h	a3,a3
10006c98:	b78d                	j	10006bfa <tu_fifo_write_n+0x106>
10006c9a:	8ba2                	mv	s7,s0
10006c9c:	ecc9cce3          	blt	s3,a2,10006b74 <tu_fifo_write_n+0x80>
10006ca0:	bfe1                	j	10006c78 <tu_fifo_write_n+0x184>

10006ca2 <tu_fifo_clear>:
10006ca2:	1141                	add	sp,sp,-16
10006ca4:	c422                	sw	s0,8(sp)
10006ca6:	842a                	mv	s0,a0
10006ca8:	4548                	lw	a0,12(a0)
10006caa:	c606                	sw	ra,12(sp)
10006cac:	c511                	beqz	a0,10006cb8 <tu_fifo_clear+0x16>
10006cae:	55fd                	li	a1,-1
10006cb0:	0fff9097          	auipc	ra,0xfff9
10006cb4:	4a0080e7          	jalr	1184(ra) # 20000150 <mutex_enter_timeout_ms>
10006cb8:	4808                	lw	a0,16(s0)
10006cba:	c511                	beqz	a0,10006cc6 <tu_fifo_clear+0x24>
10006cbc:	55fd                	li	a1,-1
10006cbe:	0fff9097          	auipc	ra,0xfff9
10006cc2:	492080e7          	jalr	1170(ra) # 20000150 <mutex_enter_timeout_ms>
10006cc6:	4448                	lw	a0,12(s0)
10006cc8:	00041523          	sh	zero,10(s0)
10006ccc:	00041423          	sh	zero,8(s0)
10006cd0:	c509                	beqz	a0,10006cda <tu_fifo_clear+0x38>
10006cd2:	0fff9097          	auipc	ra,0xfff9
10006cd6:	4c6080e7          	jalr	1222(ra) # 20000198 <mutex_exit>
10006cda:	4808                	lw	a0,16(s0)
10006cdc:	c509                	beqz	a0,10006ce6 <tu_fifo_clear+0x44>
10006cde:	0fff9097          	auipc	ra,0xfff9
10006ce2:	4ba080e7          	jalr	1210(ra) # 20000198 <mutex_exit>
10006ce6:	40b2                	lw	ra,12(sp)
10006ce8:	4422                	lw	s0,8(sp)
10006cea:	4505                	li	a0,1
10006cec:	0141                	add	sp,sp,16
10006cee:	8082                	ret

10006cf0 <tu_fifo_set_overwritable>:
10006cf0:	1141                	add	sp,sp,-16
10006cf2:	c422                	sw	s0,8(sp)
10006cf4:	842a                	mv	s0,a0
10006cf6:	4548                	lw	a0,12(a0)
10006cf8:	c226                	sw	s1,4(sp)
10006cfa:	c606                	sw	ra,12(sp)
10006cfc:	84ae                	mv	s1,a1
10006cfe:	c511                	beqz	a0,10006d0a <tu_fifo_set_overwritable+0x1a>
10006d00:	55fd                	li	a1,-1
10006d02:	0fff9097          	auipc	ra,0xfff9
10006d06:	44e080e7          	jalr	1102(ra) # 20000150 <mutex_enter_timeout_ms>
10006d0a:	4808                	lw	a0,16(s0)
10006d0c:	c511                	beqz	a0,10006d18 <tu_fifo_set_overwritable+0x28>
10006d0e:	55fd                	li	a1,-1
10006d10:	0fff9097          	auipc	ra,0xfff9
10006d14:	440080e7          	jalr	1088(ra) # 20000150 <mutex_enter_timeout_ms>
10006d18:	00645783          	lhu	a5,6(s0)
10006d1c:	04be                	sll	s1,s1,0xf
10006d1e:	4448                	lw	a0,12(s0)
10006d20:	07c6                	sll	a5,a5,0x11
10006d22:	83c5                	srl	a5,a5,0x11
10006d24:	8fc5                	or	a5,a5,s1
10006d26:	00f41323          	sh	a5,6(s0)
10006d2a:	c509                	beqz	a0,10006d34 <tu_fifo_set_overwritable+0x44>
10006d2c:	0fff9097          	auipc	ra,0xfff9
10006d30:	46c080e7          	jalr	1132(ra) # 20000198 <mutex_exit>
10006d34:	4808                	lw	a0,16(s0)
10006d36:	c509                	beqz	a0,10006d40 <tu_fifo_set_overwritable+0x50>
10006d38:	0fff9097          	auipc	ra,0xfff9
10006d3c:	460080e7          	jalr	1120(ra) # 20000198 <mutex_exit>
10006d40:	40b2                	lw	ra,12(sp)
10006d42:	4422                	lw	s0,8(sp)
10006d44:	4492                	lw	s1,4(sp)
10006d46:	4505                	li	a0,1
10006d48:	0141                	add	sp,sp,16
10006d4a:	8082                	ret

10006d4c <memset>:
10006d4c:	433d                	li	t1,15
10006d4e:	872a                	mv	a4,a0
10006d50:	02c37363          	bgeu	t1,a2,10006d76 <memset+0x2a>
10006d54:	00f77793          	and	a5,a4,15
10006d58:	efbd                	bnez	a5,10006dd6 <memset+0x8a>
10006d5a:	e5ad                	bnez	a1,10006dc4 <memset+0x78>
10006d5c:	ff067693          	and	a3,a2,-16
10006d60:	8a3d                	and	a2,a2,15
10006d62:	96ba                	add	a3,a3,a4
10006d64:	c30c                	sw	a1,0(a4)
10006d66:	c34c                	sw	a1,4(a4)
10006d68:	c70c                	sw	a1,8(a4)
10006d6a:	c74c                	sw	a1,12(a4)
10006d6c:	0741                	add	a4,a4,16
10006d6e:	fed76be3          	bltu	a4,a3,10006d64 <memset+0x18>
10006d72:	e211                	bnez	a2,10006d76 <memset+0x2a>
10006d74:	8082                	ret
10006d76:	40c306b3          	sub	a3,t1,a2
10006d7a:	068a                	sll	a3,a3,0x2
10006d7c:	00000297          	auipc	t0,0x0
10006d80:	9696                	add	a3,a3,t0
10006d82:	00a68067          	jr	10(a3)
10006d86:	00b70723          	sb	a1,14(a4)
10006d8a:	00b706a3          	sb	a1,13(a4)
10006d8e:	00b70623          	sb	a1,12(a4)
10006d92:	00b705a3          	sb	a1,11(a4)
10006d96:	00b70523          	sb	a1,10(a4)
10006d9a:	00b704a3          	sb	a1,9(a4)
10006d9e:	00b70423          	sb	a1,8(a4)
10006da2:	00b703a3          	sb	a1,7(a4)
10006da6:	00b70323          	sb	a1,6(a4)
10006daa:	00b702a3          	sb	a1,5(a4)
10006dae:	00b70223          	sb	a1,4(a4)
10006db2:	00b701a3          	sb	a1,3(a4)
10006db6:	00b70123          	sb	a1,2(a4)
10006dba:	00b700a3          	sb	a1,1(a4)
10006dbe:	00b70023          	sb	a1,0(a4)
10006dc2:	8082                	ret
10006dc4:	0ff5f593          	zext.b	a1,a1
10006dc8:	00859693          	sll	a3,a1,0x8
10006dcc:	8dd5                	or	a1,a1,a3
10006dce:	01059693          	sll	a3,a1,0x10
10006dd2:	8dd5                	or	a1,a1,a3
10006dd4:	b761                	j	10006d5c <memset+0x10>
10006dd6:	00279693          	sll	a3,a5,0x2
10006dda:	00000297          	auipc	t0,0x0
10006dde:	9696                	add	a3,a3,t0
10006de0:	8286                	mv	t0,ra
10006de2:	fa8680e7          	jalr	-88(a3)
10006de6:	8096                	mv	ra,t0
10006de8:	17c1                	add	a5,a5,-16 # 7ff0 <HeapSize+0x77f0>
10006dea:	8f1d                	sub	a4,a4,a5
10006dec:	963e                	add	a2,a2,a5
10006dee:	f8c374e3          	bgeu	t1,a2,10006d76 <memset+0x2a>
10006df2:	b7a5                	j	10006d5a <memset+0xe>

10006df4 <memcpy>:
10006df4:	00a5c7b3          	xor	a5,a1,a0
10006df8:	8b8d                	and	a5,a5,3
10006dfa:	00c508b3          	add	a7,a0,a2
10006dfe:	e7b1                	bnez	a5,10006e4a <memcpy+0x56>
10006e00:	478d                	li	a5,3
10006e02:	04c7f463          	bgeu	a5,a2,10006e4a <memcpy+0x56>
10006e06:	00357793          	and	a5,a0,3
10006e0a:	872a                	mv	a4,a0
10006e0c:	ebb9                	bnez	a5,10006e62 <memcpy+0x6e>
10006e0e:	ffc8f613          	and	a2,a7,-4
10006e12:	40e606b3          	sub	a3,a2,a4
10006e16:	02000793          	li	a5,32
10006e1a:	06d7c863          	blt	a5,a3,10006e8a <memcpy+0x96>
10006e1e:	86ae                	mv	a3,a1
10006e20:	87ba                	mv	a5,a4
10006e22:	02c77163          	bgeu	a4,a2,10006e44 <memcpy+0x50>
10006e26:	0006a803          	lw	a6,0(a3)
10006e2a:	0791                	add	a5,a5,4
10006e2c:	0691                	add	a3,a3,4
10006e2e:	ff07ae23          	sw	a6,-4(a5)
10006e32:	fec7eae3          	bltu	a5,a2,10006e26 <memcpy+0x32>
10006e36:	fff60793          	add	a5,a2,-1
10006e3a:	8f99                	sub	a5,a5,a4
10006e3c:	9bf1                	and	a5,a5,-4
10006e3e:	0791                	add	a5,a5,4
10006e40:	973e                	add	a4,a4,a5
10006e42:	95be                	add	a1,a1,a5
10006e44:	01176663          	bltu	a4,a7,10006e50 <memcpy+0x5c>
10006e48:	8082                	ret
10006e4a:	872a                	mv	a4,a0
10006e4c:	03157e63          	bgeu	a0,a7,10006e88 <memcpy+0x94>
10006e50:	0005c783          	lbu	a5,0(a1)
10006e54:	0705                	add	a4,a4,1
10006e56:	0585                	add	a1,a1,1
10006e58:	fef70fa3          	sb	a5,-1(a4)
10006e5c:	fee89ae3          	bne	a7,a4,10006e50 <memcpy+0x5c>
10006e60:	8082                	ret
10006e62:	0005c683          	lbu	a3,0(a1)
10006e66:	0705                	add	a4,a4,1
10006e68:	00377793          	and	a5,a4,3
10006e6c:	fed70fa3          	sb	a3,-1(a4)
10006e70:	0585                	add	a1,a1,1
10006e72:	dfd1                	beqz	a5,10006e0e <memcpy+0x1a>
10006e74:	0005c683          	lbu	a3,0(a1)
10006e78:	0705                	add	a4,a4,1
10006e7a:	00377793          	and	a5,a4,3
10006e7e:	fed70fa3          	sb	a3,-1(a4)
10006e82:	0585                	add	a1,a1,1
10006e84:	fff9                	bnez	a5,10006e62 <memcpy+0x6e>
10006e86:	b761                	j	10006e0e <memcpy+0x1a>
10006e88:	8082                	ret
10006e8a:	1141                	add	sp,sp,-16
10006e8c:	c622                	sw	s0,12(sp)
10006e8e:	02000413          	li	s0,32
10006e92:	0005a383          	lw	t2,0(a1)
10006e96:	0045a283          	lw	t0,4(a1)
10006e9a:	0085af83          	lw	t6,8(a1)
10006e9e:	00c5af03          	lw	t5,12(a1)
10006ea2:	0105ae83          	lw	t4,16(a1)
10006ea6:	0145ae03          	lw	t3,20(a1)
10006eaa:	0185a303          	lw	t1,24(a1)
10006eae:	01c5a803          	lw	a6,28(a1)
10006eb2:	5194                	lw	a3,32(a1)
10006eb4:	02470713          	add	a4,a4,36
10006eb8:	40e607b3          	sub	a5,a2,a4
10006ebc:	fc772e23          	sw	t2,-36(a4)
10006ec0:	fe572023          	sw	t0,-32(a4)
10006ec4:	fff72223          	sw	t6,-28(a4)
10006ec8:	ffe72423          	sw	t5,-24(a4)
10006ecc:	ffd72623          	sw	t4,-20(a4)
10006ed0:	ffc72823          	sw	t3,-16(a4)
10006ed4:	fe672a23          	sw	t1,-12(a4)
10006ed8:	ff072c23          	sw	a6,-8(a4)
10006edc:	fed72e23          	sw	a3,-4(a4)
10006ee0:	02458593          	add	a1,a1,36
10006ee4:	faf447e3          	blt	s0,a5,10006e92 <memcpy+0x9e>
10006ee8:	86ae                	mv	a3,a1
10006eea:	87ba                	mv	a5,a4
10006eec:	02c77163          	bgeu	a4,a2,10006f0e <memcpy+0x11a>
10006ef0:	0006a803          	lw	a6,0(a3)
10006ef4:	0791                	add	a5,a5,4
10006ef6:	0691                	add	a3,a3,4
10006ef8:	ff07ae23          	sw	a6,-4(a5)
10006efc:	fec7eae3          	bltu	a5,a2,10006ef0 <memcpy+0xfc>
10006f00:	fff60793          	add	a5,a2,-1
10006f04:	8f99                	sub	a5,a5,a4
10006f06:	9bf1                	and	a5,a5,-4
10006f08:	0791                	add	a5,a5,4
10006f0a:	973e                	add	a4,a4,a5
10006f0c:	95be                	add	a1,a1,a5
10006f0e:	01176563          	bltu	a4,a7,10006f18 <memcpy+0x124>
10006f12:	4432                	lw	s0,12(sp)
10006f14:	0141                	add	sp,sp,16
10006f16:	8082                	ret
10006f18:	0005c783          	lbu	a5,0(a1)
10006f1c:	0705                	add	a4,a4,1
10006f1e:	0585                	add	a1,a1,1
10006f20:	fef70fa3          	sb	a5,-1(a4)
10006f24:	fee887e3          	beq	a7,a4,10006f12 <memcpy+0x11e>
10006f28:	0005c783          	lbu	a5,0(a1)
10006f2c:	0705                	add	a4,a4,1
10006f2e:	0585                	add	a1,a1,1
10006f30:	fef70fa3          	sb	a5,-1(a4)
10006f34:	fee892e3          	bne	a7,a4,10006f18 <memcpy+0x124>
10006f38:	bfe9                	j	10006f12 <memcpy+0x11e>

10006f3a <strlen>:
10006f3a:	00357793          	and	a5,a0,3
10006f3e:	872a                	mv	a4,a0
10006f40:	ef9d                	bnez	a5,10006f7e <strlen+0x44>
10006f42:	7f7f86b7          	lui	a3,0x7f7f8
10006f46:	f7f68693          	add	a3,a3,-129 # 7f7f7f7f <__StackTop+0x5f775f7f>
10006f4a:	55fd                	li	a1,-1
10006f4c:	4310                	lw	a2,0(a4)
10006f4e:	0711                	add	a4,a4,4
10006f50:	00d677b3          	and	a5,a2,a3
10006f54:	97b6                	add	a5,a5,a3
10006f56:	8fd1                	or	a5,a5,a2
10006f58:	8fd5                	or	a5,a5,a3
10006f5a:	feb789e3          	beq	a5,a1,10006f4c <strlen+0x12>
10006f5e:	ffc74683          	lbu	a3,-4(a4)
10006f62:	40a707b3          	sub	a5,a4,a0
10006f66:	ca8d                	beqz	a3,10006f98 <strlen+0x5e>
10006f68:	ffd74683          	lbu	a3,-3(a4)
10006f6c:	c29d                	beqz	a3,10006f92 <strlen+0x58>
10006f6e:	ffe74503          	lbu	a0,-2(a4)
10006f72:	00a03533          	snez	a0,a0
10006f76:	953e                	add	a0,a0,a5
10006f78:	1579                	add	a0,a0,-2
10006f7a:	8082                	ret
10006f7c:	d2f9                	beqz	a3,10006f42 <strlen+0x8>
10006f7e:	00074783          	lbu	a5,0(a4)
10006f82:	0705                	add	a4,a4,1
10006f84:	00377693          	and	a3,a4,3
10006f88:	fbf5                	bnez	a5,10006f7c <strlen+0x42>
10006f8a:	8f09                	sub	a4,a4,a0
10006f8c:	fff70513          	add	a0,a4,-1
10006f90:	8082                	ret
10006f92:	ffd78513          	add	a0,a5,-3
10006f96:	8082                	ret
10006f98:	ffc78513          	add	a0,a5,-4
10006f9c:	8082                	ret
	...

10006fa0 <__pre_init_runtime_init_bootrom_reset>:
10006fa0:	1df4 1000                                   ....

10006fa4 <__pre_init_runtime_init_early_resets>:
10006fa4:	1d94 1000                                   ....

10006fa8 <__pre_init_runtime_init_usb_power_down>:
10006fa8:	1dbe 1000                                   ....

10006fac <__pre_init_runtime_init_clocks>:
10006fac:	1e24 1000                                   $...

10006fb0 <__pre_init_runtime_init_post_clock_resets>:
10006fb0:	1dd8 1000                                   ....

10006fb4 <__pre_init_runtime_init_boot_locks_reset>:
10006fb4:	1d06 1000                                   ....

10006fb8 <__pre_init_runtime_init_spin_locks_reset>:
10006fb8:	1e20 1000                                    ...

10006fbc <__pre_init_runtime_init_bootrom_locking_enable>:
10006fbc:	1cf4 1000                                   ....

10006fc0 <__pre_init_runtime_init_mutex>:
10006fc0:	0e1c 1000                                   ....

10006fc4 <__pre_init_runtime_init_default_alarm_pool>:
10006fc4:	12c8 1000                                   ....

10006fc8 <__pre_init_first_per_core_initializer>:
10006fc8:	1d4e 1000                                   N...

10006fcc <__pre_init_runtime_init_per_core_bootrom_reset>:
10006fcc:	1e0a 1000                                   ....

10006fd0 <__pre_init_runtime_init_per_core_h3_irq_registers>:
10006fd0:	36ae 1000                                   .6..

10006fd4 <__pre_init_runtime_init_per_core_irq_priorities>:
10006fd4:	044a 1000                                   J...

10006fd8 <__frame_dummy_init_array_entry>:
10006fd8:	015a 1000 4400 1000                         Z....D..

Disassembly of section .data:

20000000 <mutex_try_enter>:
20000000:	411c                	lw	a5,0(a0)
20000002:	872a                	mv	a4,a0
20000004:	300476f3          	csrrc	a3,mstatus,8
20000008:	00379613          	sll	a2,a5,0x3
2000000c:	28c01633          	bset	a2,zero,a2
20000010:	9bf1                	and	a5,a5,-4
20000012:	44c7a52f          	amoor.w.aq	a0,a2,(a5)
20000016:	8d71                	and	a0,a0,a2
20000018:	fd6d                	bnez	a0,20000012 <mutex_try_enter+0x12>
2000001a:	0330000f          	fence	rw,rw
2000001e:	00470783          	lb	a5,4(a4)
20000022:	0007cf63          	bltz	a5,20000040 <mutex_try_enter+0x40>
20000026:	c191                	beqz	a1,2000002a <mutex_try_enter+0x2a>
20000028:	c19c                	sw	a5,0(a1)
2000002a:	4501                	li	a0,0
2000002c:	431c                	lw	a5,0(a4)
2000002e:	0330000f          	fence	rw,rw
20000032:	00078023          	sb	zero,0(a5)
20000036:	0086f793          	and	a5,a3,8
2000003a:	3007a073          	csrs	mstatus,a5
2000003e:	8082                	ret
20000040:	d00007b7          	lui	a5,0xd0000
20000044:	439c                	lw	a5,0(a5)
20000046:	4505                	li	a0,1
20000048:	00f70223          	sb	a5,4(a4)
2000004c:	431c                	lw	a5,0(a4)
2000004e:	0330000f          	fence	rw,rw
20000052:	00078023          	sb	zero,0(a5) # d0000000 <__StackTop+0xaff7e000>
20000056:	0086f793          	and	a5,a3,8
2000005a:	3007a073          	csrs	mstatus,a5
2000005e:	8082                	ret

20000060 <mutex_enter_block_until>:
20000060:	1101                	add	sp,sp,-32
20000062:	d00007b7          	lui	a5,0xd0000
20000066:	cc22                	sw	s0,24(sp)
20000068:	ca26                	sw	s1,20(sp)
2000006a:	c84a                	sw	s2,16(sp)
2000006c:	c64e                	sw	s3,12(sp)
2000006e:	ce06                	sw	ra,28(sp)
20000070:	0007a983          	lw	s3,0(a5) # d0000000 <__StackTop+0xaff7e000>
20000074:	842a                	mv	s0,a0
20000076:	892e                	mv	s2,a1
20000078:	84b2                	mv	s1,a2
2000007a:	a005                	j	2000009a <mutex_enter_block_until+0x3a>
2000007c:	401c                	lw	a5,0(s0)
2000007e:	0330000f          	fence	rw,rw
20000082:	00078023          	sb	zero,0(a5)
20000086:	8b21                	and	a4,a4,8
20000088:	30072073          	csrs	mstatus,a4
2000008c:	854a                	mv	a0,s2
2000008e:	85a6                	mv	a1,s1
20000090:	f0001097          	auipc	ra,0xf0001
20000094:	70a080e7          	jalr	1802(ra) # 1000179a <best_effort_wfe_or_timeout>
20000098:	e529                	bnez	a0,200000e2 <mutex_enter_block_until+0x82>
2000009a:	401c                	lw	a5,0(s0)
2000009c:	30047773          	csrrc	a4,mstatus,8
200000a0:	00379693          	sll	a3,a5,0x3
200000a4:	28d016b3          	bset	a3,zero,a3
200000a8:	9bf1                	and	a5,a5,-4
200000aa:	44d7a62f          	amoor.w.aq	a2,a3,(a5)
200000ae:	8e75                	and	a2,a2,a3
200000b0:	fe6d                	bnez	a2,200000aa <mutex_enter_block_until+0x4a>
200000b2:	0330000f          	fence	rw,rw
200000b6:	00440783          	lb	a5,4(s0)
200000ba:	fc07d1e3          	bgez	a5,2000007c <mutex_enter_block_until+0x1c>
200000be:	401c                	lw	a5,0(s0)
200000c0:	01340223          	sb	s3,4(s0)
200000c4:	0330000f          	fence	rw,rw
200000c8:	00078023          	sb	zero,0(a5)
200000cc:	8b21                	and	a4,a4,8
200000ce:	30072073          	csrs	mstatus,a4
200000d2:	40f2                	lw	ra,28(sp)
200000d4:	4462                	lw	s0,24(sp)
200000d6:	44d2                	lw	s1,20(sp)
200000d8:	4942                	lw	s2,16(sp)
200000da:	49b2                	lw	s3,12(sp)
200000dc:	4505                	li	a0,1
200000de:	6105                	add	sp,sp,32
200000e0:	8082                	ret
200000e2:	40f2                	lw	ra,28(sp)
200000e4:	4462                	lw	s0,24(sp)
200000e6:	44d2                	lw	s1,20(sp)
200000e8:	4942                	lw	s2,16(sp)
200000ea:	49b2                	lw	s3,12(sp)
200000ec:	4501                	li	a0,0
200000ee:	6105                	add	sp,sp,32
200000f0:	8082                	ret

200000f2 <mutex_try_enter_block_until>:
200000f2:	411c                	lw	a5,0(a0)
200000f4:	872a                	mv	a4,a0
200000f6:	300476f3          	csrrc	a3,mstatus,8
200000fa:	00379513          	sll	a0,a5,0x3
200000fe:	28a01533          	bset	a0,zero,a0
20000102:	9bf1                	and	a5,a5,-4
20000104:	44a7a82f          	amoor.w.aq	a6,a0,(a5)
20000108:	00a87833          	and	a6,a6,a0
2000010c:	fe081ce3          	bnez	a6,20000104 <mutex_try_enter_block_until+0x12>
20000110:	0330000f          	fence	rw,rw
20000114:	00470803          	lb	a6,4(a4)
20000118:	4501                	li	a0,0
2000011a:	00085863          	bgez	a6,2000012a <mutex_try_enter_block_until+0x38>
2000011e:	d00007b7          	lui	a5,0xd0000
20000122:	439c                	lw	a5,0(a5)
20000124:	4505                	li	a0,1
20000126:	00f70223          	sb	a5,4(a4)
2000012a:	431c                	lw	a5,0(a4)
2000012c:	0330000f          	fence	rw,rw
20000130:	00078023          	sb	zero,0(a5) # d0000000 <__StackTop+0xaff7e000>
20000134:	0086f793          	and	a5,a3,8
20000138:	3007a073          	csrs	mstatus,a5
2000013c:	e519                	bnez	a0,2000014a <mutex_try_enter_block_until+0x58>
2000013e:	d00007b7          	lui	a5,0xd0000
20000142:	00078783          	lb	a5,0(a5) # d0000000 <__StackTop+0xaff7e000>
20000146:	00f81363          	bne	a6,a5,2000014c <mutex_try_enter_block_until+0x5a>
2000014a:	8082                	ret
2000014c:	853a                	mv	a0,a4
2000014e:	bf09                	j	20000060 <mutex_enter_block_until>

20000150 <mutex_enter_timeout_ms>:
20000150:	1141                	add	sp,sp,-16
20000152:	c422                	sw	s0,8(sp)
20000154:	c226                	sw	s1,4(sp)
20000156:	842e                	mv	s0,a1
20000158:	c606                	sw	ra,12(sp)
2000015a:	84aa                	mv	s1,a0
2000015c:	f0001097          	auipc	ra,0xf0001
20000160:	76c080e7          	jalr	1900(ra) # 100018c8 <time_us_64>
20000164:	3e800793          	li	a5,1000
20000168:	02f40633          	mul	a2,s0,a5
2000016c:	80000737          	lui	a4,0x80000
20000170:	177d                	add	a4,a4,-1 # 7fffffff <__StackTop+0x5ff7dfff>
20000172:	02f43433          	mulhu	s0,s0,a5
20000176:	00a607b3          	add	a5,a2,a0
2000017a:	00c7b633          	sltu	a2,a5,a2
2000017e:	942e                	add	s0,s0,a1
20000180:	9622                	add	a2,a2,s0
20000182:	00c77463          	bgeu	a4,a2,2000018a <mutex_enter_timeout_ms+0x3a>
20000186:	57fd                	li	a5,-1
20000188:	863a                	mv	a2,a4
2000018a:	4422                	lw	s0,8(sp)
2000018c:	40b2                	lw	ra,12(sp)
2000018e:	8526                	mv	a0,s1
20000190:	4492                	lw	s1,4(sp)
20000192:	85be                	mv	a1,a5
20000194:	0141                	add	sp,sp,16
20000196:	b5e9                	j	20000060 <mutex_enter_block_until>

20000198 <mutex_exit>:
20000198:	411c                	lw	a5,0(a0)
2000019a:	30047773          	csrrc	a4,mstatus,8
2000019e:	00379693          	sll	a3,a5,0x3
200001a2:	28d016b3          	bset	a3,zero,a3
200001a6:	9bf1                	and	a5,a5,-4
200001a8:	44d7a62f          	amoor.w.aq	a2,a3,(a5)
200001ac:	8e75                	and	a2,a2,a3
200001ae:	fe6d                	bnez	a2,200001a8 <mutex_exit+0x10>
200001b0:	0330000f          	fence	rw,rw
200001b4:	57fd                	li	a5,-1
200001b6:	00f50223          	sb	a5,4(a0)
200001ba:	411c                	lw	a5,0(a0)
200001bc:	0330000f          	fence	rw,rw
200001c0:	00078023          	sb	zero,0(a5)
200001c4:	00877793          	and	a5,a4,8
200001c8:	3007a073          	csrs	mstatus,a5
200001cc:	00102033          	sgtz	zero,ra
200001d0:	8082                	ret

200001d2 <reset_non_control_endpoints>:
200001d2:	1141                	add	sp,sp,-16
200001d4:	c606                	sw	ra,12(sp)
200001d6:	501007b7          	lui	a5,0x50100
200001da:	0007a423          	sw	zero,8(a5) # 50100008 <__StackTop+0x3007e008>
200001de:	0007a623          	sw	zero,12(a5)
200001e2:	0007a823          	sw	zero,16(a5)
200001e6:	0007aa23          	sw	zero,20(a5)
200001ea:	0007ac23          	sw	zero,24(a5)
200001ee:	0007ae23          	sw	zero,28(a5)
200001f2:	0207a023          	sw	zero,32(a5)
200001f6:	0207a223          	sw	zero,36(a5)
200001fa:	0207a423          	sw	zero,40(a5)
200001fe:	0207a623          	sw	zero,44(a5)
20000202:	0207a823          	sw	zero,48(a5)
20000206:	0207aa23          	sw	zero,52(a5)
2000020a:	0207ac23          	sw	zero,56(a5)
2000020e:	0207ae23          	sw	zero,60(a5)
20000212:	0407a023          	sw	zero,64(a5)
20000216:	0407a223          	sw	zero,68(a5)
2000021a:	0407a423          	sw	zero,72(a5)
2000021e:	0407a623          	sw	zero,76(a5)
20000222:	0407a823          	sw	zero,80(a5)
20000226:	0407aa23          	sw	zero,84(a5)
2000022a:	0407ac23          	sw	zero,88(a5)
2000022e:	0407ae23          	sw	zero,92(a5)
20000232:	0607a023          	sw	zero,96(a5)
20000236:	0607a223          	sw	zero,100(a5)
2000023a:	0607a423          	sw	zero,104(a5)
2000023e:	0607a623          	sw	zero,108(a5)
20000242:	0607a823          	sw	zero,112(a5)
20000246:	0607aa23          	sw	zero,116(a5)
2000024a:	0607ac23          	sw	zero,120(a5)
2000024e:	20004537          	lui	a0,0x20004
20000252:	0607ae23          	sw	zero,124(a5)
20000256:	3c000613          	li	a2,960
2000025a:	4581                	li	a1,0
2000025c:	f8850513          	add	a0,a0,-120 # 20003f88 <hw_endpoints+0x40>
20000260:	f0007097          	auipc	ra,0xf0007
20000264:	aec080e7          	jalr	-1300(ra) # 10006d4c <memset>
20000268:	40b2                	lw	ra,12(sp)
2000026a:	501007b7          	lui	a5,0x50100
2000026e:	18078793          	add	a5,a5,384 # 50100180 <__StackTop+0x3007e180>
20000272:	86f1a3a3          	sw	a5,-1945(gp) # 200043e0 <next_buffer_ptr>
20000276:	0141                	add	sp,sp,16
20000278:	8082                	ret

2000027a <hw_handle_buff_status>:
2000027a:	7139                	add	sp,sp,-64
2000027c:	501107b7          	lui	a5,0x50110
20000280:	d64e                	sw	s3,44(sp)
20000282:	0587a983          	lw	s3,88(a5) # 50110058 <__StackTop+0x3008e058>
20000286:	de06                	sw	ra,60(sp)
20000288:	04098a63          	beqz	s3,200002dc <hw_handle_buff_status+0x62>
2000028c:	d452                	sw	s4,40(sp)
2000028e:	20004a37          	lui	s4,0x20004
20000292:	dc22                	sw	s0,56(sp)
20000294:	d84a                	sw	s2,48(sp)
20000296:	d256                	sw	s5,36(sp)
20000298:	d05a                	sw	s6,32(sp)
2000029a:	cc62                	sw	s8,24(sp)
2000029c:	da26                	sw	s1,52(sp)
2000029e:	ce5e                	sw	s7,28(sp)
200002a0:	4401                	li	s0,0
200002a2:	4905                	li	s2,1
200002a4:	50113ab7          	lui	s5,0x50113
200002a8:	f48a0a13          	add	s4,s4,-184 # 20003f48 <hw_endpoints>
200002ac:	70000b13          	li	s6,1792
200002b0:	02000c13          	li	s8,32
200002b4:	0129f733          	and	a4,s3,s2
200002b8:	00140693          	add	a3,s0,1
200002bc:	87a2                	mv	a5,s0
200002be:	8bca                	mv	s7,s2
200002c0:	0ff6f413          	zext.b	s0,a3
200002c4:	0906                	sll	s2,s2,0x1
200002c6:	ef19                	bnez	a4,200002e4 <hw_handle_buff_status+0x6a>
200002c8:	ff8416e3          	bne	s0,s8,200002b4 <hw_handle_buff_status+0x3a>
200002cc:	5462                	lw	s0,56(sp)
200002ce:	54d2                	lw	s1,52(sp)
200002d0:	5942                	lw	s2,48(sp)
200002d2:	5a22                	lw	s4,40(sp)
200002d4:	5a92                	lw	s5,36(sp)
200002d6:	5b02                	lw	s6,32(sp)
200002d8:	4bf2                	lw	s7,28(sp)
200002da:	4c62                	lw	s8,24(sp)
200002dc:	50f2                	lw	ra,60(sp)
200002de:	59b2                	lw	s3,44(sp)
200002e0:	6121                	add	sp,sp,64
200002e2:	8082                	ret
200002e4:	00147713          	and	a4,s0,1
200002e8:	0fe7f493          	and	s1,a5,254
200002ec:	94ba                	add	s1,s1,a4
200002ee:	0496                	sll	s1,s1,0x5
200002f0:	94d2                	add	s1,s1,s4
200002f2:	057aac23          	sw	s7,88(s5) # 50113058 <__StackTop+0x30091058>
200002f6:	8526                	mv	a0,s1
200002f8:	0a5000ef          	jal	20000b9c <hw_endpoint_xfer_continue>
200002fc:	e901                	bnez	a0,2000030c <hw_handle_buff_status+0x92>
200002fe:	4179f9b3          	andn	s3,s3,s7
20000302:	fc0985e3          	beqz	s3,200002cc <hw_handle_buff_status+0x52>
20000306:	fb8417e3          	bne	s0,s8,200002b4 <hw_handle_buff_status+0x3a>
2000030a:	b7c9                	j	200002cc <hw_handle_buff_status+0x52>
2000030c:	0024c703          	lbu	a4,2(s1)
20000310:	0164d783          	lhu	a5,22(s1)
20000314:	00011423          	sh	zero,8(sp)
20000318:	0048                	add	a0,sp,4
2000031a:	4585                	li	a1,1
2000031c:	00011323          	sh	zero,6(sp)
20000320:	00011523          	sh	zero,10(sp)
20000324:	01611223          	sh	s6,4(sp)
20000328:	00e10423          	sb	a4,8(sp)
2000032c:	c63e                	sw	a5,12(sp)
2000032e:	0c9000ef          	jal	20000bf6 <dcd_event_handler>
20000332:	8526                	mv	a0,s1
20000334:	792000ef          	jal	20000ac6 <hw_endpoint_reset_transfer>
20000338:	b7d9                	j	200002fe <hw_handle_buff_status+0x84>

2000033a <dcd_rp2040_irq>:
2000033a:	7179                	add	sp,sp,-48
2000033c:	501107b7          	lui	a5,0x50110
20000340:	ce4e                	sw	s3,28(sp)
20000342:	0987a983          	lw	s3,152(a5) # 50110098 <__StackTop+0x3008e098>
20000346:	d226                	sw	s1,36(sp)
20000348:	000204b7          	lui	s1,0x20
2000034c:	d422                	sw	s0,40(sp)
2000034e:	d606                	sw	ra,44(sp)
20000350:	0099f4b3          	and	s1,s3,s1
20000354:	4441                	li	s0,16
20000356:	10048163          	beqz	s1,20000458 <dcd_rp2040_irq+0x11e>
2000035a:	400b07b7          	lui	a5,0x400b0
2000035e:	d04a                	sw	s2,32(sp)
20000360:	20004937          	lui	s2,0x20004
20000364:	5794                	lw	a3,40(a5)
20000366:	f4890413          	add	s0,s2,-184 # 20003f48 <hw_endpoints>
2000036a:	03b44703          	lbu	a4,59(s0)
2000036e:	86d1a5a3          	sw	a3,-1941(gp) # 200043e4 <e15_last_sof>
20000372:	4789                	li	a5,2
20000374:	4481                	li	s1,0
20000376:	26f70663          	beq	a4,a5,200005e2 <dcd_rp2040_irq+0x2a8>
2000037a:	07b44703          	lbu	a4,123(s0)
2000037e:	4789                	li	a5,2
20000380:	3af70163          	beq	a4,a5,20000722 <dcd_rp2040_irq+0x3e8>
20000384:	0bb44703          	lbu	a4,187(s0)
20000388:	4789                	li	a5,2
2000038a:	38f70363          	beq	a4,a5,20000710 <dcd_rp2040_irq+0x3d6>
2000038e:	0fb44703          	lbu	a4,251(s0)
20000392:	4789                	li	a5,2
20000394:	36f70563          	beq	a4,a5,200006fe <dcd_rp2040_irq+0x3c4>
20000398:	13b44703          	lbu	a4,315(s0)
2000039c:	4789                	li	a5,2
2000039e:	34f70763          	beq	a4,a5,200006ec <dcd_rp2040_irq+0x3b2>
200003a2:	17b44703          	lbu	a4,379(s0)
200003a6:	4789                	li	a5,2
200003a8:	32f70963          	beq	a4,a5,200006da <dcd_rp2040_irq+0x3a0>
200003ac:	1bb44703          	lbu	a4,443(s0)
200003b0:	4789                	li	a5,2
200003b2:	30f70a63          	beq	a4,a5,200006c6 <dcd_rp2040_irq+0x38c>
200003b6:	1fb44703          	lbu	a4,507(s0)
200003ba:	4789                	li	a5,2
200003bc:	2ef70b63          	beq	a4,a5,200006b2 <dcd_rp2040_irq+0x378>
200003c0:	23b44703          	lbu	a4,571(s0)
200003c4:	4789                	li	a5,2
200003c6:	2cf70c63          	beq	a4,a5,2000069e <dcd_rp2040_irq+0x364>
200003ca:	27b44703          	lbu	a4,635(s0)
200003ce:	4789                	li	a5,2
200003d0:	2af70d63          	beq	a4,a5,2000068a <dcd_rp2040_irq+0x350>
200003d4:	2bb44703          	lbu	a4,699(s0)
200003d8:	4789                	li	a5,2
200003da:	28f70e63          	beq	a4,a5,20000676 <dcd_rp2040_irq+0x33c>
200003de:	2fb44703          	lbu	a4,763(s0)
200003e2:	4789                	li	a5,2
200003e4:	26f70f63          	beq	a4,a5,20000662 <dcd_rp2040_irq+0x328>
200003e8:	33b44703          	lbu	a4,827(s0)
200003ec:	4789                	li	a5,2
200003ee:	26f70063          	beq	a4,a5,2000064e <dcd_rp2040_irq+0x314>
200003f2:	37b44703          	lbu	a4,891(s0)
200003f6:	4789                	li	a5,2
200003f8:	20f70563          	beq	a4,a5,20000602 <dcd_rp2040_irq+0x2c8>
200003fc:	3bb44703          	lbu	a4,955(s0)
20000400:	4789                	li	a5,2
20000402:	32f70963          	beq	a4,a5,20000734 <dcd_rp2040_irq+0x3fa>
20000406:	3fb44703          	lbu	a4,1019(s0)
2000040a:	4789                	li	a5,2
2000040c:	22f70163          	beq	a4,a5,2000062e <dcd_rp2040_irq+0x2f4>
20000410:	e891                	bnez	s1,20000424 <dcd_rp2040_irq+0xea>
20000412:	8631c783          	lbu	a5,-1949(gp) # 200043dc <_sof_enable>
20000416:	e799                	bnez	a5,20000424 <dcd_rp2040_irq+0xea>
20000418:	501137b7          	lui	a5,0x50113
2000041c:	00020737          	lui	a4,0x20
20000420:	08e7a823          	sw	a4,144(a5) # 50113090 <__StackTop+0x30091090>
20000424:	501107b7          	lui	a5,0x50110
20000428:	47bc                	lw	a5,72(a5)
2000042a:	30000713          	li	a4,768
2000042e:	4585                	li	a1,1
20000430:	7ff7f793          	and	a5,a5,2047
20000434:	0048                	add	a0,sp,4
20000436:	00011323          	sh	zero,6(sp)
2000043a:	00011623          	sh	zero,12(sp)
2000043e:	00011723          	sh	zero,14(sp)
20000442:	00e11223          	sh	a4,4(sp)
20000446:	c43e                	sw	a5,8(sp)
20000448:	7ae000ef          	jal	20000bf6 <dcd_event_handler>
2000044c:	5902                	lw	s2,32(sp)
2000044e:	00020437          	lui	s0,0x20
20000452:	0441                	add	s0,s0,16 # 20010 <HeapSize+0x1f810>
20000454:	000204b7          	lui	s1,0x20
20000458:	0109f793          	and	a5,s3,16
2000045c:	18079063          	bnez	a5,200005dc <dcd_rp2040_irq+0x2a2>
20000460:	00f99793          	sll	a5,s3,0xf
20000464:	0607de63          	bgez	a5,200004e0 <dcd_rp2040_irq+0x1a6>
20000468:	d04a                	sw	s2,32(sp)
2000046a:	20004937          	lui	s2,0x20004
2000046e:	f4890413          	add	s0,s2,-184 # 20003f48 <hw_endpoints>
20000472:	01a44783          	lbu	a5,26(s0)
20000476:	29049493          	bset	s1,s1,0x10
2000047a:	c79d                	beqz	a5,200004a8 <dcd_rp2040_irq+0x16e>
2000047c:	4709                	li	a4,2
2000047e:	501127b7          	lui	a5,0x50112
20000482:	d3b8                	sw	a4,96(a5)
20000484:	50110737          	lui	a4,0x50110
20000488:	537c                	lw	a5,100(a4)
2000048a:	8b89                	and	a5,a5,2
2000048c:	dff5                	beqz	a5,20000488 <dcd_rp2040_irq+0x14e>
2000048e:	660d                	lui	a2,0x3
20000490:	4581                	li	a1,0
20000492:	f4890513          	add	a0,s2,-184
20000496:	2d3d                	jal	20000ad4 <_hw_endpoint_buffer_control_update32>
20000498:	f4890513          	add	a0,s2,-184
2000049c:	252d                	jal	20000ac6 <hw_endpoint_reset_transfer>
2000049e:	501137b7          	lui	a5,0x50113
200004a2:	4709                	li	a4,2
200004a4:	d3f8                	sw	a4,100(a5)
200004a6:	d3b8                	sw	a4,96(a5)
200004a8:	03a44703          	lbu	a4,58(s0)
200004ac:	4785                	li	a5,1
200004ae:	00f401a3          	sb	a5,3(s0)
200004b2:	e741                	bnez	a4,2000053a <dcd_rp2040_irq+0x200>
200004b4:	4785                	li	a5,1
200004b6:	02f401a3          	sb	a5,35(s0)
200004ba:	60000793          	li	a5,1536
200004be:	c23e                	sw	a5,4(sp)
200004c0:	501007b7          	lui	a5,0x50100
200004c4:	4398                	lw	a4,0(a5)
200004c6:	4585                	li	a1,1
200004c8:	0048                	add	a0,sp,4
200004ca:	c43a                	sw	a4,8(sp)
200004cc:	43dc                	lw	a5,4(a5)
200004ce:	c63e                	sw	a5,12(sp)
200004d0:	726000ef          	jal	20000bf6 <dcd_event_handler>
200004d4:	5902                	lw	s2,32(sp)
200004d6:	501137b7          	lui	a5,0x50113
200004da:	00020737          	lui	a4,0x20
200004de:	cbb8                	sw	a4,80(a5)
200004e0:	01399793          	sll	a5,s3,0x13
200004e4:	0807c363          	bltz	a5,2000056a <dcd_rp2040_irq+0x230>
200004e8:	01199793          	sll	a5,s3,0x11
200004ec:	0c07c063          	bltz	a5,200005ac <dcd_rp2040_irq+0x272>
200004f0:	01099793          	sll	a5,s3,0x10
200004f4:	0007ca63          	bltz	a5,20000508 <dcd_rp2040_irq+0x1ce>
200004f8:	37349163          	bne	s1,s3,2000085a <dcd_rp2040_irq+0x520>
200004fc:	50b2                	lw	ra,44(sp)
200004fe:	5422                	lw	s0,40(sp)
20000500:	5492                	lw	s1,36(sp)
20000502:	49f2                	lw	s3,28(sp)
20000504:	6145                	add	sp,sp,48
20000506:	8082                	ret
20000508:	50000793          	li	a5,1280
2000050c:	4585                	li	a1,1
2000050e:	0048                	add	a0,sp,4
20000510:	00f11223          	sh	a5,4(sp)
20000514:	00011323          	sh	zero,6(sp)
20000518:	00011423          	sh	zero,8(sp)
2000051c:	00011523          	sh	zero,10(sp)
20000520:	00011623          	sh	zero,12(sp)
20000524:	00011723          	sh	zero,14(sp)
20000528:	25f9                	jal	20000bf6 <dcd_event_handler>
2000052a:	501137b7          	lui	a5,0x50113
2000052e:	28b01713          	bset	a4,zero,0xb
20000532:	cbb8                	sw	a4,80(a5)
20000534:	28f49493          	bset	s1,s1,0xf
20000538:	b7c1                	j	200004f8 <dcd_rp2040_irq+0x1be>
2000053a:	50112737          	lui	a4,0x50112
2000053e:	d33c                	sw	a5,96(a4)
20000540:	50110737          	lui	a4,0x50110
20000544:	537c                	lw	a5,100(a4)
20000546:	8b85                	and	a5,a5,1
20000548:	dff5                	beqz	a5,20000544 <dcd_rp2040_irq+0x20a>
2000054a:	20004937          	lui	s2,0x20004
2000054e:	660d                	lui	a2,0x3
20000550:	4581                	li	a1,0
20000552:	f6890513          	add	a0,s2,-152 # 20003f68 <hw_endpoints+0x20>
20000556:	2bbd                	jal	20000ad4 <_hw_endpoint_buffer_control_update32>
20000558:	f6890513          	add	a0,s2,-152
2000055c:	23ad                	jal	20000ac6 <hw_endpoint_reset_transfer>
2000055e:	501137b7          	lui	a5,0x50113
20000562:	4705                	li	a4,1
20000564:	d3f8                	sw	a4,100(a5)
20000566:	d3b8                	sw	a4,96(a5)
20000568:	b7b1                	j	200004b4 <dcd_rp2040_irq+0x17a>
2000056a:	501107b7          	lui	a5,0x50110
2000056e:	0007a023          	sw	zero,0(a5) # 50110000 <__StackTop+0x3008e000>
20000572:	3185                	jal	200001d2 <reset_non_control_endpoints>
20000574:	10000793          	li	a5,256
20000578:	4585                	li	a1,1
2000057a:	0048                	add	a0,sp,4
2000057c:	00f11223          	sh	a5,4(sp)
20000580:	00011323          	sh	zero,6(sp)
20000584:	00011423          	sh	zero,8(sp)
20000588:	00011523          	sh	zero,10(sp)
2000058c:	00011623          	sh	zero,12(sp)
20000590:	00011723          	sh	zero,14(sp)
20000594:	258d                	jal	20000bf6 <dcd_event_handler>
20000596:	501137b7          	lui	a5,0x50113
2000059a:	00080737          	lui	a4,0x80
2000059e:	cbb8                	sw	a4,80(a5)
200005a0:	01199793          	sll	a5,s3,0x11
200005a4:	28c49493          	bset	s1,s1,0xc
200005a8:	f407d4e3          	bgez	a5,200004f0 <dcd_rp2040_irq+0x1b6>
200005ac:	40000793          	li	a5,1024
200005b0:	4585                	li	a1,1
200005b2:	0048                	add	a0,sp,4
200005b4:	00f11223          	sh	a5,4(sp)
200005b8:	00011323          	sh	zero,6(sp)
200005bc:	00011423          	sh	zero,8(sp)
200005c0:	00011523          	sh	zero,10(sp)
200005c4:	00011623          	sh	zero,12(sp)
200005c8:	00011723          	sh	zero,14(sp)
200005cc:	252d                	jal	20000bf6 <dcd_event_handler>
200005ce:	501137b7          	lui	a5,0x50113
200005d2:	4741                	li	a4,16
200005d4:	cbb8                	sw	a4,80(a5)
200005d6:	28e49493          	bset	s1,s1,0xe
200005da:	bf19                	j	200004f0 <dcd_rp2040_irq+0x1b6>
200005dc:	3979                	jal	2000027a <hw_handle_buff_status>
200005de:	84a2                	mv	s1,s0
200005e0:	b541                	j	20000460 <dcd_rp2040_irq+0x126>
200005e2:	03a44483          	lbu	s1,58(s0)
200005e6:	d8048ae3          	beqz	s1,2000037a <dcd_rp2040_irq+0x40>
200005ea:	03c44783          	lbu	a5,60(s0)
200005ee:	d80786e3          	beqz	a5,2000037a <dcd_rp2040_irq+0x40>
200005f2:	20004537          	lui	a0,0x20004
200005f6:	f6850513          	add	a0,a0,-152 # 20003f68 <hw_endpoints+0x20>
200005fa:	02040e23          	sb	zero,60(s0)
200005fe:	232d                	jal	20000b28 <hw_endpoint_start_next_buffer>
20000600:	bbad                	j	2000037a <dcd_rp2040_irq+0x40>
20000602:	37a44903          	lbu	s2,890(s0)
20000606:	de090be3          	beqz	s2,200003fc <dcd_rp2040_irq+0xc2>
2000060a:	37c44783          	lbu	a5,892(s0)
2000060e:	22079e63          	bnez	a5,2000084a <dcd_rp2040_irq+0x510>
20000612:	3bb44703          	lbu	a4,955(s0)
20000616:	4789                	li	a5,2
20000618:	12f71c63          	bne	a4,a5,20000750 <dcd_rp2040_irq+0x416>
2000061c:	3ba44783          	lbu	a5,954(s0)
20000620:	10079e63          	bnez	a5,2000073c <dcd_rp2040_irq+0x402>
20000624:	3fb44783          	lbu	a5,1019(s0)
20000628:	dee79ee3          	bne	a5,a4,20000424 <dcd_rp2040_irq+0xea>
2000062c:	84ca                	mv	s1,s2
2000062e:	3fa44783          	lbu	a5,1018(s0)
20000632:	dc078fe3          	beqz	a5,20000410 <dcd_rp2040_irq+0xd6>
20000636:	3fc44783          	lbu	a5,1020(s0)
2000063a:	de0785e3          	beqz	a5,20000424 <dcd_rp2040_irq+0xea>
2000063e:	20004537          	lui	a0,0x20004
20000642:	32850513          	add	a0,a0,808 # 20004328 <hw_endpoints+0x3e0>
20000646:	3e040e23          	sb	zero,1020(s0)
2000064a:	29f9                	jal	20000b28 <hw_endpoint_start_next_buffer>
2000064c:	bbe1                	j	20000424 <dcd_rp2040_irq+0xea>
2000064e:	33a44903          	lbu	s2,826(s0)
20000652:	da0900e3          	beqz	s2,200003f2 <dcd_rp2040_irq+0xb8>
20000656:	33c44783          	lbu	a5,828(s0)
2000065a:	1c079763          	bnez	a5,20000828 <dcd_rp2040_irq+0x4ee>
2000065e:	84ca                	mv	s1,s2
20000660:	bb49                	j	200003f2 <dcd_rp2040_irq+0xb8>
20000662:	2fa44903          	lbu	s2,762(s0)
20000666:	d80901e3          	beqz	s2,200003e8 <dcd_rp2040_irq+0xae>
2000066a:	2fc44783          	lbu	a5,764(s0)
2000066e:	1a079463          	bnez	a5,20000816 <dcd_rp2040_irq+0x4dc>
20000672:	84ca                	mv	s1,s2
20000674:	bb95                	j	200003e8 <dcd_rp2040_irq+0xae>
20000676:	2ba44903          	lbu	s2,698(s0)
2000067a:	d60902e3          	beqz	s2,200003de <dcd_rp2040_irq+0xa4>
2000067e:	2bc44783          	lbu	a5,700(s0)
20000682:	18079163          	bnez	a5,20000804 <dcd_rp2040_irq+0x4ca>
20000686:	84ca                	mv	s1,s2
20000688:	bb99                	j	200003de <dcd_rp2040_irq+0xa4>
2000068a:	27a44903          	lbu	s2,634(s0)
2000068e:	d40903e3          	beqz	s2,200003d4 <dcd_rp2040_irq+0x9a>
20000692:	27c44783          	lbu	a5,636(s0)
20000696:	14079e63          	bnez	a5,200007f2 <dcd_rp2040_irq+0x4b8>
2000069a:	84ca                	mv	s1,s2
2000069c:	bb25                	j	200003d4 <dcd_rp2040_irq+0x9a>
2000069e:	23a44903          	lbu	s2,570(s0)
200006a2:	d20904e3          	beqz	s2,200003ca <dcd_rp2040_irq+0x90>
200006a6:	23c44783          	lbu	a5,572(s0)
200006aa:	12079b63          	bnez	a5,200007e0 <dcd_rp2040_irq+0x4a6>
200006ae:	84ca                	mv	s1,s2
200006b0:	bb29                	j	200003ca <dcd_rp2040_irq+0x90>
200006b2:	1fa44903          	lbu	s2,506(s0)
200006b6:	d00905e3          	beqz	s2,200003c0 <dcd_rp2040_irq+0x86>
200006ba:	1fc44783          	lbu	a5,508(s0)
200006be:	10079863          	bnez	a5,200007ce <dcd_rp2040_irq+0x494>
200006c2:	84ca                	mv	s1,s2
200006c4:	b9f5                	j	200003c0 <dcd_rp2040_irq+0x86>
200006c6:	1ba44903          	lbu	s2,442(s0)
200006ca:	ce0906e3          	beqz	s2,200003b6 <dcd_rp2040_irq+0x7c>
200006ce:	1bc44783          	lbu	a5,444(s0)
200006d2:	0e079563          	bnez	a5,200007bc <dcd_rp2040_irq+0x482>
200006d6:	84ca                	mv	s1,s2
200006d8:	b9f9                	j	200003b6 <dcd_rp2040_irq+0x7c>
200006da:	17a44903          	lbu	s2,378(s0)
200006de:	cc0907e3          	beqz	s2,200003ac <dcd_rp2040_irq+0x72>
200006e2:	17c44783          	lbu	a5,380(s0)
200006e6:	e3f1                	bnez	a5,200007aa <dcd_rp2040_irq+0x470>
200006e8:	84ca                	mv	s1,s2
200006ea:	b1c9                	j	200003ac <dcd_rp2040_irq+0x72>
200006ec:	13a44903          	lbu	s2,314(s0)
200006f0:	ca0909e3          	beqz	s2,200003a2 <dcd_rp2040_irq+0x68>
200006f4:	13c44783          	lbu	a5,316(s0)
200006f8:	e3c5                	bnez	a5,20000798 <dcd_rp2040_irq+0x45e>
200006fa:	84ca                	mv	s1,s2
200006fc:	b15d                	j	200003a2 <dcd_rp2040_irq+0x68>
200006fe:	0fa44903          	lbu	s2,250(s0)
20000702:	c8090be3          	beqz	s2,20000398 <dcd_rp2040_irq+0x5e>
20000706:	0fc44783          	lbu	a5,252(s0)
2000070a:	efb5                	bnez	a5,20000786 <dcd_rp2040_irq+0x44c>
2000070c:	84ca                	mv	s1,s2
2000070e:	b169                	j	20000398 <dcd_rp2040_irq+0x5e>
20000710:	0ba44903          	lbu	s2,186(s0)
20000714:	c6090de3          	beqz	s2,2000038e <dcd_rp2040_irq+0x54>
20000718:	0bc44783          	lbu	a5,188(s0)
2000071c:	efa1                	bnez	a5,20000774 <dcd_rp2040_irq+0x43a>
2000071e:	84ca                	mv	s1,s2
20000720:	b1bd                	j	2000038e <dcd_rp2040_irq+0x54>
20000722:	07a44903          	lbu	s2,122(s0)
20000726:	c4090fe3          	beqz	s2,20000384 <dcd_rp2040_irq+0x4a>
2000072a:	07c44783          	lbu	a5,124(s0)
2000072e:	eb95                	bnez	a5,20000762 <dcd_rp2040_irq+0x428>
20000730:	84ca                	mv	s1,s2
20000732:	b989                	j	20000384 <dcd_rp2040_irq+0x4a>
20000734:	3ba44783          	lbu	a5,954(s0)
20000738:	cc0787e3          	beqz	a5,20000406 <dcd_rp2040_irq+0xcc>
2000073c:	3bc44783          	lbu	a5,956(s0)
20000740:	0e079d63          	bnez	a5,2000083a <dcd_rp2040_irq+0x500>
20000744:	3fb44703          	lbu	a4,1019(s0)
20000748:	4789                	li	a5,2
2000074a:	ccf71de3          	bne	a4,a5,20000424 <dcd_rp2040_irq+0xea>
2000074e:	a029                	j	20000758 <dcd_rp2040_irq+0x41e>
20000750:	3fb44703          	lbu	a4,1019(s0)
20000754:	ccf718e3          	bne	a4,a5,20000424 <dcd_rp2040_irq+0xea>
20000758:	3fa44783          	lbu	a5,1018(s0)
2000075c:	ec079de3          	bnez	a5,20000636 <dcd_rp2040_irq+0x2fc>
20000760:	b1d1                	j	20000424 <dcd_rp2040_irq+0xea>
20000762:	20004537          	lui	a0,0x20004
20000766:	fa850513          	add	a0,a0,-88 # 20003fa8 <hw_endpoints+0x60>
2000076a:	06040e23          	sb	zero,124(s0)
2000076e:	84ca                	mv	s1,s2
20000770:	2e65                	jal	20000b28 <hw_endpoint_start_next_buffer>
20000772:	b909                	j	20000384 <dcd_rp2040_irq+0x4a>
20000774:	20004537          	lui	a0,0x20004
20000778:	fe850513          	add	a0,a0,-24 # 20003fe8 <hw_endpoints+0xa0>
2000077c:	0a040e23          	sb	zero,188(s0)
20000780:	84ca                	mv	s1,s2
20000782:	265d                	jal	20000b28 <hw_endpoint_start_next_buffer>
20000784:	b129                	j	2000038e <dcd_rp2040_irq+0x54>
20000786:	20004537          	lui	a0,0x20004
2000078a:	02850513          	add	a0,a0,40 # 20004028 <hw_endpoints+0xe0>
2000078e:	0e040e23          	sb	zero,252(s0)
20000792:	84ca                	mv	s1,s2
20000794:	2e51                	jal	20000b28 <hw_endpoint_start_next_buffer>
20000796:	b109                	j	20000398 <dcd_rp2040_irq+0x5e>
20000798:	20004537          	lui	a0,0x20004
2000079c:	06850513          	add	a0,a0,104 # 20004068 <hw_endpoints+0x120>
200007a0:	12040e23          	sb	zero,316(s0)
200007a4:	84ca                	mv	s1,s2
200007a6:	2649                	jal	20000b28 <hw_endpoint_start_next_buffer>
200007a8:	beed                	j	200003a2 <dcd_rp2040_irq+0x68>
200007aa:	20004537          	lui	a0,0x20004
200007ae:	0a850513          	add	a0,a0,168 # 200040a8 <hw_endpoints+0x160>
200007b2:	16040e23          	sb	zero,380(s0)
200007b6:	84ca                	mv	s1,s2
200007b8:	2e85                	jal	20000b28 <hw_endpoint_start_next_buffer>
200007ba:	becd                	j	200003ac <dcd_rp2040_irq+0x72>
200007bc:	20004537          	lui	a0,0x20004
200007c0:	0e850513          	add	a0,a0,232 # 200040e8 <hw_endpoints+0x1a0>
200007c4:	1a040e23          	sb	zero,444(s0)
200007c8:	84ca                	mv	s1,s2
200007ca:	2eb9                	jal	20000b28 <hw_endpoint_start_next_buffer>
200007cc:	b6ed                	j	200003b6 <dcd_rp2040_irq+0x7c>
200007ce:	20004537          	lui	a0,0x20004
200007d2:	12850513          	add	a0,a0,296 # 20004128 <hw_endpoints+0x1e0>
200007d6:	1e040e23          	sb	zero,508(s0)
200007da:	84ca                	mv	s1,s2
200007dc:	26b1                	jal	20000b28 <hw_endpoint_start_next_buffer>
200007de:	b6cd                	j	200003c0 <dcd_rp2040_irq+0x86>
200007e0:	20004537          	lui	a0,0x20004
200007e4:	16850513          	add	a0,a0,360 # 20004168 <hw_endpoints+0x220>
200007e8:	22040e23          	sb	zero,572(s0)
200007ec:	84ca                	mv	s1,s2
200007ee:	2e2d                	jal	20000b28 <hw_endpoint_start_next_buffer>
200007f0:	bee9                	j	200003ca <dcd_rp2040_irq+0x90>
200007f2:	20004537          	lui	a0,0x20004
200007f6:	1a850513          	add	a0,a0,424 # 200041a8 <hw_endpoints+0x260>
200007fa:	26040e23          	sb	zero,636(s0)
200007fe:	84ca                	mv	s1,s2
20000800:	2625                	jal	20000b28 <hw_endpoint_start_next_buffer>
20000802:	bec9                	j	200003d4 <dcd_rp2040_irq+0x9a>
20000804:	20004537          	lui	a0,0x20004
20000808:	1e850513          	add	a0,a0,488 # 200041e8 <hw_endpoints+0x2a0>
2000080c:	2a040e23          	sb	zero,700(s0)
20000810:	84ca                	mv	s1,s2
20000812:	2e19                	jal	20000b28 <hw_endpoint_start_next_buffer>
20000814:	b6e9                	j	200003de <dcd_rp2040_irq+0xa4>
20000816:	20004537          	lui	a0,0x20004
2000081a:	22850513          	add	a0,a0,552 # 20004228 <hw_endpoints+0x2e0>
2000081e:	2e040e23          	sb	zero,764(s0)
20000822:	84ca                	mv	s1,s2
20000824:	2611                	jal	20000b28 <hw_endpoint_start_next_buffer>
20000826:	b6c9                	j	200003e8 <dcd_rp2040_irq+0xae>
20000828:	20004537          	lui	a0,0x20004
2000082c:	26850513          	add	a0,a0,616 # 20004268 <hw_endpoints+0x320>
20000830:	32040e23          	sb	zero,828(s0)
20000834:	84ca                	mv	s1,s2
20000836:	2ccd                	jal	20000b28 <hw_endpoint_start_next_buffer>
20000838:	be6d                	j	200003f2 <dcd_rp2040_irq+0xb8>
2000083a:	20004537          	lui	a0,0x20004
2000083e:	2e850513          	add	a0,a0,744 # 200042e8 <hw_endpoints+0x3a0>
20000842:	3a040e23          	sb	zero,956(s0)
20000846:	24cd                	jal	20000b28 <hw_endpoint_start_next_buffer>
20000848:	bdf5                	j	20000744 <dcd_rp2040_irq+0x40a>
2000084a:	20004537          	lui	a0,0x20004
2000084e:	2a850513          	add	a0,a0,680 # 200042a8 <hw_endpoints+0x360>
20000852:	36040e23          	sb	zero,892(s0)
20000856:	2cc9                	jal	20000b28 <hw_endpoint_start_next_buffer>
20000858:	bb6d                	j	20000612 <dcd_rp2040_irq+0x2d8>
2000085a:	10007537          	lui	a0,0x10007
2000085e:	0134c5b3          	xor	a1,s1,s3
20000862:	17450513          	add	a0,a0,372 # 10007174 <__EH_FRAME_BEGIN__+0x194>
20000866:	d04a                	sw	s2,32(sp)
20000868:	f0000097          	auipc	ra,0xf0000
2000086c:	a48080e7          	jalr	-1464(ra) # 100002b0 <panic>

20000870 <prepare_ep_buffer>:
20000870:	01455703          	lhu	a4,20(a0)
20000874:	00354683          	lbu	a3,3(a0)
20000878:	01855883          	lhu	a7,24(a0)
2000087c:	00154603          	lbu	a2,1(a0)
20000880:	87aa                	mv	a5,a0
20000882:	0ae8d8b3          	minu	a7,a7,a4
20000886:	00d03533          	snez	a0,a3
2000088a:	41170733          	sub	a4,a4,a7
2000088e:	0016c693          	xor	a3,a3,1
20000892:	4008e813          	or	a6,a7,1024
20000896:	0536                	sll	a0,a0,0xd
20000898:	08074733          	zext.h	a4,a4
2000089c:	00d781a3          	sb	a3,3(a5) # 50113003 <__StackTop+0x30091003>
200008a0:	00e79a23          	sh	a4,20(a5)
200008a4:	01056533          	or	a0,a0,a6
200008a8:	ee41                	bnez	a2,20000940 <prepare_ep_buffer+0xd0>
200008aa:	47d4                	lw	a3,12(a5)
200008ac:	00659813          	sll	a6,a1,0x6
200008b0:	4b90                	lw	a2,16(a5)
200008b2:	96c2                	add	a3,a3,a6
200008b4:	fff88f13          	add	t5,a7,-1
200008b8:	08088063          	beqz	a7,20000938 <prepare_ep_buffer+0xc8>
200008bc:	4719                	li	a4,6
200008be:	09e77763          	bgeu	a4,t5,2000094c <prepare_ep_buffer+0xdc>
200008c2:	00c6e733          	or	a4,a3,a2
200008c6:	8b0d                	and	a4,a4,3
200008c8:	e351                	bnez	a4,2000094c <prepare_ep_buffer+0xdc>
200008ca:	00160713          	add	a4,a2,1 # 3001 <HeapSize+0x2801>
200008ce:	40e68833          	sub	a6,a3,a4
200008d2:	00383813          	sltiu	a6,a6,3
200008d6:	06081d63          	bnez	a6,20000950 <prepare_ep_buffer+0xe0>
200008da:	ffc88e13          	add	t3,a7,-4
200008de:	002e5e13          	srl	t3,t3,0x2
200008e2:	0e05                	add	t3,t3,1
200008e4:	8332                	mv	t1,a2
200008e6:	8836                	mv	a6,a3
200008e8:	4701                	li	a4,0
200008ea:	00032e83          	lw	t4,0(t1)
200008ee:	0705                	add	a4,a4,1 # 80001 <HeapSize+0x7f801>
200008f0:	0311                	add	t1,t1,4
200008f2:	01d82023          	sw	t4,0(a6)
200008f6:	0811                	add	a6,a6,4
200008f8:	ffc769e3          	bltu	a4,t3,200008ea <prepare_ep_buffer+0x7a>
200008fc:	002e1713          	sll	a4,t3,0x2
20000900:	20ce4633          	sh2add	a2,t3,a2
20000904:	40ef0f33          	sub	t5,t5,a4
20000908:	20de4e33          	sh2add	t3,t3,a3
2000090c:	02e88363          	beq	a7,a4,20000932 <prepare_ep_buffer+0xc2>
20000910:	00064703          	lbu	a4,0(a2)
20000914:	00ee0023          	sb	a4,0(t3)
20000918:	000f0d63          	beqz	t5,20000932 <prepare_ep_buffer+0xc2>
2000091c:	00164683          	lbu	a3,1(a2)
20000920:	4705                	li	a4,1
20000922:	00de00a3          	sb	a3,1(t3)
20000926:	00ef0663          	beq	t5,a4,20000932 <prepare_ep_buffer+0xc2>
2000092a:	00264703          	lbu	a4,2(a2)
2000092e:	00ee0123          	sb	a4,2(t3)
20000932:	4b90                	lw	a2,16(a5)
20000934:	0147d703          	lhu	a4,20(a5)
20000938:	9646                	add	a2,a2,a7
2000093a:	cb90                	sw	a2,16(a5)
2000093c:	28f51513          	bset	a0,a0,0xf
20000940:	e319                	bnez	a4,20000946 <prepare_ep_buffer+0xd6>
20000942:	28e51513          	bset	a0,a0,0xe
20000946:	c191                	beqz	a1,2000094a <prepare_ep_buffer+0xda>
20000948:	0542                	sll	a0,a0,0x10
2000094a:	8082                	ret
2000094c:	00160713          	add	a4,a2,1
20000950:	9646                	add	a2,a2,a7
20000952:	a011                	j	20000956 <prepare_ep_buffer+0xe6>
20000954:	0705                	add	a4,a4,1
20000956:	fff74803          	lbu	a6,-1(a4)
2000095a:	0685                	add	a3,a3,1
2000095c:	ff068fa3          	sb	a6,-1(a3)
20000960:	fec71ae3          	bne	a4,a2,20000954 <prepare_ep_buffer+0xe4>
20000964:	4b90                	lw	a2,16(a5)
20000966:	0147d703          	lhu	a4,20(a5)
2000096a:	b7f9                	j	20000938 <prepare_ep_buffer+0xc8>

2000096c <sync_ep_buffer>:
2000096c:	451c                	lw	a5,8(a0)
2000096e:	872a                	mv	a4,a0
20000970:	4388                	lw	a0,0(a5)
20000972:	c191                	beqz	a1,20000976 <sync_ep_buffer+0xa>
20000974:	8141                	srl	a0,a0,0x10
20000976:	00174783          	lbu	a5,1(a4)
2000097a:	3ff57513          	and	a0,a0,1023
2000097e:	ef89                	bnez	a5,20000998 <sync_ep_buffer+0x2c>
20000980:	01675783          	lhu	a5,22(a4)
20000984:	97aa                	add	a5,a5,a0
20000986:	00f71b23          	sh	a5,22(a4)
2000098a:	01875783          	lhu	a5,24(a4)
2000098e:	00f57463          	bgeu	a0,a5,20000996 <sync_ep_buffer+0x2a>
20000992:	00071a23          	sh	zero,20(a4)
20000996:	8082                	ret
20000998:	4750                	lw	a2,12(a4)
2000099a:	059a                	sll	a1,a1,0x6
2000099c:	4b14                	lw	a3,16(a4)
2000099e:	00b607b3          	add	a5,a2,a1
200009a2:	fff50e13          	add	t3,a0,-1
200009a6:	c93d                	beqz	a0,20000a1c <sync_ep_buffer+0xb0>
200009a8:	4819                	li	a6,6
200009aa:	09c87163          	bgeu	a6,t3,20000a2c <sync_ep_buffer+0xc0>
200009ae:	0585                	add	a1,a1,1
200009b0:	962e                	add	a2,a2,a1
200009b2:	40c68633          	sub	a2,a3,a2
200009b6:	00363613          	sltiu	a2,a2,3
200009ba:	ea2d                	bnez	a2,20000a2c <sync_ep_buffer+0xc0>
200009bc:	00f6e633          	or	a2,a3,a5
200009c0:	8a0d                	and	a2,a2,3
200009c2:	e62d                	bnez	a2,20000a2c <sync_ep_buffer+0xc0>
200009c4:	ffc50893          	add	a7,a0,-4
200009c8:	0028d893          	srl	a7,a7,0x2
200009cc:	0885                	add	a7,a7,1
200009ce:	883e                	mv	a6,a5
200009d0:	85b6                	mv	a1,a3
200009d2:	00082303          	lw	t1,0(a6)
200009d6:	0605                	add	a2,a2,1
200009d8:	0811                	add	a6,a6,4
200009da:	0065a023          	sw	t1,0(a1)
200009de:	0591                	add	a1,a1,4
200009e0:	ff1669e3          	bltu	a2,a7,200009d2 <sync_ep_buffer+0x66>
200009e4:	00289613          	sll	a2,a7,0x2
200009e8:	20f8c7b3          	sh2add	a5,a7,a5
200009ec:	40ce0e33          	sub	t3,t3,a2
200009f0:	20d8c8b3          	sh2add	a7,a7,a3
200009f4:	02c50363          	beq	a0,a2,20000a1a <sync_ep_buffer+0xae>
200009f8:	0007c683          	lbu	a3,0(a5)
200009fc:	00d88023          	sb	a3,0(a7)
20000a00:	000e0d63          	beqz	t3,20000a1a <sync_ep_buffer+0xae>
20000a04:	0017c603          	lbu	a2,1(a5)
20000a08:	4685                	li	a3,1
20000a0a:	00c880a3          	sb	a2,1(a7)
20000a0e:	00de0663          	beq	t3,a3,20000a1a <sync_ep_buffer+0xae>
20000a12:	0027c783          	lbu	a5,2(a5)
20000a16:	00f88123          	sb	a5,2(a7)
20000a1a:	4b14                	lw	a3,16(a4)
20000a1c:	01675783          	lhu	a5,22(a4)
20000a20:	96aa                	add	a3,a3,a0
20000a22:	cb14                	sw	a3,16(a4)
20000a24:	97aa                	add	a5,a5,a0
20000a26:	00f71b23          	sh	a5,22(a4)
20000a2a:	b785                	j	2000098a <sync_ep_buffer+0x1e>
20000a2c:	00a785b3          	add	a1,a5,a0
20000a30:	0007c603          	lbu	a2,0(a5)
20000a34:	0785                	add	a5,a5,1
20000a36:	0685                	add	a3,a3,1
20000a38:	fec68fa3          	sb	a2,-1(a3)
20000a3c:	feb79ae3          	bne	a5,a1,20000a30 <sync_ep_buffer+0xc4>
20000a40:	4b14                	lw	a3,16(a4)
20000a42:	bfe9                	j	20000a1c <sync_ep_buffer+0xb0>

20000a44 <_hw_endpoint_xfer_sync>:
20000a44:	451c                	lw	a5,8(a0)
20000a46:	1141                	add	sp,sp,-16
20000a48:	4581                	li	a1,0
20000a4a:	439c                	lw	a5,0(a5)
20000a4c:	c422                	sw	s0,8(sp)
20000a4e:	c606                	sw	ra,12(sp)
20000a50:	842a                	mv	s0,a0
20000a52:	3f29                	jal	2000096c <sync_ep_buffer>
20000a54:	405c                	lw	a5,4(s0)
20000a56:	439c                	lw	a5,0(a5)
20000a58:	00179713          	sll	a4,a5,0x1
20000a5c:	00075663          	bgez	a4,20000a68 <_hw_endpoint_xfer_sync+0x24>
20000a60:	01845783          	lhu	a5,24(s0)
20000a64:	00a78663          	beq	a5,a0,20000a70 <_hw_endpoint_xfer_sync+0x2c>
20000a68:	40b2                	lw	ra,12(sp)
20000a6a:	4422                	lw	s0,8(sp)
20000a6c:	0141                	add	sp,sp,16
20000a6e:	8082                	ret
20000a70:	8522                	mv	a0,s0
20000a72:	4422                	lw	s0,8(sp)
20000a74:	40b2                	lw	ra,12(sp)
20000a76:	4585                	li	a1,1
20000a78:	0141                	add	sp,sp,16
20000a7a:	bdcd                	j	2000096c <sync_ep_buffer>

20000a7c <e15_is_bulkin_ep>:
20000a7c:	501107b7          	lui	a5,0x50110
20000a80:	43bc                	lw	a5,64(a5)
20000a82:	872a                	mv	a4,a0
20000a84:	8b89                	and	a5,a5,2
20000a86:	e799                	bnez	a5,20000a94 <e15_is_bulkin_ep+0x18>
20000a88:	00254783          	lbu	a5,2(a0)
20000a8c:	4501                	li	a0,0
20000a8e:	839d                	srl	a5,a5,0x7
20000a90:	e781                	bnez	a5,20000a98 <e15_is_bulkin_ep+0x1c>
20000a92:	8082                	ret
20000a94:	4501                	li	a0,0
20000a96:	8082                	ret
20000a98:	01b74503          	lbu	a0,27(a4)
20000a9c:	1579                	add	a0,a0,-2
20000a9e:	00153513          	seqz	a0,a0
20000aa2:	8082                	ret

20000aa4 <e15_is_critical_frame_period>:
20000aa4:	1141                	add	sp,sp,-16
20000aa6:	c606                	sw	ra,12(sp)
20000aa8:	3fd1                	jal	20000a7c <e15_is_bulkin_ep>
20000aaa:	c919                	beqz	a0,20000ac0 <e15_is_critical_frame_period+0x1c>
20000aac:	400b07b7          	lui	a5,0x400b0
20000ab0:	5788                	lw	a0,40(a5)
20000ab2:	86b1a783          	lw	a5,-1941(gp) # 200043e4 <e15_last_sof>
20000ab6:	ce050513          	add	a0,a0,-800
20000aba:	8d1d                	sub	a0,a0,a5
20000abc:	0c753513          	sltiu	a0,a0,199
20000ac0:	40b2                	lw	ra,12(sp)
20000ac2:	0141                	add	sp,sp,16
20000ac4:	8082                	ret

20000ac6 <hw_endpoint_reset_transfer>:
20000ac6:	00050d23          	sb	zero,26(a0)
20000aca:	00052a23          	sw	zero,20(a0)
20000ace:	00052823          	sw	zero,16(a0)
20000ad2:	8082                	ret

20000ad4 <_hw_endpoint_buffer_control_update32>:
20000ad4:	451c                	lw	a5,8(a0)
20000ad6:	c199                	beqz	a1,20000adc <_hw_endpoint_buffer_control_update32+0x8>
20000ad8:	4398                	lw	a4,0(a5)
20000ada:	8df9                	and	a1,a1,a4
20000adc:	c61d                	beqz	a2,20000b0a <_hw_endpoint_buffer_control_update32+0x36>
20000ade:	40067713          	and	a4,a2,1024
20000ae2:	8dd1                	or	a1,a1,a2
20000ae4:	c31d                	beqz	a4,20000b0a <_hw_endpoint_buffer_control_update32+0x36>
20000ae6:	4398                	lw	a4,0(a5)
20000ae8:	40077713          	and	a4,a4,1024
20000aec:	e30d                	bnez	a4,20000b0e <_hw_endpoint_buffer_control_update32+0x3a>
20000aee:	bff5f713          	and	a4,a1,-1025
20000af2:	c398                	sw	a4,0(a5)
20000af4:	50110737          	lui	a4,0x50110
20000af8:	4338                	lw	a4,64(a4)
20000afa:	8b09                	and	a4,a4,2
20000afc:	e719                	bnez	a4,20000b0a <_hw_endpoint_buffer_control_update32+0x36>
20000afe:	47b1                	li	a5,12
20000b00:	ffe78793          	add	a5,a5,-2 # 400afffe <__StackTop+0x2002dffe>
20000b04:	fe07dee3          	bgez	a5,20000b00 <_hw_endpoint_buffer_control_update32+0x2c>
20000b08:	451c                	lw	a5,8(a0)
20000b0a:	c38c                	sw	a1,0(a5)
20000b0c:	8082                	ret
20000b0e:	1141                	add	sp,sp,-16
20000b10:	c606                	sw	ra,12(sp)
20000b12:	00254583          	lbu	a1,2(a0)
20000b16:	10007537          	lui	a0,0x10007
20000b1a:	18850513          	add	a0,a0,392 # 10007188 <__EH_FRAME_BEGIN__+0x1a8>
20000b1e:	effff097          	auipc	ra,0xeffff
20000b22:	792080e7          	jalr	1938(ra) # 100002b0 <panic>
	...

20000b28 <hw_endpoint_start_next_buffer>:
20000b28:	415c                	lw	a5,4(a0)
20000b2a:	1101                	add	sp,sp,-32
20000b2c:	4581                	li	a1,0
20000b2e:	cc22                	sw	s0,24(sp)
20000b30:	ca26                	sw	s1,20(sp)
20000b32:	ce06                	sw	ra,28(sp)
20000b34:	4384                	lw	s1,0(a5)
20000b36:	842a                	mv	s0,a0
20000b38:	3b25                	jal	20000870 <prepare_ep_buffer>
20000b3a:	501107b7          	lui	a5,0x50110
20000b3e:	43bc                	lw	a5,64(a5)
20000b40:	00056613          	or	a2,a0,0
20000b44:	28c61613          	bset	a2,a2,0xc
20000b48:	8b89                	and	a5,a5,2
20000b4a:	c78d                	beqz	a5,20000b74 <hw_endpoint_start_next_buffer+0x4c>
20000b4c:	00244783          	lbu	a5,2(s0)
20000b50:	07f7f793          	and	a5,a5,127
20000b54:	c785                	beqz	a5,20000b7c <hw_endpoint_start_next_buffer+0x54>
20000b56:	49c49493          	bclr	s1,s1,0x1c
20000b5a:	49e49493          	bclr	s1,s1,0x1e
20000b5e:	29d49493          	bset	s1,s1,0x1d
20000b62:	405c                	lw	a5,4(s0)
20000b64:	8522                	mv	a0,s0
20000b66:	4462                	lw	s0,24(sp)
20000b68:	40f2                	lw	ra,28(sp)
20000b6a:	c384                	sw	s1,0(a5)
20000b6c:	44d2                	lw	s1,20(sp)
20000b6e:	4581                	li	a1,0
20000b70:	6105                	add	sp,sp,32
20000b72:	b78d                	j	20000ad4 <_hw_endpoint_buffer_control_update32>
20000b74:	00244783          	lbu	a5,2(s0)
20000b78:	839d                	srl	a5,a5,0x7
20000b7a:	dff1                	beqz	a5,20000b56 <hw_endpoint_start_next_buffer+0x2e>
20000b7c:	01445783          	lhu	a5,20(s0)
20000b80:	dbf9                	beqz	a5,20000b56 <hw_endpoint_start_next_buffer+0x2e>
20000b82:	4585                	li	a1,1
20000b84:	8522                	mv	a0,s0
20000b86:	c632                	sw	a2,12(sp)
20000b88:	31e5                	jal	20000870 <prepare_ep_buffer>
20000b8a:	4632                	lw	a2,12(sp)
20000b8c:	49d49493          	bclr	s1,s1,0x1d
20000b90:	29c49493          	bset	s1,s1,0x1c
20000b94:	8e49                	or	a2,a2,a0
20000b96:	29e49493          	bset	s1,s1,0x1e
20000b9a:	b7e1                	j	20000b62 <hw_endpoint_start_next_buffer+0x3a>

20000b9c <hw_endpoint_xfer_continue>:
20000b9c:	1141                	add	sp,sp,-16
20000b9e:	c226                	sw	s1,4(sp)
20000ba0:	01a54483          	lbu	s1,26(a0)
20000ba4:	c422                	sw	s0,8(sp)
20000ba6:	c606                	sw	ra,12(sp)
20000ba8:	842a                	mv	s0,a0
20000baa:	cc85                	beqz	s1,20000be2 <hw_endpoint_xfer_continue+0x46>
20000bac:	3d61                	jal	20000a44 <_hw_endpoint_xfer_sync>
20000bae:	01445783          	lhu	a5,20(s0)
20000bb2:	e799                	bnez	a5,20000bc0 <hw_endpoint_xfer_continue+0x24>
20000bb4:	40b2                	lw	ra,12(sp)
20000bb6:	4422                	lw	s0,8(sp)
20000bb8:	8526                	mv	a0,s1
20000bba:	4492                	lw	s1,4(sp)
20000bbc:	0141                	add	sp,sp,16
20000bbe:	8082                	ret
20000bc0:	8522                	mv	a0,s0
20000bc2:	35cd                	jal	20000aa4 <e15_is_critical_frame_period>
20000bc4:	c919                	beqz	a0,20000bda <hw_endpoint_xfer_continue+0x3e>
20000bc6:	4785                	li	a5,1
20000bc8:	00f40e23          	sb	a5,28(s0)
20000bcc:	4481                	li	s1,0
20000bce:	40b2                	lw	ra,12(sp)
20000bd0:	4422                	lw	s0,8(sp)
20000bd2:	8526                	mv	a0,s1
20000bd4:	4492                	lw	s1,4(sp)
20000bd6:	0141                	add	sp,sp,16
20000bd8:	8082                	ret
20000bda:	8522                	mv	a0,s0
20000bdc:	37b1                	jal	20000b28 <hw_endpoint_start_next_buffer>
20000bde:	4481                	li	s1,0
20000be0:	b7fd                	j	20000bce <hw_endpoint_xfer_continue+0x32>
20000be2:	00254583          	lbu	a1,2(a0)
20000be6:	10007537          	lui	a0,0x10007
20000bea:	1a850513          	add	a0,a0,424 # 100071a8 <__EH_FRAME_BEGIN__+0x1c8>
20000bee:	effff097          	auipc	ra,0xeffff
20000bf2:	6c2080e7          	jalr	1730(ra) # 100002b0 <panic>

20000bf6 <dcd_event_handler>:
20000bf6:	7179                	add	sp,sp,-48
20000bf8:	d226                	sw	s1,36(sp)
20000bfa:	d04a                	sw	s2,32(sp)
20000bfc:	d606                	sw	ra,44(sp)
20000bfe:	00154783          	lbu	a5,1(a0)
20000c02:	4719                	li	a4,6
20000c04:	84aa                	mv	s1,a0
20000c06:	892e                	mv	s2,a1
20000c08:	28f76463          	bltu	a4,a5,20000e90 <dcd_event_handler+0x29a>
20000c0c:	10007737          	lui	a4,0x10007
20000c10:	62070713          	add	a4,a4,1568 # 10007620 <usbd_desc_device+0xa0>
20000c14:	20e7c7b3          	sh2add	a5,a5,a4
20000c18:	439c                	lw	a5,0(a5)
20000c1a:	8782                	jr	a5
20000c1c:	8871c783          	lbu	a5,-1913(gp) # 20004400 <_usbd_queued_setup>
20000c20:	d422                	sw	s0,40(sp)
20000c22:	0785                	add	a5,a5,1 # 50110001 <__StackTop+0x3008e001>
20000c24:	0ff7f793          	zext.b	a5,a5
20000c28:	88f183a3          	sb	a5,-1913(gp) # 20004400 <_usbd_queued_setup>
20000c2c:	87b1a403          	lw	s0,-1925(gp) # 200043f4 <_usbd_q>
20000c30:	485c                	lw	a5,20(s0)
20000c32:	30047773          	csrrc	a4,mstatus,8
20000c36:	00379693          	sll	a3,a5,0x3
20000c3a:	28d016b3          	bset	a3,zero,a3
20000c3e:	9bf1                	and	a5,a5,-4
20000c40:	44d7a62f          	amoor.w.aq	a2,a3,(a5)
20000c44:	8e75                	and	a2,a2,a3
20000c46:	fe6d                	bnez	a2,20000c40 <dcd_event_handler+0x4a>
20000c48:	0330000f          	fence	rw,rw
20000c4c:	cc18                	sw	a4,24(s0)
20000c4e:	85a6                	mv	a1,s1
20000c50:	8522                	mv	a0,s0
20000c52:	f0006097          	auipc	ra,0xf0006
20000c56:	dcc080e7          	jalr	-564(ra) # 10006a1e <tu_fifo_write>
20000c5a:	4858                	lw	a4,20(s0)
20000c5c:	4c1c                	lw	a5,24(s0)
20000c5e:	0330000f          	fence	rw,rw
20000c62:	00070023          	sb	zero,0(a4)
20000c66:	8ba1                	and	a5,a5,8
20000c68:	3007a073          	csrs	mstatus,a5
20000c6c:	e96d                	bnez	a0,20000d5e <dcd_event_handler+0x168>
20000c6e:	9002                	ebreak
20000c70:	5422                	lw	s0,40(sp)
20000c72:	50b2                	lw	ra,44(sp)
20000c74:	5492                	lw	s1,36(sp)
20000c76:	5902                	lw	s2,32(sp)
20000c78:	6145                	add	sp,sp,48
20000c7a:	8082                	ret
20000c7c:	200047b7          	lui	a5,0x20004
20000c80:	b1878793          	add	a5,a5,-1256 # 20003b18 <_usbd_dev>
20000c84:	0007c703          	lbu	a4,0(a5)
20000c88:	d422                	sw	s0,40(sp)
20000c8a:	9b79                	and	a4,a4,-2
20000c8c:	00e78023          	sb	a4,0(a5)
20000c90:	0007c703          	lbu	a4,0(a5)
20000c94:	9b75                	and	a4,a4,-3
20000c96:	00e78023          	sb	a4,0(a5)
20000c9a:	000780a3          	sb	zero,1(a5)
20000c9e:	0007c703          	lbu	a4,0(a5)
20000ca2:	9b6d                	and	a4,a4,-5
20000ca4:	00e78023          	sb	a4,0(a5)
20000ca8:	b751                	j	20000c2c <dcd_event_handler+0x36>
20000caa:	200047b7          	lui	a5,0x20004
20000cae:	b1878793          	add	a5,a5,-1256 # 20003b18 <_usbd_dev>
20000cb2:	4398                	lw	a4,0(a5)
20000cb4:	8b05                	and	a4,a4,1
20000cb6:	df55                	beqz	a4,20000c72 <dcd_event_handler+0x7c>
20000cb8:	0007c703          	lbu	a4,0(a5)
20000cbc:	d422                	sw	s0,40(sp)
20000cbe:	00476713          	or	a4,a4,4
20000cc2:	00e78023          	sb	a4,0(a5)
20000cc6:	b79d                	j	20000c2c <dcd_event_handler+0x36>
20000cc8:	200047b7          	lui	a5,0x20004
20000ccc:	b1878793          	add	a5,a5,-1256 # 20003b18 <_usbd_dev>
20000cd0:	4398                	lw	a4,0(a5)
20000cd2:	8b05                	and	a4,a4,1
20000cd4:	df59                	beqz	a4,20000c72 <dcd_event_handler+0x7c>
20000cd6:	0007c703          	lbu	a4,0(a5)
20000cda:	d422                	sw	s0,40(sp)
20000cdc:	9b6d                	and	a4,a4,-5
20000cde:	00e78023          	sb	a4,0(a5)
20000ce2:	b7a9                	j	20000c2c <dcd_event_handler+0x36>
20000ce4:	cc52                	sw	s4,24(sp)
20000ce6:	87f1c683          	lbu	a3,-1921(gp) # 200043f8 <_app_driver_count>
20000cea:	ce4e                	sw	s3,28(sp)
20000cec:	100079b7          	lui	s3,0x10007
20000cf0:	d422                	sw	s0,40(sp)
20000cf2:	ca56                	sw	s5,20(sp)
20000cf4:	4401                	li	s0,0
20000cf6:	4781                	li	a5,0
20000cf8:	63c98993          	add	s3,s3,1596 # 1000763c <_usbd_driver>
20000cfc:	04d47d63          	bgeu	s0,a3,20000d56 <dcd_event_handler+0x160>
20000d00:	8831a783          	lw	a5,-1917(gp) # 200043fc <_app_driver>
20000d04:	00541713          	sll	a4,s0,0x5
20000d08:	97ba                	add	a5,a5,a4
20000d0a:	cb89                	beqz	a5,20000d1c <dcd_event_handler+0x126>
20000d0c:	4fdc                	lw	a5,28(a5)
20000d0e:	c799                	beqz	a5,20000d1c <dcd_event_handler+0x126>
20000d10:	40cc                	lw	a1,4(s1)
20000d12:	0004c503          	lbu	a0,0(s1) # 20000 <HeapSize+0x1f800>
20000d16:	9782                	jalr	a5
20000d18:	87f1c683          	lbu	a3,-1921(gp) # 200043f8 <_app_driver_count>
20000d1c:	0405                	add	s0,s0,1
20000d1e:	0ff47413          	zext.b	s0,s0
20000d22:	00168713          	add	a4,a3,1
20000d26:	87a2                	mv	a5,s0
20000d28:	fc875ae3          	bge	a4,s0,20000cfc <dcd_event_handler+0x106>
20000d2c:	20004437          	lui	s0,0x20004
20000d30:	b1840413          	add	s0,s0,-1256 # 20003b18 <_usbd_dev>
20000d34:	401c                	lw	a5,0(s0)
20000d36:	4827d793          	bext	a5,a5,0x2
20000d3a:	e7d5                	bnez	a5,20000de6 <dcd_event_handler+0x1f0>
20000d3c:	00344783          	lbu	a5,3(s0)
20000d40:	8b85                	and	a5,a5,1
20000d42:	ef85                	bnez	a5,20000d7a <dcd_event_handler+0x184>
20000d44:	5422                	lw	s0,40(sp)
20000d46:	50b2                	lw	ra,44(sp)
20000d48:	49f2                	lw	s3,28(sp)
20000d4a:	4a62                	lw	s4,24(sp)
20000d4c:	4ad2                	lw	s5,20(sp)
20000d4e:	5492                	lw	s1,36(sp)
20000d50:	5902                	lw	s2,32(sp)
20000d52:	6145                	add	sp,sp,48
20000d54:	8082                	ret
20000d56:	8f95                	sub	a5,a5,a3
20000d58:	0796                	sll	a5,a5,0x5
20000d5a:	97ce                	add	a5,a5,s3
20000d5c:	bf45                	j	20000d0c <dcd_event_handler+0x116>
20000d5e:	5422                	lw	s0,40(sp)
20000d60:	0014c583          	lbu	a1,1(s1)
20000d64:	0004c503          	lbu	a0,0(s1)
20000d68:	50b2                	lw	ra,44(sp)
20000d6a:	5492                	lw	s1,36(sp)
20000d6c:	864a                	mv	a2,s2
20000d6e:	5902                	lw	s2,32(sp)
20000d70:	6145                	add	sp,sp,48
20000d72:	f0004317          	auipc	t1,0xf0004
20000d76:	d0630067          	jr	-762(t1) # 10004a78 <tud_event_hook_cb>
20000d7a:	0004c703          	lbu	a4,0(s1)
20000d7e:	87b1a403          	lw	s0,-1925(gp) # 200043f4 <_usbd_q>
20000d82:	40dc                	lw	a5,4(s1)
20000d84:	00e10223          	sb	a4,4(sp)
20000d88:	470d                	li	a4,3
20000d8a:	00e102a3          	sb	a4,5(sp)
20000d8e:	c43e                	sw	a5,8(sp)
20000d90:	485c                	lw	a5,20(s0)
20000d92:	00011323          	sh	zero,6(sp)
20000d96:	00011623          	sh	zero,12(sp)
20000d9a:	00011723          	sh	zero,14(sp)
20000d9e:	30047773          	csrrc	a4,mstatus,8
20000da2:	00379693          	sll	a3,a5,0x3
20000da6:	28d016b3          	bset	a3,zero,a3
20000daa:	9bf1                	and	a5,a5,-4
20000dac:	44d7a62f          	amoor.w.aq	a2,a3,(a5)
20000db0:	8e75                	and	a2,a2,a3
20000db2:	fe6d                	bnez	a2,20000dac <dcd_event_handler+0x1b6>
20000db4:	0330000f          	fence	rw,rw
20000db8:	cc18                	sw	a4,24(s0)
20000dba:	004c                	add	a1,sp,4
20000dbc:	8522                	mv	a0,s0
20000dbe:	f0006097          	auipc	ra,0xf0006
20000dc2:	c60080e7          	jalr	-928(ra) # 10006a1e <tu_fifo_write>
20000dc6:	4858                	lw	a4,20(s0)
20000dc8:	4c1c                	lw	a5,24(s0)
20000dca:	0330000f          	fence	rw,rw
20000dce:	00070023          	sb	zero,0(a4)
20000dd2:	8ba1                	and	a5,a5,8
20000dd4:	3007a073          	csrs	mstatus,a5
20000dd8:	e541                	bnez	a0,20000e60 <dcd_event_handler+0x26a>
20000dda:	9002                	ebreak
20000ddc:	5422                	lw	s0,40(sp)
20000dde:	49f2                	lw	s3,28(sp)
20000de0:	4a62                	lw	s4,24(sp)
20000de2:	4ad2                	lw	s5,20(sp)
20000de4:	b579                	j	20000c72 <dcd_event_handler+0x7c>
20000de6:	00044783          	lbu	a5,0(s0)
20000dea:	87b1a983          	lw	s3,-1925(gp) # 200043f4 <_usbd_q>
20000dee:	9bed                	and	a5,a5,-5
20000df0:	00f40023          	sb	a5,0(s0)
20000df4:	0004c783          	lbu	a5,0(s1)
20000df8:	4715                	li	a4,5
20000dfa:	00e102a3          	sb	a4,5(sp)
20000dfe:	00f10223          	sb	a5,4(sp)
20000e02:	0149a783          	lw	a5,20(s3)
20000e06:	00011323          	sh	zero,6(sp)
20000e0a:	00011423          	sh	zero,8(sp)
20000e0e:	00011523          	sh	zero,10(sp)
20000e12:	00011623          	sh	zero,12(sp)
20000e16:	00011723          	sh	zero,14(sp)
20000e1a:	30047773          	csrrc	a4,mstatus,8
20000e1e:	00379693          	sll	a3,a5,0x3
20000e22:	28d016b3          	bset	a3,zero,a3
20000e26:	9bf1                	and	a5,a5,-4
20000e28:	44d7a62f          	amoor.w.aq	a2,a3,(a5)
20000e2c:	8e75                	and	a2,a2,a3
20000e2e:	fe6d                	bnez	a2,20000e28 <dcd_event_handler+0x232>
20000e30:	0330000f          	fence	rw,rw
20000e34:	00e9ac23          	sw	a4,24(s3)
20000e38:	004c                	add	a1,sp,4
20000e3a:	854e                	mv	a0,s3
20000e3c:	f0006097          	auipc	ra,0xf0006
20000e40:	be2080e7          	jalr	-1054(ra) # 10006a1e <tu_fifo_write>
20000e44:	0149a703          	lw	a4,20(s3)
20000e48:	0189a783          	lw	a5,24(s3)
20000e4c:	0330000f          	fence	rw,rw
20000e50:	00070023          	sb	zero,0(a4)
20000e54:	8ba1                	and	a5,a5,8
20000e56:	3007a073          	csrs	mstatus,a5
20000e5a:	e10d                	bnez	a0,20000e7c <dcd_event_handler+0x286>
20000e5c:	9002                	ebreak
20000e5e:	bdf9                	j	20000d3c <dcd_event_handler+0x146>
20000e60:	00514583          	lbu	a1,5(sp)
20000e64:	00414503          	lbu	a0,4(sp)
20000e68:	864a                	mv	a2,s2
20000e6a:	f0004097          	auipc	ra,0xf0004
20000e6e:	c0e080e7          	jalr	-1010(ra) # 10004a78 <tud_event_hook_cb>
20000e72:	5422                	lw	s0,40(sp)
20000e74:	49f2                	lw	s3,28(sp)
20000e76:	4a62                	lw	s4,24(sp)
20000e78:	4ad2                	lw	s5,20(sp)
20000e7a:	bbe5                	j	20000c72 <dcd_event_handler+0x7c>
20000e7c:	00514583          	lbu	a1,5(sp)
20000e80:	00414503          	lbu	a0,4(sp)
20000e84:	864a                	mv	a2,s2
20000e86:	f0004097          	auipc	ra,0xf0004
20000e8a:	bf2080e7          	jalr	-1038(ra) # 10004a78 <tud_event_hook_cb>
20000e8e:	b57d                	j	20000d3c <dcd_event_handler+0x146>
20000e90:	d422                	sw	s0,40(sp)
20000e92:	bb69                	j	20000c2c <dcd_event_handler+0x36>

20000e94 <__udivdi3>:
20000e94:	8832                	mv	a6,a2
20000e96:	88aa                	mv	a7,a0
20000e98:	872e                	mv	a4,a1
20000e9a:	ead5                	bnez	a3,20000f4e <__udivdi3+0xba>
20000e9c:	0ec5ff63          	bgeu	a1,a2,20000f9a <__udivdi3+0x106>
20000ea0:	67c1                	lui	a5,0x10
20000ea2:	18f66c63          	bltu	a2,a5,2000103a <__udivdi3+0x1a6>
20000ea6:	010007b7          	lui	a5,0x1000
20000eaa:	46e1                	li	a3,24
20000eac:	00f67363          	bgeu	a2,a5,20000eb2 <__udivdi3+0x1e>
20000eb0:	46c1                	li	a3,16
20000eb2:	200037b7          	lui	a5,0x20003
20000eb6:	00d65333          	srl	t1,a2,a3
20000eba:	2dc78793          	add	a5,a5,732 # 200032dc <__clz_tab>
20000ebe:	979a                	add	a5,a5,t1
20000ec0:	0007c783          	lbu	a5,0(a5)
20000ec4:	02000313          	li	t1,32
20000ec8:	97b6                	add	a5,a5,a3
20000eca:	40f306b3          	sub	a3,t1,a5
20000ece:	00f30b63          	beq	t1,a5,20000ee4 <__udivdi3+0x50>
20000ed2:	00d59733          	sll	a4,a1,a3
20000ed6:	00f557b3          	srl	a5,a0,a5
20000eda:	00d61833          	sll	a6,a2,a3
20000ede:	8f5d                	or	a4,a4,a5
20000ee0:	00d518b3          	sll	a7,a0,a3
20000ee4:	01085613          	srl	a2,a6,0x10
20000ee8:	02c75533          	divu	a0,a4,a2
20000eec:	01081693          	sll	a3,a6,0x10
20000ef0:	82c1                	srl	a3,a3,0x10
20000ef2:	0108d793          	srl	a5,a7,0x10
20000ef6:	02c77733          	remu	a4,a4,a2
20000efa:	02a685b3          	mul	a1,a3,a0
20000efe:	0742                	sll	a4,a4,0x10
20000f00:	8fd9                	or	a5,a5,a4
20000f02:	00b7fa63          	bgeu	a5,a1,20000f16 <__udivdi3+0x82>
20000f06:	97c2                	add	a5,a5,a6
20000f08:	fff50713          	add	a4,a0,-1
20000f0c:	0107e463          	bltu	a5,a6,20000f14 <__udivdi3+0x80>
20000f10:	30b7e063          	bltu	a5,a1,20001210 <__udivdi3+0x37c>
20000f14:	853a                	mv	a0,a4
20000f16:	8f8d                	sub	a5,a5,a1
20000f18:	02c7d733          	divu	a4,a5,a2
20000f1c:	08c2                	sll	a7,a7,0x10
20000f1e:	0108d893          	srl	a7,a7,0x10
20000f22:	02c7f7b3          	remu	a5,a5,a2
20000f26:	02e686b3          	mul	a3,a3,a4
20000f2a:	07c2                	sll	a5,a5,0x10
20000f2c:	00f8e8b3          	or	a7,a7,a5
20000f30:	00d8fb63          	bgeu	a7,a3,20000f46 <__udivdi3+0xb2>
20000f34:	98c2                	add	a7,a7,a6
20000f36:	fff70793          	add	a5,a4,-1
20000f3a:	0108e563          	bltu	a7,a6,20000f44 <__udivdi3+0xb0>
20000f3e:	1779                	add	a4,a4,-2
20000f40:	00d8e363          	bltu	a7,a3,20000f46 <__udivdi3+0xb2>
20000f44:	873e                	mv	a4,a5
20000f46:	0542                	sll	a0,a0,0x10
20000f48:	8d59                	or	a0,a0,a4
20000f4a:	4581                	li	a1,0
20000f4c:	8082                	ret
20000f4e:	00d5f563          	bgeu	a1,a3,20000f58 <__udivdi3+0xc4>
20000f52:	4581                	li	a1,0
20000f54:	4501                	li	a0,0
20000f56:	8082                	ret
20000f58:	67c1                	lui	a5,0x10
20000f5a:	18f6e863          	bltu	a3,a5,200010ea <__udivdi3+0x256>
20000f5e:	010007b7          	lui	a5,0x1000
20000f62:	4861                	li	a6,24
20000f64:	00f6f363          	bgeu	a3,a5,20000f6a <__udivdi3+0xd6>
20000f68:	4841                	li	a6,16
20000f6a:	200037b7          	lui	a5,0x20003
20000f6e:	0106d733          	srl	a4,a3,a6
20000f72:	2dc78793          	add	a5,a5,732 # 200032dc <__clz_tab>
20000f76:	97ba                	add	a5,a5,a4
20000f78:	0007c703          	lbu	a4,0(a5)
20000f7c:	02000793          	li	a5,32
20000f80:	9742                	add	a4,a4,a6
20000f82:	40e78833          	sub	a6,a5,a4
20000f86:	16e79863          	bne	a5,a4,200010f6 <__udivdi3+0x262>
20000f8a:	26b6e563          	bltu	a3,a1,200011f4 <__udivdi3+0x360>
20000f8e:	00c53533          	sltu	a0,a0,a2
20000f92:	00153513          	seqz	a0,a0
20000f96:	4581                	li	a1,0
20000f98:	8082                	ret
20000f9a:	c655                	beqz	a2,20001046 <__udivdi3+0x1b2>
20000f9c:	67c1                	lui	a5,0x10
20000f9e:	24f67363          	bgeu	a2,a5,200011e4 <__udivdi3+0x350>
20000fa2:	10063713          	sltiu	a4,a2,256
20000fa6:	00173713          	seqz	a4,a4
20000faa:	070e                	sll	a4,a4,0x3
20000fac:	00e656b3          	srl	a3,a2,a4
20000fb0:	200037b7          	lui	a5,0x20003
20000fb4:	2dc78793          	add	a5,a5,732 # 200032dc <__clz_tab>
20000fb8:	97b6                	add	a5,a5,a3
20000fba:	0007c783          	lbu	a5,0(a5)
20000fbe:	02000693          	li	a3,32
20000fc2:	97ba                	add	a5,a5,a4
20000fc4:	40f68eb3          	sub	t4,a3,a5
20000fc8:	08f69f63          	bne	a3,a5,20001066 <__udivdi3+0x1d2>
20000fcc:	40c587b3          	sub	a5,a1,a2
20000fd0:	01065693          	srl	a3,a2,0x10
20000fd4:	0642                	sll	a2,a2,0x10
20000fd6:	8241                	srl	a2,a2,0x10
20000fd8:	4585                	li	a1,1
20000fda:	02d7d533          	divu	a0,a5,a3
20000fde:	0108d713          	srl	a4,a7,0x10
20000fe2:	02d7f7b3          	remu	a5,a5,a3
20000fe6:	02c50333          	mul	t1,a0,a2
20000fea:	07c2                	sll	a5,a5,0x10
20000fec:	8fd9                	or	a5,a5,a4
20000fee:	0067fa63          	bgeu	a5,t1,20001002 <__udivdi3+0x16e>
20000ff2:	97c2                	add	a5,a5,a6
20000ff4:	fff50713          	add	a4,a0,-1
20000ff8:	0107e463          	bltu	a5,a6,20001000 <__udivdi3+0x16c>
20000ffc:	2067e763          	bltu	a5,t1,2000120a <__udivdi3+0x376>
20001000:	853a                	mv	a0,a4
20001002:	406787b3          	sub	a5,a5,t1
20001006:	02d7d733          	divu	a4,a5,a3
2000100a:	08c2                	sll	a7,a7,0x10
2000100c:	0108d893          	srl	a7,a7,0x10
20001010:	02d7f7b3          	remu	a5,a5,a3
20001014:	02c70633          	mul	a2,a4,a2
20001018:	07c2                	sll	a5,a5,0x10
2000101a:	00f8e8b3          	or	a7,a7,a5
2000101e:	00c8fb63          	bgeu	a7,a2,20001034 <__udivdi3+0x1a0>
20001022:	98c2                	add	a7,a7,a6
20001024:	fff70793          	add	a5,a4,-1
20001028:	0108e563          	bltu	a7,a6,20001032 <__udivdi3+0x19e>
2000102c:	1779                	add	a4,a4,-2
2000102e:	00c8e363          	bltu	a7,a2,20001034 <__udivdi3+0x1a0>
20001032:	873e                	mv	a4,a5
20001034:	0542                	sll	a0,a0,0x10
20001036:	8d59                	or	a0,a0,a4
20001038:	8082                	ret
2000103a:	10063693          	sltiu	a3,a2,256
2000103e:	0016b693          	seqz	a3,a3
20001042:	068e                	sll	a3,a3,0x3
20001044:	b5bd                	j	20000eb2 <__udivdi3+0x1e>
20001046:	200037b7          	lui	a5,0x20003
2000104a:	4681                	li	a3,0
2000104c:	2dc78793          	add	a5,a5,732 # 200032dc <__clz_tab>
20001050:	97b6                	add	a5,a5,a3
20001052:	0007c783          	lbu	a5,0(a5)
20001056:	4701                	li	a4,0
20001058:	02000693          	li	a3,32
2000105c:	97ba                	add	a5,a5,a4
2000105e:	40f68eb3          	sub	t4,a3,a5
20001062:	f6f685e3          	beq	a3,a5,20000fcc <__udivdi3+0x138>
20001066:	01d61833          	sll	a6,a2,t4
2000106a:	00f5d333          	srl	t1,a1,a5
2000106e:	01085693          	srl	a3,a6,0x10
20001072:	02d35e33          	divu	t3,t1,a3
20001076:	01081613          	sll	a2,a6,0x10
2000107a:	01d595b3          	sll	a1,a1,t4
2000107e:	8241                	srl	a2,a2,0x10
20001080:	00f557b3          	srl	a5,a0,a5
20001084:	8fcd                	or	a5,a5,a1
20001086:	0107d713          	srl	a4,a5,0x10
2000108a:	01d518b3          	sll	a7,a0,t4
2000108e:	02d37333          	remu	t1,t1,a3
20001092:	03c605b3          	mul	a1,a2,t3
20001096:	0342                	sll	t1,t1,0x10
20001098:	00676733          	or	a4,a4,t1
2000109c:	00b77b63          	bgeu	a4,a1,200010b2 <__udivdi3+0x21e>
200010a0:	9742                	add	a4,a4,a6
200010a2:	fffe0513          	add	a0,t3,-1
200010a6:	15076e63          	bltu	a4,a6,20001202 <__udivdi3+0x36e>
200010aa:	14b77c63          	bgeu	a4,a1,20001202 <__udivdi3+0x36e>
200010ae:	1e79                	add	t3,t3,-2
200010b0:	9742                	add	a4,a4,a6
200010b2:	8f0d                	sub	a4,a4,a1
200010b4:	02d75533          	divu	a0,a4,a3
200010b8:	07c2                	sll	a5,a5,0x10
200010ba:	83c1                	srl	a5,a5,0x10
200010bc:	02d77733          	remu	a4,a4,a3
200010c0:	02a60333          	mul	t1,a2,a0
200010c4:	0742                	sll	a4,a4,0x10
200010c6:	8fd9                	or	a5,a5,a4
200010c8:	0067fb63          	bgeu	a5,t1,200010de <__udivdi3+0x24a>
200010cc:	97c2                	add	a5,a5,a6
200010ce:	fff50713          	add	a4,a0,-1
200010d2:	1307e463          	bltu	a5,a6,200011fa <__udivdi3+0x366>
200010d6:	1267f263          	bgeu	a5,t1,200011fa <__udivdi3+0x366>
200010da:	1579                	add	a0,a0,-2
200010dc:	97c2                	add	a5,a5,a6
200010de:	010e1593          	sll	a1,t3,0x10
200010e2:	406787b3          	sub	a5,a5,t1
200010e6:	8dc9                	or	a1,a1,a0
200010e8:	bdcd                	j	20000fda <__udivdi3+0x146>
200010ea:	1006b813          	sltiu	a6,a3,256
200010ee:	00183813          	seqz	a6,a6
200010f2:	080e                	sll	a6,a6,0x3
200010f4:	bd9d                	j	20000f6a <__udivdi3+0xd6>
200010f6:	00e65e33          	srl	t3,a2,a4
200010fa:	010696b3          	sll	a3,a3,a6
200010fe:	00de6e33          	or	t3,t3,a3
20001102:	00e5d8b3          	srl	a7,a1,a4
20001106:	010e5e93          	srl	t4,t3,0x10
2000110a:	03d8d7b3          	divu	a5,a7,t4
2000110e:	010e1313          	sll	t1,t3,0x10
20001112:	010595b3          	sll	a1,a1,a6
20001116:	01035313          	srl	t1,t1,0x10
2000111a:	00e55733          	srl	a4,a0,a4
2000111e:	8f4d                	or	a4,a4,a1
20001120:	01075693          	srl	a3,a4,0x10
20001124:	01061633          	sll	a2,a2,a6
20001128:	03d8f8b3          	remu	a7,a7,t4
2000112c:	02f305b3          	mul	a1,t1,a5
20001130:	08c2                	sll	a7,a7,0x10
20001132:	0116e6b3          	or	a3,a3,a7
20001136:	00b6fb63          	bgeu	a3,a1,2000114c <__udivdi3+0x2b8>
2000113a:	96f2                	add	a3,a3,t3
2000113c:	fff78893          	add	a7,a5,-1
20001140:	0dc6e363          	bltu	a3,t3,20001206 <__udivdi3+0x372>
20001144:	0cb6f163          	bgeu	a3,a1,20001206 <__udivdi3+0x372>
20001148:	17f9                	add	a5,a5,-2
2000114a:	96f2                	add	a3,a3,t3
2000114c:	8e8d                	sub	a3,a3,a1
2000114e:	03d6d5b3          	divu	a1,a3,t4
20001152:	0742                	sll	a4,a4,0x10
20001154:	8341                	srl	a4,a4,0x10
20001156:	03d6f6b3          	remu	a3,a3,t4
2000115a:	02b308b3          	mul	a7,t1,a1
2000115e:	06c2                	sll	a3,a3,0x10
20001160:	8f55                	or	a4,a4,a3
20001162:	01177b63          	bgeu	a4,a7,20001178 <__udivdi3+0x2e4>
20001166:	9772                	add	a4,a4,t3
20001168:	fff58693          	add	a3,a1,-1
2000116c:	09c76963          	bltu	a4,t3,200011fe <__udivdi3+0x36a>
20001170:	09177763          	bgeu	a4,a7,200011fe <__udivdi3+0x36a>
20001174:	15f9                	add	a1,a1,-2
20001176:	9772                	add	a4,a4,t3
20001178:	07c2                	sll	a5,a5,0x10
2000117a:	6ec1                	lui	t4,0x10
2000117c:	8fcd                	or	a5,a5,a1
2000117e:	fffe8693          	add	a3,t4,-1 # ffff <HeapSize+0xf7ff>
20001182:	00d7f5b3          	and	a1,a5,a3
20001186:	0107d313          	srl	t1,a5,0x10
2000118a:	8ef1                	and	a3,a3,a2
2000118c:	8241                	srl	a2,a2,0x10
2000118e:	02d58e33          	mul	t3,a1,a3
20001192:	41170733          	sub	a4,a4,a7
20001196:	02d306b3          	mul	a3,t1,a3
2000119a:	010e5893          	srl	a7,t3,0x10
2000119e:	02c585b3          	mul	a1,a1,a2
200011a2:	95b6                	add	a1,a1,a3
200011a4:	95c6                	add	a1,a1,a7
200011a6:	02c30333          	mul	t1,t1,a2
200011aa:	00d5f363          	bgeu	a1,a3,200011b0 <__udivdi3+0x31c>
200011ae:	9376                	add	t1,t1,t4
200011b0:	0105d693          	srl	a3,a1,0x10
200011b4:	969a                	add	a3,a3,t1
200011b6:	02d76363          	bltu	a4,a3,200011dc <__udivdi3+0x348>
200011ba:	00d70563          	beq	a4,a3,200011c4 <__udivdi3+0x330>
200011be:	853e                	mv	a0,a5
200011c0:	4581                	li	a1,0
200011c2:	8082                	ret
200011c4:	66c1                	lui	a3,0x10
200011c6:	16fd                	add	a3,a3,-1 # ffff <HeapSize+0xf7ff>
200011c8:	00d5f733          	and	a4,a1,a3
200011cc:	0742                	sll	a4,a4,0x10
200011ce:	00de7e33          	and	t3,t3,a3
200011d2:	01051533          	sll	a0,a0,a6
200011d6:	9772                	add	a4,a4,t3
200011d8:	fee573e3          	bgeu	a0,a4,200011be <__udivdi3+0x32a>
200011dc:	fff78513          	add	a0,a5,-1
200011e0:	4581                	li	a1,0
200011e2:	8082                	ret
200011e4:	010007b7          	lui	a5,0x1000
200011e8:	02f67763          	bgeu	a2,a5,20001216 <__udivdi3+0x382>
200011ec:	01065693          	srl	a3,a2,0x10
200011f0:	4741                	li	a4,16
200011f2:	bb7d                	j	20000fb0 <__udivdi3+0x11c>
200011f4:	4581                	li	a1,0
200011f6:	4505                	li	a0,1
200011f8:	8082                	ret
200011fa:	853a                	mv	a0,a4
200011fc:	b5cd                	j	200010de <__udivdi3+0x24a>
200011fe:	85b6                	mv	a1,a3
20001200:	bfa5                	j	20001178 <__udivdi3+0x2e4>
20001202:	8e2a                	mv	t3,a0
20001204:	b57d                	j	200010b2 <__udivdi3+0x21e>
20001206:	87c6                	mv	a5,a7
20001208:	b791                	j	2000114c <__udivdi3+0x2b8>
2000120a:	1579                	add	a0,a0,-2
2000120c:	97c2                	add	a5,a5,a6
2000120e:	bbd5                	j	20001002 <__udivdi3+0x16e>
20001210:	1579                	add	a0,a0,-2
20001212:	97c2                	add	a5,a5,a6
20001214:	b309                	j	20000f16 <__udivdi3+0x82>
20001216:	01865693          	srl	a3,a2,0x18
2000121a:	4761                	li	a4,24
2000121c:	bb51                	j	20000fb0 <__udivdi3+0x11c>

2000121e <__umoddi3>:
2000121e:	8832                	mv	a6,a2
20001220:	88aa                	mv	a7,a0
20001222:	832e                	mv	t1,a1
20001224:	872e                	mv	a4,a1
20001226:	e6cd                	bnez	a3,200012d0 <__umoddi3+0xb2>
20001228:	0ec5ff63          	bgeu	a1,a2,20001326 <__umoddi3+0x108>
2000122c:	67c1                	lui	a5,0x10
2000122e:	18f66263          	bltu	a2,a5,200013b2 <__umoddi3+0x194>
20001232:	010007b7          	lui	a5,0x1000
20001236:	46e1                	li	a3,24
20001238:	00f67363          	bgeu	a2,a5,2000123e <__umoddi3+0x20>
2000123c:	46c1                	li	a3,16
2000123e:	200037b7          	lui	a5,0x20003
20001242:	00d65333          	srl	t1,a2,a3
20001246:	2dc78793          	add	a5,a5,732 # 200032dc <__clz_tab>
2000124a:	979a                	add	a5,a5,t1
2000124c:	0007c783          	lbu	a5,0(a5)
20001250:	02000313          	li	t1,32
20001254:	97b6                	add	a5,a5,a3
20001256:	40f306b3          	sub	a3,t1,a5
2000125a:	00f30b63          	beq	t1,a5,20001270 <__umoddi3+0x52>
2000125e:	00d59733          	sll	a4,a1,a3
20001262:	00f557b3          	srl	a5,a0,a5
20001266:	00d61833          	sll	a6,a2,a3
2000126a:	8f5d                	or	a4,a4,a5
2000126c:	00d518b3          	sll	a7,a0,a3
20001270:	01085593          	srl	a1,a6,0x10
20001274:	02b75633          	divu	a2,a4,a1
20001278:	01081313          	sll	t1,a6,0x10
2000127c:	01035313          	srl	t1,t1,0x10
20001280:	0108d793          	srl	a5,a7,0x10
20001284:	02b77733          	remu	a4,a4,a1
20001288:	02660633          	mul	a2,a2,t1
2000128c:	0742                	sll	a4,a4,0x10
2000128e:	8fd9                	or	a5,a5,a4
20001290:	00c7f763          	bgeu	a5,a2,2000129e <__umoddi3+0x80>
20001294:	97c2                	add	a5,a5,a6
20001296:	0107e463          	bltu	a5,a6,2000129e <__umoddi3+0x80>
2000129a:	2ec7e663          	bltu	a5,a2,20001586 <__umoddi3+0x368>
2000129e:	8f91                	sub	a5,a5,a2
200012a0:	02b7d733          	divu	a4,a5,a1
200012a4:	01089513          	sll	a0,a7,0x10
200012a8:	8141                	srl	a0,a0,0x10
200012aa:	02b7f7b3          	remu	a5,a5,a1
200012ae:	02670733          	mul	a4,a4,t1
200012b2:	07c2                	sll	a5,a5,0x10
200012b4:	8d5d                	or	a0,a0,a5
200012b6:	00e57863          	bgeu	a0,a4,200012c6 <__umoddi3+0xa8>
200012ba:	9542                	add	a0,a0,a6
200012bc:	01056563          	bltu	a0,a6,200012c6 <__umoddi3+0xa8>
200012c0:	00e57363          	bgeu	a0,a4,200012c6 <__umoddi3+0xa8>
200012c4:	9542                	add	a0,a0,a6
200012c6:	8d19                	sub	a0,a0,a4
200012c8:	00d55533          	srl	a0,a0,a3
200012cc:	4581                	li	a1,0
200012ce:	8082                	ret
200012d0:	00d5f363          	bgeu	a1,a3,200012d6 <__umoddi3+0xb8>
200012d4:	8082                	ret
200012d6:	67c1                	lui	a5,0x10
200012d8:	16f6eb63          	bltu	a3,a5,2000144e <__umoddi3+0x230>
200012dc:	010007b7          	lui	a5,0x1000
200012e0:	4861                	li	a6,24
200012e2:	00f6f363          	bgeu	a3,a5,200012e8 <__umoddi3+0xca>
200012e6:	4841                	li	a6,16
200012e8:	200037b7          	lui	a5,0x20003
200012ec:	0106d733          	srl	a4,a3,a6
200012f0:	2dc78793          	add	a5,a5,732 # 200032dc <__clz_tab>
200012f4:	97ba                	add	a5,a5,a4
200012f6:	0007c703          	lbu	a4,0(a5)
200012fa:	02000793          	li	a5,32
200012fe:	9742                	add	a4,a4,a6
20001300:	40e78833          	sub	a6,a5,a4
20001304:	14e79b63          	bne	a5,a4,2000145a <__umoddi3+0x23c>
20001308:	00b6e463          	bltu	a3,a1,20001310 <__umoddi3+0xf2>
2000130c:	00c56a63          	bltu	a0,a2,20001320 <__umoddi3+0x102>
20001310:	40c508b3          	sub	a7,a0,a2
20001314:	40d586b3          	sub	a3,a1,a3
20001318:	01153333          	sltu	t1,a0,a7
2000131c:	40668333          	sub	t1,a3,t1
20001320:	8546                	mv	a0,a7
20001322:	859a                	mv	a1,t1
20001324:	8082                	ret
20001326:	ce41                	beqz	a2,200013be <__umoddi3+0x1a0>
20001328:	67c1                	lui	a5,0x10
2000132a:	24f67263          	bgeu	a2,a5,2000156e <__umoddi3+0x350>
2000132e:	10063713          	sltiu	a4,a2,256
20001332:	00173713          	seqz	a4,a4
20001336:	070e                	sll	a4,a4,0x3
20001338:	00e656b3          	srl	a3,a2,a4
2000133c:	200037b7          	lui	a5,0x20003
20001340:	2dc78793          	add	a5,a5,732 # 200032dc <__clz_tab>
20001344:	97b6                	add	a5,a5,a3
20001346:	0007c783          	lbu	a5,0(a5)
2000134a:	02000313          	li	t1,32
2000134e:	97ba                	add	a5,a5,a4
20001350:	40f306b3          	sub	a3,t1,a5
20001354:	08f31563          	bne	t1,a5,200013de <__umoddi3+0x1c0>
20001358:	40c58733          	sub	a4,a1,a2
2000135c:	01065313          	srl	t1,a2,0x10
20001360:	0642                	sll	a2,a2,0x10
20001362:	8241                	srl	a2,a2,0x10
20001364:	026755b3          	divu	a1,a4,t1
20001368:	0108d793          	srl	a5,a7,0x10
2000136c:	02677733          	remu	a4,a4,t1
20001370:	02c585b3          	mul	a1,a1,a2
20001374:	0742                	sll	a4,a4,0x10
20001376:	8fd9                	or	a5,a5,a4
20001378:	00b7f863          	bgeu	a5,a1,20001388 <__umoddi3+0x16a>
2000137c:	97c2                	add	a5,a5,a6
2000137e:	0107e563          	bltu	a5,a6,20001388 <__umoddi3+0x16a>
20001382:	00b7f363          	bgeu	a5,a1,20001388 <__umoddi3+0x16a>
20001386:	97c2                	add	a5,a5,a6
20001388:	8f8d                	sub	a5,a5,a1
2000138a:	0267d733          	divu	a4,a5,t1
2000138e:	08c2                	sll	a7,a7,0x10
20001390:	0108d893          	srl	a7,a7,0x10
20001394:	0267f7b3          	remu	a5,a5,t1
20001398:	02c70733          	mul	a4,a4,a2
2000139c:	01079513          	sll	a0,a5,0x10
200013a0:	00a8e533          	or	a0,a7,a0
200013a4:	f0e56be3          	bltu	a0,a4,200012ba <__umoddi3+0x9c>
200013a8:	8d19                	sub	a0,a0,a4
200013aa:	00d55533          	srl	a0,a0,a3
200013ae:	4581                	li	a1,0
200013b0:	8082                	ret
200013b2:	10063693          	sltiu	a3,a2,256
200013b6:	0016b693          	seqz	a3,a3
200013ba:	068e                	sll	a3,a3,0x3
200013bc:	b549                	j	2000123e <__umoddi3+0x20>
200013be:	200037b7          	lui	a5,0x20003
200013c2:	4681                	li	a3,0
200013c4:	2dc78793          	add	a5,a5,732 # 200032dc <__clz_tab>
200013c8:	97b6                	add	a5,a5,a3
200013ca:	0007c783          	lbu	a5,0(a5)
200013ce:	4701                	li	a4,0
200013d0:	02000313          	li	t1,32
200013d4:	97ba                	add	a5,a5,a4
200013d6:	40f306b3          	sub	a3,t1,a5
200013da:	f6f30fe3          	beq	t1,a5,20001358 <__umoddi3+0x13a>
200013de:	00d61833          	sll	a6,a2,a3
200013e2:	00f5de33          	srl	t3,a1,a5
200013e6:	01085313          	srl	t1,a6,0x10
200013ea:	026e5eb3          	divu	t4,t3,t1
200013ee:	01081613          	sll	a2,a6,0x10
200013f2:	00d595b3          	sll	a1,a1,a3
200013f6:	00f55733          	srl	a4,a0,a5
200013fa:	8241                	srl	a2,a2,0x10
200013fc:	8f4d                	or	a4,a4,a1
200013fe:	01075793          	srl	a5,a4,0x10
20001402:	00d518b3          	sll	a7,a0,a3
20001406:	026e7e33          	remu	t3,t3,t1
2000140a:	02ce85b3          	mul	a1,t4,a2
2000140e:	0e42                	sll	t3,t3,0x10
20001410:	01c7e7b3          	or	a5,a5,t3
20001414:	00b7f863          	bgeu	a5,a1,20001424 <__umoddi3+0x206>
20001418:	97c2                	add	a5,a5,a6
2000141a:	0107e563          	bltu	a5,a6,20001424 <__umoddi3+0x206>
2000141e:	00b7f363          	bgeu	a5,a1,20001424 <__umoddi3+0x206>
20001422:	97c2                	add	a5,a5,a6
20001424:	8f8d                	sub	a5,a5,a1
20001426:	0267d5b3          	divu	a1,a5,t1
2000142a:	0742                	sll	a4,a4,0x10
2000142c:	8341                	srl	a4,a4,0x10
2000142e:	0267f7b3          	remu	a5,a5,t1
20001432:	02c585b3          	mul	a1,a1,a2
20001436:	07c2                	sll	a5,a5,0x10
20001438:	8f5d                	or	a4,a4,a5
2000143a:	00b77863          	bgeu	a4,a1,2000144a <__umoddi3+0x22c>
2000143e:	9742                	add	a4,a4,a6
20001440:	01076563          	bltu	a4,a6,2000144a <__umoddi3+0x22c>
20001444:	00b77363          	bgeu	a4,a1,2000144a <__umoddi3+0x22c>
20001448:	9742                	add	a4,a4,a6
2000144a:	8f0d                	sub	a4,a4,a1
2000144c:	bf21                	j	20001364 <__umoddi3+0x146>
2000144e:	1006b813          	sltiu	a6,a3,256
20001452:	00183813          	seqz	a6,a6
20001456:	080e                	sll	a6,a6,0x3
20001458:	bd41                	j	200012e8 <__umoddi3+0xca>
2000145a:	010696b3          	sll	a3,a3,a6
2000145e:	00e658b3          	srl	a7,a2,a4
20001462:	00d8e8b3          	or	a7,a7,a3
20001466:	00e5de33          	srl	t3,a1,a4
2000146a:	0108df13          	srl	t5,a7,0x10
2000146e:	03ee57b3          	divu	a5,t3,t5
20001472:	01089e93          	sll	t4,a7,0x10
20001476:	010ede93          	srl	t4,t4,0x10
2000147a:	00e556b3          	srl	a3,a0,a4
2000147e:	01051333          	sll	t1,a0,a6
20001482:	010595b3          	sll	a1,a1,a6
20001486:	8dd5                	or	a1,a1,a3
20001488:	0105d693          	srl	a3,a1,0x10
2000148c:	01061633          	sll	a2,a2,a6
20001490:	03ee7e33          	remu	t3,t3,t5
20001494:	02fe8533          	mul	a0,t4,a5
20001498:	0e42                	sll	t3,t3,0x10
2000149a:	01c6e6b3          	or	a3,a3,t3
2000149e:	00a6fb63          	bgeu	a3,a0,200014b4 <__umoddi3+0x296>
200014a2:	96c6                	add	a3,a3,a7
200014a4:	fff78e13          	add	t3,a5,-1
200014a8:	0d16ed63          	bltu	a3,a7,20001582 <__umoddi3+0x364>
200014ac:	0ca6fb63          	bgeu	a3,a0,20001582 <__umoddi3+0x364>
200014b0:	17f9                	add	a5,a5,-2
200014b2:	96c6                	add	a3,a3,a7
200014b4:	8e89                	sub	a3,a3,a0
200014b6:	03e6d533          	divu	a0,a3,t5
200014ba:	05c2                	sll	a1,a1,0x10
200014bc:	81c1                	srl	a1,a1,0x10
200014be:	03e6f6b3          	remu	a3,a3,t5
200014c2:	02ae8eb3          	mul	t4,t4,a0
200014c6:	06c2                	sll	a3,a3,0x10
200014c8:	8dd5                	or	a1,a1,a3
200014ca:	01d5fb63          	bgeu	a1,t4,200014e0 <__umoddi3+0x2c2>
200014ce:	95c6                	add	a1,a1,a7
200014d0:	fff50693          	add	a3,a0,-1
200014d4:	0b15e563          	bltu	a1,a7,2000157e <__umoddi3+0x360>
200014d8:	0bd5f363          	bgeu	a1,t4,2000157e <__umoddi3+0x360>
200014dc:	1579                	add	a0,a0,-2
200014de:	95c6                	add	a1,a1,a7
200014e0:	01079693          	sll	a3,a5,0x10
200014e4:	62c1                	lui	t0,0x10
200014e6:	8ec9                	or	a3,a3,a0
200014e8:	fff28513          	add	a0,t0,-1 # ffff <HeapSize+0xf7ff>
200014ec:	00a6fe33          	and	t3,a3,a0
200014f0:	01065f93          	srl	t6,a2,0x10
200014f4:	82c1                	srl	a3,a3,0x10
200014f6:	8d71                	and	a0,a0,a2
200014f8:	02ae0f33          	mul	t5,t3,a0
200014fc:	41d585b3          	sub	a1,a1,t4
20001500:	02a68533          	mul	a0,a3,a0
20001504:	010f5793          	srl	a5,t5,0x10
20001508:	03fe0e33          	mul	t3,t3,t6
2000150c:	9e2a                	add	t3,t3,a0
2000150e:	97f2                	add	a5,a5,t3
20001510:	03f686b3          	mul	a3,a3,t6
20001514:	00a7f363          	bgeu	a5,a0,2000151a <__umoddi3+0x2fc>
20001518:	9696                	add	a3,a3,t0
2000151a:	6ec1                	lui	t4,0x10
2000151c:	1efd                	add	t4,t4,-1 # ffff <HeapSize+0xf7ff>
2000151e:	01d7f533          	and	a0,a5,t4
20001522:	0107de13          	srl	t3,a5,0x10
20001526:	0542                	sll	a0,a0,0x10
20001528:	01df7f33          	and	t5,t5,t4
2000152c:	00de07b3          	add	a5,t3,a3
20001530:	957a                	add	a0,a0,t5
20001532:	02f5e563          	bltu	a1,a5,2000155c <__umoddi3+0x33e>
20001536:	02f58163          	beq	a1,a5,20001558 <__umoddi3+0x33a>
2000153a:	40a30533          	sub	a0,t1,a0
2000153e:	00a33333          	sltu	t1,t1,a0
20001542:	8d9d                	sub	a1,a1,a5
20001544:	406585b3          	sub	a1,a1,t1
20001548:	00e59733          	sll	a4,a1,a4
2000154c:	01055533          	srl	a0,a0,a6
20001550:	8d59                	or	a0,a0,a4
20001552:	0105d5b3          	srl	a1,a1,a6
20001556:	8082                	ret
20001558:	fea371e3          	bgeu	t1,a0,2000153a <__umoddi3+0x31c>
2000155c:	40c50633          	sub	a2,a0,a2
20001560:	00c53533          	sltu	a0,a0,a2
20001564:	98aa                	add	a7,a7,a0
20001566:	411787b3          	sub	a5,a5,a7
2000156a:	8532                	mv	a0,a2
2000156c:	b7f9                	j	2000153a <__umoddi3+0x31c>
2000156e:	010007b7          	lui	a5,0x1000
20001572:	00f67c63          	bgeu	a2,a5,2000158a <__umoddi3+0x36c>
20001576:	01065693          	srl	a3,a2,0x10
2000157a:	4741                	li	a4,16
2000157c:	b3c1                	j	2000133c <__umoddi3+0x11e>
2000157e:	8536                	mv	a0,a3
20001580:	b785                	j	200014e0 <__umoddi3+0x2c2>
20001582:	87f2                	mv	a5,t3
20001584:	bf05                	j	200014b4 <__umoddi3+0x296>
20001586:	97c2                	add	a5,a5,a6
20001588:	bb19                	j	2000129e <__umoddi3+0x80>
2000158a:	01865693          	srl	a3,a2,0x18
2000158e:	4761                	li	a4,24
20001590:	b375                	j	2000133c <__umoddi3+0x11e>

20001592 <__adddf3>:
20001592:	001007b7          	lui	a5,0x100
20001596:	1101                	add	sp,sp,-32
20001598:	fff78e93          	add	t4,a5,-1 # fffff <HeapSize+0xff7ff>
2000159c:	00bef833          	and	a6,t4,a1
200015a0:	00def7b3          	and	a5,t4,a3
200015a4:	0146d313          	srl	t1,a3,0x14
200015a8:	c84a                	sw	s2,16(sp)
200015aa:	0145d913          	srl	s2,a1,0x14
200015ae:	078e                	sll	a5,a5,0x3
200015b0:	cc22                	sw	s0,24(sp)
200015b2:	080e                	sll	a6,a6,0x3
200015b4:	01f5d413          	srl	s0,a1,0x1f
200015b8:	01d55713          	srl	a4,a0,0x1d
200015bc:	01d65893          	srl	a7,a2,0x1d
200015c0:	7ff97913          	and	s2,s2,2047
200015c4:	7ff37313          	and	t1,t1,2047
200015c8:	ce06                	sw	ra,28(sp)
200015ca:	ca26                	sw	s1,20(sp)
200015cc:	c64e                	sw	s3,12(sp)
200015ce:	82fd                	srl	a3,a3,0x1f
200015d0:	00f8e8b3          	or	a7,a7,a5
200015d4:	01076733          	or	a4,a4,a6
200015d8:	00351593          	sll	a1,a0,0x3
200015dc:	00361f13          	sll	t5,a2,0x3
200015e0:	406907b3          	sub	a5,s2,t1
200015e4:	18d40c63          	beq	s0,a3,2000177c <__adddf3+0x1ea>
200015e8:	12f05363          	blez	a5,2000170e <__adddf3+0x17c>
200015ec:	22030263          	beqz	t1,20001810 <__adddf3+0x27e>
200015f0:	7ff00693          	li	a3,2047
200015f4:	38d90163          	beq	s2,a3,20001976 <__adddf3+0x3e4>
200015f8:	03800693          	li	a3,56
200015fc:	4605                	li	a2,1
200015fe:	02f6ca63          	blt	a3,a5,20001632 <__adddf3+0xa0>
20001602:	008006b7          	lui	a3,0x800
20001606:	00d8e8b3          	or	a7,a7,a3
2000160a:	46fd                	li	a3,31
2000160c:	44f6ce63          	blt	a3,a5,20001a68 <__adddf3+0x4d6>
20001610:	02000693          	li	a3,32
20001614:	8e9d                	sub	a3,a3,a5
20001616:	00d89633          	sll	a2,a7,a3
2000161a:	00ff5533          	srl	a0,t5,a5
2000161e:	00df16b3          	sll	a3,t5,a3
20001622:	8e49                	or	a2,a2,a0
20001624:	00d036b3          	snez	a3,a3
20001628:	00f8d8b3          	srl	a7,a7,a5
2000162c:	8e55                	or	a2,a2,a3
2000162e:	41170733          	sub	a4,a4,a7
20001632:	40c58633          	sub	a2,a1,a2
20001636:	00c5b5b3          	sltu	a1,a1,a2
2000163a:	84b2                	mv	s1,a2
2000163c:	40b709b3          	sub	s3,a4,a1
20001640:	00899793          	sll	a5,s3,0x8
20001644:	2a07db63          	bgez	a5,200018fa <__adddf3+0x368>
20001648:	008007b7          	lui	a5,0x800
2000164c:	17fd                	add	a5,a5,-1 # 7fffff <HeapSize+0x7ff7ff>
2000164e:	00f9f9b3          	and	s3,s3,a5
20001652:	24098f63          	beqz	s3,200018b0 <__adddf3+0x31e>
20001656:	854e                	mv	a0,s3
20001658:	3d5010ef          	jal	2000322c <__clzsi2>
2000165c:	ff850793          	add	a5,a0,-8
20001660:	02000693          	li	a3,32
20001664:	40f68733          	sub	a4,a3,a5
20001668:	00e4d733          	srl	a4,s1,a4
2000166c:	00f999b3          	sll	s3,s3,a5
20001670:	01376733          	or	a4,a4,s3
20001674:	00f494b3          	sll	s1,s1,a5
20001678:	3f27c063          	blt	a5,s2,20001a58 <__adddf3+0x4c6>
2000167c:	412787b3          	sub	a5,a5,s2
20001680:	0785                	add	a5,a5,1
20001682:	8e9d                	sub	a3,a3,a5
20001684:	00d49633          	sll	a2,s1,a3
20001688:	00f4d9b3          	srl	s3,s1,a5
2000168c:	00c03633          	snez	a2,a2
20001690:	01366633          	or	a2,a2,s3
20001694:	00d716b3          	sll	a3,a4,a3
20001698:	00c6e4b3          	or	s1,a3,a2
2000169c:	00f759b3          	srl	s3,a4,a5
200016a0:	4901                	li	s2,0
200016a2:	0074f793          	and	a5,s1,7
200016a6:	cf81                	beqz	a5,200016be <__adddf3+0x12c>
200016a8:	00f4f793          	and	a5,s1,15
200016ac:	4711                	li	a4,4
200016ae:	00e78863          	beq	a5,a4,200016be <__adddf3+0x12c>
200016b2:	00448793          	add	a5,s1,4
200016b6:	0097b633          	sltu	a2,a5,s1
200016ba:	99b2                	add	s3,s3,a2
200016bc:	84be                	mv	s1,a5
200016be:	00899793          	sll	a5,s3,0x8
200016c2:	5807dd63          	bgez	a5,20001c5c <__adddf3+0x6ca>
200016c6:	00190793          	add	a5,s2,1
200016ca:	7ff00713          	li	a4,2047
200016ce:	8e22                	mv	t3,s0
200016d0:	22e78e63          	beq	a5,a4,2000190c <__adddf3+0x37a>
200016d4:	ff800737          	lui	a4,0xff800
200016d8:	177d                	add	a4,a4,-1 # ff7fffff <__StackTop+0xdf77dfff>
200016da:	00e9f733          	and	a4,s3,a4
200016de:	7ff7f793          	and	a5,a5,2047
200016e2:	01d71813          	sll	a6,a4,0x1d
200016e6:	0034d613          	srl	a2,s1,0x3
200016ea:	0726                	sll	a4,a4,0x9
200016ec:	00c86833          	or	a6,a6,a2
200016f0:	8331                	srl	a4,a4,0xc
200016f2:	40f2                	lw	ra,28(sp)
200016f4:	4462                	lw	s0,24(sp)
200016f6:	07d2                	sll	a5,a5,0x14
200016f8:	8fd9                	or	a5,a5,a4
200016fa:	01fe1713          	sll	a4,t3,0x1f
200016fe:	8fd9                	or	a5,a5,a4
20001700:	44d2                	lw	s1,20(sp)
20001702:	4942                	lw	s2,16(sp)
20001704:	49b2                	lw	s3,12(sp)
20001706:	8542                	mv	a0,a6
20001708:	85be                	mv	a1,a5
2000170a:	6105                	add	sp,sp,32
2000170c:	8082                	ret
2000170e:	12078463          	beqz	a5,20001836 <__adddf3+0x2a4>
20001712:	412307b3          	sub	a5,t1,s2
20001716:	32091463          	bnez	s2,20001a3e <__adddf3+0x4ac>
2000171a:	00b76533          	or	a0,a4,a1
2000171e:	3e050c63          	beqz	a0,20001b16 <__adddf3+0x584>
20001722:	fff78513          	add	a0,a5,-1
20001726:	4e050263          	beqz	a0,20001c0a <__adddf3+0x678>
2000172a:	7ff00813          	li	a6,2047
2000172e:	47078963          	beq	a5,a6,20001ba0 <__adddf3+0x60e>
20001732:	03800793          	li	a5,56
20001736:	4605                	li	a2,1
20001738:	02a7c863          	blt	a5,a0,20001768 <__adddf3+0x1d6>
2000173c:	87aa                	mv	a5,a0
2000173e:	467d                	li	a2,31
20001740:	46f64963          	blt	a2,a5,20001bb2 <__adddf3+0x620>
20001744:	02000513          	li	a0,32
20001748:	8d1d                	sub	a0,a0,a5
2000174a:	00a71633          	sll	a2,a4,a0
2000174e:	00f5d833          	srl	a6,a1,a5
20001752:	00a59533          	sll	a0,a1,a0
20001756:	01066633          	or	a2,a2,a6
2000175a:	00a03533          	snez	a0,a0
2000175e:	00f75733          	srl	a4,a4,a5
20001762:	8e49                	or	a2,a2,a0
20001764:	40e888b3          	sub	a7,a7,a4
20001768:	40cf0633          	sub	a2,t5,a2
2000176c:	00cf3733          	sltu	a4,t5,a2
20001770:	84b2                	mv	s1,a2
20001772:	40e889b3          	sub	s3,a7,a4
20001776:	891a                	mv	s2,t1
20001778:	8436                	mv	s0,a3
2000177a:	b5d9                	j	20001640 <__adddf3+0xae>
2000177c:	18f05d63          	blez	a5,20001916 <__adddf3+0x384>
20001780:	10031a63          	bnez	t1,20001894 <__adddf3+0x302>
20001784:	01e8e6b3          	or	a3,a7,t5
20001788:	20068a63          	beqz	a3,2000199c <__adddf3+0x40a>
2000178c:	fff78693          	add	a3,a5,-1
20001790:	3a068663          	beqz	a3,20001b3c <__adddf3+0x5aa>
20001794:	7ff00613          	li	a2,2047
20001798:	1cc78f63          	beq	a5,a2,20001976 <__adddf3+0x3e4>
2000179c:	03800793          	li	a5,56
200017a0:	4985                	li	s3,1
200017a2:	02d7c863          	blt	a5,a3,200017d2 <__adddf3+0x240>
200017a6:	87b6                	mv	a5,a3
200017a8:	46fd                	li	a3,31
200017aa:	3cf6c163          	blt	a3,a5,20001b6c <__adddf3+0x5da>
200017ae:	02000693          	li	a3,32
200017b2:	8e9d                	sub	a3,a3,a5
200017b4:	00d899b3          	sll	s3,a7,a3
200017b8:	00ff5633          	srl	a2,t5,a5
200017bc:	00df16b3          	sll	a3,t5,a3
200017c0:	00c9e9b3          	or	s3,s3,a2
200017c4:	00d036b3          	snez	a3,a3
200017c8:	00f8d8b3          	srl	a7,a7,a5
200017cc:	00d9e9b3          	or	s3,s3,a3
200017d0:	9746                	add	a4,a4,a7
200017d2:	95ce                	add	a1,a1,s3
200017d4:	0135b9b3          	sltu	s3,a1,s3
200017d8:	84ae                	mv	s1,a1
200017da:	99ba                	add	s3,s3,a4
200017dc:	00899793          	sll	a5,s3,0x8
200017e0:	1007dd63          	bgez	a5,200018fa <__adddf3+0x368>
200017e4:	0905                	add	s2,s2,1
200017e6:	7ff00793          	li	a5,2047
200017ea:	2ef90163          	beq	s2,a5,20001acc <__adddf3+0x53a>
200017ee:	ff8007b7          	lui	a5,0xff800
200017f2:	17fd                	add	a5,a5,-1 # ff7fffff <__StackTop+0xdf77dfff>
200017f4:	0014f613          	and	a2,s1,1
200017f8:	00f9f7b3          	and	a5,s3,a5
200017fc:	0014d713          	srl	a4,s1,0x1
20001800:	8f51                	or	a4,a4,a2
20001802:	01f79613          	sll	a2,a5,0x1f
20001806:	00e664b3          	or	s1,a2,a4
2000180a:	0017d993          	srl	s3,a5,0x1
2000180e:	bd51                	j	200016a2 <__adddf3+0x110>
20001810:	01e8e6b3          	or	a3,a7,t5
20001814:	18068463          	beqz	a3,2000199c <__adddf3+0x40a>
20001818:	fff78693          	add	a3,a5,-1
2000181c:	32068d63          	beqz	a3,20001b56 <__adddf3+0x5c4>
20001820:	7ff00613          	li	a2,2047
20001824:	14c78963          	beq	a5,a2,20001976 <__adddf3+0x3e4>
20001828:	03800793          	li	a5,56
2000182c:	4605                	li	a2,1
2000182e:	e0d7c2e3          	blt	a5,a3,20001632 <__adddf3+0xa0>
20001832:	87b6                	mv	a5,a3
20001834:	bbd9                	j	2000160a <__adddf3+0x78>
20001836:	00190813          	add	a6,s2,1
2000183a:	7fe87813          	and	a6,a6,2046
2000183e:	1c081b63          	bnez	a6,20001a14 <__adddf3+0x482>
20001842:	00b76333          	or	t1,a4,a1
20001846:	01e8e833          	or	a6,a7,t5
2000184a:	2c091b63          	bnez	s2,20001b20 <__adddf3+0x58e>
2000184e:	38030b63          	beqz	t1,20001be4 <__adddf3+0x652>
20001852:	34080263          	beqz	a6,20001b96 <__adddf3+0x604>
20001856:	41e589b3          	sub	s3,a1,t5
2000185a:	0135b533          	sltu	a0,a1,s3
2000185e:	41170633          	sub	a2,a4,a7
20001862:	8e09                	sub	a2,a2,a0
20001864:	00861513          	sll	a0,a2,0x8
20001868:	40055463          	bgez	a0,20001c70 <__adddf3+0x6de>
2000186c:	40bf05b3          	sub	a1,t5,a1
20001870:	40e88733          	sub	a4,a7,a4
20001874:	00bf3f33          	sltu	t5,t5,a1
20001878:	41e70733          	sub	a4,a4,t5
2000187c:	00871613          	sll	a2,a4,0x8
20001880:	84ae                	mv	s1,a1
20001882:	40065e63          	bgez	a2,20001c9e <__adddf3+0x70c>
20001886:	ff8007b7          	lui	a5,0xff800
2000188a:	17fd                	add	a5,a5,-1 # ff7fffff <__StackTop+0xdf77dfff>
2000188c:	8f7d                	and	a4,a4,a5
2000188e:	8e36                	mv	t3,a3
20001890:	4785                	li	a5,1
20001892:	bd81                	j	200016e2 <__adddf3+0x150>
20001894:	7ff00693          	li	a3,2047
20001898:	0cd90f63          	beq	s2,a3,20001976 <__adddf3+0x3e4>
2000189c:	03800693          	li	a3,56
200018a0:	4985                	li	s3,1
200018a2:	f2f6c8e3          	blt	a3,a5,200017d2 <__adddf3+0x240>
200018a6:	008006b7          	lui	a3,0x800
200018aa:	00d8e8b3          	or	a7,a7,a3
200018ae:	bded                	j	200017a8 <__adddf3+0x216>
200018b0:	8526                	mv	a0,s1
200018b2:	17b010ef          	jal	2000322c <__clzsi2>
200018b6:	01850793          	add	a5,a0,24
200018ba:	46fd                	li	a3,31
200018bc:	daf6d2e3          	bge	a3,a5,20001660 <__adddf3+0xce>
200018c0:	ff850713          	add	a4,a0,-8
200018c4:	00e49733          	sll	a4,s1,a4
200018c8:	1d27c463          	blt	a5,s2,20001a90 <__adddf3+0x4fe>
200018cc:	41278933          	sub	s2,a5,s2
200018d0:	00190793          	add	a5,s2,1
200018d4:	38f6d963          	bge	a3,a5,20001c66 <__adddf3+0x6d4>
200018d8:	1905                	add	s2,s2,-31
200018da:	02000693          	li	a3,32
200018de:	012754b3          	srl	s1,a4,s2
200018e2:	00d78b63          	beq	a5,a3,200018f8 <__adddf3+0x366>
200018e6:	04000693          	li	a3,64
200018ea:	40f687b3          	sub	a5,a3,a5
200018ee:	00f71733          	sll	a4,a4,a5
200018f2:	00e03733          	snez	a4,a4
200018f6:	8cd9                	or	s1,s1,a4
200018f8:	4901                	li	s2,0
200018fa:	0074f793          	and	a5,s1,7
200018fe:	da0795e3          	bnez	a5,200016a8 <__adddf3+0x116>
20001902:	87ca                	mv	a5,s2
20001904:	0034d613          	srl	a2,s1,0x3
20001908:	874e                	mv	a4,s3
2000190a:	a861                	j	200019a2 <__adddf3+0x410>
2000190c:	7ff00793          	li	a5,2047
20001910:	4701                	li	a4,0
20001912:	4801                	li	a6,0
20001914:	bbf9                	j	200016f2 <__adddf3+0x160>
20001916:	c7cd                	beqz	a5,200019c0 <__adddf3+0x42e>
20001918:	412307b3          	sub	a5,t1,s2
2000191c:	18090663          	beqz	s2,20001aa8 <__adddf3+0x516>
20001920:	7ff00693          	li	a3,2047
20001924:	28d30363          	beq	t1,a3,20001baa <__adddf3+0x618>
20001928:	03800693          	li	a3,56
2000192c:	4985                	li	s3,1
2000192e:	02f6ca63          	blt	a3,a5,20001962 <__adddf3+0x3d0>
20001932:	008006b7          	lui	a3,0x800
20001936:	8f55                	or	a4,a4,a3
20001938:	46fd                	li	a3,31
2000193a:	2ef6cd63          	blt	a3,a5,20001c34 <__adddf3+0x6a2>
2000193e:	02000693          	li	a3,32
20001942:	8e9d                	sub	a3,a3,a5
20001944:	00d719b3          	sll	s3,a4,a3
20001948:	00f5d633          	srl	a2,a1,a5
2000194c:	00d596b3          	sll	a3,a1,a3
20001950:	00c9e9b3          	or	s3,s3,a2
20001954:	00d036b3          	snez	a3,a3
20001958:	00f75733          	srl	a4,a4,a5
2000195c:	00d9e9b3          	or	s3,s3,a3
20001960:	98ba                	add	a7,a7,a4
20001962:	01e98733          	add	a4,s3,t5
20001966:	013739b3          	sltu	s3,a4,s3
2000196a:	84ba                	mv	s1,a4
2000196c:	99c6                	add	s3,s3,a7
2000196e:	891a                	mv	s2,t1
20001970:	b5b5                	j	200017dc <__adddf3+0x24a>
20001972:	00081e63          	bnez	a6,2000198e <__adddf3+0x3fc>
20001976:	00351613          	sll	a2,a0,0x3
2000197a:	820d                	srl	a2,a2,0x3
2000197c:	01d71813          	sll	a6,a4,0x1d
20001980:	00c86833          	or	a6,a6,a2
20001984:	830d                	srl	a4,a4,0x3
20001986:	01076733          	or	a4,a4,a6
2000198a:	14070163          	beqz	a4,20001acc <__adddf3+0x53a>
2000198e:	4e01                	li	t3,0
20001990:	7ff00793          	li	a5,2047
20001994:	00080737          	lui	a4,0x80
20001998:	4801                	li	a6,0
2000199a:	bba1                	j	200016f2 <__adddf3+0x160>
2000199c:	00351613          	sll	a2,a0,0x3
200019a0:	820d                	srl	a2,a2,0x3
200019a2:	01d71813          	sll	a6,a4,0x1d
200019a6:	7ff00693          	li	a3,2047
200019aa:	00c86833          	or	a6,a6,a2
200019ae:	830d                	srl	a4,a4,0x3
200019b0:	fcd78be3          	beq	a5,a3,20001986 <__adddf3+0x3f4>
200019b4:	0732                	sll	a4,a4,0xc
200019b6:	8331                	srl	a4,a4,0xc
200019b8:	7ff7f793          	and	a5,a5,2047
200019bc:	8e22                	mv	t3,s0
200019be:	bb15                	j	200016f2 <__adddf3+0x160>
200019c0:	00190693          	add	a3,s2,1
200019c4:	7fe6f813          	and	a6,a3,2046
200019c8:	10081863          	bnez	a6,20001ad8 <__adddf3+0x546>
200019cc:	00b766b3          	or	a3,a4,a1
200019d0:	20091463          	bnez	s2,20001bd8 <__adddf3+0x646>
200019d4:	24068b63          	beqz	a3,20001c2a <__adddf3+0x698>
200019d8:	01e8e6b3          	or	a3,a7,t5
200019dc:	1a068d63          	beqz	a3,20001b96 <__adddf3+0x604>
200019e0:	01e587b3          	add	a5,a1,t5
200019e4:	00b7b5b3          	sltu	a1,a5,a1
200019e8:	9746                	add	a4,a4,a7
200019ea:	972e                	add	a4,a4,a1
200019ec:	0037d813          	srl	a6,a5,0x3
200019f0:	00871793          	sll	a5,a4,0x8
200019f4:	8e22                	mv	t3,s0
200019f6:	2807db63          	bgez	a5,20001c8c <__adddf3+0x6fa>
200019fa:	ff8007b7          	lui	a5,0xff800
200019fe:	17fd                	add	a5,a5,-1 # ff7fffff <__StackTop+0xdf77dfff>
20001a00:	8f7d                	and	a4,a4,a5
20001a02:	01d71793          	sll	a5,a4,0x1d
20001a06:	830d                	srl	a4,a4,0x3
20001a08:	0107e833          	or	a6,a5,a6
20001a0c:	01d77733          	and	a4,a4,t4
20001a10:	4785                	li	a5,1
20001a12:	b1c5                	j	200016f2 <__adddf3+0x160>
20001a14:	41e58833          	sub	a6,a1,t5
20001a18:	0105b7b3          	sltu	a5,a1,a6
20001a1c:	411709b3          	sub	s3,a4,a7
20001a20:	40f989b3          	sub	s3,s3,a5
20001a24:	00899793          	sll	a5,s3,0x8
20001a28:	84c2                	mv	s1,a6
20001a2a:	0c07cb63          	bltz	a5,20001b00 <__adddf3+0x56e>
20001a2e:	01386833          	or	a6,a6,s3
20001a32:	c20810e3          	bnez	a6,20001652 <__adddf3+0xc0>
20001a36:	4e01                	li	t3,0
20001a38:	4781                	li	a5,0
20001a3a:	4701                	li	a4,0
20001a3c:	b95d                	j	200016f2 <__adddf3+0x160>
20001a3e:	7ff00513          	li	a0,2047
20001a42:	14a30f63          	beq	t1,a0,20001ba0 <__adddf3+0x60e>
20001a46:	03800513          	li	a0,56
20001a4a:	4605                	li	a2,1
20001a4c:	d0f54ee3          	blt	a0,a5,20001768 <__adddf3+0x1d6>
20001a50:	00800637          	lui	a2,0x800
20001a54:	8f51                	or	a4,a4,a2
20001a56:	b1e5                	j	2000173e <__adddf3+0x1ac>
20001a58:	ff8009b7          	lui	s3,0xff800
20001a5c:	19fd                	add	s3,s3,-1 # ff7fffff <__StackTop+0xdf77dfff>
20001a5e:	40f90933          	sub	s2,s2,a5
20001a62:	013779b3          	and	s3,a4,s3
20001a66:	b935                	j	200016a2 <__adddf3+0x110>
20001a68:	fe078693          	add	a3,a5,-32
20001a6c:	02000613          	li	a2,32
20001a70:	00d8d6b3          	srl	a3,a7,a3
20001a74:	00c78a63          	beq	a5,a2,20001a88 <__adddf3+0x4f6>
20001a78:	04000613          	li	a2,64
20001a7c:	40f607b3          	sub	a5,a2,a5
20001a80:	00f897b3          	sll	a5,a7,a5
20001a84:	00ff6f33          	or	t5,t5,a5
20001a88:	01e03633          	snez	a2,t5
20001a8c:	8e55                	or	a2,a2,a3
20001a8e:	b655                	j	20001632 <__adddf3+0xa0>
20001a90:	ff8006b7          	lui	a3,0xff800
20001a94:	16fd                	add	a3,a3,-1 # ff7fffff <__StackTop+0xdf77dfff>
20001a96:	40f907b3          	sub	a5,s2,a5
20001a9a:	8f75                	and	a4,a4,a3
20001a9c:	01d71813          	sll	a6,a4,0x1d
20001aa0:	01386833          	or	a6,a6,s3
20001aa4:	830d                	srl	a4,a4,0x3
20001aa6:	b739                	j	200019b4 <__adddf3+0x422>
20001aa8:	00b766b3          	or	a3,a4,a1
20001aac:	16068b63          	beqz	a3,20001c22 <__adddf3+0x690>
20001ab0:	fff78693          	add	a3,a5,-1
20001ab4:	c6c1                	beqz	a3,20001b3c <__adddf3+0x5aa>
20001ab6:	7ff00513          	li	a0,2047
20001aba:	0ea78863          	beq	a5,a0,20001baa <__adddf3+0x618>
20001abe:	03800793          	li	a5,56
20001ac2:	4985                	li	s3,1
20001ac4:	e8d7cfe3          	blt	a5,a3,20001962 <__adddf3+0x3d0>
20001ac8:	87b6                	mv	a5,a3
20001aca:	b5bd                	j	20001938 <__adddf3+0x3a6>
20001acc:	8e22                	mv	t3,s0
20001ace:	7ff00793          	li	a5,2047
20001ad2:	4701                	li	a4,0
20001ad4:	4801                	li	a6,0
20001ad6:	b931                	j	200016f2 <__adddf3+0x160>
20001ad8:	7ff00793          	li	a5,2047
20001adc:	fef688e3          	beq	a3,a5,20001acc <__adddf3+0x53a>
20001ae0:	9f2e                	add	t5,t5,a1
20001ae2:	00bf35b3          	sltu	a1,t5,a1
20001ae6:	011707b3          	add	a5,a4,a7
20001aea:	97ae                	add	a5,a5,a1
20001aec:	01f79613          	sll	a2,a5,0x1f
20001af0:	001f5f13          	srl	t5,t5,0x1
20001af4:	01e664b3          	or	s1,a2,t5
20001af8:	0017d993          	srl	s3,a5,0x1
20001afc:	8936                	mv	s2,a3
20001afe:	b655                	j	200016a2 <__adddf3+0x110>
20001b00:	40bf0633          	sub	a2,t5,a1
20001b04:	40e887b3          	sub	a5,a7,a4
20001b08:	00cf3733          	sltu	a4,t5,a2
20001b0c:	84b2                	mv	s1,a2
20001b0e:	40e789b3          	sub	s3,a5,a4
20001b12:	8436                	mv	s0,a3
20001b14:	be3d                	j	20001652 <__adddf3+0xc0>
20001b16:	060e                	sll	a2,a2,0x3
20001b18:	820d                	srl	a2,a2,0x3
20001b1a:	8436                	mv	s0,a3
20001b1c:	8746                	mv	a4,a7
20001b1e:	b551                	j	200019a2 <__adddf3+0x410>
20001b20:	e40319e3          	bnez	t1,20001972 <__adddf3+0x3e0>
20001b24:	14080e63          	beqz	a6,20001c80 <__adddf3+0x6ee>
20001b28:	0038d713          	srl	a4,a7,0x3
20001b2c:	060e                	sll	a2,a2,0x3
20001b2e:	08f6                	sll	a7,a7,0x1d
20001b30:	01176733          	or	a4,a4,a7
20001b34:	820d                	srl	a2,a2,0x3
20001b36:	8f51                	or	a4,a4,a2
20001b38:	8436                	mv	s0,a3
20001b3a:	bd81                	j	2000198a <__adddf3+0x3f8>
20001b3c:	9f2e                	add	t5,t5,a1
20001b3e:	98ba                	add	a7,a7,a4
20001b40:	00bf35b3          	sltu	a1,t5,a1
20001b44:	00b889b3          	add	s3,a7,a1
20001b48:	00899793          	sll	a5,s3,0x8
20001b4c:	84fa                	mv	s1,t5
20001b4e:	0a07dc63          	bgez	a5,20001c06 <__adddf3+0x674>
20001b52:	4909                	li	s2,2
20001b54:	b969                	j	200017ee <__adddf3+0x25c>
20001b56:	41e58f33          	sub	t5,a1,t5
20001b5a:	411708b3          	sub	a7,a4,a7
20001b5e:	01e5b5b3          	sltu	a1,a1,t5
20001b62:	84fa                	mv	s1,t5
20001b64:	40b889b3          	sub	s3,a7,a1
20001b68:	4905                	li	s2,1
20001b6a:	bcd9                	j	20001640 <__adddf3+0xae>
20001b6c:	fe078693          	add	a3,a5,-32
20001b70:	02000613          	li	a2,32
20001b74:	00d8d6b3          	srl	a3,a7,a3
20001b78:	00c78a63          	beq	a5,a2,20001b8c <__adddf3+0x5fa>
20001b7c:	04000613          	li	a2,64
20001b80:	40f607b3          	sub	a5,a2,a5
20001b84:	00f897b3          	sll	a5,a7,a5
20001b88:	00ff6f33          	or	t5,t5,a5
20001b8c:	01e039b3          	snez	s3,t5
20001b90:	00d9e9b3          	or	s3,s3,a3
20001b94:	b93d                	j	200017d2 <__adddf3+0x240>
20001b96:	00351613          	sll	a2,a0,0x3
20001b9a:	00365993          	srl	s3,a2,0x3
20001b9e:	bdfd                	j	20001a9c <__adddf3+0x50a>
20001ba0:	060e                	sll	a2,a2,0x3
20001ba2:	820d                	srl	a2,a2,0x3
20001ba4:	8436                	mv	s0,a3
20001ba6:	8746                	mv	a4,a7
20001ba8:	bbd1                	j	2000197c <__adddf3+0x3ea>
20001baa:	060e                	sll	a2,a2,0x3
20001bac:	820d                	srl	a2,a2,0x3
20001bae:	8746                	mv	a4,a7
20001bb0:	b3f1                	j	2000197c <__adddf3+0x3ea>
20001bb2:	fe078513          	add	a0,a5,-32
20001bb6:	02000613          	li	a2,32
20001bba:	00a75533          	srl	a0,a4,a0
20001bbe:	00c78963          	beq	a5,a2,20001bd0 <__adddf3+0x63e>
20001bc2:	04000613          	li	a2,64
20001bc6:	40f607b3          	sub	a5,a2,a5
20001bca:	00f717b3          	sll	a5,a4,a5
20001bce:	8ddd                	or	a1,a1,a5
20001bd0:	00b03633          	snez	a2,a1
20001bd4:	8e49                	or	a2,a2,a0
20001bd6:	be49                	j	20001768 <__adddf3+0x1d6>
20001bd8:	dae9                	beqz	a3,20001baa <__adddf3+0x618>
20001bda:	01e8ef33          	or	t5,a7,t5
20001bde:	da0f18e3          	bnez	t5,2000198e <__adddf3+0x3fc>
20001be2:	bb51                	j	20001976 <__adddf3+0x3e4>
20001be4:	e40809e3          	beqz	a6,20001a36 <__adddf3+0x4a4>
20001be8:	00361813          	sll	a6,a2,0x3
20001bec:	01d89793          	sll	a5,a7,0x1d
20001bf0:	00385813          	srl	a6,a6,0x3
20001bf4:	0038d713          	srl	a4,a7,0x3
20001bf8:	00f86833          	or	a6,a6,a5
20001bfc:	01d77733          	and	a4,a4,t4
20001c00:	8e36                	mv	t3,a3
20001c02:	4781                	li	a5,0
20001c04:	b4fd                	j	200016f2 <__adddf3+0x160>
20001c06:	4785                	li	a5,1
20001c08:	b9f5                	j	20001904 <__adddf3+0x372>
20001c0a:	40bf05b3          	sub	a1,t5,a1
20001c0e:	40e888b3          	sub	a7,a7,a4
20001c12:	00bf3733          	sltu	a4,t5,a1
20001c16:	84ae                	mv	s1,a1
20001c18:	40e889b3          	sub	s3,a7,a4
20001c1c:	8436                	mv	s0,a3
20001c1e:	4905                	li	s2,1
20001c20:	b405                	j	20001640 <__adddf3+0xae>
20001c22:	060e                	sll	a2,a2,0x3
20001c24:	820d                	srl	a2,a2,0x3
20001c26:	8746                	mv	a4,a7
20001c28:	bbad                	j	200019a2 <__adddf3+0x410>
20001c2a:	060e                	sll	a2,a2,0x3
20001c2c:	00365993          	srl	s3,a2,0x3
20001c30:	8746                	mv	a4,a7
20001c32:	b5ad                	j	20001a9c <__adddf3+0x50a>
20001c34:	fe078693          	add	a3,a5,-32
20001c38:	02000613          	li	a2,32
20001c3c:	00d756b3          	srl	a3,a4,a3
20001c40:	00c78963          	beq	a5,a2,20001c52 <__adddf3+0x6c0>
20001c44:	04000613          	li	a2,64
20001c48:	40f607b3          	sub	a5,a2,a5
20001c4c:	00f717b3          	sll	a5,a4,a5
20001c50:	8ddd                	or	a1,a1,a5
20001c52:	00b039b3          	snez	s3,a1
20001c56:	00d9e9b3          	or	s3,s3,a3
20001c5a:	b321                	j	20001962 <__adddf3+0x3d0>
20001c5c:	0034d613          	srl	a2,s1,0x3
20001c60:	87ca                	mv	a5,s2
20001c62:	874e                	mv	a4,s3
20001c64:	bb3d                	j	200019a2 <__adddf3+0x410>
20001c66:	02000693          	li	a3,32
20001c6a:	8e9d                	sub	a3,a3,a5
20001c6c:	4601                	li	a2,0
20001c6e:	b40d                	j	20001690 <__adddf3+0xfe>
20001c70:	00c9e833          	or	a6,s3,a2
20001c74:	dc0801e3          	beqz	a6,20001a36 <__adddf3+0x4a4>
20001c78:	0039d993          	srl	s3,s3,0x3
20001c7c:	8732                	mv	a4,a2
20001c7e:	bd39                	j	20001a9c <__adddf3+0x50a>
20001c80:	4e01                	li	t3,0
20001c82:	7ff00793          	li	a5,2047
20001c86:	00080737          	lui	a4,0x80
20001c8a:	b4a5                	j	200016f2 <__adddf3+0x160>
20001c8c:	01d71793          	sll	a5,a4,0x1d
20001c90:	830d                	srl	a4,a4,0x3
20001c92:	0107e833          	or	a6,a5,a6
20001c96:	01d77733          	and	a4,a4,t4
20001c9a:	4781                	li	a5,0
20001c9c:	bc99                	j	200016f2 <__adddf3+0x160>
20001c9e:	01d71813          	sll	a6,a4,0x1d
20001ca2:	818d                	srl	a1,a1,0x3
20001ca4:	00b86833          	or	a6,a6,a1
20001ca8:	830d                	srl	a4,a4,0x3
20001caa:	8436                	mv	s0,a3
20001cac:	b321                	j	200019b4 <__adddf3+0x422>

20001cae <__divdf3>:
20001cae:	7179                	add	sp,sp,-48
20001cb0:	ce4e                	sw	s3,28(sp)
20001cb2:	0145d993          	srl	s3,a1,0x14
20001cb6:	d422                	sw	s0,40(sp)
20001cb8:	d226                	sw	s1,36(sp)
20001cba:	d04a                	sw	s2,32(sp)
20001cbc:	cc52                	sw	s4,24(sp)
20001cbe:	c65e                	sw	s7,12(sp)
20001cc0:	00c59493          	sll	s1,a1,0xc
20001cc4:	d606                	sw	ra,44(sp)
20001cc6:	ca56                	sw	s5,20(sp)
20001cc8:	c85a                	sw	s6,16(sp)
20001cca:	c462                	sw	s8,8(sp)
20001ccc:	7ff9f993          	and	s3,s3,2047
20001cd0:	842a                	mv	s0,a0
20001cd2:	8bb2                	mv	s7,a2
20001cd4:	8936                	mv	s2,a3
20001cd6:	80b1                	srl	s1,s1,0xc
20001cd8:	01f5da13          	srl	s4,a1,0x1f
20001cdc:	12098263          	beqz	s3,20001e00 <__divdf3+0x152>
20001ce0:	7ff00793          	li	a5,2047
20001ce4:	06f98963          	beq	s3,a5,20001d56 <__divdf3+0xa8>
20001ce8:	048e                	sll	s1,s1,0x3
20001cea:	01d55793          	srl	a5,a0,0x1d
20001cee:	8fc5                	or	a5,a5,s1
20001cf0:	00800737          	lui	a4,0x800
20001cf4:	00e7eab3          	or	s5,a5,a4
20001cf8:	00351b13          	sll	s6,a0,0x3
20001cfc:	c0198993          	add	s3,s3,-1023
20001d00:	4481                	li	s1,0
20001d02:	4c01                	li	s8,0
20001d04:	01495793          	srl	a5,s2,0x14
20001d08:	00c91413          	sll	s0,s2,0xc
20001d0c:	7ff7f793          	and	a5,a5,2047
20001d10:	8031                	srl	s0,s0,0xc
20001d12:	01f95913          	srl	s2,s2,0x1f
20001d16:	c3bd                	beqz	a5,20001d7c <__divdf3+0xce>
20001d18:	7ff00713          	li	a4,2047
20001d1c:	12e78163          	beq	a5,a4,20001e3e <__divdf3+0x190>
20001d20:	040e                	sll	s0,s0,0x3
20001d22:	01dbd713          	srl	a4,s7,0x1d
20001d26:	8f41                	or	a4,a4,s0
20001d28:	c0178793          	add	a5,a5,-1023
20001d2c:	00800437          	lui	s0,0x800
20001d30:	8c59                	or	s0,s0,a4
20001d32:	003b9893          	sll	a7,s7,0x3
20001d36:	40f989b3          	sub	s3,s3,a5
20001d3a:	4601                	li	a2,0
20001d3c:	473d                	li	a4,15
20001d3e:	012a46b3          	xor	a3,s4,s2
20001d42:	1a976063          	bltu	a4,s1,20001ee2 <__divdf3+0x234>
20001d46:	200037b7          	lui	a5,0x20003
20001d4a:	048a                	sll	s1,s1,0x2
20001d4c:	29c78793          	add	a5,a5,668 # 2000329c <__clzsi2+0x70>
20001d50:	94be                	add	s1,s1,a5
20001d52:	4098                	lw	a4,0(s1)
20001d54:	8702                	jr	a4
20001d56:	00a4eab3          	or	s5,s1,a0
20001d5a:	140a9e63          	bnez	s5,20001eb6 <__divdf3+0x208>
20001d5e:	01495793          	srl	a5,s2,0x14
20001d62:	00c91413          	sll	s0,s2,0xc
20001d66:	7ff7f793          	and	a5,a5,2047
20001d6a:	4b01                	li	s6,0
20001d6c:	44a1                	li	s1,8
20001d6e:	7ff00993          	li	s3,2047
20001d72:	4c09                	li	s8,2
20001d74:	8031                	srl	s0,s0,0xc
20001d76:	01f95913          	srl	s2,s2,0x1f
20001d7a:	ffd9                	bnez	a5,20001d18 <__divdf3+0x6a>
20001d7c:	017468b3          	or	a7,s0,s7
20001d80:	14088263          	beqz	a7,20001ec4 <__divdf3+0x216>
20001d84:	38040e63          	beqz	s0,20002120 <__divdf3+0x472>
20001d88:	8522                	mv	a0,s0
20001d8a:	4a2010ef          	jal	2000322c <__clzsi2>
20001d8e:	87aa                	mv	a5,a0
20001d90:	ff550693          	add	a3,a0,-11
20001d94:	4775                	li	a4,29
20001d96:	ff878893          	add	a7,a5,-8
20001d9a:	8f15                	sub	a4,a4,a3
20001d9c:	01141433          	sll	s0,s0,a7
20001da0:	00ebd733          	srl	a4,s7,a4
20001da4:	8c59                	or	s0,s0,a4
20001da6:	011b98b3          	sll	a7,s7,a7
20001daa:	97ce                	add	a5,a5,s3
20001dac:	3f378993          	add	s3,a5,1011
20001db0:	4601                	li	a2,0
20001db2:	b769                	j	20001d3c <__divdf3+0x8e>
20001db4:	8f1d                	sub	a4,a4,a5
20001db6:	03800613          	li	a2,56
20001dba:	3ce65663          	bge	a2,a4,20002186 <__divdf3+0x4d8>
20001dbe:	4781                	li	a5,0
20001dc0:	4601                	li	a2,0
20001dc2:	4701                	li	a4,0
20001dc4:	50b2                	lw	ra,44(sp)
20001dc6:	5422                	lw	s0,40(sp)
20001dc8:	07d2                	sll	a5,a5,0x14
20001dca:	8fd1                	or	a5,a5,a2
20001dcc:	06fe                	sll	a3,a3,0x1f
20001dce:	8fd5                	or	a5,a5,a3
20001dd0:	5492                	lw	s1,36(sp)
20001dd2:	5902                	lw	s2,32(sp)
20001dd4:	49f2                	lw	s3,28(sp)
20001dd6:	4a62                	lw	s4,24(sp)
20001dd8:	4ad2                	lw	s5,20(sp)
20001dda:	4b42                	lw	s6,16(sp)
20001ddc:	4bb2                	lw	s7,12(sp)
20001dde:	4c22                	lw	s8,8(sp)
20001de0:	853a                	mv	a0,a4
20001de2:	85be                	mv	a1,a5
20001de4:	6145                	add	sp,sp,48
20001de6:	8082                	ret
20001de8:	7ff00793          	li	a5,2047
20001dec:	4601                	li	a2,0
20001dee:	4701                	li	a4,0
20001df0:	bfd1                	j	20001dc4 <__divdf3+0x116>
20001df2:	4681                	li	a3,0
20001df4:	7ff00793          	li	a5,2047
20001df8:	00080637          	lui	a2,0x80
20001dfc:	4701                	li	a4,0
20001dfe:	b7d9                	j	20001dc4 <__divdf3+0x116>
20001e00:	00a4eab3          	or	s5,s1,a0
20001e04:	0c0a8a63          	beqz	s5,20001ed8 <__divdf3+0x22a>
20001e08:	32048b63          	beqz	s1,2000213e <__divdf3+0x490>
20001e0c:	8526                	mv	a0,s1
20001e0e:	41e010ef          	jal	2000322c <__clzsi2>
20001e12:	872a                	mv	a4,a0
20001e14:	ff550693          	add	a3,a0,-11
20001e18:	47f5                	li	a5,29
20001e1a:	ff870b13          	add	s6,a4,-8 # 7ffff8 <HeapSize+0x7ff7f8>
20001e1e:	8f95                	sub	a5,a5,a3
20001e20:	016494b3          	sll	s1,s1,s6
20001e24:	00f457b3          	srl	a5,s0,a5
20001e28:	0097eab3          	or	s5,a5,s1
20001e2c:	01641b33          	sll	s6,s0,s6
20001e30:	c0d00993          	li	s3,-1011
20001e34:	40e989b3          	sub	s3,s3,a4
20001e38:	4481                	li	s1,0
20001e3a:	4c01                	li	s8,0
20001e3c:	b5e1                	j	20001d04 <__divdf3+0x56>
20001e3e:	017468b3          	or	a7,s0,s7
20001e42:	80198993          	add	s3,s3,-2047
20001e46:	08089463          	bnez	a7,20001ece <__divdf3+0x220>
20001e4a:	0024e493          	or	s1,s1,2
20001e4e:	4401                	li	s0,0
20001e50:	4609                	li	a2,2
20001e52:	b5ed                	j	20001d3c <__divdf3+0x8e>
20001e54:	8952                	mv	s2,s4
20001e56:	8456                	mv	s0,s5
20001e58:	88da                	mv	a7,s6
20001e5a:	4789                	li	a5,2
20001e5c:	3efc0163          	beq	s8,a5,2000223e <__divdf3+0x590>
20001e60:	478d                	li	a5,3
20001e62:	f8fc08e3          	beq	s8,a5,20001df2 <__divdf3+0x144>
20001e66:	4785                	li	a5,1
20001e68:	86ca                	mv	a3,s2
20001e6a:	f4fc0ae3          	beq	s8,a5,20001dbe <__divdf3+0x110>
20001e6e:	3ff98793          	add	a5,s3,1023
20001e72:	20f05e63          	blez	a5,2000208e <__divdf3+0x3e0>
20001e76:	0078f713          	and	a4,a7,7
20001e7a:	3a071863          	bnez	a4,2000222a <__divdf3+0x57c>
20001e7e:	00741713          	sll	a4,s0,0x7
20001e82:	00075863          	bgez	a4,20001e92 <__divdf3+0x1e4>
20001e86:	ff0007b7          	lui	a5,0xff000
20001e8a:	17fd                	add	a5,a5,-1 # feffffff <__StackTop+0xdef7dfff>
20001e8c:	8c7d                	and	s0,s0,a5
20001e8e:	40098793          	add	a5,s3,1024
20001e92:	7fe00713          	li	a4,2046
20001e96:	f4f749e3          	blt	a4,a5,20001de8 <__divdf3+0x13a>
20001e9a:	0038d893          	srl	a7,a7,0x3
20001e9e:	01d41713          	sll	a4,s0,0x1d
20001ea2:	00941613          	sll	a2,s0,0x9
20001ea6:	01176733          	or	a4,a4,a7
20001eaa:	8231                	srl	a2,a2,0xc
20001eac:	7ff7f793          	and	a5,a5,2047
20001eb0:	bf11                	j	20001dc4 <__divdf3+0x116>
20001eb2:	8c32                	mv	s8,a2
20001eb4:	b75d                	j	20001e5a <__divdf3+0x1ac>
20001eb6:	8aa6                	mv	s5,s1
20001eb8:	8b2a                	mv	s6,a0
20001eba:	44b1                	li	s1,12
20001ebc:	7ff00993          	li	s3,2047
20001ec0:	4c0d                	li	s8,3
20001ec2:	b589                	j	20001d04 <__divdf3+0x56>
20001ec4:	0014e493          	or	s1,s1,1
20001ec8:	4401                	li	s0,0
20001eca:	4605                	li	a2,1
20001ecc:	bd85                	j	20001d3c <__divdf3+0x8e>
20001ece:	0034e493          	or	s1,s1,3
20001ed2:	88de                	mv	a7,s7
20001ed4:	460d                	li	a2,3
20001ed6:	b59d                	j	20001d3c <__divdf3+0x8e>
20001ed8:	4b01                	li	s6,0
20001eda:	4491                	li	s1,4
20001edc:	4981                	li	s3,0
20001ede:	4c05                	li	s8,1
20001ee0:	b515                	j	20001d04 <__divdf3+0x56>
20001ee2:	23546563          	bltu	s0,s5,2000210c <__divdf3+0x45e>
20001ee6:	228a8163          	beq	s5,s0,20002108 <__divdf3+0x45a>
20001eea:	835a                	mv	t1,s6
20001eec:	19fd                	add	s3,s3,-1
20001eee:	87d6                	mv	a5,s5
20001ef0:	4b01                	li	s6,0
20001ef2:	00841713          	sll	a4,s0,0x8
20001ef6:	01075513          	srl	a0,a4,0x10
20001efa:	02a7d433          	divu	s0,a5,a0
20001efe:	0188d613          	srl	a2,a7,0x18
20001f02:	8e59                	or	a2,a2,a4
20001f04:	01061813          	sll	a6,a2,0x10
20001f08:	01085813          	srl	a6,a6,0x10
20001f0c:	00889593          	sll	a1,a7,0x8
20001f10:	01035713          	srl	a4,t1,0x10
20001f14:	02a7f7b3          	remu	a5,a5,a0
20001f18:	028808b3          	mul	a7,a6,s0
20001f1c:	07c2                	sll	a5,a5,0x10
20001f1e:	8fd9                	or	a5,a5,a4
20001f20:	0117f863          	bgeu	a5,a7,20001f30 <__divdf3+0x282>
20001f24:	97b2                	add	a5,a5,a2
20001f26:	fff40713          	add	a4,s0,-1 # 7fffff <HeapSize+0x7ff7ff>
20001f2a:	24c7f963          	bgeu	a5,a2,2000217c <__divdf3+0x4ce>
20001f2e:	843a                	mv	s0,a4
20001f30:	411787b3          	sub	a5,a5,a7
20001f34:	02a7d8b3          	divu	a7,a5,a0
20001f38:	01031713          	sll	a4,t1,0x10
20001f3c:	8341                	srl	a4,a4,0x10
20001f3e:	02a7f7b3          	remu	a5,a5,a0
20001f42:	03180fb3          	mul	t6,a6,a7
20001f46:	07c2                	sll	a5,a5,0x10
20001f48:	8f5d                	or	a4,a4,a5
20001f4a:	01f77863          	bgeu	a4,t6,20001f5a <__divdf3+0x2ac>
20001f4e:	9732                	add	a4,a4,a2
20001f50:	fff88793          	add	a5,a7,-1
20001f54:	20c77f63          	bgeu	a4,a2,20002172 <__divdf3+0x4c4>
20001f58:	88be                	mv	a7,a5
20001f5a:	0442                	sll	s0,s0,0x10
20001f5c:	62c1                	lui	t0,0x10
20001f5e:	01146433          	or	s0,s0,a7
20001f62:	fff28313          	add	t1,t0,-1 # ffff <HeapSize+0xf7ff>
20001f66:	006478b3          	and	a7,s0,t1
20001f6a:	01045e93          	srl	t4,s0,0x10
20001f6e:	0105de13          	srl	t3,a1,0x10
20001f72:	0065f333          	and	t1,a1,t1
20001f76:	03130f33          	mul	t5,t1,a7
20001f7a:	41f70733          	sub	a4,a4,t6
20001f7e:	031e08b3          	mul	a7,t3,a7
20001f82:	010f5793          	srl	a5,t5,0x10
20001f86:	026e8fb3          	mul	t6,t4,t1
20001f8a:	98fe                	add	a7,a7,t6
20001f8c:	97c6                	add	a5,a5,a7
20001f8e:	03ce8eb3          	mul	t4,t4,t3
20001f92:	01f7f363          	bgeu	a5,t6,20001f98 <__divdf3+0x2ea>
20001f96:	9e96                	add	t4,t4,t0
20001f98:	6fc1                	lui	t6,0x10
20001f9a:	1ffd                	add	t6,t6,-1 # ffff <HeapSize+0xf7ff>
20001f9c:	0107d893          	srl	a7,a5,0x10
20001fa0:	01f7f7b3          	and	a5,a5,t6
20001fa4:	07c2                	sll	a5,a5,0x10
20001fa6:	01ff7f33          	and	t5,t5,t6
20001faa:	98f6                	add	a7,a7,t4
20001fac:	97fa                	add	a5,a5,t5
20001fae:	13176b63          	bltu	a4,a7,200020e4 <__divdf3+0x436>
20001fb2:	13170763          	beq	a4,a7,200020e0 <__divdf3+0x432>
20001fb6:	40fb07b3          	sub	a5,s6,a5
20001fba:	41170733          	sub	a4,a4,a7
20001fbe:	00fb3b33          	sltu	s6,s6,a5
20001fc2:	41670733          	sub	a4,a4,s6
20001fc6:	24e60463          	beq	a2,a4,2000220e <__divdf3+0x560>
20001fca:	02a758b3          	divu	a7,a4,a0
20001fce:	0107de93          	srl	t4,a5,0x10
20001fd2:	02a77733          	remu	a4,a4,a0
20001fd6:	03180f33          	mul	t5,a6,a7
20001fda:	0742                	sll	a4,a4,0x10
20001fdc:	00eee733          	or	a4,t4,a4
20001fe0:	01e77b63          	bgeu	a4,t5,20001ff6 <__divdf3+0x348>
20001fe4:	9732                	add	a4,a4,a2
20001fe6:	fff88e93          	add	t4,a7,-1
20001fea:	24c76863          	bltu	a4,a2,2000223a <__divdf3+0x58c>
20001fee:	25e77663          	bgeu	a4,t5,2000223a <__divdf3+0x58c>
20001ff2:	18f9                	add	a7,a7,-2
20001ff4:	9732                	add	a4,a4,a2
20001ff6:	41e70733          	sub	a4,a4,t5
20001ffa:	02a75eb3          	divu	t4,a4,a0
20001ffe:	07c2                	sll	a5,a5,0x10
20002000:	83c1                	srl	a5,a5,0x10
20002002:	02a77733          	remu	a4,a4,a0
20002006:	03d80833          	mul	a6,a6,t4
2000200a:	0742                	sll	a4,a4,0x10
2000200c:	8fd9                	or	a5,a5,a4
2000200e:	0107fb63          	bgeu	a5,a6,20002024 <__divdf3+0x376>
20002012:	97b2                	add	a5,a5,a2
20002014:	fffe8713          	add	a4,t4,-1
20002018:	20c7ef63          	bltu	a5,a2,20002236 <__divdf3+0x588>
2000201c:	2107fd63          	bgeu	a5,a6,20002236 <__divdf3+0x588>
20002020:	1ef9                	add	t4,t4,-2
20002022:	97b2                	add	a5,a5,a2
20002024:	08c2                	sll	a7,a7,0x10
20002026:	01d8e8b3          	or	a7,a7,t4
2000202a:	01089513          	sll	a0,a7,0x10
2000202e:	0108df13          	srl	t5,a7,0x10
20002032:	8141                	srl	a0,a0,0x10
20002034:	02650eb3          	mul	t4,a0,t1
20002038:	410787b3          	sub	a5,a5,a6
2000203c:	02ae0533          	mul	a0,t3,a0
20002040:	010ed713          	srl	a4,t4,0x10
20002044:	026f0333          	mul	t1,t5,t1
20002048:	951a                	add	a0,a0,t1
2000204a:	972a                	add	a4,a4,a0
2000204c:	03ee0e33          	mul	t3,t3,t5
20002050:	00677463          	bgeu	a4,t1,20002058 <__divdf3+0x3aa>
20002054:	6541                	lui	a0,0x10
20002056:	9e2a                	add	t3,t3,a0
20002058:	6841                	lui	a6,0x10
2000205a:	187d                	add	a6,a6,-1 # ffff <HeapSize+0xf7ff>
2000205c:	01075513          	srl	a0,a4,0x10
20002060:	01077733          	and	a4,a4,a6
20002064:	0742                	sll	a4,a4,0x10
20002066:	010efeb3          	and	t4,t4,a6
2000206a:	9572                	add	a0,a0,t3
2000206c:	9776                	add	a4,a4,t4
2000206e:	0ea7f763          	bgeu	a5,a0,2000215c <__divdf3+0x4ae>
20002072:	97b2                	add	a5,a5,a2
20002074:	fff88313          	add	t1,a7,-1
20002078:	883e                	mv	a6,a5
2000207a:	16c7e863          	bltu	a5,a2,200021ea <__divdf3+0x53c>
2000207e:	1ca7e663          	bltu	a5,a0,2000224a <__divdf3+0x59c>
20002082:	1ca78f63          	beq	a5,a0,20002260 <__divdf3+0x5b2>
20002086:	889a                	mv	a7,t1
20002088:	0018e893          	or	a7,a7,1
2000208c:	b3cd                	j	20001e6e <__divdf3+0x1c0>
2000208e:	4705                	li	a4,1
20002090:	d20792e3          	bnez	a5,20001db4 <__divdf3+0x106>
20002094:	41e98993          	add	s3,s3,1054
20002098:	013897b3          	sll	a5,a7,s3
2000209c:	00f037b3          	snez	a5,a5
200020a0:	013419b3          	sll	s3,s0,s3
200020a4:	0137e7b3          	or	a5,a5,s3
200020a8:	00e8d8b3          	srl	a7,a7,a4
200020ac:	00f8e8b3          	or	a7,a7,a5
200020b0:	0078f793          	and	a5,a7,7
200020b4:	00e45433          	srl	s0,s0,a4
200020b8:	cf81                	beqz	a5,200020d0 <__divdf3+0x422>
200020ba:	00f8f793          	and	a5,a7,15
200020be:	4711                	li	a4,4
200020c0:	00e78863          	beq	a5,a4,200020d0 <__divdf3+0x422>
200020c4:	00488793          	add	a5,a7,4
200020c8:	0117b8b3          	sltu	a7,a5,a7
200020cc:	9446                	add	s0,s0,a7
200020ce:	88be                	mv	a7,a5
200020d0:	00841593          	sll	a1,s0,0x8
200020d4:	4785                	li	a5,1
200020d6:	4601                	li	a2,0
200020d8:	4701                	li	a4,0
200020da:	ce05c5e3          	bltz	a1,20001dc4 <__divdf3+0x116>
200020de:	a8dd                	j	200021d4 <__divdf3+0x526>
200020e0:	ecfb7be3          	bgeu	s6,a5,20001fb6 <__divdf3+0x308>
200020e4:	00bb0eb3          	add	t4,s6,a1
200020e8:	016ebf33          	sltu	t5,t4,s6
200020ec:	00cf0fb3          	add	t6,t5,a2
200020f0:	977e                	add	a4,a4,t6
200020f2:	8b76                	mv	s6,t4
200020f4:	fff40f93          	add	t6,s0,-1
200020f8:	06e67763          	bgeu	a2,a4,20002166 <__divdf3+0x4b8>
200020fc:	11176163          	bltu	a4,a7,200021fe <__divdf3+0x550>
20002100:	0ee88d63          	beq	a7,a4,200021fa <__divdf3+0x54c>
20002104:	847e                	mv	s0,t6
20002106:	bd45                	j	20001fb6 <__divdf3+0x308>
20002108:	df1b61e3          	bltu	s6,a7,20001eea <__divdf3+0x23c>
2000210c:	001b5713          	srl	a4,s6,0x1
20002110:	01fa9313          	sll	t1,s5,0x1f
20002114:	001ad793          	srl	a5,s5,0x1
20002118:	00e36333          	or	t1,t1,a4
2000211c:	0b7e                	sll	s6,s6,0x1f
2000211e:	bbd1                	j	20001ef2 <__divdf3+0x244>
20002120:	855e                	mv	a0,s7
20002122:	10a010ef          	jal	2000322c <__clzsi2>
20002126:	01550693          	add	a3,a0,21 # 10015 <HeapSize+0xf815>
2000212a:	4771                	li	a4,28
2000212c:	02050793          	add	a5,a0,32
20002130:	c6d752e3          	bge	a4,a3,20001d94 <__divdf3+0xe6>
20002134:	1561                	add	a0,a0,-8
20002136:	4881                	li	a7,0
20002138:	00ab9433          	sll	s0,s7,a0
2000213c:	b1bd                	j	20001daa <__divdf3+0xfc>
2000213e:	0ee010ef          	jal	2000322c <__clzsi2>
20002142:	01550693          	add	a3,a0,21
20002146:	47f1                	li	a5,28
20002148:	02050713          	add	a4,a0,32
2000214c:	ccd7d6e3          	bge	a5,a3,20001e18 <__divdf3+0x16a>
20002150:	ff850793          	add	a5,a0,-8
20002154:	00f41ab3          	sll	s5,s0,a5
20002158:	4b01                	li	s6,0
2000215a:	b9d9                	j	20001e30 <__divdf3+0x182>
2000215c:	f2a796e3          	bne	a5,a0,20002088 <__divdf3+0x3da>
20002160:	d00707e3          	beqz	a4,20001e6e <__divdf3+0x1c0>
20002164:	b739                	j	20002072 <__divdf3+0x3c4>
20002166:	f8e61fe3          	bne	a2,a4,20002104 <__divdf3+0x456>
2000216a:	f80f09e3          	beqz	t5,200020fc <__divdf3+0x44e>
2000216e:	847e                	mv	s0,t6
20002170:	b599                	j	20001fb6 <__divdf3+0x308>
20002172:	dff773e3          	bgeu	a4,t6,20001f58 <__divdf3+0x2aa>
20002176:	18f9                	add	a7,a7,-2
20002178:	9732                	add	a4,a4,a2
2000217a:	b3c5                	j	20001f5a <__divdf3+0x2ac>
2000217c:	db17f9e3          	bgeu	a5,a7,20001f2e <__divdf3+0x280>
20002180:	1479                	add	s0,s0,-2
20002182:	97b2                	add	a5,a5,a2
20002184:	b375                	j	20001f30 <__divdf3+0x282>
20002186:	467d                	li	a2,31
20002188:	f0e656e3          	bge	a2,a4,20002094 <__divdf3+0x3e6>
2000218c:	5605                	li	a2,-31
2000218e:	40f607b3          	sub	a5,a2,a5
20002192:	02000613          	li	a2,32
20002196:	00f457b3          	srl	a5,s0,a5
2000219a:	00c70863          	beq	a4,a2,200021aa <__divdf3+0x4fc>
2000219e:	43e98993          	add	s3,s3,1086
200021a2:	013419b3          	sll	s3,s0,s3
200021a6:	0138e8b3          	or	a7,a7,s3
200021aa:	011038b3          	snez	a7,a7
200021ae:	00f8e8b3          	or	a7,a7,a5
200021b2:	0078f713          	and	a4,a7,7
200021b6:	4601                	li	a2,0
200021b8:	c31d                	beqz	a4,200021de <__divdf3+0x530>
200021ba:	00f8f793          	and	a5,a7,15
200021be:	4711                	li	a4,4
200021c0:	4401                	li	s0,0
200021c2:	00e78963          	beq	a5,a4,200021d4 <__divdf3+0x526>
200021c6:	00488793          	add	a5,a7,4
200021ca:	0117b8b3          	sltu	a7,a5,a7
200021ce:	01103433          	snez	s0,a7
200021d2:	88be                	mv	a7,a5
200021d4:	00941613          	sll	a2,s0,0x9
200021d8:	01d41713          	sll	a4,s0,0x1d
200021dc:	8231                	srl	a2,a2,0xc
200021de:	0038d893          	srl	a7,a7,0x3
200021e2:	00e8e733          	or	a4,a7,a4
200021e6:	4781                	li	a5,0
200021e8:	bef1                	j	20001dc4 <__divdf3+0x116>
200021ea:	889a                	mv	a7,t1
200021ec:	e8a81ee3          	bne	a6,a0,20002088 <__divdf3+0x3da>
200021f0:	c6b70fe3          	beq	a4,a1,20001e6e <__divdf3+0x1c0>
200021f4:	0018e893          	or	a7,a7,1
200021f8:	b99d                	j	20001e6e <__divdf3+0x1c0>
200021fa:	f0fef5e3          	bgeu	t4,a5,20002104 <__divdf3+0x456>
200021fe:	9eae                	add	t4,t4,a1
20002200:	00bebf33          	sltu	t5,t4,a1
20002204:	9f32                	add	t5,t5,a2
20002206:	1479                	add	s0,s0,-2
20002208:	8b76                	mv	s6,t4
2000220a:	977a                	add	a4,a4,t5
2000220c:	b36d                	j	20001fb6 <__divdf3+0x308>
2000220e:	c0200713          	li	a4,-1022
20002212:	3ff98793          	add	a5,s3,1023
20002216:	58fd                	li	a7,-1
20002218:	e6e9cbe3          	blt	s3,a4,2000208e <__divdf3+0x3e0>
2000221c:	00488713          	add	a4,a7,4
20002220:	011738b3          	sltu	a7,a4,a7
20002224:	9446                	add	s0,s0,a7
20002226:	88ba                	mv	a7,a4
20002228:	b999                	j	20001e7e <__divdf3+0x1d0>
2000222a:	00f8f713          	and	a4,a7,15
2000222e:	4611                	li	a2,4
20002230:	c4c707e3          	beq	a4,a2,20001e7e <__divdf3+0x1d0>
20002234:	b7e5                	j	2000221c <__divdf3+0x56e>
20002236:	8eba                	mv	t4,a4
20002238:	b3f5                	j	20002024 <__divdf3+0x376>
2000223a:	88f6                	mv	a7,t4
2000223c:	bb6d                	j	20001ff6 <__divdf3+0x348>
2000223e:	86ca                	mv	a3,s2
20002240:	7ff00793          	li	a5,2047
20002244:	4601                	li	a2,0
20002246:	4701                	li	a4,0
20002248:	beb5                	j	20001dc4 <__divdf3+0x116>
2000224a:	00159313          	sll	t1,a1,0x1
2000224e:	00b33833          	sltu	a6,t1,a1
20002252:	9832                	add	a6,a6,a2
20002254:	983e                	add	a6,a6,a5
20002256:	18f9                	add	a7,a7,-2
20002258:	859a                	mv	a1,t1
2000225a:	f8a80be3          	beq	a6,a0,200021f0 <__divdf3+0x542>
2000225e:	b52d                	j	20002088 <__divdf3+0x3da>
20002260:	fee5e5e3          	bltu	a1,a4,2000224a <__divdf3+0x59c>
20002264:	889a                	mv	a7,t1
20002266:	f8b717e3          	bne	a4,a1,200021f4 <__divdf3+0x546>
2000226a:	b111                	j	20001e6e <__divdf3+0x1c0>

2000226c <__gedf2>:
2000226c:	0145d893          	srl	a7,a1,0x14
20002270:	001007b7          	lui	a5,0x100
20002274:	17fd                	add	a5,a5,-1 # fffff <HeapSize+0xff7ff>
20002276:	0146d713          	srl	a4,a3,0x14
2000227a:	7ff8f893          	and	a7,a7,2047
2000227e:	7ff00e13          	li	t3,2047
20002282:	00b7f333          	and	t1,a5,a1
20002286:	882a                	mv	a6,a0
20002288:	8eaa                	mv	t4,a0
2000228a:	8ff5                	and	a5,a5,a3
2000228c:	81fd                	srl	a1,a1,0x1f
2000228e:	8f32                	mv	t5,a2
20002290:	7ff77513          	and	a0,a4,2047
20002294:	82fd                	srl	a3,a3,0x1f
20002296:	03c88d63          	beq	a7,t3,200022d0 <__gedf2+0x64>
2000229a:	01c50e63          	beq	a0,t3,200022b6 <__gedf2+0x4a>
2000229e:	04089a63          	bnez	a7,200022f2 <__gedf2+0x86>
200022a2:	01036833          	or	a6,t1,a6
200022a6:	e129                	bnez	a0,200022e8 <__gedf2+0x7c>
200022a8:	8e5d                	or	a2,a2,a5
200022aa:	ca25                	beqz	a2,2000231a <__gedf2+0xae>
200022ac:	06081c63          	bnez	a6,20002324 <__gedf2+0xb8>
200022b0:	4505                	li	a0,1
200022b2:	c2b5                	beqz	a3,20002316 <__gedf2+0xaa>
200022b4:	8082                	ret
200022b6:	8e5d                	or	a2,a2,a5
200022b8:	e625                	bnez	a2,20002320 <__gedf2+0xb4>
200022ba:	00089663          	bnez	a7,200022c6 <__gedf2+0x5a>
200022be:	01036333          	or	t1,t1,a6
200022c2:	fe0307e3          	beqz	t1,200022b0 <__gedf2+0x44>
200022c6:	04d58663          	beq	a1,a3,20002312 <__gedf2+0xa6>
200022ca:	e5b1                	bnez	a1,20002316 <__gedf2+0xaa>
200022cc:	4505                	li	a0,1
200022ce:	8082                	ret
200022d0:	01036333          	or	t1,t1,a6
200022d4:	04031663          	bnez	t1,20002320 <__gedf2+0xb4>
200022d8:	ff1519e3          	bne	a0,a7,200022ca <__gedf2+0x5e>
200022dc:	8fd1                	or	a5,a5,a2
200022de:	e3a9                	bnez	a5,20002320 <__gedf2+0xb4>
200022e0:	fed595e3          	bne	a1,a3,200022ca <__gedf2+0x5e>
200022e4:	4501                	li	a0,0
200022e6:	8082                	ret
200022e8:	fc0804e3          	beqz	a6,200022b0 <__gedf2+0x44>
200022ec:	fcd59fe3          	bne	a1,a3,200022ca <__gedf2+0x5e>
200022f0:	a00d                	j	20002312 <__gedf2+0xa6>
200022f2:	dd61                	beqz	a0,200022ca <__gedf2+0x5e>
200022f4:	fcd59be3          	bne	a1,a3,200022ca <__gedf2+0x5e>
200022f8:	fd1549e3          	blt	a0,a7,200022ca <__gedf2+0x5e>
200022fc:	00a8cb63          	blt	a7,a0,20002312 <__gedf2+0xa6>
20002300:	fc67e5e3          	bltu	a5,t1,200022ca <__gedf2+0x5e>
20002304:	00f31763          	bne	t1,a5,20002312 <__gedf2+0xa6>
20002308:	fddf61e3          	bltu	t5,t4,200022ca <__gedf2+0x5e>
2000230c:	4501                	li	a0,0
2000230e:	fbeef3e3          	bgeu	t4,t5,200022b4 <__gedf2+0x48>
20002312:	4505                	li	a0,1
20002314:	f1c5                	bnez	a1,200022b4 <__gedf2+0x48>
20002316:	557d                	li	a0,-1
20002318:	8082                	ret
2000231a:	fa0818e3          	bnez	a6,200022ca <__gedf2+0x5e>
2000231e:	8082                	ret
20002320:	5579                	li	a0,-2
20002322:	8082                	ret
20002324:	fcd58ee3          	beq	a1,a3,20002300 <__gedf2+0x94>
20002328:	b74d                	j	200022ca <__gedf2+0x5e>

2000232a <__ledf2>:
2000232a:	0145d893          	srl	a7,a1,0x14
2000232e:	001007b7          	lui	a5,0x100
20002332:	17fd                	add	a5,a5,-1 # fffff <HeapSize+0xff7ff>
20002334:	0146d713          	srl	a4,a3,0x14
20002338:	7ff8f893          	and	a7,a7,2047
2000233c:	7ff00313          	li	t1,2047
20002340:	00b7fe33          	and	t3,a5,a1
20002344:	882a                	mv	a6,a0
20002346:	8eaa                	mv	t4,a0
20002348:	8ff5                	and	a5,a5,a3
2000234a:	81fd                	srl	a1,a1,0x1f
2000234c:	8f32                	mv	t5,a2
2000234e:	7ff77513          	and	a0,a4,2047
20002352:	82fd                	srl	a3,a3,0x1f
20002354:	02688e63          	beq	a7,t1,20002390 <__ledf2+0x66>
20002358:	00650e63          	beq	a0,t1,20002374 <__ledf2+0x4a>
2000235c:	04089763          	bnez	a7,200023aa <__ledf2+0x80>
20002360:	010e6833          	or	a6,t3,a6
20002364:	e53d                	bnez	a0,200023d2 <__ledf2+0xa8>
20002366:	8e5d                	or	a2,a2,a5
20002368:	ce25                	beqz	a2,200023e0 <__ledf2+0xb6>
2000236a:	06081e63          	bnez	a6,200023e6 <__ledf2+0xbc>
2000236e:	4505                	li	a0,1
20002370:	ceb9                	beqz	a3,200023ce <__ledf2+0xa4>
20002372:	8082                	ret
20002374:	8e5d                	or	a2,a2,a5
20002376:	4509                	li	a0,2
20002378:	fe6d                	bnez	a2,20002372 <__ledf2+0x48>
2000237a:	00089663          	bnez	a7,20002386 <__ledf2+0x5c>
2000237e:	010e6e33          	or	t3,t3,a6
20002382:	fe0e06e3          	beqz	t3,2000236e <__ledf2+0x44>
20002386:	04d58263          	beq	a1,a3,200023ca <__ledf2+0xa0>
2000238a:	e1b1                	bnez	a1,200023ce <__ledf2+0xa4>
2000238c:	4505                	li	a0,1
2000238e:	8082                	ret
20002390:	010e6e33          	or	t3,t3,a6
20002394:	040e1463          	bnez	t3,200023dc <__ledf2+0xb2>
20002398:	ff1519e3          	bne	a0,a7,2000238a <__ledf2+0x60>
2000239c:	8fd1                	or	a5,a5,a2
2000239e:	4509                	li	a0,2
200023a0:	fbe9                	bnez	a5,20002372 <__ledf2+0x48>
200023a2:	fed594e3          	bne	a1,a3,2000238a <__ledf2+0x60>
200023a6:	4501                	li	a0,0
200023a8:	8082                	ret
200023aa:	d165                	beqz	a0,2000238a <__ledf2+0x60>
200023ac:	fcd59fe3          	bne	a1,a3,2000238a <__ledf2+0x60>
200023b0:	fd154de3          	blt	a0,a7,2000238a <__ledf2+0x60>
200023b4:	00a8cb63          	blt	a7,a0,200023ca <__ledf2+0xa0>
200023b8:	fdc7e9e3          	bltu	a5,t3,2000238a <__ledf2+0x60>
200023bc:	00fe1763          	bne	t3,a5,200023ca <__ledf2+0xa0>
200023c0:	fddf65e3          	bltu	t5,t4,2000238a <__ledf2+0x60>
200023c4:	4501                	li	a0,0
200023c6:	fbeef6e3          	bgeu	t4,t5,20002372 <__ledf2+0x48>
200023ca:	4505                	li	a0,1
200023cc:	f1dd                	bnez	a1,20002372 <__ledf2+0x48>
200023ce:	557d                	li	a0,-1
200023d0:	8082                	ret
200023d2:	f8080ee3          	beqz	a6,2000236e <__ledf2+0x44>
200023d6:	fad59ae3          	bne	a1,a3,2000238a <__ledf2+0x60>
200023da:	bfc5                	j	200023ca <__ledf2+0xa0>
200023dc:	4509                	li	a0,2
200023de:	8082                	ret
200023e0:	fa0815e3          	bnez	a6,2000238a <__ledf2+0x60>
200023e4:	8082                	ret
200023e6:	fcd589e3          	beq	a1,a3,200023b8 <__ledf2+0x8e>
200023ea:	b745                	j	2000238a <__ledf2+0x60>

200023ec <__muldf3>:
200023ec:	7179                	add	sp,sp,-48
200023ee:	0145d793          	srl	a5,a1,0x14
200023f2:	d422                	sw	s0,40(sp)
200023f4:	d226                	sw	s1,36(sp)
200023f6:	d04a                	sw	s2,32(sp)
200023f8:	ce4e                	sw	s3,28(sp)
200023fa:	ca56                	sw	s5,20(sp)
200023fc:	00c59493          	sll	s1,a1,0xc
20002400:	d606                	sw	ra,44(sp)
20002402:	cc52                	sw	s4,24(sp)
20002404:	c85a                	sw	s6,16(sp)
20002406:	c65e                	sw	s7,12(sp)
20002408:	c462                	sw	s8,8(sp)
2000240a:	7ff7f793          	and	a5,a5,2047
2000240e:	842a                	mv	s0,a0
20002410:	8ab2                	mv	s5,a2
20002412:	89b6                	mv	s3,a3
20002414:	80b1                	srl	s1,s1,0xc
20002416:	01f5d913          	srl	s2,a1,0x1f
2000241a:	32078f63          	beqz	a5,20002758 <__muldf3+0x36c>
2000241e:	7ff00713          	li	a4,2047
20002422:	08e78663          	beq	a5,a4,200024ae <__muldf3+0xc2>
20002426:	00349693          	sll	a3,s1,0x3
2000242a:	01d55713          	srl	a4,a0,0x1d
2000242e:	8f55                	or	a4,a4,a3
20002430:	008006b7          	lui	a3,0x800
20002434:	00d764b3          	or	s1,a4,a3
20002438:	00351a13          	sll	s4,a0,0x3
2000243c:	c0178c13          	add	s8,a5,-1023
20002440:	4b01                	li	s6,0
20002442:	4b81                	li	s7,0
20002444:	0149d793          	srl	a5,s3,0x14
20002448:	00c99713          	sll	a4,s3,0xc
2000244c:	7ff7f793          	and	a5,a5,2047
20002450:	8f56                	mv	t5,s5
20002452:	00c75413          	srl	s0,a4,0xc
20002456:	01f9d993          	srl	s3,s3,0x1f
2000245a:	cfbd                	beqz	a5,200024d8 <__muldf3+0xec>
2000245c:	7ff00713          	li	a4,2047
20002460:	0ee78f63          	beq	a5,a4,2000255e <__muldf3+0x172>
20002464:	00341713          	sll	a4,s0,0x3
20002468:	01dad593          	srl	a1,s5,0x1d
2000246c:	8dd9                	or	a1,a1,a4
2000246e:	c0178793          	add	a5,a5,-1023
20002472:	00800737          	lui	a4,0x800
20002476:	00e5e433          	or	s0,a1,a4
2000247a:	003a9f13          	sll	t5,s5,0x3
2000247e:	018788b3          	add	a7,a5,s8
20002482:	4301                	li	t1,0
20002484:	4729                	li	a4,10
20002486:	00188513          	add	a0,a7,1
2000248a:	09674963          	blt	a4,s6,2000251c <__muldf3+0x130>
2000248e:	013945b3          	xor	a1,s2,s3
20002492:	4789                	li	a5,2
20002494:	882e                	mv	a6,a1
20002496:	0f67c863          	blt	a5,s6,20002586 <__muldf3+0x19a>
2000249a:	1b7d                	add	s6,s6,-1
2000249c:	4705                	li	a4,1
2000249e:	11676263          	bltu	a4,s6,200025a2 <__muldf3+0x1b6>
200024a2:	2ef30963          	beq	t1,a5,20002794 <__muldf3+0x3a8>
200024a6:	84a2                	mv	s1,s0
200024a8:	8a7a                	mv	s4,t5
200024aa:	8b9a                	mv	s7,t1
200024ac:	a8bd                	j	2000252a <__muldf3+0x13e>
200024ae:	00a4ea33          	or	s4,s1,a0
200024b2:	2e0a1763          	bnez	s4,200027a0 <__muldf3+0x3b4>
200024b6:	0149d793          	srl	a5,s3,0x14
200024ba:	00c99713          	sll	a4,s3,0xc
200024be:	7ff7f793          	and	a5,a5,2047
200024c2:	4481                	li	s1,0
200024c4:	4b21                	li	s6,8
200024c6:	7ff00c13          	li	s8,2047
200024ca:	4b89                	li	s7,2
200024cc:	8f56                	mv	t5,s5
200024ce:	00c75413          	srl	s0,a4,0xc
200024d2:	01f9d993          	srl	s3,s3,0x1f
200024d6:	f3d9                	bnez	a5,2000245c <__muldf3+0x70>
200024d8:	015467b3          	or	a5,s0,s5
200024dc:	2c078d63          	beqz	a5,200027b6 <__muldf3+0x3ca>
200024e0:	36040a63          	beqz	s0,20002854 <__muldf3+0x468>
200024e4:	8522                	mv	a0,s0
200024e6:	547000ef          	jal	2000322c <__clzsi2>
200024ea:	88aa                	mv	a7,a0
200024ec:	ff550713          	add	a4,a0,-11
200024f0:	47f5                	li	a5,29
200024f2:	ff888f13          	add	t5,a7,-8
200024f6:	8f99                	sub	a5,a5,a4
200024f8:	00fad7b3          	srl	a5,s5,a5
200024fc:	01e41733          	sll	a4,s0,t5
20002500:	00e7e433          	or	s0,a5,a4
20002504:	01ea9f33          	sll	t5,s5,t5
20002508:	411c08b3          	sub	a7,s8,a7
2000250c:	c0d88893          	add	a7,a7,-1011
20002510:	4729                	li	a4,10
20002512:	4301                	li	t1,0
20002514:	00188513          	add	a0,a7,1
20002518:	f7675be3          	bge	a4,s6,2000248e <__muldf3+0xa2>
2000251c:	85ca                	mv	a1,s2
2000251e:	4789                	li	a5,2
20002520:	26fb8a63          	beq	s7,a5,20002794 <__muldf3+0x3a8>
20002524:	478d                	li	a5,3
20002526:	36fb8363          	beq	s7,a5,2000288c <__muldf3+0x4a0>
2000252a:	4785                	li	a5,1
2000252c:	882e                	mv	a6,a1
2000252e:	34fb9863          	bne	s7,a5,2000287e <__muldf3+0x492>
20002532:	4781                	li	a5,0
20002534:	4681                	li	a3,0
20002536:	4701                	li	a4,0
20002538:	50b2                	lw	ra,44(sp)
2000253a:	5422                	lw	s0,40(sp)
2000253c:	07d2                	sll	a5,a5,0x14
2000253e:	8fd5                	or	a5,a5,a3
20002540:	01f81693          	sll	a3,a6,0x1f
20002544:	8fd5                	or	a5,a5,a3
20002546:	5492                	lw	s1,36(sp)
20002548:	5902                	lw	s2,32(sp)
2000254a:	49f2                	lw	s3,28(sp)
2000254c:	4a62                	lw	s4,24(sp)
2000254e:	4ad2                	lw	s5,20(sp)
20002550:	4b42                	lw	s6,16(sp)
20002552:	4bb2                	lw	s7,12(sp)
20002554:	4c22                	lw	s8,8(sp)
20002556:	853a                	mv	a0,a4
20002558:	85be                	mv	a1,a5
2000255a:	6145                	add	sp,sp,48
2000255c:	8082                	ret
2000255e:	01546733          	or	a4,s0,s5
20002562:	7ffc0893          	add	a7,s8,2047
20002566:	24070f63          	beqz	a4,200027c4 <__muldf3+0x3d8>
2000256a:	6705                	lui	a4,0x1
2000256c:	01394833          	xor	a6,s2,s3
20002570:	80070713          	add	a4,a4,-2048 # 800 <HeapSize>
20002574:	003b6b13          	or	s6,s6,3
20002578:	46a9                	li	a3,10
2000257a:	85c2                	mv	a1,a6
2000257c:	00ec0533          	add	a0,s8,a4
20002580:	2b66c463          	blt	a3,s6,20002828 <__muldf3+0x43c>
20002584:	430d                	li	t1,3
20002586:	4605                	li	a2,1
20002588:	01661633          	sll	a2,a2,s6
2000258c:	53067713          	and	a4,a2,1328
20002590:	f759                	bnez	a4,2000251e <__muldf3+0x132>
20002592:	24067793          	and	a5,a2,576
20002596:	2c079e63          	bnez	a5,20002872 <__muldf3+0x486>
2000259a:	08867613          	and	a2,a2,136
2000259e:	22061963          	bnez	a2,200027d0 <__muldf3+0x3e4>
200025a2:	6fc1                	lui	t6,0x10
200025a4:	ffff8e93          	add	t4,t6,-1 # ffff <HeapSize+0xf7ff>
200025a8:	01da77b3          	and	a5,s4,t4
200025ac:	010a5693          	srl	a3,s4,0x10
200025b0:	01df7eb3          	and	t4,t5,t4
200025b4:	010f5e13          	srl	t3,t5,0x10
200025b8:	03d78733          	mul	a4,a5,t4
200025bc:	03d68333          	mul	t1,a3,t4
200025c0:	01075593          	srl	a1,a4,0x10
200025c4:	02fe0633          	mul	a2,t3,a5
200025c8:	961a                	add	a2,a2,t1
200025ca:	95b2                	add	a1,a1,a2
200025cc:	03c68f33          	mul	t5,a3,t3
200025d0:	0065f363          	bgeu	a1,t1,200025d6 <__muldf3+0x1ea>
200025d4:	9f7e                	add	t5,t5,t6
200025d6:	63c1                	lui	t2,0x10
200025d8:	fff38613          	add	a2,t2,-1 # ffff <HeapSize+0xf7ff>
200025dc:	00c5f333          	and	t1,a1,a2
200025e0:	01045f93          	srl	t6,s0,0x10
200025e4:	8f71                	and	a4,a4,a2
200025e6:	8c71                	and	s0,s0,a2
200025e8:	0342                	sll	t1,t1,0x10
200025ea:	028782b3          	mul	t0,a5,s0
200025ee:	933a                	add	t1,t1,a4
200025f0:	81c1                	srl	a1,a1,0x10
200025f2:	02868733          	mul	a4,a3,s0
200025f6:	0102d613          	srl	a2,t0,0x10
200025fa:	02ff87b3          	mul	a5,t6,a5
200025fe:	97ba                	add	a5,a5,a4
20002600:	963e                	add	a2,a2,a5
20002602:	03f687b3          	mul	a5,a3,t6
20002606:	00e67363          	bgeu	a2,a4,2000260c <__muldf3+0x220>
2000260a:	979e                	add	a5,a5,t2
2000260c:	6941                	lui	s2,0x10
2000260e:	fff90993          	add	s3,s2,-1 # ffff <HeapSize+0xf7ff>
20002612:	01367733          	and	a4,a2,s3
20002616:	0104d393          	srl	t2,s1,0x10
2000261a:	0134f6b3          	and	a3,s1,s3
2000261e:	0132f2b3          	and	t0,t0,s3
20002622:	0742                	sll	a4,a4,0x10
20002624:	02de84b3          	mul	s1,t4,a3
20002628:	9716                	add	a4,a4,t0
2000262a:	8241                	srl	a2,a2,0x10
2000262c:	963e                	add	a2,a2,a5
2000262e:	95ba                	add	a1,a1,a4
20002630:	02de02b3          	mul	t0,t3,a3
20002634:	0104d793          	srl	a5,s1,0x10
20002638:	03d38eb3          	mul	t4,t2,t4
2000263c:	92f6                	add	t0,t0,t4
2000263e:	9796                	add	a5,a5,t0
20002640:	027e0e33          	mul	t3,t3,t2
20002644:	01d7f363          	bgeu	a5,t4,2000264a <__muldf3+0x25e>
20002648:	9e4a                	add	t3,t3,s2
2000264a:	69c1                	lui	s3,0x10
2000264c:	fff98e93          	add	t4,s3,-1 # ffff <HeapSize+0xf7ff>
20002650:	01d7f2b3          	and	t0,a5,t4
20002654:	83c1                	srl	a5,a5,0x10
20002656:	97f2                	add	a5,a5,t3
20002658:	01d4feb3          	and	t4,s1,t4
2000265c:	02c2                	sll	t0,t0,0x10
2000265e:	02d40933          	mul	s2,s0,a3
20002662:	92f6                	add	t0,t0,t4
20002664:	02838433          	mul	s0,t2,s0
20002668:	01095e13          	srl	t3,s2,0x10
2000266c:	02df86b3          	mul	a3,t6,a3
20002670:	96a2                	add	a3,a3,s0
20002672:	9e36                	add	t3,t3,a3
20002674:	027f8eb3          	mul	t4,t6,t2
20002678:	008e7363          	bgeu	t3,s0,2000267e <__muldf3+0x292>
2000267c:	9ece                	add	t4,t4,s3
2000267e:	6fc1                	lui	t6,0x10
20002680:	1ffd                	add	t6,t6,-1 # ffff <HeapSize+0xf7ff>
20002682:	01fe76b3          	and	a3,t3,t6
20002686:	06c2                	sll	a3,a3,0x10
20002688:	01f97933          	and	s2,s2,t6
2000268c:	95fa                	add	a1,a1,t5
2000268e:	96ca                	add	a3,a3,s2
20002690:	9636                	add	a2,a2,a3
20002692:	00e5b733          	sltu	a4,a1,a4
20002696:	9732                	add	a4,a4,a2
20002698:	00558f33          	add	t5,a1,t0
2000269c:	97ba                	add	a5,a5,a4
2000269e:	00bf35b3          	sltu	a1,t5,a1
200026a2:	95be                	add	a1,a1,a5
200026a4:	00d636b3          	sltu	a3,a2,a3
200026a8:	00c73633          	sltu	a2,a4,a2
200026ac:	8ed1                	or	a3,a3,a2
200026ae:	00e7b733          	sltu	a4,a5,a4
200026b2:	010e5e13          	srl	t3,t3,0x10
200026b6:	00f5b7b3          	sltu	a5,a1,a5
200026ba:	96f2                	add	a3,a3,t3
200026bc:	8f5d                	or	a4,a4,a5
200026be:	009f1793          	sll	a5,t5,0x9
200026c2:	9736                	add	a4,a4,a3
200026c4:	0067e7b3          	or	a5,a5,t1
200026c8:	9776                	add	a4,a4,t4
200026ca:	00f037b3          	snez	a5,a5
200026ce:	017f5613          	srl	a2,t5,0x17
200026d2:	0726                	sll	a4,a4,0x9
200026d4:	0175d693          	srl	a3,a1,0x17
200026d8:	8fd1                	or	a5,a5,a2
200026da:	05a6                	sll	a1,a1,0x9
200026dc:	00b7ea33          	or	s4,a5,a1
200026e0:	00771793          	sll	a5,a4,0x7
200026e4:	00d764b3          	or	s1,a4,a3
200026e8:	0007dd63          	bgez	a5,20002702 <__muldf3+0x316>
200026ec:	001a5713          	srl	a4,s4,0x1
200026f0:	001a7793          	and	a5,s4,1
200026f4:	01f49693          	sll	a3,s1,0x1f
200026f8:	8fd9                	or	a5,a5,a4
200026fa:	00d7ea33          	or	s4,a5,a3
200026fe:	8085                	srl	s1,s1,0x1
20002700:	88aa                	mv	a7,a0
20002702:	3ff88613          	add	a2,a7,1023
20002706:	0cc05a63          	blez	a2,200027da <__muldf3+0x3ee>
2000270a:	007a7793          	and	a5,s4,7
2000270e:	cf81                	beqz	a5,20002726 <__muldf3+0x33a>
20002710:	00fa7793          	and	a5,s4,15
20002714:	4711                	li	a4,4
20002716:	00e78863          	beq	a5,a4,20002726 <__muldf3+0x33a>
2000271a:	004a0713          	add	a4,s4,4
2000271e:	014737b3          	sltu	a5,a4,s4
20002722:	94be                	add	s1,s1,a5
20002724:	8a3a                	mv	s4,a4
20002726:	00749793          	sll	a5,s1,0x7
2000272a:	0007d863          	bgez	a5,2000273a <__muldf3+0x34e>
2000272e:	ff0007b7          	lui	a5,0xff000
20002732:	17fd                	add	a5,a5,-1 # feffffff <__StackTop+0xdef7dfff>
20002734:	8cfd                	and	s1,s1,a5
20002736:	40088613          	add	a2,a7,1024
2000273a:	7fe00793          	li	a5,2046
2000273e:	14c7c263          	blt	a5,a2,20002882 <__muldf3+0x496>
20002742:	003a5793          	srl	a5,s4,0x3
20002746:	01d49713          	sll	a4,s1,0x1d
2000274a:	00949693          	sll	a3,s1,0x9
2000274e:	8f5d                	or	a4,a4,a5
20002750:	82b1                	srl	a3,a3,0xc
20002752:	7ff67793          	and	a5,a2,2047
20002756:	b3cd                	j	20002538 <__muldf3+0x14c>
20002758:	00a4ea33          	or	s4,s1,a0
2000275c:	040a0863          	beqz	s4,200027ac <__muldf3+0x3c0>
20002760:	cce1                	beqz	s1,20002838 <__muldf3+0x44c>
20002762:	8526                	mv	a0,s1
20002764:	2c9000ef          	jal	2000322c <__clzsi2>
20002768:	862a                	mv	a2,a0
2000276a:	ff550693          	add	a3,a0,-11
2000276e:	4775                	li	a4,29
20002770:	ff860793          	add	a5,a2,-8 # 7fff8 <HeapSize+0x7f7f8>
20002774:	8f15                	sub	a4,a4,a3
20002776:	00e45733          	srl	a4,s0,a4
2000277a:	00f496b3          	sll	a3,s1,a5
2000277e:	00d764b3          	or	s1,a4,a3
20002782:	00f41a33          	sll	s4,s0,a5
20002786:	c0d00793          	li	a5,-1011
2000278a:	40c78c33          	sub	s8,a5,a2
2000278e:	4b01                	li	s6,0
20002790:	4b81                	li	s7,0
20002792:	b94d                	j	20002444 <__muldf3+0x58>
20002794:	882e                	mv	a6,a1
20002796:	7ff00793          	li	a5,2047
2000279a:	4681                	li	a3,0
2000279c:	4701                	li	a4,0
2000279e:	bb69                	j	20002538 <__muldf3+0x14c>
200027a0:	8a2a                	mv	s4,a0
200027a2:	4b31                	li	s6,12
200027a4:	7ff00c13          	li	s8,2047
200027a8:	4b8d                	li	s7,3
200027aa:	b969                	j	20002444 <__muldf3+0x58>
200027ac:	4481                	li	s1,0
200027ae:	4b11                	li	s6,4
200027b0:	4c01                	li	s8,0
200027b2:	4b85                	li	s7,1
200027b4:	b941                	j	20002444 <__muldf3+0x58>
200027b6:	001b6b13          	or	s6,s6,1
200027ba:	88e2                	mv	a7,s8
200027bc:	4401                	li	s0,0
200027be:	4f01                	li	t5,0
200027c0:	4305                	li	t1,1
200027c2:	b1c9                	j	20002484 <__muldf3+0x98>
200027c4:	002b6b13          	or	s6,s6,2
200027c8:	4401                	li	s0,0
200027ca:	4f01                	li	t5,0
200027cc:	4309                	li	t1,2
200027ce:	b95d                	j	20002484 <__muldf3+0x98>
200027d0:	84a2                	mv	s1,s0
200027d2:	8a7a                	mv	s4,t5
200027d4:	8b9a                	mv	s7,t1
200027d6:	85ce                	mv	a1,s3
200027d8:	b399                	j	2000251e <__muldf3+0x132>
200027da:	4705                	li	a4,1
200027dc:	ee5d                	bnez	a2,2000289a <__muldf3+0x4ae>
200027de:	41e88893          	add	a7,a7,1054
200027e2:	011a1633          	sll	a2,s4,a7
200027e6:	00c03633          	snez	a2,a2
200027ea:	011498b3          	sll	a7,s1,a7
200027ee:	00ea57b3          	srl	a5,s4,a4
200027f2:	01166633          	or	a2,a2,a7
200027f6:	8e5d                	or	a2,a2,a5
200027f8:	00767793          	and	a5,a2,7
200027fc:	00e4d5b3          	srl	a1,s1,a4
20002800:	cf81                	beqz	a5,20002818 <__muldf3+0x42c>
20002802:	00f67793          	and	a5,a2,15
20002806:	4711                	li	a4,4
20002808:	00e78863          	beq	a5,a4,20002818 <__muldf3+0x42c>
2000280c:	00460793          	add	a5,a2,4
20002810:	00c7b633          	sltu	a2,a5,a2
20002814:	95b2                	add	a1,a1,a2
20002816:	863e                	mv	a2,a5
20002818:	00859513          	sll	a0,a1,0x8
2000281c:	4785                	li	a5,1
2000281e:	4681                	li	a3,0
20002820:	4701                	li	a4,0
20002822:	d0054be3          	bltz	a0,20002538 <__muldf3+0x14c>
20002826:	a0e1                	j	200028ee <__muldf3+0x502>
20002828:	473d                	li	a4,15
2000282a:	0ceb1b63          	bne	s6,a4,20002900 <__muldf3+0x514>
2000282e:	4801                	li	a6,0
20002830:	000806b7          	lui	a3,0x80
20002834:	4701                	li	a4,0
20002836:	b309                	j	20002538 <__muldf3+0x14c>
20002838:	1f5000ef          	jal	2000322c <__clzsi2>
2000283c:	01550693          	add	a3,a0,21
20002840:	47f1                	li	a5,28
20002842:	02050613          	add	a2,a0,32
20002846:	f2d7d4e3          	bge	a5,a3,2000276e <__muldf3+0x382>
2000284a:	1561                	add	a0,a0,-8
2000284c:	4a01                	li	s4,0
2000284e:	00a414b3          	sll	s1,s0,a0
20002852:	bf15                	j	20002786 <__muldf3+0x39a>
20002854:	8556                	mv	a0,s5
20002856:	1d7000ef          	jal	2000322c <__clzsi2>
2000285a:	01550713          	add	a4,a0,21
2000285e:	47f1                	li	a5,28
20002860:	02050893          	add	a7,a0,32
20002864:	c8e7d6e3          	bge	a5,a4,200024f0 <__muldf3+0x104>
20002868:	1561                	add	a0,a0,-8
2000286a:	4f01                	li	t5,0
2000286c:	00aa9433          	sll	s0,s5,a0
20002870:	b961                	j	20002508 <__muldf3+0x11c>
20002872:	4801                	li	a6,0
20002874:	7ff00793          	li	a5,2047
20002878:	000806b7          	lui	a3,0x80
2000287c:	b975                	j	20002538 <__muldf3+0x14c>
2000287e:	88aa                	mv	a7,a0
20002880:	b549                	j	20002702 <__muldf3+0x316>
20002882:	7ff00793          	li	a5,2047
20002886:	4681                	li	a3,0
20002888:	4701                	li	a4,0
2000288a:	b17d                	j	20002538 <__muldf3+0x14c>
2000288c:	4801                	li	a6,0
2000288e:	7ff00793          	li	a5,2047
20002892:	000806b7          	lui	a3,0x80
20002896:	4701                	li	a4,0
20002898:	b145                	j	20002538 <__muldf3+0x14c>
2000289a:	8f11                	sub	a4,a4,a2
2000289c:	03800793          	li	a5,56
200028a0:	c8e7c9e3          	blt	a5,a4,20002532 <__muldf3+0x146>
200028a4:	47fd                	li	a5,31
200028a6:	f2e7dce3          	bge	a5,a4,200027de <__muldf3+0x3f2>
200028aa:	5785                	li	a5,-31
200028ac:	8f91                	sub	a5,a5,a2
200028ae:	02000693          	li	a3,32
200028b2:	00f4d7b3          	srl	a5,s1,a5
200028b6:	00d70863          	beq	a4,a3,200028c6 <__muldf3+0x4da>
200028ba:	43e88893          	add	a7,a7,1086
200028be:	011498b3          	sll	a7,s1,a7
200028c2:	011a6a33          	or	s4,s4,a7
200028c6:	01403633          	snez	a2,s4
200028ca:	8e5d                	or	a2,a2,a5
200028cc:	00767713          	and	a4,a2,7
200028d0:	4681                	li	a3,0
200028d2:	c31d                	beqz	a4,200028f8 <__muldf3+0x50c>
200028d4:	00f67793          	and	a5,a2,15
200028d8:	4711                	li	a4,4
200028da:	4581                	li	a1,0
200028dc:	00e78963          	beq	a5,a4,200028ee <__muldf3+0x502>
200028e0:	00460793          	add	a5,a2,4
200028e4:	00c7b633          	sltu	a2,a5,a2
200028e8:	00c035b3          	snez	a1,a2
200028ec:	863e                	mv	a2,a5
200028ee:	00959693          	sll	a3,a1,0x9
200028f2:	01d59713          	sll	a4,a1,0x1d
200028f6:	82b1                	srl	a3,a3,0xc
200028f8:	820d                	srl	a2,a2,0x3
200028fa:	8f51                	or	a4,a4,a2
200028fc:	4781                	li	a5,0
200028fe:	b92d                	j	20002538 <__muldf3+0x14c>
20002900:	84a2                	mv	s1,s0
20002902:	8a56                	mv	s4,s5
20002904:	4b8d                	li	s7,3
20002906:	85ce                	mv	a1,s3
20002908:	b919                	j	2000251e <__muldf3+0x132>

2000290a <__subdf3>:
2000290a:	001007b7          	lui	a5,0x100
2000290e:	17fd                	add	a5,a5,-1 # fffff <HeapSize+0xff7ff>
20002910:	1101                	add	sp,sp,-32
20002912:	00b7f8b3          	and	a7,a5,a1
20002916:	00d7f833          	and	a6,a5,a3
2000291a:	0146d793          	srl	a5,a3,0x14
2000291e:	088e                	sll	a7,a7,0x3
20002920:	cc22                	sw	s0,24(sp)
20002922:	c64e                	sw	s3,12(sp)
20002924:	01f5d413          	srl	s0,a1,0x1f
20002928:	0145d993          	srl	s3,a1,0x14
2000292c:	01d55713          	srl	a4,a0,0x1d
20002930:	080e                	sll	a6,a6,0x3
20002932:	01d65593          	srl	a1,a2,0x1d
20002936:	ce06                	sw	ra,28(sp)
20002938:	ca26                	sw	s1,20(sp)
2000293a:	c84a                	sw	s2,16(sp)
2000293c:	7ff7ff13          	and	t5,a5,2047
20002940:	7ff00313          	li	t1,2047
20002944:	01176733          	or	a4,a4,a7
20002948:	7ff9f993          	and	s3,s3,2047
2000294c:	8e22                	mv	t3,s0
2000294e:	00351893          	sll	a7,a0,0x3
20002952:	82fd                	srl	a3,a3,0x1f
20002954:	0105e5b3          	or	a1,a1,a6
20002958:	00361e93          	sll	t4,a2,0x3
2000295c:	1c6f0163          	beq	t5,t1,20002b1e <__subdf3+0x214>
20002960:	0016c693          	xor	a3,a3,1
20002964:	41e987b3          	sub	a5,s3,t5
20002968:	12d40263          	beq	s0,a3,20002a8c <__subdf3+0x182>
2000296c:	68f05863          	blez	a5,20002ffc <__subdf3+0x6f2>
20002970:	1e0f0763          	beqz	t5,20002b5e <__subdf3+0x254>
20002974:	32698463          	beq	s3,t1,20002c9c <__subdf3+0x392>
20002978:	03800693          	li	a3,56
2000297c:	4505                	li	a0,1
2000297e:	02f6c863          	blt	a3,a5,200029ae <__subdf3+0xa4>
20002982:	008006b7          	lui	a3,0x800
20002986:	8dd5                	or	a1,a1,a3
20002988:	46fd                	li	a3,31
2000298a:	40f6ca63          	blt	a3,a5,20002d9e <__subdf3+0x494>
2000298e:	02000693          	li	a3,32
20002992:	8e9d                	sub	a3,a3,a5
20002994:	00d59533          	sll	a0,a1,a3
20002998:	00fed633          	srl	a2,t4,a5
2000299c:	00de96b3          	sll	a3,t4,a3
200029a0:	8d51                	or	a0,a0,a2
200029a2:	00d036b3          	snez	a3,a3
200029a6:	00f5d7b3          	srl	a5,a1,a5
200029aa:	8d55                	or	a0,a0,a3
200029ac:	8f1d                	sub	a4,a4,a5
200029ae:	40a88533          	sub	a0,a7,a0
200029b2:	00a8b633          	sltu	a2,a7,a0
200029b6:	84aa                	mv	s1,a0
200029b8:	40c70933          	sub	s2,a4,a2
200029bc:	00891793          	sll	a5,s2,0x8
200029c0:	2c07d363          	bgez	a5,20002c86 <__subdf3+0x37c>
200029c4:	008007b7          	lui	a5,0x800
200029c8:	17fd                	add	a5,a5,-1 # 7fffff <HeapSize+0x7ff7ff>
200029ca:	00f97933          	and	s2,s2,a5
200029ce:	26090863          	beqz	s2,20002c3e <__subdf3+0x334>
200029d2:	854a                	mv	a0,s2
200029d4:	059000ef          	jal	2000322c <__clzsi2>
200029d8:	ff850793          	add	a5,a0,-8
200029dc:	02000693          	li	a3,32
200029e0:	40f68733          	sub	a4,a3,a5
200029e4:	00e4d733          	srl	a4,s1,a4
200029e8:	00f91933          	sll	s2,s2,a5
200029ec:	01276733          	or	a4,a4,s2
200029f0:	00f494b3          	sll	s1,s1,a5
200029f4:	3337cc63          	blt	a5,s3,20002d2c <__subdf3+0x422>
200029f8:	413787b3          	sub	a5,a5,s3
200029fc:	0785                	add	a5,a5,1
200029fe:	8e9d                	sub	a3,a3,a5
20002a00:	00d49633          	sll	a2,s1,a3
20002a04:	00f4d933          	srl	s2,s1,a5
20002a08:	00c03633          	snez	a2,a2
20002a0c:	00c96633          	or	a2,s2,a2
20002a10:	00d716b3          	sll	a3,a4,a3
20002a14:	00c6e4b3          	or	s1,a3,a2
20002a18:	00f75933          	srl	s2,a4,a5
20002a1c:	4981                	li	s3,0
20002a1e:	0074f793          	and	a5,s1,7
20002a22:	cf81                	beqz	a5,20002a3a <__subdf3+0x130>
20002a24:	00f4f793          	and	a5,s1,15
20002a28:	4711                	li	a4,4
20002a2a:	00e78863          	beq	a5,a4,20002a3a <__subdf3+0x130>
20002a2e:	00448793          	add	a5,s1,4
20002a32:	0097b533          	sltu	a0,a5,s1
20002a36:	992a                	add	s2,s2,a0
20002a38:	84be                	mv	s1,a5
20002a3a:	00891793          	sll	a5,s2,0x8
20002a3e:	5607dd63          	bgez	a5,20002fb8 <__subdf3+0x6ae>
20002a42:	00198793          	add	a5,s3,1
20002a46:	7ff00713          	li	a4,2047
20002a4a:	1ee78363          	beq	a5,a4,20002c30 <__subdf3+0x326>
20002a4e:	ff800737          	lui	a4,0xff800
20002a52:	177d                	add	a4,a4,-1 # ff7fffff <__StackTop+0xdf77dfff>
20002a54:	00e97733          	and	a4,s2,a4
20002a58:	7ff7f793          	and	a5,a5,2047
20002a5c:	01d71813          	sll	a6,a4,0x1d
20002a60:	0034d513          	srl	a0,s1,0x3
20002a64:	0726                	sll	a4,a4,0x9
20002a66:	00a86833          	or	a6,a6,a0
20002a6a:	8331                	srl	a4,a4,0xc
20002a6c:	00147e13          	and	t3,s0,1
20002a70:	40f2                	lw	ra,28(sp)
20002a72:	4462                	lw	s0,24(sp)
20002a74:	07d2                	sll	a5,a5,0x14
20002a76:	8fd9                	or	a5,a5,a4
20002a78:	01fe1713          	sll	a4,t3,0x1f
20002a7c:	8fd9                	or	a5,a5,a4
20002a7e:	44d2                	lw	s1,20(sp)
20002a80:	4942                	lw	s2,16(sp)
20002a82:	49b2                	lw	s3,12(sp)
20002a84:	8542                	mv	a0,a6
20002a86:	85be                	mv	a1,a5
20002a88:	6105                	add	sp,sp,32
20002a8a:	8082                	ret
20002a8c:	5af05463          	blez	a5,20003034 <__subdf3+0x72a>
20002a90:	180f1563          	bnez	t5,20002c1a <__subdf3+0x310>
20002a94:	01d5e6b3          	or	a3,a1,t4
20002a98:	20068a63          	beqz	a3,20002cac <__subdf3+0x3a2>
20002a9c:	fff78693          	add	a3,a5,-1
20002aa0:	3a068163          	beqz	a3,20002e42 <__subdf3+0x538>
20002aa4:	1e678c63          	beq	a5,t1,20002c9c <__subdf3+0x392>
20002aa8:	03800793          	li	a5,56
20002aac:	4905                	li	s2,1
20002aae:	02d7c863          	blt	a5,a3,20002ade <__subdf3+0x1d4>
20002ab2:	87b6                	mv	a5,a3
20002ab4:	46fd                	li	a3,31
20002ab6:	3af6ce63          	blt	a3,a5,20002e72 <__subdf3+0x568>
20002aba:	02000693          	li	a3,32
20002abe:	8e9d                	sub	a3,a3,a5
20002ac0:	00d59933          	sll	s2,a1,a3
20002ac4:	00fed633          	srl	a2,t4,a5
20002ac8:	00de96b3          	sll	a3,t4,a3
20002acc:	00c96933          	or	s2,s2,a2
20002ad0:	00d036b3          	snez	a3,a3
20002ad4:	00f5d7b3          	srl	a5,a1,a5
20002ad8:	00d96933          	or	s2,s2,a3
20002adc:	973e                	add	a4,a4,a5
20002ade:	01190633          	add	a2,s2,a7
20002ae2:	01263933          	sltu	s2,a2,s2
20002ae6:	84b2                	mv	s1,a2
20002ae8:	993a                	add	s2,s2,a4
20002aea:	00891793          	sll	a5,s2,0x8
20002aee:	1807dc63          	bgez	a5,20002c86 <__subdf3+0x37c>
20002af2:	0985                	add	s3,s3,1
20002af4:	7ff00793          	li	a5,2047
20002af8:	12f98c63          	beq	s3,a5,20002c30 <__subdf3+0x326>
20002afc:	ff8007b7          	lui	a5,0xff800
20002b00:	17fd                	add	a5,a5,-1 # ff7fffff <__StackTop+0xdf77dfff>
20002b02:	0014f513          	and	a0,s1,1
20002b06:	00f977b3          	and	a5,s2,a5
20002b0a:	0014d713          	srl	a4,s1,0x1
20002b0e:	8f49                	or	a4,a4,a0
20002b10:	01f79513          	sll	a0,a5,0x1f
20002b14:	00e564b3          	or	s1,a0,a4
20002b18:	0017d913          	srl	s2,a5,0x1
20002b1c:	b709                	j	20002a1e <__subdf3+0x114>
20002b1e:	01d5e833          	or	a6,a1,t4
20002b22:	80198313          	add	t1,s3,-2047
20002b26:	04080d63          	beqz	a6,20002b80 <__subdf3+0x276>
20002b2a:	04d40f63          	beq	s0,a3,20002b88 <__subdf3+0x27e>
20002b2e:	0c030163          	beqz	t1,20002bf0 <__subdf3+0x2e6>
20002b32:	20098563          	beqz	s3,20002d3c <__subdf3+0x432>
20002b36:	00361513          	sll	a0,a2,0x3
20002b3a:	810d                	srl	a0,a0,0x3
20002b3c:	8436                	mv	s0,a3
20002b3e:	872e                	mv	a4,a1
20002b40:	01d71813          	sll	a6,a4,0x1d
20002b44:	00a86833          	or	a6,a6,a0
20002b48:	830d                	srl	a4,a4,0x3
20002b4a:	01076733          	or	a4,a4,a6
20002b4e:	c36d                	beqz	a4,20002c30 <__subdf3+0x326>
20002b50:	4e01                	li	t3,0
20002b52:	7ff00793          	li	a5,2047
20002b56:	00080737          	lui	a4,0x80
20002b5a:	4801                	li	a6,0
20002b5c:	bf11                	j	20002a70 <__subdf3+0x166>
20002b5e:	01d5e6b3          	or	a3,a1,t4
20002b62:	14068563          	beqz	a3,20002cac <__subdf3+0x3a2>
20002b66:	fff78693          	add	a3,a5,-1
20002b6a:	2e068963          	beqz	a3,20002e5c <__subdf3+0x552>
20002b6e:	12678763          	beq	a5,t1,20002c9c <__subdf3+0x392>
20002b72:	03800793          	li	a5,56
20002b76:	4505                	li	a0,1
20002b78:	e2d7cbe3          	blt	a5,a3,200029ae <__subdf3+0xa4>
20002b7c:	87b6                	mv	a5,a3
20002b7e:	b529                	j	20002988 <__subdf3+0x7e>
20002b80:	0016c693          	xor	a3,a3,1
20002b84:	fad415e3          	bne	s0,a3,20002b2e <__subdf3+0x224>
20002b88:	14030463          	beqz	t1,20002cd0 <__subdf3+0x3c6>
20002b8c:	24099463          	bnez	s3,20002dd4 <__subdf3+0x4ca>
20002b90:	7ff00793          	li	a5,2047
20002b94:	011766b3          	or	a3,a4,a7
20002b98:	3a068763          	beqz	a3,20002f46 <__subdf3+0x63c>
20002b9c:	fff78693          	add	a3,a5,-1
20002ba0:	2a068163          	beqz	a3,20002e42 <__subdf3+0x538>
20002ba4:	7ff00513          	li	a0,2047
20002ba8:	22a78663          	beq	a5,a0,20002dd4 <__subdf3+0x4ca>
20002bac:	03800793          	li	a5,56
20002bb0:	4905                	li	s2,1
20002bb2:	02d7c763          	blt	a5,a3,20002be0 <__subdf3+0x2d6>
20002bb6:	47fd                	li	a5,31
20002bb8:	3cd7cb63          	blt	a5,a3,20002f8e <__subdf3+0x684>
20002bbc:	02000793          	li	a5,32
20002bc0:	8f95                	sub	a5,a5,a3
20002bc2:	00f71933          	sll	s2,a4,a5
20002bc6:	00d8d633          	srl	a2,a7,a3
20002bca:	00f897b3          	sll	a5,a7,a5
20002bce:	00c96933          	or	s2,s2,a2
20002bd2:	00f037b3          	snez	a5,a5
20002bd6:	00d756b3          	srl	a3,a4,a3
20002bda:	00f96933          	or	s2,s2,a5
20002bde:	95b6                	add	a1,a1,a3
20002be0:	01d90733          	add	a4,s2,t4
20002be4:	01273933          	sltu	s2,a4,s2
20002be8:	84ba                	mv	s1,a4
20002bea:	992e                	add	s2,s2,a1
20002bec:	89fa                	mv	s3,t5
20002bee:	bdf5                	j	20002aea <__subdf3+0x1e0>
20002bf0:	00198793          	add	a5,s3,1
20002bf4:	7fe7f793          	and	a5,a5,2046
20002bf8:	10079563          	bnez	a5,20002d02 <__subdf3+0x3f8>
20002bfc:	01d5e833          	or	a6,a1,t4
20002c00:	011767b3          	or	a5,a4,a7
20002c04:	22099263          	bnez	s3,20002e28 <__subdf3+0x51e>
20002c08:	2e078163          	beqz	a5,20002eea <__subdf3+0x5e0>
20002c0c:	2e081e63          	bnez	a6,20002f08 <__subdf3+0x5fe>
20002c10:	050e                	sll	a0,a0,0x3
20002c12:	00355913          	srl	s2,a0,0x3
20002c16:	4781                	li	a5,0
20002c18:	a8f9                	j	20002cf6 <__subdf3+0x3ec>
20002c1a:	08698163          	beq	s3,t1,20002c9c <__subdf3+0x392>
20002c1e:	03800693          	li	a3,56
20002c22:	4905                	li	s2,1
20002c24:	eaf6cde3          	blt	a3,a5,20002ade <__subdf3+0x1d4>
20002c28:	008006b7          	lui	a3,0x800
20002c2c:	8dd5                	or	a1,a1,a3
20002c2e:	b559                	j	20002ab4 <__subdf3+0x1aa>
20002c30:	00147e13          	and	t3,s0,1
20002c34:	7ff00793          	li	a5,2047
20002c38:	4701                	li	a4,0
20002c3a:	4801                	li	a6,0
20002c3c:	bd15                	j	20002a70 <__subdf3+0x166>
20002c3e:	8526                	mv	a0,s1
20002c40:	23f5                	jal	2000322c <__clzsi2>
20002c42:	01850793          	add	a5,a0,24
20002c46:	46fd                	li	a3,31
20002c48:	d8f6dae3          	bge	a3,a5,200029dc <__subdf3+0xd2>
20002c4c:	ff850713          	add	a4,a0,-8
20002c50:	00e49733          	sll	a4,s1,a4
20002c54:	1737c963          	blt	a5,s3,20002dc6 <__subdf3+0x4bc>
20002c58:	413789b3          	sub	s3,a5,s3
20002c5c:	00198793          	add	a5,s3,1
20002c60:	36f6d163          	bge	a3,a5,20002fc2 <__subdf3+0x6b8>
20002c64:	1985                	add	s3,s3,-31
20002c66:	02000693          	li	a3,32
20002c6a:	013754b3          	srl	s1,a4,s3
20002c6e:	00d78b63          	beq	a5,a3,20002c84 <__subdf3+0x37a>
20002c72:	04000693          	li	a3,64
20002c76:	40f687b3          	sub	a5,a3,a5
20002c7a:	00f71733          	sll	a4,a4,a5
20002c7e:	00e03733          	snez	a4,a4
20002c82:	8cd9                	or	s1,s1,a4
20002c84:	4981                	li	s3,0
20002c86:	0074f793          	and	a5,s1,7
20002c8a:	d8079de3          	bnez	a5,20002a24 <__subdf3+0x11a>
20002c8e:	87ce                	mv	a5,s3
20002c90:	0034d513          	srl	a0,s1,0x3
20002c94:	874a                	mv	a4,s2
20002c96:	a829                	j	20002cb0 <__subdf3+0x3a6>
20002c98:	ea081ce3          	bnez	a6,20002b50 <__subdf3+0x246>
20002c9c:	050e                	sll	a0,a0,0x3
20002c9e:	01d71813          	sll	a6,a4,0x1d
20002ca2:	810d                	srl	a0,a0,0x3
20002ca4:	00a86833          	or	a6,a6,a0
20002ca8:	830d                	srl	a4,a4,0x3
20002caa:	b545                	j	20002b4a <__subdf3+0x240>
20002cac:	050e                	sll	a0,a0,0x3
20002cae:	810d                	srl	a0,a0,0x3
20002cb0:	01d71813          	sll	a6,a4,0x1d
20002cb4:	7ff00693          	li	a3,2047
20002cb8:	00a86833          	or	a6,a6,a0
20002cbc:	830d                	srl	a4,a4,0x3
20002cbe:	e8d786e3          	beq	a5,a3,20002b4a <__subdf3+0x240>
20002cc2:	0732                	sll	a4,a4,0xc
20002cc4:	8331                	srl	a4,a4,0xc
20002cc6:	7ff7f793          	and	a5,a5,2047
20002cca:	00147e13          	and	t3,s0,1
20002cce:	b34d                	j	20002a70 <__subdf3+0x166>
20002cd0:	00198693          	add	a3,s3,1
20002cd4:	7fe6f793          	and	a5,a3,2046
20002cd8:	10079363          	bnez	a5,20002dde <__subdf3+0x4d4>
20002cdc:	011767b3          	or	a5,a4,a7
20002ce0:	1e099263          	bnez	s3,20002ec4 <__subdf3+0x5ba>
20002ce4:	26078663          	beqz	a5,20002f50 <__subdf3+0x646>
20002ce8:	01d5e7b3          	or	a5,a1,t4
20002cec:	26079763          	bnez	a5,20002f5a <__subdf3+0x650>
20002cf0:	050e                	sll	a0,a0,0x3
20002cf2:	00355913          	srl	s2,a0,0x3
20002cf6:	01d71813          	sll	a6,a4,0x1d
20002cfa:	01286833          	or	a6,a6,s2
20002cfe:	830d                	srl	a4,a4,0x3
20002d00:	b7c9                	j	20002cc2 <__subdf3+0x3b8>
20002d02:	41d88833          	sub	a6,a7,t4
20002d06:	0108b7b3          	sltu	a5,a7,a6
20002d0a:	40b70933          	sub	s2,a4,a1
20002d0e:	40f90933          	sub	s2,s2,a5
20002d12:	00891793          	sll	a5,s2,0x8
20002d16:	84c2                	mv	s1,a6
20002d18:	0e07c763          	bltz	a5,20002e06 <__subdf3+0x4fc>
20002d1c:	01286833          	or	a6,a6,s2
20002d20:	ca0817e3          	bnez	a6,200029ce <__subdf3+0xc4>
20002d24:	4e01                	li	t3,0
20002d26:	4781                	li	a5,0
20002d28:	4701                	li	a4,0
20002d2a:	b399                	j	20002a70 <__subdf3+0x166>
20002d2c:	ff800937          	lui	s2,0xff800
20002d30:	197d                	add	s2,s2,-1 # ff7fffff <__StackTop+0xdf77dfff>
20002d32:	40f989b3          	sub	s3,s3,a5
20002d36:	01277933          	and	s2,a4,s2
20002d3a:	b1d5                	j	20002a1e <__subdf3+0x114>
20002d3c:	7ff00793          	li	a5,2047
20002d40:	01176533          	or	a0,a4,a7
20002d44:	cd61                	beqz	a0,20002e1c <__subdf3+0x512>
20002d46:	fff78813          	add	a6,a5,-1
20002d4a:	18080363          	beqz	a6,20002ed0 <__subdf3+0x5c6>
20002d4e:	7ff00513          	li	a0,2047
20002d52:	dea782e3          	beq	a5,a0,20002b36 <__subdf3+0x22c>
20002d56:	03800793          	li	a5,56
20002d5a:	8436                	mv	s0,a3
20002d5c:	4505                	li	a0,1
20002d5e:	0307c763          	blt	a5,a6,20002d8c <__subdf3+0x482>
20002d62:	47fd                	li	a5,31
20002d64:	1307cc63          	blt	a5,a6,20002e9c <__subdf3+0x592>
20002d68:	02000793          	li	a5,32
20002d6c:	410787b3          	sub	a5,a5,a6
20002d70:	00f71533          	sll	a0,a4,a5
20002d74:	0108d6b3          	srl	a3,a7,a6
20002d78:	00f897b3          	sll	a5,a7,a5
20002d7c:	8d55                	or	a0,a0,a3
20002d7e:	00f037b3          	snez	a5,a5
20002d82:	01075833          	srl	a6,a4,a6
20002d86:	8d5d                	or	a0,a0,a5
20002d88:	410585b3          	sub	a1,a1,a6
20002d8c:	40ae8533          	sub	a0,t4,a0
20002d90:	00aeb733          	sltu	a4,t4,a0
20002d94:	84aa                	mv	s1,a0
20002d96:	40e58933          	sub	s2,a1,a4
20002d9a:	89fa                	mv	s3,t5
20002d9c:	b105                	j	200029bc <__subdf3+0xb2>
20002d9e:	fe078693          	add	a3,a5,-32
20002da2:	02000613          	li	a2,32
20002da6:	00d5d6b3          	srl	a3,a1,a3
20002daa:	00c78a63          	beq	a5,a2,20002dbe <__subdf3+0x4b4>
20002dae:	04000613          	li	a2,64
20002db2:	40f607b3          	sub	a5,a2,a5
20002db6:	00f597b3          	sll	a5,a1,a5
20002dba:	00feeeb3          	or	t4,t4,a5
20002dbe:	01d03533          	snez	a0,t4
20002dc2:	8d55                	or	a0,a0,a3
20002dc4:	b6ed                	j	200029ae <__subdf3+0xa4>
20002dc6:	ff8006b7          	lui	a3,0xff800
20002dca:	16fd                	add	a3,a3,-1 # ff7fffff <__StackTop+0xdf77dfff>
20002dcc:	40f987b3          	sub	a5,s3,a5
20002dd0:	8f75                	and	a4,a4,a3
20002dd2:	b715                	j	20002cf6 <__subdf3+0x3ec>
20002dd4:	00361513          	sll	a0,a2,0x3
20002dd8:	810d                	srl	a0,a0,0x3
20002dda:	872e                	mv	a4,a1
20002ddc:	b395                	j	20002b40 <__subdf3+0x236>
20002dde:	7ff00793          	li	a5,2047
20002de2:	e4f687e3          	beq	a3,a5,20002c30 <__subdf3+0x326>
20002de6:	9ec6                	add	t4,t4,a7
20002de8:	011eb633          	sltu	a2,t4,a7
20002dec:	00b707b3          	add	a5,a4,a1
20002df0:	97b2                	add	a5,a5,a2
20002df2:	01f79513          	sll	a0,a5,0x1f
20002df6:	001ede93          	srl	t4,t4,0x1
20002dfa:	01d564b3          	or	s1,a0,t4
20002dfe:	0017d913          	srl	s2,a5,0x1
20002e02:	89b6                	mv	s3,a3
20002e04:	b929                	j	20002a1e <__subdf3+0x114>
20002e06:	411e8633          	sub	a2,t4,a7
20002e0a:	40e587b3          	sub	a5,a1,a4
20002e0e:	00ceb733          	sltu	a4,t4,a2
20002e12:	84b2                	mv	s1,a2
20002e14:	40e78933          	sub	s2,a5,a4
20002e18:	8436                	mv	s0,a3
20002e1a:	be55                	j	200029ce <__subdf3+0xc4>
20002e1c:	060e                	sll	a2,a2,0x3
20002e1e:	00365513          	srl	a0,a2,0x3
20002e22:	8436                	mv	s0,a3
20002e24:	872e                	mv	a4,a1
20002e26:	b569                	j	20002cb0 <__subdf3+0x3a6>
20002e28:	e60798e3          	bnez	a5,20002c98 <__subdf3+0x38e>
20002e2c:	1a080963          	beqz	a6,20002fde <__subdf3+0x6d4>
20002e30:	0035d713          	srl	a4,a1,0x3
20002e34:	060e                	sll	a2,a2,0x3
20002e36:	05f6                	sll	a1,a1,0x1d
20002e38:	8f4d                	or	a4,a4,a1
20002e3a:	820d                	srl	a2,a2,0x3
20002e3c:	8f51                	or	a4,a4,a2
20002e3e:	8436                	mv	s0,a3
20002e40:	b339                	j	20002b4e <__subdf3+0x244>
20002e42:	9ec6                	add	t4,t4,a7
20002e44:	95ba                	add	a1,a1,a4
20002e46:	011eb633          	sltu	a2,t4,a7
20002e4a:	00c58933          	add	s2,a1,a2
20002e4e:	00891793          	sll	a5,s2,0x8
20002e52:	84f6                	mv	s1,t4
20002e54:	0807d963          	bgez	a5,20002ee6 <__subdf3+0x5dc>
20002e58:	4989                	li	s3,2
20002e5a:	b14d                	j	20002afc <__subdf3+0x1f2>
20002e5c:	41d88eb3          	sub	t4,a7,t4
20002e60:	40b705b3          	sub	a1,a4,a1
20002e64:	01d8b633          	sltu	a2,a7,t4
20002e68:	84f6                	mv	s1,t4
20002e6a:	40c58933          	sub	s2,a1,a2
20002e6e:	4985                	li	s3,1
20002e70:	b6b1                	j	200029bc <__subdf3+0xb2>
20002e72:	fe078693          	add	a3,a5,-32
20002e76:	02000613          	li	a2,32
20002e7a:	00d5d6b3          	srl	a3,a1,a3
20002e7e:	00c78a63          	beq	a5,a2,20002e92 <__subdf3+0x588>
20002e82:	04000613          	li	a2,64
20002e86:	40f607b3          	sub	a5,a2,a5
20002e8a:	00f597b3          	sll	a5,a1,a5
20002e8e:	00feeeb3          	or	t4,t4,a5
20002e92:	01d03933          	snez	s2,t4
20002e96:	00d96933          	or	s2,s2,a3
20002e9a:	b191                	j	20002ade <__subdf3+0x1d4>
20002e9c:	fe080793          	add	a5,a6,-32
20002ea0:	02000693          	li	a3,32
20002ea4:	00f757b3          	srl	a5,a4,a5
20002ea8:	00d80a63          	beq	a6,a3,20002ebc <__subdf3+0x5b2>
20002eac:	04000693          	li	a3,64
20002eb0:	410686b3          	sub	a3,a3,a6
20002eb4:	00d71733          	sll	a4,a4,a3
20002eb8:	00e8e8b3          	or	a7,a7,a4
20002ebc:	01103533          	snez	a0,a7
20002ec0:	8d5d                	or	a0,a0,a5
20002ec2:	b5e9                	j	20002d8c <__subdf3+0x482>
20002ec4:	db81                	beqz	a5,20002dd4 <__subdf3+0x4ca>
20002ec6:	01d5eeb3          	or	t4,a1,t4
20002eca:	c80e93e3          	bnez	t4,20002b50 <__subdf3+0x246>
20002ece:	b3f9                	j	20002c9c <__subdf3+0x392>
20002ed0:	411e8633          	sub	a2,t4,a7
20002ed4:	8d99                	sub	a1,a1,a4
20002ed6:	00ceb733          	sltu	a4,t4,a2
20002eda:	84b2                	mv	s1,a2
20002edc:	40e58933          	sub	s2,a1,a4
20002ee0:	8436                	mv	s0,a3
20002ee2:	4985                	li	s3,1
20002ee4:	bce1                	j	200029bc <__subdf3+0xb2>
20002ee6:	4785                	li	a5,1
20002ee8:	b365                	j	20002c90 <__subdf3+0x386>
20002eea:	e2080de3          	beqz	a6,20002d24 <__subdf3+0x41a>
20002eee:	060e                	sll	a2,a2,0x3
20002ef0:	00365793          	srl	a5,a2,0x3
20002ef4:	01d59813          	sll	a6,a1,0x1d
20002ef8:	00959713          	sll	a4,a1,0x9
20002efc:	00f86833          	or	a6,a6,a5
20002f00:	8331                	srl	a4,a4,0xc
20002f02:	8e36                	mv	t3,a3
20002f04:	4781                	li	a5,0
20002f06:	b6ad                	j	20002a70 <__subdf3+0x166>
20002f08:	41d88933          	sub	s2,a7,t4
20002f0c:	0128b7b3          	sltu	a5,a7,s2
20002f10:	40b70633          	sub	a2,a4,a1
20002f14:	8e1d                	sub	a2,a2,a5
20002f16:	00861793          	sll	a5,a2,0x8
20002f1a:	0a07d963          	bgez	a5,20002fcc <__subdf3+0x6c2>
20002f1e:	411e8633          	sub	a2,t4,a7
20002f22:	40e58733          	sub	a4,a1,a4
20002f26:	00cebeb3          	sltu	t4,t4,a2
20002f2a:	41d70733          	sub	a4,a4,t4
20002f2e:	00871793          	sll	a5,a4,0x8
20002f32:	84b2                	mv	s1,a2
20002f34:	0e07d763          	bgez	a5,20003022 <__subdf3+0x718>
20002f38:	ff8007b7          	lui	a5,0xff800
20002f3c:	17fd                	add	a5,a5,-1 # ff7fffff <__StackTop+0xdf77dfff>
20002f3e:	8f7d                	and	a4,a4,a5
20002f40:	8436                	mv	s0,a3
20002f42:	4785                	li	a5,1
20002f44:	be21                	j	20002a5c <__subdf3+0x152>
20002f46:	060e                	sll	a2,a2,0x3
20002f48:	00365513          	srl	a0,a2,0x3
20002f4c:	872e                	mv	a4,a1
20002f4e:	b38d                	j	20002cb0 <__subdf3+0x3a6>
20002f50:	060e                	sll	a2,a2,0x3
20002f52:	00365913          	srl	s2,a2,0x3
20002f56:	872e                	mv	a4,a1
20002f58:	bb79                	j	20002cf6 <__subdf3+0x3ec>
20002f5a:	01d886b3          	add	a3,a7,t4
20002f5e:	00b707b3          	add	a5,a4,a1
20002f62:	0116b633          	sltu	a2,a3,a7
20002f66:	97b2                	add	a5,a5,a2
20002f68:	00879713          	sll	a4,a5,0x8
20002f6c:	0036d813          	srl	a6,a3,0x3
20002f70:	06075d63          	bgez	a4,20002fea <__subdf3+0x6e0>
20002f74:	ff800737          	lui	a4,0xff800
20002f78:	177d                	add	a4,a4,-1 # ff7fffff <__StackTop+0xdf77dfff>
20002f7a:	8ff9                	and	a5,a5,a4
20002f7c:	01d79713          	sll	a4,a5,0x1d
20002f80:	07a6                	sll	a5,a5,0x9
20002f82:	01076833          	or	a6,a4,a6
20002f86:	00c7d713          	srl	a4,a5,0xc
20002f8a:	4785                	li	a5,1
20002f8c:	b4d5                	j	20002a70 <__subdf3+0x166>
20002f8e:	fe068793          	add	a5,a3,-32
20002f92:	02000613          	li	a2,32
20002f96:	00f757b3          	srl	a5,a4,a5
20002f9a:	00c68a63          	beq	a3,a2,20002fae <__subdf3+0x6a4>
20002f9e:	04000613          	li	a2,64
20002fa2:	40d606b3          	sub	a3,a2,a3
20002fa6:	00d71733          	sll	a4,a4,a3
20002faa:	00e8e8b3          	or	a7,a7,a4
20002fae:	01103933          	snez	s2,a7
20002fb2:	00f96933          	or	s2,s2,a5
20002fb6:	b12d                	j	20002be0 <__subdf3+0x2d6>
20002fb8:	0034d513          	srl	a0,s1,0x3
20002fbc:	87ce                	mv	a5,s3
20002fbe:	874a                	mv	a4,s2
20002fc0:	b9c5                	j	20002cb0 <__subdf3+0x3a6>
20002fc2:	02000693          	li	a3,32
20002fc6:	8e9d                	sub	a3,a3,a5
20002fc8:	4601                	li	a2,0
20002fca:	b489                	j	20002a0c <__subdf3+0x102>
20002fcc:	00c96833          	or	a6,s2,a2
20002fd0:	d4080ae3          	beqz	a6,20002d24 <__subdf3+0x41a>
20002fd4:	00395913          	srl	s2,s2,0x3
20002fd8:	4781                	li	a5,0
20002fda:	8732                	mv	a4,a2
20002fdc:	bb29                	j	20002cf6 <__subdf3+0x3ec>
20002fde:	4e01                	li	t3,0
20002fe0:	7ff00793          	li	a5,2047
20002fe4:	00080737          	lui	a4,0x80
20002fe8:	b461                	j	20002a70 <__subdf3+0x166>
20002fea:	01d79713          	sll	a4,a5,0x1d
20002fee:	07a6                	sll	a5,a5,0x9
20002ff0:	01076833          	or	a6,a4,a6
20002ff4:	00c7d713          	srl	a4,a5,0xc
20002ff8:	4781                	li	a5,0
20002ffa:	bc9d                	j	20002a70 <__subdf3+0x166>
20002ffc:	be078ae3          	beqz	a5,20002bf0 <__subdf3+0x2e6>
20003000:	413f0833          	sub	a6,t5,s3
20003004:	87c2                	mv	a5,a6
20003006:	d2098de3          	beqz	s3,20002d40 <__subdf3+0x436>
2000300a:	03800793          	li	a5,56
2000300e:	0107c763          	blt	a5,a6,2000301c <__subdf3+0x712>
20003012:	008007b7          	lui	a5,0x800
20003016:	8f5d                	or	a4,a4,a5
20003018:	8436                	mv	s0,a3
2000301a:	b3a1                	j	20002d62 <__subdf3+0x458>
2000301c:	8436                	mv	s0,a3
2000301e:	4505                	li	a0,1
20003020:	b3b5                	j	20002d8c <__subdf3+0x482>
20003022:	01d71813          	sll	a6,a4,0x1d
20003026:	820d                	srl	a2,a2,0x3
20003028:	00c86833          	or	a6,a6,a2
2000302c:	830d                	srl	a4,a4,0x3
2000302e:	4781                	li	a5,0
20003030:	8436                	mv	s0,a3
20003032:	b941                	j	20002cc2 <__subdf3+0x3b8>
20003034:	c8078ee3          	beqz	a5,20002cd0 <__subdf3+0x3c6>
20003038:	413f06b3          	sub	a3,t5,s3
2000303c:	00099463          	bnez	s3,20003044 <__subdf3+0x73a>
20003040:	87b6                	mv	a5,a3
20003042:	be89                	j	20002b94 <__subdf3+0x28a>
20003044:	03800793          	li	a5,56
20003048:	4905                	li	s2,1
2000304a:	b8d7cbe3          	blt	a5,a3,20002be0 <__subdf3+0x2d6>
2000304e:	008007b7          	lui	a5,0x800
20003052:	8f5d                	or	a4,a4,a5
20003054:	b68d                	j	20002bb6 <__subdf3+0x2ac>

20003056 <__unorddf2>:
20003056:	0145d713          	srl	a4,a1,0x14
2000305a:	001007b7          	lui	a5,0x100
2000305e:	17fd                	add	a5,a5,-1 # fffff <HeapSize+0xff7ff>
20003060:	fff74713          	not	a4,a4
20003064:	0146d813          	srl	a6,a3,0x14
20003068:	8dfd                	and	a1,a1,a5
2000306a:	8ff5                	and	a5,a5,a3
2000306c:	01571693          	sll	a3,a4,0x15
20003070:	7ff87813          	and	a6,a6,2047
20003074:	ca99                	beqz	a3,2000308a <__unorddf2+0x34>
20003076:	7ff00713          	li	a4,2047
2000307a:	4501                	li	a0,0
2000307c:	00e80363          	beq	a6,a4,20003082 <__unorddf2+0x2c>
20003080:	8082                	ret
20003082:	8fd1                	or	a5,a5,a2
20003084:	00f03533          	snez	a0,a5
20003088:	8082                	ret
2000308a:	8dc9                	or	a1,a1,a0
2000308c:	4505                	li	a0,1
2000308e:	d5e5                	beqz	a1,20003076 <__unorddf2+0x20>
20003090:	8082                	ret

20003092 <__fixdfsi>:
20003092:	0145d793          	srl	a5,a1,0x14
20003096:	001006b7          	lui	a3,0x100
2000309a:	fff68713          	add	a4,a3,-1 # fffff <HeapSize+0xff7ff>
2000309e:	7ff7f793          	and	a5,a5,2047
200030a2:	3fe00613          	li	a2,1022
200030a6:	8f6d                	and	a4,a4,a1
200030a8:	81fd                	srl	a1,a1,0x1f
200030aa:	00f65b63          	bge	a2,a5,200030c0 <__fixdfsi+0x2e>
200030ae:	41d00613          	li	a2,1053
200030b2:	00f65963          	bge	a2,a5,200030c4 <__fixdfsi+0x32>
200030b6:	80000537          	lui	a0,0x80000
200030ba:	157d                	add	a0,a0,-1 # 7fffffff <__StackTop+0x5ff7dfff>
200030bc:	952e                	add	a0,a0,a1
200030be:	8082                	ret
200030c0:	4501                	li	a0,0
200030c2:	8082                	ret
200030c4:	43300613          	li	a2,1075
200030c8:	8e1d                	sub	a2,a2,a5
200030ca:	487d                	li	a6,31
200030cc:	8f55                	or	a4,a4,a3
200030ce:	00c85d63          	bge	a6,a2,200030e8 <__fixdfsi+0x56>
200030d2:	41300693          	li	a3,1043
200030d6:	40f687b3          	sub	a5,a3,a5
200030da:	00f75733          	srl	a4,a4,a5
200030de:	40e00533          	neg	a0,a4
200030e2:	f1e5                	bnez	a1,200030c2 <__fixdfsi+0x30>
200030e4:	853a                	mv	a0,a4
200030e6:	8082                	ret
200030e8:	bed78793          	add	a5,a5,-1043
200030ec:	00f71733          	sll	a4,a4,a5
200030f0:	00c55533          	srl	a0,a0,a2
200030f4:	8f49                	or	a4,a4,a0
200030f6:	b7e5                	j	200030de <__fixdfsi+0x4c>

200030f8 <__fixunsdfsi>:
200030f8:	0145d793          	srl	a5,a1,0x14
200030fc:	00100637          	lui	a2,0x100
20003100:	fff60713          	add	a4,a2,-1 # fffff <HeapSize+0xff7ff>
20003104:	7ff7f793          	and	a5,a5,2047
20003108:	3fe00813          	li	a6,1022
2000310c:	86aa                	mv	a3,a0
2000310e:	8f6d                	and	a4,a4,a1
20003110:	4501                	li	a0,0
20003112:	81fd                	srl	a1,a1,0x1f
20003114:	00f85363          	bge	a6,a5,2000311a <__fixunsdfsi+0x22>
20003118:	c191                	beqz	a1,2000311c <__fixunsdfsi+0x24>
2000311a:	8082                	ret
2000311c:	41e00593          	li	a1,1054
20003120:	557d                	li	a0,-1
20003122:	fef5cce3          	blt	a1,a5,2000311a <__fixunsdfsi+0x22>
20003126:	43300593          	li	a1,1075
2000312a:	8d9d                	sub	a1,a1,a5
2000312c:	457d                	li	a0,31
2000312e:	8f51                	or	a4,a4,a2
20003130:	00b54a63          	blt	a0,a1,20003144 <__fixunsdfsi+0x4c>
20003134:	bed78793          	add	a5,a5,-1043
20003138:	00f71733          	sll	a4,a4,a5
2000313c:	00b6d533          	srl	a0,a3,a1
20003140:	8d59                	or	a0,a0,a4
20003142:	8082                	ret
20003144:	41300513          	li	a0,1043
20003148:	8d1d                	sub	a0,a0,a5
2000314a:	00a75533          	srl	a0,a4,a0
2000314e:	8082                	ret

20003150 <__floatsidf>:
20003150:	1141                	add	sp,sp,-16
20003152:	c606                	sw	ra,12(sp)
20003154:	c422                	sw	s0,8(sp)
20003156:	c226                	sw	s1,4(sp)
20003158:	cd0d                	beqz	a0,20003192 <__floatsidf+0x42>
2000315a:	41f55713          	sra	a4,a0,0x1f
2000315e:	00a744b3          	xor	s1,a4,a0
20003162:	8c99                	sub	s1,s1,a4
20003164:	87aa                	mv	a5,a0
20003166:	8526                	mv	a0,s1
20003168:	01f7d413          	srl	s0,a5,0x1f
2000316c:	20c1                	jal	2000322c <__clzsi2>
2000316e:	41e00793          	li	a5,1054
20003172:	8f89                	sub	a5,a5,a0
20003174:	4729                	li	a4,10
20003176:	7ff7f793          	and	a5,a5,2047
2000317a:	02a74b63          	blt	a4,a0,200031b0 <__floatsidf+0x60>
2000317e:	472d                	li	a4,11
20003180:	8f09                	sub	a4,a4,a0
20003182:	00e4d733          	srl	a4,s1,a4
20003186:	0555                	add	a0,a0,21
20003188:	0732                	sll	a4,a4,0xc
2000318a:	00a494b3          	sll	s1,s1,a0
2000318e:	8331                	srl	a4,a4,0xc
20003190:	a029                	j	2000319a <__floatsidf+0x4a>
20003192:	4401                	li	s0,0
20003194:	4781                	li	a5,0
20003196:	4701                	li	a4,0
20003198:	4481                	li	s1,0
2000319a:	07d2                	sll	a5,a5,0x14
2000319c:	047e                	sll	s0,s0,0x1f
2000319e:	8fd9                	or	a5,a5,a4
200031a0:	40b2                	lw	ra,12(sp)
200031a2:	8fc1                	or	a5,a5,s0
200031a4:	4422                	lw	s0,8(sp)
200031a6:	8526                	mv	a0,s1
200031a8:	85be                	mv	a1,a5
200031aa:	4492                	lw	s1,4(sp)
200031ac:	0141                	add	sp,sp,16
200031ae:	8082                	ret
200031b0:	1555                	add	a0,a0,-11
200031b2:	00a49733          	sll	a4,s1,a0
200031b6:	0732                	sll	a4,a4,0xc
200031b8:	8331                	srl	a4,a4,0xc
200031ba:	4481                	li	s1,0
200031bc:	bff9                	j	2000319a <__floatsidf+0x4a>

200031be <__floatunsidf>:
200031be:	1141                	add	sp,sp,-16
200031c0:	c422                	sw	s0,8(sp)
200031c2:	c606                	sw	ra,12(sp)
200031c4:	842a                	mv	s0,a0
200031c6:	c91d                	beqz	a0,200031fc <__floatunsidf+0x3e>
200031c8:	2095                	jal	2000322c <__clzsi2>
200031ca:	41e00793          	li	a5,1054
200031ce:	8f89                	sub	a5,a5,a0
200031d0:	4729                	li	a4,10
200031d2:	7ff7f793          	and	a5,a5,2047
200031d6:	02a74d63          	blt	a4,a0,20003210 <__floatunsidf+0x52>
200031da:	472d                	li	a4,11
200031dc:	8f09                	sub	a4,a4,a0
200031de:	0555                	add	a0,a0,21
200031e0:	00e45733          	srl	a4,s0,a4
200031e4:	00a41433          	sll	s0,s0,a0
200031e8:	40b2                	lw	ra,12(sp)
200031ea:	8522                	mv	a0,s0
200031ec:	0732                	sll	a4,a4,0xc
200031ee:	4422                	lw	s0,8(sp)
200031f0:	8331                	srl	a4,a4,0xc
200031f2:	07d2                	sll	a5,a5,0x14
200031f4:	8fd9                	or	a5,a5,a4
200031f6:	85be                	mv	a1,a5
200031f8:	0141                	add	sp,sp,16
200031fa:	8082                	ret
200031fc:	40b2                	lw	ra,12(sp)
200031fe:	8522                	mv	a0,s0
20003200:	4781                	li	a5,0
20003202:	4422                	lw	s0,8(sp)
20003204:	4701                	li	a4,0
20003206:	07d2                	sll	a5,a5,0x14
20003208:	8fd9                	or	a5,a5,a4
2000320a:	85be                	mv	a1,a5
2000320c:	0141                	add	sp,sp,16
2000320e:	8082                	ret
20003210:	1555                	add	a0,a0,-11
20003212:	00a41733          	sll	a4,s0,a0
20003216:	4401                	li	s0,0
20003218:	40b2                	lw	ra,12(sp)
2000321a:	8522                	mv	a0,s0
2000321c:	0732                	sll	a4,a4,0xc
2000321e:	4422                	lw	s0,8(sp)
20003220:	8331                	srl	a4,a4,0xc
20003222:	07d2                	sll	a5,a5,0x14
20003224:	8fd9                	or	a5,a5,a4
20003226:	85be                	mv	a1,a5
20003228:	0141                	add	sp,sp,16
2000322a:	8082                	ret

2000322c <__clzsi2>:
2000322c:	67c1                	lui	a5,0x10
2000322e:	02f57663          	bgeu	a0,a5,2000325a <__clzsi2+0x2e>
20003232:	10053713          	sltiu	a4,a0,256
20003236:	00173713          	seqz	a4,a4
2000323a:	070e                	sll	a4,a4,0x3
2000323c:	200037b7          	lui	a5,0x20003
20003240:	00e55533          	srl	a0,a0,a4
20003244:	2dc78793          	add	a5,a5,732 # 200032dc <__clz_tab>
20003248:	97aa                	add	a5,a5,a0
2000324a:	0007c503          	lbu	a0,0(a5)
2000324e:	02000693          	li	a3,32
20003252:	8e99                	sub	a3,a3,a4
20003254:	40a68533          	sub	a0,a3,a0
20003258:	8082                	ret
2000325a:	010007b7          	lui	a5,0x1000
2000325e:	02f57063          	bgeu	a0,a5,2000327e <__clzsi2+0x52>
20003262:	4741                	li	a4,16
20003264:	200037b7          	lui	a5,0x20003
20003268:	00e55533          	srl	a0,a0,a4
2000326c:	2dc78793          	add	a5,a5,732 # 200032dc <__clz_tab>
20003270:	97aa                	add	a5,a5,a0
20003272:	0007c503          	lbu	a0,0(a5)
20003276:	46c1                	li	a3,16
20003278:	40a68533          	sub	a0,a3,a0
2000327c:	8082                	ret
2000327e:	4761                	li	a4,24
20003280:	200037b7          	lui	a5,0x20003
20003284:	00e55533          	srl	a0,a0,a4
20003288:	2dc78793          	add	a5,a5,732 # 200032dc <__clz_tab>
2000328c:	97aa                	add	a5,a5,a0
2000328e:	0007c503          	lbu	a0,0(a5)
20003292:	46a1                	li	a3,8
20003294:	40a68533          	sub	a0,a3,a0
20003298:	8082                	ret
2000329a:	0000                	unimp
2000329c:	1ee2                	sll	t4,t4,0x38
2000329e:	2000                	.insn	2, 0x2000
200032a0:	1de8                	add	a0,sp,764
200032a2:	2000                	.insn	2, 0x2000
200032a4:	1dbe                	sll	s11,s11,0x2f
200032a6:	2000                	.insn	2, 0x2000
200032a8:	1eb2                	sll	t4,t4,0x2c
200032aa:	2000                	.insn	2, 0x2000
200032ac:	1dbe                	sll	s11,s11,0x2f
200032ae:	2000                	.insn	2, 0x2000
200032b0:	1df2                	sll	s11,s11,0x3c
200032b2:	2000                	.insn	2, 0x2000
200032b4:	1dbe                	sll	s11,s11,0x2f
200032b6:	2000                	.insn	2, 0x2000
200032b8:	1eb2                	sll	t4,t4,0x2c
200032ba:	2000                	.insn	2, 0x2000
200032bc:	1de8                	add	a0,sp,764
200032be:	2000                	.insn	2, 0x2000
200032c0:	1de8                	add	a0,sp,764
200032c2:	2000                	.insn	2, 0x2000
200032c4:	1df2                	sll	s11,s11,0x3c
200032c6:	2000                	.insn	2, 0x2000
200032c8:	1eb2                	sll	t4,t4,0x2c
200032ca:	2000                	.insn	2, 0x2000
200032cc:	1e54                	add	a3,sp,820
200032ce:	2000                	.insn	2, 0x2000
200032d0:	1e54                	add	a3,sp,820
200032d2:	2000                	.insn	2, 0x2000
200032d4:	1e54                	add	a3,sp,820
200032d6:	2000                	.insn	2, 0x2000
200032d8:	1df2                	sll	s11,s11,0x3c
200032da:	2000                	.insn	2, 0x2000

200032dc <__clz_tab>:
200032dc:	0100 0202 0303 0303 0404 0404 0404 0404     ................
200032ec:	0505 0505 0505 0505 0505 0505 0505 0505     ................
200032fc:	0606 0606 0606 0606 0606 0606 0606 0606     ................
2000330c:	0606 0606 0606 0606 0606 0606 0606 0606     ................
2000331c:	0707 0707 0707 0707 0707 0707 0707 0707     ................
2000332c:	0707 0707 0707 0707 0707 0707 0707 0707     ................
2000333c:	0707 0707 0707 0707 0707 0707 0707 0707     ................
2000334c:	0707 0707 0707 0707 0707 0707 0707 0707     ................
2000335c:	0808 0808 0808 0808 0808 0808 0808 0808     ................
2000336c:	0808 0808 0808 0808 0808 0808 0808 0808     ................
2000337c:	0808 0808 0808 0808 0808 0808 0808 0808     ................
2000338c:	0808 0808 0808 0808 0808 0808 0808 0808     ................
2000339c:	0808 0808 0808 0808 0808 0808 0808 0808     ................
200033ac:	0808 0808 0808 0808 0808 0808 0808 0808     ................
200033bc:	0808 0808 0808 0808 0808 0808 0808 0808     ................
200033cc:	0808 0808 0808 0808 0808 0808 0808 0808     ................

200033dc <irq_handler_chain_slots>:
	...
200033e4:	0000                	unimp
200033e6:	0001                	nop
	...
200033f0:	0000                	unimp
200033f2:	0002                	c.slli64	zero
	...
200033fc:	0000                	unimp
200033fe:	00000003          	lb	zero,0(zero) # 0 <next_slot_number-0x5>
	...
2000340a:	Address 0x2000340a is out of bounds.


2000340c <irq_handler_chain_first_slot>:
2000340c:	b842                	.insn	2, 0xb842
2000340e:	00428093          	add	ra,t0,4
20003412:	0002a283          	lw	t0,0(t0)
20003416:	8282                	jr	t0

20003418 <irq_handler_chain_remove_tail>:
20003418:	ff608513          	add	a0,ra,-10
2000341c:	efffe097          	auipc	ra,0xefffe
20003420:	8ce080e7          	jalr	-1842(ra) # 10000cea <irq_add_tail_to_free_list>
20003424:	be42                	.insn	2, 0xbe42
	...

20003428 <default_alarm_pool>:
	...
2000343c:	3640 2000                                   @6. 

20003440 <__VECTOR_TABLE>:
20003440:	1a00006f          	j	200035e0 <__default_isrs_start>
	...
2000344c:	1960006f          	j	200035e2 <isr_riscv_machine_soft_irq>
	...
2000345c:	1840006f          	j	200035e0 <__default_isrs_start>
	...

2000346c <isr_riscv_machine_external_irq>:
2000346c:	715d                	add	sp,sp,-80
2000346e:	c006                	sw	ra,0(sp)
20003470:	c216                	sw	t0,4(sp)
20003472:	c41a                	sw	t1,8(sp)
20003474:	c61e                	sw	t2,12(sp)
20003476:	c82a                	sw	a0,16(sp)
20003478:	ca2e                	sw	a1,20(sp)
2000347a:	cc32                	sw	a2,24(sp)
2000347c:	ce36                	sw	a3,28(sp)
2000347e:	d03a                	sw	a4,32(sp)
20003480:	d23e                	sw	a5,36(sp)
20003482:	d442                	sw	a6,40(sp)
20003484:	d646                	sw	a7,44(sp)
20003486:	d872                	sw	t3,48(sp)
20003488:	da76                	sw	t4,52(sp)
2000348a:	dc7a                	sw	t5,56(sp)
2000348c:	de7e                	sw	t6,60(sp)
2000348e:	34102573          	.insn	4, 0x34102573
20003492:	300025f3          	.insn	4, 0x300025f3
20003496:	c0aa                	sw	a0,64(sp)
20003498:	c2ae                	sw	a1,68(sp)

2000349a <save_meicontext>:
2000349a:	be516673          	.insn	4, 0xbe516673
2000349e:	c4b2                	sw	a2,72(sp)

200034a0 <get_first_irq>:
200034a0:	be40e573          	.insn	4, 0xbe40e573
200034a4:	02054163          	bltz	a0,200034c6 <no_more_irqs>

200034a8 <dispatch_irq>:
200034a8:	30046073          	.insn	4, 0x30046073
200034ac:	200035b7          	lui	a1,0x20003
200034b0:	95aa                	add	a1,a1,a0
200034b2:	5105a583          	lw	a1,1296(a1) # 20003510 <__soft_vector_table>
200034b6:	000580e7          	jalr	a1
200034ba:	30047073          	.insn	4, 0x30047073

200034be <get_next_irq>:
200034be:	be40e573          	.insn	4, 0xbe40e573
200034c2:	fe0553e3          	bgez	a0,200034a8 <dispatch_irq>

200034c6 <no_more_irqs>:
200034c6:	4506                	lw	a0,64(sp)
200034c8:	4596                	lw	a1,68(sp)
200034ca:	4626                	lw	a2,72(sp)
200034cc:	34151073          	.insn	4, 0x34151073
200034d0:	30059073          	.insn	4, 0x30059073
200034d4:	be561073          	.insn	4, 0xbe561073
200034d8:	4082                	lw	ra,0(sp)
200034da:	4292                	lw	t0,4(sp)
200034dc:	4322                	lw	t1,8(sp)
200034de:	43b2                	lw	t2,12(sp)
200034e0:	45d2                	lw	a1,20(sp)
200034e2:	4662                	lw	a2,24(sp)
200034e4:	46f2                	lw	a3,28(sp)
200034e6:	5702                	lw	a4,32(sp)
200034e8:	5792                	lw	a5,36(sp)
200034ea:	5822                	lw	a6,40(sp)
200034ec:	58b2                	lw	a7,44(sp)
200034ee:	5e42                	lw	t3,48(sp)
200034f0:	5ed2                	lw	t4,52(sp)
200034f2:	5f62                	lw	t5,56(sp)
200034f4:	5ff2                	lw	t6,60(sp)

200034f6 <check_irq_before_exit>:
200034f6:	be402573          	.insn	4, 0xbe402573
200034fa:	fa0550e3          	bgez	a0,2000349a <save_meicontext>
200034fe:	4542                	lw	a0,16(sp)
20003500:	6161                	add	sp,sp,80
20003502:	30200073          	mret
	...

20003510 <__soft_vector_table>:
20003510:	35e4                	.insn	2, 0x35e4
20003512:	2000                	.insn	2, 0x2000
20003514:	35e4                	.insn	2, 0x35e4
20003516:	2000                	.insn	2, 0x2000
20003518:	35e4                	.insn	2, 0x35e4
2000351a:	2000                	.insn	2, 0x2000
2000351c:	35e4                	.insn	2, 0x35e4
2000351e:	2000                	.insn	2, 0x2000
20003520:	35e4                	.insn	2, 0x35e4
20003522:	2000                	.insn	2, 0x2000
20003524:	35e4                	.insn	2, 0x35e4
20003526:	2000                	.insn	2, 0x2000
20003528:	35e4                	.insn	2, 0x35e4
2000352a:	2000                	.insn	2, 0x2000
2000352c:	35e4                	.insn	2, 0x35e4
2000352e:	2000                	.insn	2, 0x2000
20003530:	35e4                	.insn	2, 0x35e4
20003532:	2000                	.insn	2, 0x2000
20003534:	35e4                	.insn	2, 0x35e4
20003536:	2000                	.insn	2, 0x2000
20003538:	35e4                	.insn	2, 0x35e4
2000353a:	2000                	.insn	2, 0x2000
2000353c:	35e4                	.insn	2, 0x35e4
2000353e:	2000                	.insn	2, 0x2000
20003540:	35e4                	.insn	2, 0x35e4
20003542:	2000                	.insn	2, 0x2000
20003544:	35e4                	.insn	2, 0x35e4
20003546:	2000                	.insn	2, 0x2000
20003548:	35e4                	.insn	2, 0x35e4
2000354a:	2000                	.insn	2, 0x2000
2000354c:	35e4                	.insn	2, 0x35e4
2000354e:	2000                	.insn	2, 0x2000
20003550:	35e4                	.insn	2, 0x35e4
20003552:	2000                	.insn	2, 0x2000
20003554:	35e4                	.insn	2, 0x35e4
20003556:	2000                	.insn	2, 0x2000
20003558:	35e4                	.insn	2, 0x35e4
2000355a:	2000                	.insn	2, 0x2000
2000355c:	35e4                	.insn	2, 0x35e4
2000355e:	2000                	.insn	2, 0x2000
20003560:	35e4                	.insn	2, 0x35e4
20003562:	2000                	.insn	2, 0x2000
20003564:	35e4                	.insn	2, 0x35e4
20003566:	2000                	.insn	2, 0x2000
20003568:	35e4                	.insn	2, 0x35e4
2000356a:	2000                	.insn	2, 0x2000
2000356c:	35e4                	.insn	2, 0x35e4
2000356e:	2000                	.insn	2, 0x2000
20003570:	35e4                	.insn	2, 0x35e4
20003572:	2000                	.insn	2, 0x2000
20003574:	35e4                	.insn	2, 0x35e4
20003576:	2000                	.insn	2, 0x2000
20003578:	35e4                	.insn	2, 0x35e4
2000357a:	2000                	.insn	2, 0x2000
2000357c:	35e4                	.insn	2, 0x35e4
2000357e:	2000                	.insn	2, 0x2000
20003580:	35e4                	.insn	2, 0x35e4
20003582:	2000                	.insn	2, 0x2000
20003584:	35e4                	.insn	2, 0x35e4
20003586:	2000                	.insn	2, 0x2000
20003588:	35e4                	.insn	2, 0x35e4
2000358a:	2000                	.insn	2, 0x2000
2000358c:	35e4                	.insn	2, 0x35e4
2000358e:	2000                	.insn	2, 0x2000
20003590:	35e4                	.insn	2, 0x35e4
20003592:	2000                	.insn	2, 0x2000
20003594:	35e4                	.insn	2, 0x35e4
20003596:	2000                	.insn	2, 0x2000
20003598:	35e4                	.insn	2, 0x35e4
2000359a:	2000                	.insn	2, 0x2000
2000359c:	35e4                	.insn	2, 0x35e4
2000359e:	2000                	.insn	2, 0x2000
200035a0:	35e4                	.insn	2, 0x35e4
200035a2:	2000                	.insn	2, 0x2000
200035a4:	35e4                	.insn	2, 0x35e4
200035a6:	2000                	.insn	2, 0x2000
200035a8:	35e4                	.insn	2, 0x35e4
200035aa:	2000                	.insn	2, 0x2000
200035ac:	35e4                	.insn	2, 0x35e4
200035ae:	2000                	.insn	2, 0x2000
200035b0:	35e4                	.insn	2, 0x35e4
200035b2:	2000                	.insn	2, 0x2000
200035b4:	35e4                	.insn	2, 0x35e4
200035b6:	2000                	.insn	2, 0x2000
200035b8:	35e4                	.insn	2, 0x35e4
200035ba:	2000                	.insn	2, 0x2000
200035bc:	35e4                	.insn	2, 0x35e4
200035be:	2000                	.insn	2, 0x2000
200035c0:	35e4                	.insn	2, 0x35e4
200035c2:	2000                	.insn	2, 0x2000
200035c4:	35e4                	.insn	2, 0x35e4
200035c6:	2000                	.insn	2, 0x2000
200035c8:	35e4                	.insn	2, 0x35e4
200035ca:	2000                	.insn	2, 0x2000
200035cc:	35e4                	.insn	2, 0x35e4
200035ce:	2000                	.insn	2, 0x2000
200035d0:	35e4                	.insn	2, 0x35e4
200035d2:	2000                	.insn	2, 0x2000
200035d4:	35e4                	.insn	2, 0x35e4
200035d6:	2000                	.insn	2, 0x2000
200035d8:	35e4                	.insn	2, 0x35e4
200035da:	2000                	.insn	2, 0x2000
200035dc:	35e4                	.insn	2, 0x35e4
200035de:	2000                	.insn	2, 0x2000

200035e0 <__default_isrs_start>:
200035e0:	9002                	ebreak

200035e2 <isr_riscv_machine_soft_irq>:
200035e2:	9002                	ebreak

200035e4 <__unhandled_user_irq>:
200035e4:	8109                	srl	a0,a0,0x2
200035e6:	9002                	ebreak

200035e8 <stdio_uart>:
200035e8:	3b90 1000 3c7a 1000 3bda 1000 3c86 1000     .;..z<...;...<..
200035f8:	0000 0000 0100 0000                         ........

20003600 <stdio_usb>:
20003600:	405a 1000 3ff8 1000 3f5c 1000 3ec6 1000     Z@...?..\?...>..
20003610:	0000 0000 0100 0000                         ........

20003618 <_usbd_qdef>:
20003618:	3b6c 2000 0010 000c 0000 0000 0000 0000     l;. ............
	...

20003634 <striped_spin_lock_num>:
20003634:	                                             .

20003635 <_usbd_rhport>:
20003635:	00ff                                         ...

20003638 <print_mutex>:
	...
