
C:/Users/agras/pico/pico-examples/build/usb/device/tinyusb_device_examples/net_lwip_webserver/tinyusb_dev_net_lwip_webserver.elf:     file format elf32-littlearm

Sections:
Idx Name          Size      VMA       LMA       File off  Algn
  0 .text         0000ce90  10000000  10000000  00001000  2**3
                  CONTENTS, ALLOC, LOAD, READONLY, CODE
  1 .rodata       000022a4  1000ce90  1000ce90  0000de90  2**3
                  CONTENTS, ALLOC, LOAD, READONLY, DATA
  2 .ARM.exidx    00000008  1000f134  1000f134  00010134  2**2
                  CONTENTS, ALLOC, LOAD, READONLY, DATA
  3 .binary_info  00000024  1000f13c  1000f13c  0001013c  2**2
                  CONTENTS, ALLOC, LOAD, READONLY, DATA
  4 .ram_vector_table 00000110  20000000  20000000  00012000  2**2
                  ALLOC
  5 .uninitialized_data 00000000  20000110  20000110  00011f04  2**0
                  CONTENTS
  6 .data         00000d90  20000110  1000f160  00011110  2**3
                  CONTENTS, ALLOC, LOAD, READONLY, CODE
  7 .tdata        00000000  20000ea0  20000ea0  00011f04  2**0
                  CONTENTS, ALLOC, LOAD, DATA, THREAD_LOCAL
  8 .tbss         00000000  20000ea0  20000ea0  00000000  2**0
                  ALLOC, THREAD_LOCAL
  9 .bss          000050c8  20000ea0  1000fef0  00012ea0  2**3
                  ALLOC
 10 .heap         00000800  20005f68  20005f68  00011f04  2**2
                  CONTENTS, READONLY
 11 .scratch_x    00000000  20080000  20080000  00012704  2**0
                  CONTENTS
 12 .scratch_y    00000000  20081000  20081000  00012704  2**0
                  CONTENTS
 13 .stack_dummy  00000800  20081000  20081000  00012720  2**5
                  CONTENTS, READONLY
 14 .flash_end    00000014  1000fef0  1000fef0  00011ef0  2**2
                  CONTENTS, ALLOC, LOAD, READONLY, DATA
 15 .ARM.attributes 00000034  00000000  00000000  00012f20  2**0
                  CONTENTS, READONLY
 16 .comment      00000045  00000000  00000000  00012f54  2**0
                  CONTENTS, READONLY
 17 .debug_info   00046347  00000000  00000000  00012f99  2**0
                  CONTENTS, READONLY, DEBUGGING, OCTETS
 18 .debug_abbrev 0000c532  00000000  00000000  000592e0  2**0
                  CONTENTS, READONLY, DEBUGGING, OCTETS
 19 .debug_loclists 0001ae46  00000000  00000000  00065812  2**0
                  CONTENTS, READONLY, DEBUGGING, OCTETS
 20 .debug_aranges 00002028  00000000  00000000  00080658  2**3
                  CONTENTS, READONLY, DEBUGGING, OCTETS
 21 .debug_rnglists 00002405  00000000  00000000  00082680  2**0
                  CONTENTS, READONLY, DEBUGGING, OCTETS
 22 .debug_line   000298cf  00000000  00000000  00084a85  2**0
                  CONTENTS, READONLY, DEBUGGING, OCTETS
 23 .debug_str    0000cb6d  00000000  00000000  000ae354  2**0
                  CONTENTS, READONLY, DEBUGGING, OCTETS
 24 .debug_frame  0000594c  00000000  00000000  000baec4  2**2
                  CONTENTS, READONLY, DEBUGGING, OCTETS
 25 .debug_line_str 00000290  00000000  00000000  000c0810  2**0
                  CONTENTS, READONLY, DEBUGGING, OCTETS

C:/Users/agras/pico/pico-examples/build/usb/device/tinyusb_device_examples/net_lwip_webserver/tinyusb_dev_net_lwip_webserver.elf:     file format elf32-littlearm


Disassembly of section .text:

10000000 <__VECTOR_TABLE>:
10000000:	20082000 	.word	0x20082000
10000004:	1000015d 	.word	0x1000015d
10000008:	10000113 	.word	0x10000113
1000000c:	10000115 	.word	0x10000115
10000010:	10000111 	.word	0x10000111
10000014:	10000111 	.word	0x10000111
10000018:	10000111 	.word	0x10000111
1000001c:	10000111 	.word	0x10000111
10000020:	10000111 	.word	0x10000111
10000024:	10000111 	.word	0x10000111
10000028:	10000111 	.word	0x10000111
1000002c:	10000117 	.word	0x10000117
10000030:	10000111 	.word	0x10000111
10000034:	10000111 	.word	0x10000111
10000038:	10000119 	.word	0x10000119
1000003c:	1000011b 	.word	0x1000011b
10000040:	1000011d 	.word	0x1000011d
10000044:	1000011d 	.word	0x1000011d
10000048:	1000011d 	.word	0x1000011d
1000004c:	1000011d 	.word	0x1000011d
10000050:	1000011d 	.word	0x1000011d
10000054:	1000011d 	.word	0x1000011d
10000058:	1000011d 	.word	0x1000011d
1000005c:	1000011d 	.word	0x1000011d
10000060:	1000011d 	.word	0x1000011d
10000064:	1000011d 	.word	0x1000011d
10000068:	1000011d 	.word	0x1000011d
1000006c:	1000011d 	.word	0x1000011d
10000070:	1000011d 	.word	0x1000011d
10000074:	1000011d 	.word	0x1000011d
10000078:	1000011d 	.word	0x1000011d
1000007c:	1000011d 	.word	0x1000011d
10000080:	1000011d 	.word	0x1000011d
10000084:	1000011d 	.word	0x1000011d
10000088:	1000011d 	.word	0x1000011d
1000008c:	1000011d 	.word	0x1000011d
10000090:	1000011d 	.word	0x1000011d
10000094:	1000011d 	.word	0x1000011d
10000098:	1000011d 	.word	0x1000011d
1000009c:	1000011d 	.word	0x1000011d
100000a0:	1000011d 	.word	0x1000011d
100000a4:	1000011d 	.word	0x1000011d
100000a8:	1000011d 	.word	0x1000011d
100000ac:	1000011d 	.word	0x1000011d
100000b0:	1000011d 	.word	0x1000011d
100000b4:	1000011d 	.word	0x1000011d
100000b8:	1000011d 	.word	0x1000011d
100000bc:	1000011d 	.word	0x1000011d
100000c0:	1000011d 	.word	0x1000011d
100000c4:	1000011d 	.word	0x1000011d
100000c8:	1000011d 	.word	0x1000011d
100000cc:	1000011d 	.word	0x1000011d
100000d0:	1000011d 	.word	0x1000011d
100000d4:	1000011d 	.word	0x1000011d
100000d8:	1000011d 	.word	0x1000011d
100000dc:	1000011d 	.word	0x1000011d
100000e0:	1000011d 	.word	0x1000011d
100000e4:	1000011d 	.word	0x1000011d
100000e8:	1000011d 	.word	0x1000011d
100000ec:	1000011d 	.word	0x1000011d
100000f0:	1000011d 	.word	0x1000011d
100000f4:	1000011d 	.word	0x1000011d
100000f8:	1000011d 	.word	0x1000011d
100000fc:	1000011d 	.word	0x1000011d
10000100:	1000011d 	.word	0x1000011d
10000104:	1000011d 	.word	0x1000011d
10000108:	1000011d 	.word	0x1000011d
1000010c:	1000011d 	.word	0x1000011d

10000110 <isr_invalid>:
10000110:	be00      	bkpt	0x0000

10000112 <isr_nmi>:
10000112:	be00      	bkpt	0x0000

10000114 <isr_hardfault>:
10000114:	be00      	bkpt	0x0000

10000116 <isr_svcall>:
10000116:	be00      	bkpt	0x0000

10000118 <isr_pendsv>:
10000118:	be00      	bkpt	0x0000

1000011a <isr_systick>:
1000011a:	be00      	bkpt	0x0000

1000011c <__unhandled_user_irq>:
1000011c:	f3ef 8005 	mrs	r0, IPSR
10000120:	3810      	subs	r0, #16

10000122 <unhandled_user_irq_num_in_r0>:
10000122:	be00      	bkpt	0x0000

10000124 <binary_info_header>:
10000124:	7188ebf2 	.word	0x7188ebf2
10000128:	1000f13c 	.word	0x1000f13c
1000012c:	1000f160 	.word	0x1000f160
10000130:	100001a8 	.word	0x100001a8
10000134:	e71aa390 	.word	0xe71aa390

10000138 <__binary_info_header_end>:
10000138:	ffffded3 	.word	0xffffded3
1000013c:	10210142 	.word	0x10210142
10000140:	000001ff 	.word	0x000001ff
10000144:	0000fdb8 	.word	0x0000fdb8
10000148:	ab123579 	.word	0xab123579

1000014c <_entry_point>:
1000014c:	f04f 0000 	mov.w	r0, #0

10000150 <_enter_vtable_in_r0>:
10000150:	4920      	ldr	r1, [pc, #128]	@ (100001d4 <data_cpy_table+0x2c>)
10000152:	6008      	str	r0, [r1, #0]
10000154:	c806      	ldmia	r0!, {r1, r2}
10000156:	f381 8808 	msr	MSP, r1
1000015a:	4710      	bx	r2

1000015c <_reset_handler>:
1000015c:	f04f 4050 	mov.w	r0, #3489660928	@ 0xd0000000
10000160:	6800      	ldr	r0, [r0, #0]
10000162:	b110      	cbz	r0, 1000016a <hold_non_core0_in_bootrom+0x6>

10000164 <hold_non_core0_in_bootrom>:
10000164:	f04f 0000 	mov.w	r0, #0
10000168:	e7f2      	b.n	10000150 <_enter_vtable_in_r0>
1000016a:	a40f      	add	r4, pc, #60	@ (adr r4, 100001a8 <data_cpy_table>)
1000016c:	cc0e      	ldmia	r4!, {r1, r2, r3}
1000016e:	2900      	cmp	r1, #0
10000170:	d002      	beq.n	10000178 <hold_non_core0_in_bootrom+0x14>
10000172:	f000 f815 	bl	100001a0 <data_cpy>
10000176:	e7f9      	b.n	1000016c <hold_non_core0_in_bootrom+0x8>
10000178:	4917      	ldr	r1, [pc, #92]	@ (100001d8 <data_cpy_table+0x30>)
1000017a:	4a18      	ldr	r2, [pc, #96]	@ (100001dc <data_cpy_table+0x34>)
1000017c:	2000      	movs	r0, #0
1000017e:	e000      	b.n	10000182 <bss_fill_test>

10000180 <bss_fill_loop>:
10000180:	c101      	stmia	r1!, {r0}

10000182 <bss_fill_test>:
10000182:	4291      	cmp	r1, r2
10000184:	d1fc      	bne.n	10000180 <bss_fill_loop>

10000186 <platform_entry>:
10000186:	2000      	movs	r0, #0
10000188:	f380 880a 	msr	MSPLIM, r0
1000018c:	4914      	ldr	r1, [pc, #80]	@ (100001e0 <data_cpy_table+0x38>)
1000018e:	4788      	blx	r1
10000190:	4914      	ldr	r1, [pc, #80]	@ (100001e4 <data_cpy_table+0x3c>)
10000192:	4788      	blx	r1
10000194:	4914      	ldr	r1, [pc, #80]	@ (100001e8 <data_cpy_table+0x40>)
10000196:	4788      	blx	r1
10000198:	be00      	bkpt	0x0000
1000019a:	e7fd      	b.n	10000198 <platform_entry+0x12>

1000019c <data_cpy_loop>:
1000019c:	c901      	ldmia	r1!, {r0}
1000019e:	c201      	stmia	r2!, {r0}

100001a0 <data_cpy>:
100001a0:	429a      	cmp	r2, r3
100001a2:	d3fb      	bcc.n	1000019c <data_cpy_loop>
100001a4:	4770      	bx	lr
100001a6:	bf00      	nop

100001a8 <data_cpy_table>:
100001a8:	1000f160 	.word	0x1000f160
100001ac:	20000110 	.word	0x20000110
100001b0:	20000ea0 	.word	0x20000ea0
100001b4:	1000fef0 	.word	0x1000fef0
100001b8:	20080000 	.word	0x20080000
100001bc:	20080000 	.word	0x20080000
100001c0:	1000fef0 	.word	0x1000fef0
100001c4:	20081000 	.word	0x20081000
100001c8:	20081000 	.word	0x20081000
100001cc:	00000000 	.word	0x00000000
100001d0:	4770      	bx	lr
100001d2:	0000      	.short	0x0000
100001d4:	e000ed08 	.word	0xe000ed08
100001d8:	20000ea0 	.word	0x20000ea0
100001dc:	20005f68 	.word	0x20005f68
100001e0:	1000a3fd 	.word	0x1000a3fd
100001e4:	100003e1 	.word	0x100003e1
100001e8:	1000a3c1 	.word	0x1000a3c1

100001ec <_init>:
100001ec:	b5f8      	push	{r3, r4, r5, r6, r7, lr}
100001ee:	bf00      	nop

100001f0 <register_tm_clones>:
100001f0:	4b06      	ldr	r3, [pc, #24]	@ (1000020c <register_tm_clones+0x1c>)
100001f2:	4907      	ldr	r1, [pc, #28]	@ (10000210 <register_tm_clones+0x20>)
100001f4:	1ac9      	subs	r1, r1, r3
100001f6:	1089      	asrs	r1, r1, #2
100001f8:	bf48      	it	mi
100001fa:	3101      	addmi	r1, #1
100001fc:	1049      	asrs	r1, r1, #1
100001fe:	d003      	beq.n	10000208 <register_tm_clones+0x18>
10000200:	4b04      	ldr	r3, [pc, #16]	@ (10000214 <register_tm_clones+0x24>)
10000202:	b10b      	cbz	r3, 10000208 <register_tm_clones+0x18>
10000204:	4801      	ldr	r0, [pc, #4]	@ (1000020c <register_tm_clones+0x1c>)
10000206:	4718      	bx	r3
10000208:	4770      	bx	lr
1000020a:	bf00      	nop
1000020c:	20000ea0 	.word	0x20000ea0
10000210:	20000ea0 	.word	0x20000ea0
10000214:	00000000 	.word	0x00000000

10000218 <frame_dummy>:
10000218:	b508      	push	{r3, lr}
1000021a:	4b05      	ldr	r3, [pc, #20]	@ (10000230 <frame_dummy+0x18>)
1000021c:	b11b      	cbz	r3, 10000226 <frame_dummy+0xe>
1000021e:	4905      	ldr	r1, [pc, #20]	@ (10000234 <frame_dummy+0x1c>)
10000220:	4805      	ldr	r0, [pc, #20]	@ (10000238 <frame_dummy+0x20>)
10000222:	f3af 8000 	nop.w
10000226:	e8bd 4008 	ldmia.w	sp!, {r3, lr}
1000022a:	f7ff bfe1 	b.w	100001f0 <register_tm_clones>
1000022e:	bf00      	nop
10000230:	00000000 	.word	0x00000000
10000234:	200057d8 	.word	0x200057d8
10000238:	1000ce90 	.word	0x1000ce90

1000023c <netif_init_cb>:
1000023c:	4603      	mov	r3, r0
1000023e:	f240 52ea 	movw	r2, #1514	@ 0x5ea
10000242:	8382      	strh	r2, [r0, #28]
10000244:	220f      	movs	r2, #15
10000246:	f880 2025 	strb.w	r2, [r0, #37]	@ 0x25
1000024a:	2000      	movs	r0, #0
1000024c:	6198      	str	r0, [r3, #24]
1000024e:	2245      	movs	r2, #69	@ 0x45
10000250:	f883 2026 	strb.w	r2, [r3, #38]	@ 0x26
10000254:	2258      	movs	r2, #88	@ 0x58
10000256:	f883 2027 	strb.w	r2, [r3, #39]	@ 0x27
1000025a:	4a02      	ldr	r2, [pc, #8]	@ (10000264 <netif_init_cb+0x28>)
1000025c:	615a      	str	r2, [r3, #20]
1000025e:	4a02      	ldr	r2, [pc, #8]	@ (10000268 <netif_init_cb+0x2c>)
10000260:	611a      	str	r2, [r3, #16]
10000262:	4770      	bx	lr
10000264:	100002f9 	.word	0x100002f9
10000268:	100002f1 	.word	0x100002f1

1000026c <dns_query_proc>:
1000026c:	b510      	push	{r4, lr}
1000026e:	460c      	mov	r4, r1
10000270:	4904      	ldr	r1, [pc, #16]	@ (10000284 <dns_query_proc+0x18>)
10000272:	f00c fc3b 	bl	1000caec <strcmp>
10000276:	b108      	cbz	r0, 1000027c <dns_query_proc+0x10>
10000278:	2000      	movs	r0, #0
1000027a:	bd10      	pop	{r4, pc}
1000027c:	4b02      	ldr	r3, [pc, #8]	@ (10000288 <dns_query_proc+0x1c>)
1000027e:	6023      	str	r3, [r4, #0]
10000280:	2001      	movs	r0, #1
10000282:	e7fa      	b.n	1000027a <dns_query_proc+0xe>
10000284:	1000ce90 	.word	0x1000ce90
10000288:	0107a8c0 	.word	0x0107a8c0

1000028c <init_lwip>:
1000028c:	b510      	push	{r4, lr}
1000028e:	b084      	sub	sp, #16
10000290:	f000 fd78 	bl	10000d84 <lwip_init>
10000294:	4c0f      	ldr	r4, [pc, #60]	@ (100002d4 <init_lwip+0x48>)
10000296:	2306      	movs	r3, #6
10000298:	f884 3024 	strb.w	r3, [r4, #36]	@ 0x24
1000029c:	4b0e      	ldr	r3, [pc, #56]	@ (100002d8 <init_lwip+0x4c>)
1000029e:	6818      	ldr	r0, [r3, #0]
100002a0:	f8c4 001e 	str.w	r0, [r4, #30]
100002a4:	889b      	ldrh	r3, [r3, #4]
100002a6:	8463      	strh	r3, [r4, #34]	@ 0x22
100002a8:	f894 3023 	ldrb.w	r3, [r4, #35]	@ 0x23
100002ac:	f083 0301 	eor.w	r3, r3, #1
100002b0:	f884 3023 	strb.w	r3, [r4, #35]	@ 0x23
100002b4:	4b09      	ldr	r3, [pc, #36]	@ (100002dc <init_lwip+0x50>)
100002b6:	9302      	str	r3, [sp, #8]
100002b8:	4b09      	ldr	r3, [pc, #36]	@ (100002e0 <init_lwip+0x54>)
100002ba:	9301      	str	r3, [sp, #4]
100002bc:	2300      	movs	r3, #0
100002be:	9300      	str	r3, [sp, #0]
100002c0:	4b08      	ldr	r3, [pc, #32]	@ (100002e4 <init_lwip+0x58>)
100002c2:	4a09      	ldr	r2, [pc, #36]	@ (100002e8 <init_lwip+0x5c>)
100002c4:	4909      	ldr	r1, [pc, #36]	@ (100002ec <init_lwip+0x60>)
100002c6:	4620      	mov	r0, r4
100002c8:	f001 f8bc 	bl	10001444 <netif_add>
100002cc:	f001 f8ee 	bl	100014ac <netif_set_default>
100002d0:	b004      	add	sp, #16
100002d2:	bd10      	pop	{r4, pc}
100002d4:	200057a0 	.word	0x200057a0
100002d8:	20000dc8 	.word	0x20000dc8
100002dc:	10006045 	.word	0x10006045
100002e0:	1000023d 	.word	0x1000023d
100002e4:	1000d77c 	.word	0x1000d77c
100002e8:	1000d780 	.word	0x1000d780
100002ec:	1000d784 	.word	0x1000d784

100002f0 <ip4_output_fn>:
100002f0:	b508      	push	{r3, lr}
100002f2:	f005 fca3 	bl	10005c3c <etharp_output>
100002f6:	bd08      	pop	{r3, pc}

100002f8 <linkoutput_fn>:
100002f8:	b510      	push	{r4, lr}
100002fa:	460c      	mov	r4, r1
100002fc:	e00d      	b.n	1000031a <linkoutput_fn+0x22>
100002fe:	f00a fef5 	bl	1000b0ec <tud_suspended>
10000302:	b980      	cbnz	r0, 10000326 <linkoutput_fn+0x2e>
10000304:	2301      	movs	r3, #1
10000306:	b1b3      	cbz	r3, 10000336 <linkoutput_fn+0x3e>
10000308:	8920      	ldrh	r0, [r4, #8]
1000030a:	f00b ff85 	bl	1000c218 <tud_network_can_xmit>
1000030e:	b960      	cbnz	r0, 1000032a <linkoutput_fn+0x32>
10000310:	2100      	movs	r1, #0
10000312:	f04f 30ff 	mov.w	r0, #4294967295
10000316:	f00b fa99 	bl	1000b84c <tud_task_ext>
1000031a:	f00a fedf 	bl	1000b0dc <tud_mounted>
1000031e:	2800      	cmp	r0, #0
10000320:	d1ed      	bne.n	100002fe <linkoutput_fn+0x6>
10000322:	2300      	movs	r3, #0
10000324:	e7ef      	b.n	10000306 <linkoutput_fn+0xe>
10000326:	2300      	movs	r3, #0
10000328:	e7ed      	b.n	10000306 <linkoutput_fn+0xe>
1000032a:	2100      	movs	r1, #0
1000032c:	4620      	mov	r0, r4
1000032e:	f00b ff9d 	bl	1000c26c <tud_network_xmit>
10000332:	2000      	movs	r0, #0
10000334:	e001      	b.n	1000033a <linkoutput_fn+0x42>
10000336:	f06f 0007 	mvn.w	r0, #7
1000033a:	bd10      	pop	{r4, pc}

1000033c <service_traffic>:
1000033c:	b510      	push	{r4, lr}
1000033e:	4b08      	ldr	r3, [pc, #32]	@ (10000360 <service_traffic+0x24>)
10000340:	6818      	ldr	r0, [r3, #0]
10000342:	b150      	cbz	r0, 1000035a <service_traffic+0x1e>
10000344:	4907      	ldr	r1, [pc, #28]	@ (10000364 <service_traffic+0x28>)
10000346:	f006 fbb1 	bl	10006aac <ethernet_input>
1000034a:	4c05      	ldr	r4, [pc, #20]	@ (10000360 <service_traffic+0x24>)
1000034c:	6820      	ldr	r0, [r4, #0]
1000034e:	f001 f99e 	bl	1000168e <pbuf_free>
10000352:	2300      	movs	r3, #0
10000354:	6023      	str	r3, [r4, #0]
10000356:	f00b ffbf 	bl	1000c2d8 <tud_network_recv_renew>
1000035a:	f004 fe3f 	bl	10004fdc <sys_check_timeouts>
1000035e:	bd10      	pop	{r4, pc}
10000360:	20005f00 	.word	0x20005f00
10000364:	200057a0 	.word	0x200057a0

10000368 <board_millis>:
10000368:	b508      	push	{r3, lr}
1000036a:	f008 fad5 	bl	10008918 <time_us_64>
1000036e:	b129      	cbz	r1, 1000037c <board_millis+0x14>
10000370:	f44f 727a 	mov.w	r2, #1000	@ 0x3e8
10000374:	2300      	movs	r3, #0
10000376:	f00c fd4f 	bl	1000ce18 <____aeabi_uldivmod_veneer>
1000037a:	bd08      	pop	{r3, pc}
1000037c:	4b02      	ldr	r3, [pc, #8]	@ (10000388 <board_millis+0x20>)
1000037e:	fba3 3000 	umull	r3, r0, r3, r0
10000382:	0980      	lsrs	r0, r0, #6
10000384:	e7f9      	b.n	1000037a <board_millis+0x12>
10000386:	bf00      	nop
10000388:	10624dd3 	.word	0x10624dd3

1000038c <tud_network_recv_cb>:
1000038c:	4b0e      	ldr	r3, [pc, #56]	@ (100003c8 <tud_network_recv_cb+0x3c>)
1000038e:	681b      	ldr	r3, [r3, #0]
10000390:	b10b      	cbz	r3, 10000396 <tud_network_recv_cb+0xa>
10000392:	2000      	movs	r0, #0
10000394:	4770      	bx	lr
10000396:	b570      	push	{r4, r5, r6, lr}
10000398:	4605      	mov	r5, r0
1000039a:	460c      	mov	r4, r1
1000039c:	b909      	cbnz	r1, 100003a2 <tud_network_recv_cb+0x16>
1000039e:	2001      	movs	r0, #1
100003a0:	bd70      	pop	{r4, r5, r6, pc}
100003a2:	f44f 72c1 	mov.w	r2, #386	@ 0x182
100003a6:	2000      	movs	r0, #0
100003a8:	f001 f9a5 	bl	100016f6 <pbuf_alloc>
100003ac:	4606      	mov	r6, r0
100003ae:	b140      	cbz	r0, 100003c2 <tud_network_recv_cb+0x36>
100003b0:	4622      	mov	r2, r4
100003b2:	4629      	mov	r1, r5
100003b4:	6840      	ldr	r0, [r0, #4]
100003b6:	f00c fc77 	bl	1000cca8 <memcpy>
100003ba:	4b03      	ldr	r3, [pc, #12]	@ (100003c8 <tud_network_recv_cb+0x3c>)
100003bc:	601e      	str	r6, [r3, #0]
100003be:	2001      	movs	r0, #1
100003c0:	e7ee      	b.n	100003a0 <tud_network_recv_cb+0x14>
100003c2:	2001      	movs	r0, #1
100003c4:	e7ec      	b.n	100003a0 <tud_network_recv_cb+0x14>
100003c6:	bf00      	nop
100003c8:	20005f00 	.word	0x20005f00

100003cc <tud_network_xmit_cb>:
100003cc:	b508      	push	{r3, lr}
100003ce:	4684      	mov	ip, r0
100003d0:	4608      	mov	r0, r1
100003d2:	2300      	movs	r3, #0
100003d4:	890a      	ldrh	r2, [r1, #8]
100003d6:	4661      	mov	r1, ip
100003d8:	f001 faed 	bl	100019b6 <pbuf_copy_partial>
100003dc:	bd08      	pop	{r3, pc}
	...

100003e0 <main>:
100003e0:	b508      	push	{r3, lr}
100003e2:	f00a fa6b 	bl	1000a8bc <board_init>
100003e6:	2000      	movs	r0, #0
100003e8:	f00a fe90 	bl	1000b10c <tud_init>
100003ec:	4b12      	ldr	r3, [pc, #72]	@ (10000438 <main+0x58>)
100003ee:	b10b      	cbz	r3, 100003f4 <main+0x14>
100003f0:	f3af 8000 	nop.w
100003f4:	f7ff ff4a 	bl	1000028c <init_lwip>
100003f8:	4b10      	ldr	r3, [pc, #64]	@ (1000043c <main+0x5c>)
100003fa:	f893 3025 	ldrb.w	r3, [r3, #37]	@ 0x25
100003fe:	f013 0f01 	tst.w	r3, #1
10000402:	d0f9      	beq.n	100003f8 <main+0x18>
10000404:	480e      	ldr	r0, [pc, #56]	@ (10000440 <main+0x60>)
10000406:	f000 faab 	bl	10000960 <dhserv_init>
1000040a:	2800      	cmp	r0, #0
1000040c:	d1fa      	bne.n	10000404 <main+0x24>
1000040e:	4a0d      	ldr	r2, [pc, #52]	@ (10000444 <main+0x64>)
10000410:	2135      	movs	r1, #53	@ 0x35
10000412:	480d      	ldr	r0, [pc, #52]	@ (10000448 <main+0x68>)
10000414:	f000 fba6 	bl	10000b64 <dnserv_init>
10000418:	2800      	cmp	r0, #0
1000041a:	d1f8      	bne.n	1000040e <main+0x2e>
1000041c:	f006 fefe 	bl	1000721c <httpd_init>
10000420:	2100      	movs	r1, #0
10000422:	4608      	mov	r0, r1
10000424:	f007 fa50 	bl	100078c8 <lwiperf_start_tcp_server_default>
10000428:	2100      	movs	r1, #0
1000042a:	f04f 30ff 	mov.w	r0, #4294967295
1000042e:	f00b fa0d 	bl	1000b84c <tud_task_ext>
10000432:	f7ff ff83 	bl	1000033c <service_traffic>
10000436:	e7f7      	b.n	10000428 <main+0x48>
10000438:	00000000 	.word	0x00000000
1000043c:	200057a0 	.word	0x200057a0
10000440:	1000d764 	.word	0x1000d764
10000444:	1000026d 	.word	0x1000026d
10000448:	1000d91c 	.word	0x1000d91c

1000044c <sys_arch_protect>:
1000044c:	2000      	movs	r0, #0
1000044e:	4770      	bx	lr

10000450 <sys_arch_unprotect>:
10000450:	4770      	bx	lr

10000452 <sys_now>:
10000452:	b508      	push	{r3, lr}
10000454:	f7ff ff88 	bl	10000368 <board_millis>
10000458:	bd08      	pop	{r3, pc}
	...

1000045c <board_usb_get_serial>:
1000045c:	b570      	push	{r4, r5, r6, lr}
1000045e:	b088      	sub	sp, #32
10000460:	4604      	mov	r4, r0
10000462:	460d      	mov	r5, r1
10000464:	4b1d      	ldr	r3, [pc, #116]	@ (100004dc <board_usb_get_serial+0x80>)
10000466:	b15b      	cbz	r3, 10000480 <board_usb_get_serial+0x24>
10000468:	2110      	movs	r1, #16
1000046a:	eb0d 0001 	add.w	r0, sp, r1
1000046e:	f00a fa3b 	bl	1000a8e8 <board_get_unique_id>
10000472:	086e      	lsrs	r6, r5, #1
10000474:	ebb0 0f55 	cmp.w	r0, r5, lsr #1
10000478:	d800      	bhi.n	1000047c <board_usb_get_serial+0x20>
1000047a:	4606      	mov	r6, r0
1000047c:	2500      	movs	r5, #0
1000047e:	e024      	b.n	100004ca <board_usb_get_serial+0x6e>
10000480:	4b17      	ldr	r3, [pc, #92]	@ (100004e0 <board_usb_get_serial+0x84>)
10000482:	9304      	str	r3, [sp, #16]
10000484:	f103 3388 	add.w	r3, r3, #2290649224	@ 0x88888888
10000488:	9305      	str	r3, [sp, #20]
1000048a:	2008      	movs	r0, #8
1000048c:	e7f1      	b.n	10000472 <board_usb_get_serial+0x16>
1000048e:	4b15      	ldr	r3, [pc, #84]	@ (100004e4 <board_usb_get_serial+0x88>)
10000490:	46ee      	mov	lr, sp
10000492:	cb0f      	ldmia	r3, {r0, r1, r2, r3}
10000494:	e88e 000f 	stmia.w	lr, {r0, r1, r2, r3}
10000498:	f105 0320 	add.w	r3, r5, #32
1000049c:	446b      	add	r3, sp
1000049e:	f813 3c10 	ldrb.w	r3, [r3, #-16]
100004a2:	ea4f 028c 	mov.w	r2, ip, lsl #2
100004a6:	4113      	asrs	r3, r2
100004a8:	f003 030f 	and.w	r3, r3, #15
100004ac:	ebcc 0245 	rsb	r2, ip, r5, lsl #1
100004b0:	3201      	adds	r2, #1
100004b2:	3320      	adds	r3, #32
100004b4:	446b      	add	r3, sp
100004b6:	f813 3c20 	ldrb.w	r3, [r3, #-32]
100004ba:	f824 3012 	strh.w	r3, [r4, r2, lsl #1]
100004be:	f10c 0c01 	add.w	ip, ip, #1
100004c2:	f1bc 0f01 	cmp.w	ip, #1
100004c6:	d9e2      	bls.n	1000048e <board_usb_get_serial+0x32>
100004c8:	3501      	adds	r5, #1
100004ca:	42ae      	cmp	r6, r5
100004cc:	d902      	bls.n	100004d4 <board_usb_get_serial+0x78>
100004ce:	f04f 0c00 	mov.w	ip, #0
100004d2:	e7f6      	b.n	100004c2 <board_usb_get_serial+0x66>
100004d4:	0070      	lsls	r0, r6, #1
100004d6:	b008      	add	sp, #32
100004d8:	bd70      	pop	{r4, r5, r6, pc}
100004da:	bf00      	nop
100004dc:	1000a8e9 	.word	0x1000a8e9
100004e0:	67452301 	.word	0x67452301
100004e4:	1000cea0 	.word	0x1000cea0

100004e8 <tud_descriptor_device_cb>:
100004e8:	4800      	ldr	r0, [pc, #0]	@ (100004ec <tud_descriptor_device_cb+0x4>)
100004ea:	4770      	bx	lr
100004ec:	1000d808 	.word	0x1000d808

100004f0 <tud_descriptor_configuration_cb>:
100004f0:	b918      	cbnz	r0, 100004fa <tud_descriptor_configuration_cb+0xa>
100004f2:	4a03      	ldr	r2, [pc, #12]	@ (10000500 <tud_descriptor_configuration_cb+0x10>)
100004f4:	f852 0020 	ldr.w	r0, [r2, r0, lsl #2]
100004f8:	4770      	bx	lr
100004fa:	2000      	movs	r0, #0
100004fc:	4770      	bx	lr
100004fe:	bf00      	nop
10000500:	1000d7a0 	.word	0x1000d7a0

10000504 <tud_descriptor_string_cb>:
10000504:	b510      	push	{r4, lr}
10000506:	2803      	cmp	r0, #3
10000508:	d008      	beq.n	1000051c <tud_descriptor_string_cb+0x18>
1000050a:	2805      	cmp	r0, #5
1000050c:	d027      	beq.n	1000055e <tud_descriptor_string_cb+0x5a>
1000050e:	bb48      	cbnz	r0, 10000564 <tud_descriptor_string_cb+0x60>
10000510:	4b20      	ldr	r3, [pc, #128]	@ (10000594 <tud_descriptor_string_cb+0x90>)
10000512:	f240 4209 	movw	r2, #1033	@ 0x409
10000516:	805a      	strh	r2, [r3, #2]
10000518:	2001      	movs	r0, #1
1000051a:	e018      	b.n	1000054e <tud_descriptor_string_cb+0x4a>
1000051c:	2120      	movs	r1, #32
1000051e:	481e      	ldr	r0, [pc, #120]	@ (10000598 <tud_descriptor_string_cb+0x94>)
10000520:	f7ff ff9c 	bl	1000045c <board_usb_get_serial>
10000524:	e013      	b.n	1000054e <tud_descriptor_string_cb+0x4a>
10000526:	4b1d      	ldr	r3, [pc, #116]	@ (1000059c <tud_descriptor_string_cb+0x98>)
10000528:	5c9b      	ldrb	r3, [r3, r2]
1000052a:	0919      	lsrs	r1, r3, #4
1000052c:	f100 0c01 	add.w	ip, r0, #1
10000530:	4c1b      	ldr	r4, [pc, #108]	@ (100005a0 <tud_descriptor_string_cb+0x9c>)
10000532:	f814 e001 	ldrb.w	lr, [r4, r1]
10000536:	4917      	ldr	r1, [pc, #92]	@ (10000594 <tud_descriptor_string_cb+0x90>)
10000538:	f821 e01c 	strh.w	lr, [r1, ip, lsl #1]
1000053c:	f003 030f 	and.w	r3, r3, #15
10000540:	3002      	adds	r0, #2
10000542:	5ce3      	ldrb	r3, [r4, r3]
10000544:	f821 3010 	strh.w	r3, [r1, r0, lsl #1]
10000548:	3201      	adds	r2, #1
1000054a:	2a05      	cmp	r2, #5
1000054c:	d9eb      	bls.n	10000526 <tud_descriptor_string_cb+0x22>
1000054e:	1c43      	adds	r3, r0, #1
10000550:	005b      	lsls	r3, r3, #1
10000552:	b29b      	uxth	r3, r3
10000554:	f443 7340 	orr.w	r3, r3, #768	@ 0x300
10000558:	480e      	ldr	r0, [pc, #56]	@ (10000594 <tud_descriptor_string_cb+0x90>)
1000055a:	8003      	strh	r3, [r0, #0]
1000055c:	bd10      	pop	{r4, pc}
1000055e:	2200      	movs	r2, #0
10000560:	4610      	mov	r0, r2
10000562:	e7f2      	b.n	1000054a <tud_descriptor_string_cb+0x46>
10000564:	2804      	cmp	r0, #4
10000566:	d812      	bhi.n	1000058e <tud_descriptor_string_cb+0x8a>
10000568:	4b0e      	ldr	r3, [pc, #56]	@ (100005a4 <tud_descriptor_string_cb+0xa0>)
1000056a:	f853 4020 	ldr.w	r4, [r3, r0, lsl #2]
1000056e:	4620      	mov	r0, r4
10000570:	f00c fc10 	bl	1000cd94 <strlen>
10000574:	2820      	cmp	r0, #32
10000576:	d900      	bls.n	1000057a <tud_descriptor_string_cb+0x76>
10000578:	2020      	movs	r0, #32
1000057a:	2300      	movs	r3, #0
1000057c:	e004      	b.n	10000588 <tud_descriptor_string_cb+0x84>
1000057e:	5ce1      	ldrb	r1, [r4, r3]
10000580:	3301      	adds	r3, #1
10000582:	4a04      	ldr	r2, [pc, #16]	@ (10000594 <tud_descriptor_string_cb+0x90>)
10000584:	f822 1013 	strh.w	r1, [r2, r3, lsl #1]
10000588:	4298      	cmp	r0, r3
1000058a:	d8f8      	bhi.n	1000057e <tud_descriptor_string_cb+0x7a>
1000058c:	e7df      	b.n	1000054e <tud_descriptor_string_cb+0x4a>
1000058e:	2000      	movs	r0, #0
10000590:	e7e4      	b.n	1000055c <tud_descriptor_string_cb+0x58>
10000592:	bf00      	nop
10000594:	20001038 	.word	0x20001038
10000598:	2000103a 	.word	0x2000103a
1000059c:	20000dc8 	.word	0x20000dc8
100005a0:	1000cea0 	.word	0x1000cea0
100005a4:	1000d788 	.word	0x1000d788

100005a8 <get_ip>:
100005a8:	6800      	ldr	r0, [r0, #0]
100005aa:	4770      	bx	lr

100005ac <set_ip>:
100005ac:	6001      	str	r1, [r0, #0]
100005ae:	4770      	bx	lr

100005b0 <entry_by_ip>:
100005b0:	4684      	mov	ip, r0
100005b2:	2300      	movs	r3, #0
100005b4:	e000      	b.n	100005b8 <entry_by_ip+0x8>
100005b6:	3301      	adds	r3, #1
100005b8:	4a06      	ldr	r2, [pc, #24]	@ (100005d4 <entry_by_ip+0x24>)
100005ba:	6812      	ldr	r2, [r2, #0]
100005bc:	6911      	ldr	r1, [r2, #16]
100005be:	4299      	cmp	r1, r3
100005c0:	dd06      	ble.n	100005d0 <entry_by_ip+0x20>
100005c2:	6950      	ldr	r0, [r2, #20]
100005c4:	eb00 1003 	add.w	r0, r0, r3, lsl #4
100005c8:	6882      	ldr	r2, [r0, #8]
100005ca:	4562      	cmp	r2, ip
100005cc:	d1f3      	bne.n	100005b6 <entry_by_ip+0x6>
100005ce:	e000      	b.n	100005d2 <entry_by_ip+0x22>
100005d0:	2000      	movs	r0, #0
100005d2:	4770      	bx	lr
100005d4:	20001304 	.word	0x20001304

100005d8 <entry_by_mac>:
100005d8:	b570      	push	{r4, r5, r6, lr}
100005da:	4606      	mov	r6, r0
100005dc:	2500      	movs	r5, #0
100005de:	e000      	b.n	100005e2 <entry_by_mac+0xa>
100005e0:	3501      	adds	r5, #1
100005e2:	4b09      	ldr	r3, [pc, #36]	@ (10000608 <entry_by_mac+0x30>)
100005e4:	681b      	ldr	r3, [r3, #0]
100005e6:	691a      	ldr	r2, [r3, #16]
100005e8:	42aa      	cmp	r2, r5
100005ea:	dd0a      	ble.n	10000602 <entry_by_mac+0x2a>
100005ec:	695c      	ldr	r4, [r3, #20]
100005ee:	eb04 1405 	add.w	r4, r4, r5, lsl #4
100005f2:	2206      	movs	r2, #6
100005f4:	4631      	mov	r1, r6
100005f6:	4620      	mov	r0, r4
100005f8:	f00c f950 	bl	1000c89c <memcmp>
100005fc:	2800      	cmp	r0, #0
100005fe:	d1ef      	bne.n	100005e0 <entry_by_mac+0x8>
10000600:	e000      	b.n	10000604 <entry_by_mac+0x2c>
10000602:	2400      	movs	r4, #0
10000604:	4620      	mov	r0, r4
10000606:	bd70      	pop	{r4, r5, r6, pc}
10000608:	20001304 	.word	0x20001304

1000060c <vacant_address>:
1000060c:	b538      	push	{r3, r4, r5, lr}
1000060e:	2500      	movs	r5, #0
10000610:	e000      	b.n	10000614 <vacant_address+0x8>
10000612:	3501      	adds	r5, #1
10000614:	4b09      	ldr	r3, [pc, #36]	@ (1000063c <vacant_address+0x30>)
10000616:	681b      	ldr	r3, [r3, #0]
10000618:	691a      	ldr	r2, [r3, #16]
1000061a:	42aa      	cmp	r2, r5
1000061c:	dd0a      	ble.n	10000634 <vacant_address+0x28>
1000061e:	695c      	ldr	r4, [r3, #20]
10000620:	eb04 1405 	add.w	r4, r4, r5, lsl #4
10000624:	2206      	movs	r2, #6
10000626:	4621      	mov	r1, r4
10000628:	4805      	ldr	r0, [pc, #20]	@ (10000640 <vacant_address+0x34>)
1000062a:	f00c f937 	bl	1000c89c <memcmp>
1000062e:	2800      	cmp	r0, #0
10000630:	d1ef      	bne.n	10000612 <vacant_address+0x6>
10000632:	e000      	b.n	10000636 <vacant_address+0x2a>
10000634:	2400      	movs	r4, #0
10000636:	4620      	mov	r0, r4
10000638:	bd38      	pop	{r3, r4, r5, pc}
1000063a:	bf00      	nop
1000063c:	20001304 	.word	0x20001304
10000640:	1000d81c 	.word	0x1000d81c

10000644 <find_dhcp_option>:
10000644:	4684      	mov	ip, r0
10000646:	2300      	movs	r3, #0
10000648:	1c58      	adds	r0, r3, #1
1000064a:	4288      	cmp	r0, r1
1000064c:	da18      	bge.n	10000680 <find_dhcp_option+0x3c>
1000064e:	b500      	push	{lr}
10000650:	e002      	b.n	10000658 <find_dhcp_option+0x14>
10000652:	1c58      	adds	r0, r3, #1
10000654:	4288      	cmp	r0, r1
10000656:	da0e      	bge.n	10000676 <find_dhcp_option+0x32>
10000658:	469e      	mov	lr, r3
1000065a:	eb0c 0003 	add.w	r0, ip, r3
1000065e:	7840      	ldrb	r0, [r0, #1]
10000660:	4403      	add	r3, r0
10000662:	3302      	adds	r3, #2
10000664:	4299      	cmp	r1, r3
10000666:	db09      	blt.n	1000067c <find_dhcp_option+0x38>
10000668:	eb0c 000e 	add.w	r0, ip, lr
1000066c:	f81c e00e 	ldrb.w	lr, [ip, lr]
10000670:	4596      	cmp	lr, r2
10000672:	d1ee      	bne.n	10000652 <find_dhcp_option+0xe>
10000674:	e000      	b.n	10000678 <find_dhcp_option+0x34>
10000676:	2000      	movs	r0, #0
10000678:	f85d fb04 	ldr.w	pc, [sp], #4
1000067c:	2000      	movs	r0, #0
1000067e:	e7fb      	b.n	10000678 <find_dhcp_option+0x34>
10000680:	2000      	movs	r0, #0
10000682:	4770      	bx	lr

10000684 <fill_options>:
10000684:	e92d 47f0 	stmdb	sp!, {r4, r5, r6, r7, r8, r9, sl, lr}
10000688:	4604      	mov	r4, r0
1000068a:	4616      	mov	r6, r2
1000068c:	4698      	mov	r8, r3
1000068e:	9d08      	ldr	r5, [sp, #32]
10000690:	9f0a      	ldr	r7, [sp, #40]	@ 0x28
10000692:	2335      	movs	r3, #53	@ 0x35
10000694:	7003      	strb	r3, [r0, #0]
10000696:	f04f 0a01 	mov.w	sl, #1
1000069a:	f880 a001 	strb.w	sl, [r0, #1]
1000069e:	7081      	strb	r1, [r0, #2]
100006a0:	2336      	movs	r3, #54	@ 0x36
100006a2:	70c3      	strb	r3, [r0, #3]
100006a4:	f04f 0904 	mov.w	r9, #4
100006a8:	f880 9004 	strb.w	r9, [r0, #4]
100006ac:	9909      	ldr	r1, [sp, #36]	@ 0x24
100006ae:	3005      	adds	r0, #5
100006b0:	f7ff ff7c 	bl	100005ac <set_ip>
100006b4:	2333      	movs	r3, #51	@ 0x33
100006b6:	7263      	strb	r3, [r4, #9]
100006b8:	f884 900a 	strb.w	r9, [r4, #10]
100006bc:	0e2b      	lsrs	r3, r5, #24
100006be:	72e3      	strb	r3, [r4, #11]
100006c0:	142b      	asrs	r3, r5, #16
100006c2:	7323      	strb	r3, [r4, #12]
100006c4:	122b      	asrs	r3, r5, #8
100006c6:	7363      	strb	r3, [r4, #13]
100006c8:	73a5      	strb	r5, [r4, #14]
100006ca:	f884 a00f 	strb.w	sl, [r4, #15]
100006ce:	f884 9010 	strb.w	r9, [r4, #16]
100006d2:	990b      	ldr	r1, [sp, #44]	@ 0x2c
100006d4:	f104 0011 	add.w	r0, r4, #17
100006d8:	f7ff ff68 	bl	100005ac <set_ip>
100006dc:	f104 0515 	add.w	r5, r4, #21
100006e0:	b9cf      	cbnz	r7, 10000716 <fill_options+0x92>
100006e2:	b17e      	cbz	r6, 10000704 <fill_options+0x80>
100006e4:	4630      	mov	r0, r6
100006e6:	f00c fb55 	bl	1000cd94 <strlen>
100006ea:	4607      	mov	r7, r0
100006ec:	46a9      	mov	r9, r5
100006ee:	230f      	movs	r3, #15
100006f0:	f809 3b02 	strb.w	r3, [r9], #2
100006f4:	7068      	strb	r0, [r5, #1]
100006f6:	4602      	mov	r2, r0
100006f8:	4631      	mov	r1, r6
100006fa:	4648      	mov	r0, r9
100006fc:	f00c fad4 	bl	1000cca8 <memcpy>
10000700:	eb09 0507 	add.w	r5, r9, r7
10000704:	f1b8 0f00 	cmp.w	r8, #0
10000708:	d111      	bne.n	1000072e <fill_options+0xaa>
1000070a:	23ff      	movs	r3, #255	@ 0xff
1000070c:	f805 3b01 	strb.w	r3, [r5], #1
10000710:	1b28      	subs	r0, r5, r4
10000712:	e8bd 87f0 	ldmia.w	sp!, {r4, r5, r6, r7, r8, r9, sl, pc}
10000716:	2303      	movs	r3, #3
10000718:	7563      	strb	r3, [r4, #21]
1000071a:	f884 9016 	strb.w	r9, [r4, #22]
1000071e:	4639      	mov	r1, r7
10000720:	f104 0017 	add.w	r0, r4, #23
10000724:	f7ff ff42 	bl	100005ac <set_ip>
10000728:	f104 051b 	add.w	r5, r4, #27
1000072c:	e7d9      	b.n	100006e2 <fill_options+0x5e>
1000072e:	4628      	mov	r0, r5
10000730:	2306      	movs	r3, #6
10000732:	f800 3b02 	strb.w	r3, [r0], #2
10000736:	2304      	movs	r3, #4
10000738:	706b      	strb	r3, [r5, #1]
1000073a:	4641      	mov	r1, r8
1000073c:	f7ff ff36 	bl	100005ac <set_ip>
10000740:	3506      	adds	r5, #6
10000742:	e7e2      	b.n	1000070a <fill_options+0x86>

10000744 <udp_recv_proc>:
10000744:	e92d 4ff0 	stmdb	sp!, {r4, r5, r6, r7, r8, r9, sl, fp, lr}
10000748:	b085      	sub	sp, #20
1000074a:	460e      	mov	r6, r1
1000074c:	4614      	mov	r4, r2
1000074e:	f8bd 7038 	ldrh.w	r7, [sp, #56]	@ 0x38
10000752:	7bd0      	ldrb	r0, [r2, #15]
10000754:	f000 feb0 	bl	100014b8 <netif_get_by_index>
10000758:	4680      	mov	r8, r0
1000075a:	8962      	ldrh	r2, [r4, #10]
1000075c:	f5b2 7f01 	cmp.w	r2, #516	@ 0x204
10000760:	d901      	bls.n	10000766 <udp_recv_proc+0x22>
10000762:	f44f 7201 	mov.w	r2, #516	@ 0x204
10000766:	4d71      	ldr	r5, [pc, #452]	@ (1000092c <udp_recv_proc+0x1e8>)
10000768:	6861      	ldr	r1, [r4, #4]
1000076a:	4628      	mov	r0, r5
1000076c:	f00c fa9c 	bl	1000cca8 <memcpy>
10000770:	2235      	movs	r2, #53	@ 0x35
10000772:	f240 1113 	movw	r1, #275	@ 0x113
10000776:	f105 00f0 	add.w	r0, r5, #240	@ 0xf0
1000077a:	f7ff ff63 	bl	10000644 <find_dhcp_option>
1000077e:	b150      	cbz	r0, 10000796 <udp_recv_proc+0x52>
10000780:	7883      	ldrb	r3, [r0, #2]
10000782:	2b01      	cmp	r3, #1
10000784:	d00b      	beq.n	1000079e <udp_recv_proc+0x5a>
10000786:	2b03      	cmp	r3, #3
10000788:	d060      	beq.n	1000084c <udp_recv_proc+0x108>
1000078a:	4620      	mov	r0, r4
1000078c:	f000 ff7f 	bl	1000168e <pbuf_free>
10000790:	b005      	add	sp, #20
10000792:	e8bd 8ff0 	ldmia.w	sp!, {r4, r5, r6, r7, r8, r9, sl, fp, pc}
10000796:	4620      	mov	r0, r4
10000798:	f000 ff79 	bl	1000168e <pbuf_free>
1000079c:	e7f8      	b.n	10000790 <udp_recv_proc+0x4c>
1000079e:	4864      	ldr	r0, [pc, #400]	@ (10000930 <udp_recv_proc+0x1ec>)
100007a0:	f7ff ff1a 	bl	100005d8 <entry_by_mac>
100007a4:	4682      	mov	sl, r0
100007a6:	2800      	cmp	r0, #0
100007a8:	d04a      	beq.n	10000840 <udp_recv_proc+0xfc>
100007aa:	4d60      	ldr	r5, [pc, #384]	@ (1000092c <udp_recv_proc+0x1e8>)
100007ac:	f04f 0b02 	mov.w	fp, #2
100007b0:	f885 b000 	strb.w	fp, [r5]
100007b4:	f04f 0900 	mov.w	r9, #0
100007b8:	f8a5 9008 	strh.w	r9, [r5, #8]
100007bc:	f8a5 900a 	strh.w	r9, [r5, #10]
100007c0:	f8da 1008 	ldr.w	r1, [sl, #8]
100007c4:	f105 0010 	add.w	r0, r5, #16
100007c8:	f7ff fef0 	bl	100005ac <set_ip>
100007cc:	4b59      	ldr	r3, [pc, #356]	@ (10000934 <udp_recv_proc+0x1f0>)
100007ce:	681b      	ldr	r3, [r3, #0]
100007d0:	f8c5 30ec 	str.w	r3, [r5, #236]	@ 0xec
100007d4:	35f0      	adds	r5, #240	@ 0xf0
100007d6:	f240 1213 	movw	r2, #275	@ 0x113
100007da:	4649      	mov	r1, r9
100007dc:	4628      	mov	r0, r5
100007de:	f00c f88b 	bl	1000c8f8 <memset>
100007e2:	4b55      	ldr	r3, [pc, #340]	@ (10000938 <udp_recv_proc+0x1f4>)
100007e4:	6819      	ldr	r1, [r3, #0]
100007e6:	68ca      	ldr	r2, [r1, #12]
100007e8:	f8da 000c 	ldr.w	r0, [sl, #12]
100007ec:	f8d1 c008 	ldr.w	ip, [r1, #8]
100007f0:	f8d8 3004 	ldr.w	r3, [r8, #4]
100007f4:	9303      	str	r3, [sp, #12]
100007f6:	6809      	ldr	r1, [r1, #0]
100007f8:	9102      	str	r1, [sp, #8]
100007fa:	f8d8 1000 	ldr.w	r1, [r8]
100007fe:	9101      	str	r1, [sp, #4]
10000800:	9000      	str	r0, [sp, #0]
10000802:	4663      	mov	r3, ip
10000804:	4659      	mov	r1, fp
10000806:	4628      	mov	r0, r5
10000808:	f7ff ff3c 	bl	10000684 <fill_options>
1000080c:	f44f 72c1 	mov.w	r2, #386	@ 0x182
10000810:	f44f 7101 	mov.w	r1, #516	@ 0x204
10000814:	2036      	movs	r0, #54	@ 0x36
10000816:	f000 ff6e 	bl	100016f6 <pbuf_alloc>
1000081a:	4605      	mov	r5, r0
1000081c:	2800      	cmp	r0, #0
1000081e:	d0b4      	beq.n	1000078a <udp_recv_proc+0x46>
10000820:	f44f 7201 	mov.w	r2, #516	@ 0x204
10000824:	4941      	ldr	r1, [pc, #260]	@ (1000092c <udp_recv_proc+0x1e8>)
10000826:	6840      	ldr	r0, [r0, #4]
10000828:	f00c fa3e 	bl	1000cca8 <memcpy>
1000082c:	463b      	mov	r3, r7
1000082e:	4a43      	ldr	r2, [pc, #268]	@ (1000093c <udp_recv_proc+0x1f8>)
10000830:	4629      	mov	r1, r5
10000832:	4630      	mov	r0, r6
10000834:	f004 fe4c 	bl	100054d0 <udp_sendto>
10000838:	4628      	mov	r0, r5
1000083a:	f000 ff28 	bl	1000168e <pbuf_free>
1000083e:	e7a4      	b.n	1000078a <udp_recv_proc+0x46>
10000840:	f7ff fee4 	bl	1000060c <vacant_address>
10000844:	4682      	mov	sl, r0
10000846:	2800      	cmp	r0, #0
10000848:	d1af      	bne.n	100007aa <udp_recv_proc+0x66>
1000084a:	e79e      	b.n	1000078a <udp_recv_proc+0x46>
1000084c:	2232      	movs	r2, #50	@ 0x32
1000084e:	f240 1113 	movw	r1, #275	@ 0x113
10000852:	483b      	ldr	r0, [pc, #236]	@ (10000940 <udp_recv_proc+0x1fc>)
10000854:	f7ff fef6 	bl	10000644 <find_dhcp_option>
10000858:	4605      	mov	r5, r0
1000085a:	2800      	cmp	r0, #0
1000085c:	d095      	beq.n	1000078a <udp_recv_proc+0x46>
1000085e:	7843      	ldrb	r3, [r0, #1]
10000860:	2b04      	cmp	r3, #4
10000862:	d192      	bne.n	1000078a <udp_recv_proc+0x46>
10000864:	f100 0902 	add.w	r9, r0, #2
10000868:	4831      	ldr	r0, [pc, #196]	@ (10000930 <udp_recv_proc+0x1ec>)
1000086a:	f7ff feb5 	bl	100005d8 <entry_by_mac>
1000086e:	b110      	cbz	r0, 10000876 <udp_recv_proc+0x132>
10000870:	2200      	movs	r2, #0
10000872:	6002      	str	r2, [r0, #0]
10000874:	8082      	strh	r2, [r0, #4]
10000876:	4648      	mov	r0, r9
10000878:	f7ff fe96 	bl	100005a8 <get_ip>
1000087c:	f7ff fe98 	bl	100005b0 <entry_by_ip>
10000880:	4681      	mov	r9, r0
10000882:	2800      	cmp	r0, #0
10000884:	d081      	beq.n	1000078a <udp_recv_proc+0x46>
10000886:	2206      	movs	r2, #6
10000888:	4601      	mov	r1, r0
1000088a:	482e      	ldr	r0, [pc, #184]	@ (10000944 <udp_recv_proc+0x200>)
1000088c:	f00c f806 	bl	1000c89c <memcmp>
10000890:	2800      	cmp	r0, #0
10000892:	f47f af7a 	bne.w	1000078a <udp_recv_proc+0x46>
10000896:	f8d5 3002 	ldr.w	r3, [r5, #2]
1000089a:	4d24      	ldr	r5, [pc, #144]	@ (1000092c <udp_recv_proc+0x1e8>)
1000089c:	612b      	str	r3, [r5, #16]
1000089e:	2302      	movs	r3, #2
100008a0:	702b      	strb	r3, [r5, #0]
100008a2:	2100      	movs	r1, #0
100008a4:	8129      	strh	r1, [r5, #8]
100008a6:	8169      	strh	r1, [r5, #10]
100008a8:	4b22      	ldr	r3, [pc, #136]	@ (10000934 <udp_recv_proc+0x1f0>)
100008aa:	681b      	ldr	r3, [r3, #0]
100008ac:	f8c5 30ec 	str.w	r3, [r5, #236]	@ 0xec
100008b0:	35f0      	adds	r5, #240	@ 0xf0
100008b2:	f240 1213 	movw	r2, #275	@ 0x113
100008b6:	4628      	mov	r0, r5
100008b8:	f00c f81e 	bl	1000c8f8 <memset>
100008bc:	4b1e      	ldr	r3, [pc, #120]	@ (10000938 <udp_recv_proc+0x1f4>)
100008be:	6819      	ldr	r1, [r3, #0]
100008c0:	68ca      	ldr	r2, [r1, #12]
100008c2:	f8d9 000c 	ldr.w	r0, [r9, #12]
100008c6:	f8d1 c008 	ldr.w	ip, [r1, #8]
100008ca:	f8d8 3004 	ldr.w	r3, [r8, #4]
100008ce:	9303      	str	r3, [sp, #12]
100008d0:	6809      	ldr	r1, [r1, #0]
100008d2:	9102      	str	r1, [sp, #8]
100008d4:	f8d8 1000 	ldr.w	r1, [r8]
100008d8:	9101      	str	r1, [sp, #4]
100008da:	9000      	str	r0, [sp, #0]
100008dc:	4663      	mov	r3, ip
100008de:	2105      	movs	r1, #5
100008e0:	4628      	mov	r0, r5
100008e2:	f7ff fecf 	bl	10000684 <fill_options>
100008e6:	f44f 72c1 	mov.w	r2, #386	@ 0x182
100008ea:	f44f 7101 	mov.w	r1, #516	@ 0x204
100008ee:	2036      	movs	r0, #54	@ 0x36
100008f0:	f000 ff01 	bl	100016f6 <pbuf_alloc>
100008f4:	4605      	mov	r5, r0
100008f6:	2800      	cmp	r0, #0
100008f8:	f43f af47 	beq.w	1000078a <udp_recv_proc+0x46>
100008fc:	490c      	ldr	r1, [pc, #48]	@ (10000930 <udp_recv_proc+0x1ec>)
100008fe:	6808      	ldr	r0, [r1, #0]
10000900:	f8c9 0000 	str.w	r0, [r9]
10000904:	888b      	ldrh	r3, [r1, #4]
10000906:	f8a9 3004 	strh.w	r3, [r9, #4]
1000090a:	f44f 7201 	mov.w	r2, #516	@ 0x204
1000090e:	391c      	subs	r1, #28
10000910:	6868      	ldr	r0, [r5, #4]
10000912:	f00c f9c9 	bl	1000cca8 <memcpy>
10000916:	463b      	mov	r3, r7
10000918:	4a08      	ldr	r2, [pc, #32]	@ (1000093c <udp_recv_proc+0x1f8>)
1000091a:	4629      	mov	r1, r5
1000091c:	4630      	mov	r0, r6
1000091e:	f004 fdd7 	bl	100054d0 <udp_sendto>
10000922:	4628      	mov	r0, r5
10000924:	f000 feb3 	bl	1000168e <pbuf_free>
10000928:	e72f      	b.n	1000078a <udp_recv_proc+0x46>
1000092a:	bf00      	nop
1000092c:	20001334 	.word	0x20001334
10000930:	20001350 	.word	0x20001350
10000934:	20000dd0 	.word	0x20000dd0
10000938:	20001304 	.word	0x20001304
1000093c:	1000d918 	.word	0x1000d918
10000940:	20001424 	.word	0x20001424
10000944:	1000d81c 	.word	0x1000d81c

10000948 <dhserv_free>:
10000948:	b508      	push	{r3, lr}
1000094a:	4b04      	ldr	r3, [pc, #16]	@ (1000095c <dhserv_free+0x14>)
1000094c:	6818      	ldr	r0, [r3, #0]
1000094e:	b120      	cbz	r0, 1000095a <dhserv_free+0x12>
10000950:	f004 fdf2 	bl	10005538 <udp_remove>
10000954:	4b01      	ldr	r3, [pc, #4]	@ (1000095c <dhserv_free+0x14>)
10000956:	2200      	movs	r2, #0
10000958:	601a      	str	r2, [r3, #0]
1000095a:	bd08      	pop	{r3, pc}
1000095c:	200057f0 	.word	0x200057f0

10000960 <dhserv_init>:
10000960:	b538      	push	{r3, r4, r5, lr}
10000962:	4604      	mov	r4, r0
10000964:	f004 fbc0 	bl	100050e8 <udp_init>
10000968:	f7ff ffee 	bl	10000948 <dhserv_free>
1000096c:	f004 fe02 	bl	10005574 <udp_new>
10000970:	4b0c      	ldr	r3, [pc, #48]	@ (100009a4 <dhserv_init+0x44>)
10000972:	6018      	str	r0, [r3, #0]
10000974:	b190      	cbz	r0, 1000099c <dhserv_init+0x3c>
10000976:	88a2      	ldrh	r2, [r4, #4]
10000978:	490b      	ldr	r1, [pc, #44]	@ (100009a8 <dhserv_init+0x48>)
1000097a:	f004 fca1 	bl	100052c0 <udp_bind>
1000097e:	4605      	mov	r5, r0
10000980:	b948      	cbnz	r0, 10000996 <dhserv_init+0x36>
10000982:	2200      	movs	r2, #0
10000984:	4909      	ldr	r1, [pc, #36]	@ (100009ac <dhserv_init+0x4c>)
10000986:	4b07      	ldr	r3, [pc, #28]	@ (100009a4 <dhserv_init+0x44>)
10000988:	6818      	ldr	r0, [r3, #0]
1000098a:	f004 fdd1 	bl	10005530 <udp_recv>
1000098e:	4b08      	ldr	r3, [pc, #32]	@ (100009b0 <dhserv_init+0x50>)
10000990:	601c      	str	r4, [r3, #0]
10000992:	4628      	mov	r0, r5
10000994:	bd38      	pop	{r3, r4, r5, pc}
10000996:	f7ff ffd7 	bl	10000948 <dhserv_free>
1000099a:	e7fa      	b.n	10000992 <dhserv_init+0x32>
1000099c:	f04f 35ff 	mov.w	r5, #4294967295
100009a0:	e7f7      	b.n	10000992 <dhserv_init+0x32>
100009a2:	bf00      	nop
100009a4:	200057f0 	.word	0x200057f0
100009a8:	1000d91c 	.word	0x1000d91c
100009ac:	10000745 	.word	0x10000745
100009b0:	20001304 	.word	0x20001304

100009b4 <get_uint16>:
100009b4:	8800      	ldrh	r0, [r0, #0]
100009b6:	4770      	bx	lr

100009b8 <parse_next_query>:
100009b8:	e92d 4ff8 	stmdb	sp!, {r3, r4, r5, r6, r7, r8, r9, sl, fp, lr}
100009bc:	4682      	mov	sl, r0
100009be:	4691      	mov	r9, r2
100009c0:	4680      	mov	r8, r0
100009c2:	2700      	movs	r7, #0
100009c4:	463e      	mov	r6, r7
100009c6:	e00f      	b.n	100009e8 <parse_next_query+0x30>
100009c8:	4630      	mov	r0, r6
100009ca:	455c      	cmp	r4, fp
100009cc:	dc3a      	bgt.n	10000a44 <parse_next_query+0x8c>
100009ce:	1826      	adds	r6, r4, r0
100009d0:	2e7f      	cmp	r6, #127	@ 0x7f
100009d2:	dc3a      	bgt.n	10000a4a <parse_next_query+0x92>
100009d4:	4622      	mov	r2, r4
100009d6:	4629      	mov	r1, r5
100009d8:	4448      	add	r0, r9
100009da:	f00c f965 	bl	1000cca8 <memcpy>
100009de:	eb05 0804 	add.w	r8, r5, r4
100009e2:	ebab 0104 	sub.w	r1, fp, r4
100009e6:	3701      	adds	r7, #1
100009e8:	2900      	cmp	r1, #0
100009ea:	dd24      	ble.n	10000a36 <parse_next_query+0x7e>
100009ec:	4645      	mov	r5, r8
100009ee:	f815 4b01 	ldrb.w	r4, [r5], #1
100009f2:	f101 3bff 	add.w	fp, r1, #4294967295
100009f6:	b144      	cbz	r4, 10000a0a <parse_next_query+0x52>
100009f8:	2f00      	cmp	r7, #0
100009fa:	dde5      	ble.n	100009c8 <parse_next_query+0x10>
100009fc:	2e80      	cmp	r6, #128	@ 0x80
100009fe:	d01e      	beq.n	10000a3e <parse_next_query+0x86>
10000a00:	1c70      	adds	r0, r6, #1
10000a02:	232e      	movs	r3, #46	@ 0x2e
10000a04:	f809 3006 	strb.w	r3, [r9, r6]
10000a08:	e7df      	b.n	100009ca <parse_next_query+0x12>
10000a0a:	f1bb 0f03 	cmp.w	fp, #3
10000a0e:	dd1f      	ble.n	10000a50 <parse_next_query+0x98>
10000a10:	2300      	movs	r3, #0
10000a12:	f809 3006 	strb.w	r3, [r9, r6]
10000a16:	4628      	mov	r0, r5
10000a18:	f7ff ffcc 	bl	100009b4 <get_uint16>
10000a1c:	f8a9 0080 	strh.w	r0, [r9, #128]	@ 0x80
10000a20:	f108 0003 	add.w	r0, r8, #3
10000a24:	f7ff ffc6 	bl	100009b4 <get_uint16>
10000a28:	f8a9 0082 	strh.w	r0, [r9, #130]	@ 0x82
10000a2c:	f108 0005 	add.w	r0, r8, #5
10000a30:	eba0 000a 	sub.w	r0, r0, sl
10000a34:	e001      	b.n	10000a3a <parse_next_query+0x82>
10000a36:	f04f 30ff 	mov.w	r0, #4294967295
10000a3a:	e8bd 8ff8 	ldmia.w	sp!, {r3, r4, r5, r6, r7, r8, r9, sl, fp, pc}
10000a3e:	f06f 0001 	mvn.w	r0, #1
10000a42:	e7fa      	b.n	10000a3a <parse_next_query+0x82>
10000a44:	f04f 30ff 	mov.w	r0, #4294967295
10000a48:	e7f7      	b.n	10000a3a <parse_next_query+0x82>
10000a4a:	f06f 0001 	mvn.w	r0, #1
10000a4e:	e7f4      	b.n	10000a3a <parse_next_query+0x82>
10000a50:	f04f 30ff 	mov.w	r0, #4294967295
10000a54:	e7f1      	b.n	10000a3a <parse_next_query+0x82>
	...

10000a58 <udp_recv_proc>:
10000a58:	e92d 47f0 	stmdb	sp!, {r4, r5, r6, r7, r8, r9, sl, lr}
10000a5c:	b082      	sub	sp, #8
10000a5e:	4614      	mov	r4, r2
10000a60:	f8b2 c00a 	ldrh.w	ip, [r2, #10]
10000a64:	f1bc 0f0c 	cmp.w	ip, #12
10000a68:	d90b      	bls.n	10000a82 <udp_recv_proc+0x2a>
10000a6a:	460e      	mov	r6, r1
10000a6c:	461d      	mov	r5, r3
10000a6e:	6857      	ldr	r7, [r2, #4]
10000a70:	f997 3002 	ldrsb.w	r3, [r7, #2]
10000a74:	2b00      	cmp	r3, #0
10000a76:	db04      	blt.n	10000a82 <udp_recv_proc+0x2a>
10000a78:	88b8      	ldrh	r0, [r7, #4]
10000a7a:	f000 f89d 	bl	10000bb8 <lwip_htons>
10000a7e:	2801      	cmp	r0, #1
10000a80:	d005      	beq.n	10000a8e <udp_recv_proc+0x36>
10000a82:	4620      	mov	r0, r4
10000a84:	f000 fe03 	bl	1000168e <pbuf_free>
10000a88:	b002      	add	sp, #8
10000a8a:	e8bd 87f0 	ldmia.w	sp!, {r4, r5, r6, r7, r8, r9, sl, pc}
10000a8e:	8961      	ldrh	r1, [r4, #10]
10000a90:	4a2c      	ldr	r2, [pc, #176]	@ (10000b44 <udp_recv_proc+0xec>)
10000a92:	390c      	subs	r1, #12
10000a94:	f107 000c 	add.w	r0, r7, #12
10000a98:	f7ff ff8e 	bl	100009b8 <parse_next_query>
10000a9c:	1e07      	subs	r7, r0, #0
10000a9e:	dbf0      	blt.n	10000a82 <udp_recv_proc+0x2a>
10000aa0:	4b29      	ldr	r3, [pc, #164]	@ (10000b48 <udp_recv_proc+0xf0>)
10000aa2:	681b      	ldr	r3, [r3, #0]
10000aa4:	a901      	add	r1, sp, #4
10000aa6:	4827      	ldr	r0, [pc, #156]	@ (10000b44 <udp_recv_proc+0xec>)
10000aa8:	4798      	blx	r3
10000aaa:	2800      	cmp	r0, #0
10000aac:	d0e9      	beq.n	10000a82 <udp_recv_proc+0x2a>
10000aae:	f107 090c 	add.w	r9, r7, #12
10000ab2:	f107 011c 	add.w	r1, r7, #28
10000ab6:	f44f 72c1 	mov.w	r2, #386	@ 0x182
10000aba:	b289      	uxth	r1, r1
10000abc:	2036      	movs	r0, #54	@ 0x36
10000abe:	f000 fe1a 	bl	100016f6 <pbuf_alloc>
10000ac2:	4607      	mov	r7, r0
10000ac4:	2800      	cmp	r0, #0
10000ac6:	d0dc      	beq.n	10000a82 <udp_recv_proc+0x2a>
10000ac8:	464a      	mov	r2, r9
10000aca:	6861      	ldr	r1, [r4, #4]
10000acc:	6840      	ldr	r0, [r0, #4]
10000ace:	f00c f8eb 	bl	1000cca8 <memcpy>
10000ad2:	f8d7 8004 	ldr.w	r8, [r7, #4]
10000ad6:	f898 3002 	ldrb.w	r3, [r8, #2]
10000ada:	f043 0380 	orr.w	r3, r3, #128	@ 0x80
10000ade:	f888 3002 	strb.w	r3, [r8, #2]
10000ae2:	2001      	movs	r0, #1
10000ae4:	f000 f868 	bl	10000bb8 <lwip_htons>
10000ae8:	f8a8 0006 	strh.w	r0, [r8, #6]
10000aec:	f8d7 a004 	ldr.w	sl, [r7, #4]
10000af0:	eb0a 0809 	add.w	r8, sl, r9
10000af4:	f24c 000c 	movw	r0, #49164	@ 0xc00c
10000af8:	f000 f85e 	bl	10000bb8 <lwip_htons>
10000afc:	f82a 0009 	strh.w	r0, [sl, r9]
10000b00:	2001      	movs	r0, #1
10000b02:	f000 f859 	bl	10000bb8 <lwip_htons>
10000b06:	f8a8 0002 	strh.w	r0, [r8, #2]
10000b0a:	2001      	movs	r0, #1
10000b0c:	f000 f854 	bl	10000bb8 <lwip_htons>
10000b10:	f8a8 0004 	strh.w	r0, [r8, #4]
10000b14:	2020      	movs	r0, #32
10000b16:	f000 f854 	bl	10000bc2 <lwip_htonl>
10000b1a:	f8c8 0006 	str.w	r0, [r8, #6]
10000b1e:	2004      	movs	r0, #4
10000b20:	f000 f84a 	bl	10000bb8 <lwip_htons>
10000b24:	f8a8 000a 	strh.w	r0, [r8, #10]
10000b28:	9b01      	ldr	r3, [sp, #4]
10000b2a:	f8c8 300c 	str.w	r3, [r8, #12]
10000b2e:	f8bd 3028 	ldrh.w	r3, [sp, #40]	@ 0x28
10000b32:	462a      	mov	r2, r5
10000b34:	4639      	mov	r1, r7
10000b36:	4630      	mov	r0, r6
10000b38:	f004 fcca 	bl	100054d0 <udp_sendto>
10000b3c:	4638      	mov	r0, r7
10000b3e:	f000 fda6 	bl	1000168e <pbuf_free>
10000b42:	e79e      	b.n	10000a82 <udp_recv_proc+0x2a>
10000b44:	20005818 	.word	0x20005818
10000b48:	2000589c 	.word	0x2000589c

10000b4c <dnserv_free>:
10000b4c:	b508      	push	{r3, lr}
10000b4e:	4b04      	ldr	r3, [pc, #16]	@ (10000b60 <dnserv_free+0x14>)
10000b50:	6818      	ldr	r0, [r3, #0]
10000b52:	b120      	cbz	r0, 10000b5e <dnserv_free+0x12>
10000b54:	f004 fcf0 	bl	10005538 <udp_remove>
10000b58:	4b01      	ldr	r3, [pc, #4]	@ (10000b60 <dnserv_free+0x14>)
10000b5a:	2200      	movs	r2, #0
10000b5c:	601a      	str	r2, [r3, #0]
10000b5e:	bd08      	pop	{r3, pc}
10000b60:	200057f4 	.word	0x200057f4

10000b64 <dnserv_init>:
10000b64:	b570      	push	{r4, r5, r6, lr}
10000b66:	4604      	mov	r4, r0
10000b68:	460d      	mov	r5, r1
10000b6a:	4616      	mov	r6, r2
10000b6c:	f004 fabc 	bl	100050e8 <udp_init>
10000b70:	f7ff ffec 	bl	10000b4c <dnserv_free>
10000b74:	f004 fcfe 	bl	10005574 <udp_new>
10000b78:	4b0c      	ldr	r3, [pc, #48]	@ (10000bac <dnserv_init+0x48>)
10000b7a:	6018      	str	r0, [r3, #0]
10000b7c:	b190      	cbz	r0, 10000ba4 <dnserv_init+0x40>
10000b7e:	462a      	mov	r2, r5
10000b80:	4621      	mov	r1, r4
10000b82:	f004 fb9d 	bl	100052c0 <udp_bind>
10000b86:	4604      	mov	r4, r0
10000b88:	b948      	cbnz	r0, 10000b9e <dnserv_init+0x3a>
10000b8a:	2200      	movs	r2, #0
10000b8c:	4908      	ldr	r1, [pc, #32]	@ (10000bb0 <dnserv_init+0x4c>)
10000b8e:	4b07      	ldr	r3, [pc, #28]	@ (10000bac <dnserv_init+0x48>)
10000b90:	6818      	ldr	r0, [r3, #0]
10000b92:	f004 fccd 	bl	10005530 <udp_recv>
10000b96:	4b07      	ldr	r3, [pc, #28]	@ (10000bb4 <dnserv_init+0x50>)
10000b98:	601e      	str	r6, [r3, #0]
10000b9a:	4620      	mov	r0, r4
10000b9c:	bd70      	pop	{r4, r5, r6, pc}
10000b9e:	f7ff ffd5 	bl	10000b4c <dnserv_free>
10000ba2:	e7fa      	b.n	10000b9a <dnserv_init+0x36>
10000ba4:	f04f 34ff 	mov.w	r4, #4294967295
10000ba8:	e7f7      	b.n	10000b9a <dnserv_init+0x36>
10000baa:	bf00      	nop
10000bac:	200057f4 	.word	0x200057f4
10000bb0:	10000a59 	.word	0x10000a59
10000bb4:	2000589c 	.word	0x2000589c

10000bb8 <lwip_htons>:
10000bb8:	0203      	lsls	r3, r0, #8
10000bba:	ea43 2010 	orr.w	r0, r3, r0, lsr #8
10000bbe:	b280      	uxth	r0, r0
10000bc0:	4770      	bx	lr

10000bc2 <lwip_htonl>:
10000bc2:	0203      	lsls	r3, r0, #8
10000bc4:	f403 037f 	and.w	r3, r3, #16711680	@ 0xff0000
10000bc8:	ea43 6300 	orr.w	r3, r3, r0, lsl #24
10000bcc:	0a02      	lsrs	r2, r0, #8
10000bce:	f402 427f 	and.w	r2, r2, #65280	@ 0xff00
10000bd2:	4313      	orrs	r3, r2
10000bd4:	ea43 6010 	orr.w	r0, r3, r0, lsr #24
10000bd8:	4770      	bx	lr

10000bda <lwip_strnstr>:
10000bda:	e92d 43f8 	stmdb	sp!, {r3, r4, r5, r6, r7, r8, r9, lr}
10000bde:	4607      	mov	r7, r0
10000be0:	460e      	mov	r6, r1
10000be2:	4691      	mov	r9, r2
10000be4:	4608      	mov	r0, r1
10000be6:	f00c f8d5 	bl	1000cd94 <strlen>
10000bea:	b1c0      	cbz	r0, 10000c1e <lwip_strnstr+0x44>
10000bec:	4680      	mov	r8, r0
10000bee:	463c      	mov	r4, r7
10000bf0:	e000      	b.n	10000bf4 <lwip_strnstr+0x1a>
10000bf2:	3401      	adds	r4, #1
10000bf4:	7825      	ldrb	r5, [r4, #0]
10000bf6:	b1b5      	cbz	r5, 10000c26 <lwip_strnstr+0x4c>
10000bf8:	eb04 0308 	add.w	r3, r4, r8
10000bfc:	eb07 0209 	add.w	r2, r7, r9
10000c00:	4293      	cmp	r3, r2
10000c02:	d80a      	bhi.n	10000c1a <lwip_strnstr+0x40>
10000c04:	7833      	ldrb	r3, [r6, #0]
10000c06:	42ab      	cmp	r3, r5
10000c08:	d1f3      	bne.n	10000bf2 <lwip_strnstr+0x18>
10000c0a:	4642      	mov	r2, r8
10000c0c:	4631      	mov	r1, r6
10000c0e:	4620      	mov	r0, r4
10000c10:	f00b ff2c 	bl	1000ca6c <strncmp>
10000c14:	2800      	cmp	r0, #0
10000c16:	d1ec      	bne.n	10000bf2 <lwip_strnstr+0x18>
10000c18:	e002      	b.n	10000c20 <lwip_strnstr+0x46>
10000c1a:	2400      	movs	r4, #0
10000c1c:	e000      	b.n	10000c20 <lwip_strnstr+0x46>
10000c1e:	463c      	mov	r4, r7
10000c20:	4620      	mov	r0, r4
10000c22:	e8bd 83f8 	ldmia.w	sp!, {r3, r4, r5, r6, r7, r8, r9, pc}
10000c26:	2400      	movs	r4, #0
10000c28:	e7fa      	b.n	10000c20 <lwip_strnstr+0x46>

10000c2a <lwip_standard_chksum>:
10000c2a:	b410      	push	{r4}
10000c2c:	f04f 0c00 	mov.w	ip, #0
10000c30:	f010 0401 	ands.w	r4, r0, #1
10000c34:	d006      	beq.n	10000c44 <lwip_standard_chksum+0x1a>
10000c36:	4561      	cmp	r1, ip
10000c38:	dd04      	ble.n	10000c44 <lwip_standard_chksum+0x1a>
10000c3a:	f810 3b01 	ldrb.w	r3, [r0], #1
10000c3e:	f363 2c1f 	bfi	ip, r3, #8, #24
10000c42:	3901      	subs	r1, #1
10000c44:	2300      	movs	r3, #0
10000c46:	e003      	b.n	10000c50 <lwip_standard_chksum+0x26>
10000c48:	f830 2b02 	ldrh.w	r2, [r0], #2
10000c4c:	4413      	add	r3, r2
10000c4e:	3902      	subs	r1, #2
10000c50:	2901      	cmp	r1, #1
10000c52:	dcf9      	bgt.n	10000c48 <lwip_standard_chksum+0x1e>
10000c54:	2900      	cmp	r1, #0
10000c56:	dd04      	ble.n	10000c62 <lwip_standard_chksum+0x38>
10000c58:	7802      	ldrb	r2, [r0, #0]
10000c5a:	f362 0c07 	bfi	ip, r2, #0, #8
10000c5e:	fa1f fc8c 	uxth.w	ip, ip
10000c62:	449c      	add	ip, r3
10000c64:	fa1f f38c 	uxth.w	r3, ip
10000c68:	eb03 431c 	add.w	r3, r3, ip, lsr #16
10000c6c:	b298      	uxth	r0, r3
10000c6e:	eb00 4013 	add.w	r0, r0, r3, lsr #16
10000c72:	b124      	cbz	r4, 10000c7e <lwip_standard_chksum+0x54>
10000c74:	0203      	lsls	r3, r0, #8
10000c76:	b29b      	uxth	r3, r3
10000c78:	f3c0 2007 	ubfx	r0, r0, #8, #8
10000c7c:	4318      	orrs	r0, r3
10000c7e:	b280      	uxth	r0, r0
10000c80:	f85d 4b04 	ldr.w	r4, [sp], #4
10000c84:	4770      	bx	lr

10000c86 <inet_cksum_pseudo_base>:
10000c86:	e92d 43f8 	stmdb	sp!, {r3, r4, r5, r6, r7, r8, r9, lr}
10000c8a:	4605      	mov	r5, r0
10000c8c:	4689      	mov	r9, r1
10000c8e:	4690      	mov	r8, r2
10000c90:	461c      	mov	r4, r3
10000c92:	2700      	movs	r7, #0
10000c94:	e000      	b.n	10000c98 <inet_cksum_pseudo_base+0x12>
10000c96:	682d      	ldr	r5, [r5, #0]
10000c98:	b19d      	cbz	r5, 10000cc2 <inet_cksum_pseudo_base+0x3c>
10000c9a:	896e      	ldrh	r6, [r5, #10]
10000c9c:	4631      	mov	r1, r6
10000c9e:	6868      	ldr	r0, [r5, #4]
10000ca0:	f7ff ffc3 	bl	10000c2a <lwip_standard_chksum>
10000ca4:	4420      	add	r0, r4
10000ca6:	b284      	uxth	r4, r0
10000ca8:	eb04 4410 	add.w	r4, r4, r0, lsr #16
10000cac:	f016 0f01 	tst.w	r6, #1
10000cb0:	d0f1      	beq.n	10000c96 <inet_cksum_pseudo_base+0x10>
10000cb2:	f087 0701 	eor.w	r7, r7, #1
10000cb6:	0223      	lsls	r3, r4, #8
10000cb8:	b29b      	uxth	r3, r3
10000cba:	f3c4 2407 	ubfx	r4, r4, #8, #8
10000cbe:	431c      	orrs	r4, r3
10000cc0:	e7e9      	b.n	10000c96 <inet_cksum_pseudo_base+0x10>
10000cc2:	b127      	cbz	r7, 10000cce <inet_cksum_pseudo_base+0x48>
10000cc4:	0223      	lsls	r3, r4, #8
10000cc6:	b29b      	uxth	r3, r3
10000cc8:	f3c4 2407 	ubfx	r4, r4, #8, #8
10000ccc:	431c      	orrs	r4, r3
10000cce:	4648      	mov	r0, r9
10000cd0:	f7ff ff72 	bl	10000bb8 <lwip_htons>
10000cd4:	4404      	add	r4, r0
10000cd6:	4640      	mov	r0, r8
10000cd8:	f7ff ff6e 	bl	10000bb8 <lwip_htons>
10000cdc:	4420      	add	r0, r4
10000cde:	b283      	uxth	r3, r0
10000ce0:	eb03 4310 	add.w	r3, r3, r0, lsr #16
10000ce4:	b298      	uxth	r0, r3
10000ce6:	eb00 4013 	add.w	r0, r0, r3, lsr #16
10000cea:	43c0      	mvns	r0, r0
10000cec:	b280      	uxth	r0, r0
10000cee:	e8bd 83f8 	ldmia.w	sp!, {r3, r4, r5, r6, r7, r8, r9, pc}

10000cf2 <inet_chksum_pseudo>:
10000cf2:	b508      	push	{r3, lr}
10000cf4:	681b      	ldr	r3, [r3, #0]
10000cf6:	ea4f 4c13 	mov.w	ip, r3, lsr #16
10000cfa:	fa1c fc83 	uxtah	ip, ip, r3
10000cfe:	9b02      	ldr	r3, [sp, #8]
10000d00:	681b      	ldr	r3, [r3, #0]
10000d02:	fa1c fc83 	uxtah	ip, ip, r3
10000d06:	eb0c 4c13 	add.w	ip, ip, r3, lsr #16
10000d0a:	fa1f f38c 	uxth.w	r3, ip
10000d0e:	eb03 431c 	add.w	r3, r3, ip, lsr #16
10000d12:	fa1f fc83 	uxth.w	ip, r3
10000d16:	eb0c 4313 	add.w	r3, ip, r3, lsr #16
10000d1a:	f7ff ffb4 	bl	10000c86 <inet_cksum_pseudo_base>
10000d1e:	bd08      	pop	{r3, pc}

10000d20 <ip_chksum_pseudo>:
10000d20:	b510      	push	{r4, lr}
10000d22:	b082      	sub	sp, #8
10000d24:	9c04      	ldr	r4, [sp, #16]
10000d26:	9400      	str	r4, [sp, #0]
10000d28:	f7ff ffe3 	bl	10000cf2 <inet_chksum_pseudo>
10000d2c:	b002      	add	sp, #8
10000d2e:	bd10      	pop	{r4, pc}

10000d30 <inet_chksum>:
10000d30:	b508      	push	{r3, lr}
10000d32:	f7ff ff7a 	bl	10000c2a <lwip_standard_chksum>
10000d36:	43c0      	mvns	r0, r0
10000d38:	b280      	uxth	r0, r0
10000d3a:	bd08      	pop	{r3, pc}

10000d3c <inet_chksum_pbuf>:
10000d3c:	b5f8      	push	{r3, r4, r5, r6, r7, lr}
10000d3e:	4605      	mov	r5, r0
10000d40:	2700      	movs	r7, #0
10000d42:	463c      	mov	r4, r7
10000d44:	e000      	b.n	10000d48 <inet_chksum_pbuf+0xc>
10000d46:	682d      	ldr	r5, [r5, #0]
10000d48:	b19d      	cbz	r5, 10000d72 <inet_chksum_pbuf+0x36>
10000d4a:	896e      	ldrh	r6, [r5, #10]
10000d4c:	4631      	mov	r1, r6
10000d4e:	6868      	ldr	r0, [r5, #4]
10000d50:	f7ff ff6b 	bl	10000c2a <lwip_standard_chksum>
10000d54:	1903      	adds	r3, r0, r4
10000d56:	b29c      	uxth	r4, r3
10000d58:	eb04 4413 	add.w	r4, r4, r3, lsr #16
10000d5c:	f016 0f01 	tst.w	r6, #1
10000d60:	d0f1      	beq.n	10000d46 <inet_chksum_pbuf+0xa>
10000d62:	f087 0701 	eor.w	r7, r7, #1
10000d66:	0223      	lsls	r3, r4, #8
10000d68:	b29b      	uxth	r3, r3
10000d6a:	f3c4 2407 	ubfx	r4, r4, #8, #8
10000d6e:	431c      	orrs	r4, r3
10000d70:	e7e9      	b.n	10000d46 <inet_chksum_pbuf+0xa>
10000d72:	b127      	cbz	r7, 10000d7e <inet_chksum_pbuf+0x42>
10000d74:	0223      	lsls	r3, r4, #8
10000d76:	b29b      	uxth	r3, r3
10000d78:	f3c4 2407 	ubfx	r4, r4, #8, #8
10000d7c:	431c      	orrs	r4, r3
10000d7e:	43e0      	mvns	r0, r4
10000d80:	b280      	uxth	r0, r0
10000d82:	bdf8      	pop	{r3, r4, r5, r6, r7, pc}

10000d84 <lwip_init>:
10000d84:	b508      	push	{r3, lr}
10000d86:	f000 fea6 	bl	10001ad6 <stats_init>
10000d8a:	f000 f887 	bl	10000e9c <mem_init>
10000d8e:	f000 fa9b 	bl	100012c8 <memp_init>
10000d92:	f000 fb1f 	bl	100013d4 <netif_init>
10000d96:	f004 f9a7 	bl	100050e8 <udp_init>
10000d9a:	f000 ff37 	bl	10001c0c <tcp_init>
10000d9e:	f004 f909 	bl	10004fb4 <sys_timeouts_init>
10000da2:	bd08      	pop	{r3, pc}

10000da4 <ptr_to_mem>:
10000da4:	4b01      	ldr	r3, [pc, #4]	@ (10000dac <ptr_to_mem+0x8>)
10000da6:	681b      	ldr	r3, [r3, #0]
10000da8:	4418      	add	r0, r3
10000daa:	4770      	bx	lr
10000dac:	200058a0 	.word	0x200058a0

10000db0 <mem_to_ptr>:
10000db0:	4b02      	ldr	r3, [pc, #8]	@ (10000dbc <mem_to_ptr+0xc>)
10000db2:	681b      	ldr	r3, [r3, #0]
10000db4:	1ac0      	subs	r0, r0, r3
10000db6:	b280      	uxth	r0, r0
10000db8:	4770      	bx	lr
10000dba:	bf00      	nop
10000dbc:	200058a0 	.word	0x200058a0

10000dc0 <plug_holes>:
10000dc0:	b538      	push	{r3, r4, r5, lr}
10000dc2:	4604      	mov	r4, r0
10000dc4:	8800      	ldrh	r0, [r0, #0]
10000dc6:	f7ff ffed 	bl	10000da4 <ptr_to_mem>
10000dca:	4284      	cmp	r4, r0
10000dcc:	d015      	beq.n	10000dfa <plug_holes+0x3a>
10000dce:	7903      	ldrb	r3, [r0, #4]
10000dd0:	b99b      	cbnz	r3, 10000dfa <plug_holes+0x3a>
10000dd2:	4b19      	ldr	r3, [pc, #100]	@ (10000e38 <plug_holes+0x78>)
10000dd4:	681b      	ldr	r3, [r3, #0]
10000dd6:	4283      	cmp	r3, r0
10000dd8:	d00f      	beq.n	10000dfa <plug_holes+0x3a>
10000dda:	4b18      	ldr	r3, [pc, #96]	@ (10000e3c <plug_holes+0x7c>)
10000ddc:	681b      	ldr	r3, [r3, #0]
10000dde:	4283      	cmp	r3, r0
10000de0:	d024      	beq.n	10000e2c <plug_holes+0x6c>
10000de2:	8800      	ldrh	r0, [r0, #0]
10000de4:	8020      	strh	r0, [r4, #0]
10000de6:	f5b0 6fc8 	cmp.w	r0, #1600	@ 0x640
10000dea:	d006      	beq.n	10000dfa <plug_holes+0x3a>
10000dec:	f7ff ffda 	bl	10000da4 <ptr_to_mem>
10000df0:	4605      	mov	r5, r0
10000df2:	4620      	mov	r0, r4
10000df4:	f7ff ffdc 	bl	10000db0 <mem_to_ptr>
10000df8:	8068      	strh	r0, [r5, #2]
10000dfa:	8860      	ldrh	r0, [r4, #2]
10000dfc:	f7ff ffd2 	bl	10000da4 <ptr_to_mem>
10000e00:	4605      	mov	r5, r0
10000e02:	4284      	cmp	r4, r0
10000e04:	d011      	beq.n	10000e2a <plug_holes+0x6a>
10000e06:	7903      	ldrb	r3, [r0, #4]
10000e08:	b97b      	cbnz	r3, 10000e2a <plug_holes+0x6a>
10000e0a:	4b0c      	ldr	r3, [pc, #48]	@ (10000e3c <plug_holes+0x7c>)
10000e0c:	681b      	ldr	r3, [r3, #0]
10000e0e:	42a3      	cmp	r3, r4
10000e10:	d00f      	beq.n	10000e32 <plug_holes+0x72>
10000e12:	8820      	ldrh	r0, [r4, #0]
10000e14:	8028      	strh	r0, [r5, #0]
10000e16:	f5b0 6fc8 	cmp.w	r0, #1600	@ 0x640
10000e1a:	d006      	beq.n	10000e2a <plug_holes+0x6a>
10000e1c:	f7ff ffc2 	bl	10000da4 <ptr_to_mem>
10000e20:	4604      	mov	r4, r0
10000e22:	4628      	mov	r0, r5
10000e24:	f7ff ffc4 	bl	10000db0 <mem_to_ptr>
10000e28:	8060      	strh	r0, [r4, #2]
10000e2a:	bd38      	pop	{r3, r4, r5, pc}
10000e2c:	4b03      	ldr	r3, [pc, #12]	@ (10000e3c <plug_holes+0x7c>)
10000e2e:	601c      	str	r4, [r3, #0]
10000e30:	e7d7      	b.n	10000de2 <plug_holes+0x22>
10000e32:	4b02      	ldr	r3, [pc, #8]	@ (10000e3c <plug_holes+0x7c>)
10000e34:	6018      	str	r0, [r3, #0]
10000e36:	e7ec      	b.n	10000e12 <plug_holes+0x52>
10000e38:	200058a4 	.word	0x200058a4
10000e3c:	20001dac 	.word	0x20001dac

10000e40 <mem_link_valid>:
10000e40:	b5f8      	push	{r3, r4, r5, r6, r7, lr}
10000e42:	4604      	mov	r4, r0
10000e44:	f7ff ffb4 	bl	10000db0 <mem_to_ptr>
10000e48:	4607      	mov	r7, r0
10000e4a:	8825      	ldrh	r5, [r4, #0]
10000e4c:	4628      	mov	r0, r5
10000e4e:	f7ff ffa9 	bl	10000da4 <ptr_to_mem>
10000e52:	4606      	mov	r6, r0
10000e54:	8864      	ldrh	r4, [r4, #2]
10000e56:	4620      	mov	r0, r4
10000e58:	f7ff ffa4 	bl	10000da4 <ptr_to_mem>
10000e5c:	f5b5 6fc8 	cmp.w	r5, #1600	@ 0x640
10000e60:	d810      	bhi.n	10000e84 <mem_link_valid+0x44>
10000e62:	f5b4 6fc8 	cmp.w	r4, #1600	@ 0x640
10000e66:	d80f      	bhi.n	10000e88 <mem_link_valid+0x48>
10000e68:	42bc      	cmp	r4, r7
10000e6a:	d002      	beq.n	10000e72 <mem_link_valid+0x32>
10000e6c:	8803      	ldrh	r3, [r0, #0]
10000e6e:	42bb      	cmp	r3, r7
10000e70:	d10c      	bne.n	10000e8c <mem_link_valid+0x4c>
10000e72:	4b09      	ldr	r3, [pc, #36]	@ (10000e98 <mem_link_valid+0x58>)
10000e74:	681b      	ldr	r3, [r3, #0]
10000e76:	42b3      	cmp	r3, r6
10000e78:	d00a      	beq.n	10000e90 <mem_link_valid+0x50>
10000e7a:	8873      	ldrh	r3, [r6, #2]
10000e7c:	42bb      	cmp	r3, r7
10000e7e:	d109      	bne.n	10000e94 <mem_link_valid+0x54>
10000e80:	2001      	movs	r0, #1
10000e82:	e000      	b.n	10000e86 <mem_link_valid+0x46>
10000e84:	2000      	movs	r0, #0
10000e86:	bdf8      	pop	{r3, r4, r5, r6, r7, pc}
10000e88:	2000      	movs	r0, #0
10000e8a:	e7fc      	b.n	10000e86 <mem_link_valid+0x46>
10000e8c:	2000      	movs	r0, #0
10000e8e:	e7fa      	b.n	10000e86 <mem_link_valid+0x46>
10000e90:	2001      	movs	r0, #1
10000e92:	e7f8      	b.n	10000e86 <mem_link_valid+0x46>
10000e94:	2000      	movs	r0, #0
10000e96:	e7f6      	b.n	10000e86 <mem_link_valid+0x46>
10000e98:	200058a4 	.word	0x200058a4

10000e9c <mem_init>:
10000e9c:	b538      	push	{r3, r4, r5, lr}
10000e9e:	4c0d      	ldr	r4, [pc, #52]	@ (10000ed4 <mem_init+0x38>)
10000ea0:	f024 0403 	bic.w	r4, r4, #3
10000ea4:	4b0c      	ldr	r3, [pc, #48]	@ (10000ed8 <mem_init+0x3c>)
10000ea6:	601c      	str	r4, [r3, #0]
10000ea8:	f44f 65c8 	mov.w	r5, #1600	@ 0x640
10000eac:	8025      	strh	r5, [r4, #0]
10000eae:	2300      	movs	r3, #0
10000eb0:	8063      	strh	r3, [r4, #2]
10000eb2:	7123      	strb	r3, [r4, #4]
10000eb4:	4628      	mov	r0, r5
10000eb6:	f7ff ff75 	bl	10000da4 <ptr_to_mem>
10000eba:	4b08      	ldr	r3, [pc, #32]	@ (10000edc <mem_init+0x40>)
10000ebc:	6018      	str	r0, [r3, #0]
10000ebe:	2301      	movs	r3, #1
10000ec0:	7103      	strb	r3, [r0, #4]
10000ec2:	8005      	strh	r5, [r0, #0]
10000ec4:	8045      	strh	r5, [r0, #2]
10000ec6:	4b06      	ldr	r3, [pc, #24]	@ (10000ee0 <mem_init+0x44>)
10000ec8:	601c      	str	r4, [r3, #0]
10000eca:	4b06      	ldr	r3, [pc, #24]	@ (10000ee4 <mem_init+0x48>)
10000ecc:	f8a3 50aa 	strh.w	r5, [r3, #170]	@ 0xaa
10000ed0:	bd38      	pop	{r3, r4, r5, pc}
10000ed2:	bf00      	nop
10000ed4:	200058ab 	.word	0x200058ab
10000ed8:	200058a0 	.word	0x200058a0
10000edc:	200058a4 	.word	0x200058a4
10000ee0:	20001dac 	.word	0x20001dac
10000ee4:	20001db0 	.word	0x20001db0

10000ee8 <mem_free>:
10000ee8:	2800      	cmp	r0, #0
10000eea:	d05d      	beq.n	10000fa8 <mem_free+0xc0>
10000eec:	b570      	push	{r4, r5, r6, lr}
10000eee:	4604      	mov	r4, r0
10000ef0:	f010 0f03 	tst.w	r0, #3
10000ef4:	d12c      	bne.n	10000f50 <mem_free+0x68>
10000ef6:	f1a0 0608 	sub.w	r6, r0, #8
10000efa:	4b2c      	ldr	r3, [pc, #176]	@ (10000fac <mem_free+0xc4>)
10000efc:	681d      	ldr	r5, [r3, #0]
10000efe:	42b5      	cmp	r5, r6
10000f00:	d831      	bhi.n	10000f66 <mem_free+0x7e>
10000f02:	f100 030c 	add.w	r3, r0, #12
10000f06:	4a2a      	ldr	r2, [pc, #168]	@ (10000fb0 <mem_free+0xc8>)
10000f08:	6812      	ldr	r2, [r2, #0]
10000f0a:	4293      	cmp	r3, r2
10000f0c:	d82b      	bhi.n	10000f66 <mem_free+0x7e>
10000f0e:	f810 3c04 	ldrb.w	r3, [r0, #-4]
10000f12:	b39b      	cbz	r3, 10000f7c <mem_free+0x94>
10000f14:	4630      	mov	r0, r6
10000f16:	f7ff ff93 	bl	10000e40 <mem_link_valid>
10000f1a:	2800      	cmp	r0, #0
10000f1c:	d039      	beq.n	10000f92 <mem_free+0xaa>
10000f1e:	2300      	movs	r3, #0
10000f20:	f804 3c04 	strb.w	r3, [r4, #-4]
10000f24:	4b23      	ldr	r3, [pc, #140]	@ (10000fb4 <mem_free+0xcc>)
10000f26:	681b      	ldr	r3, [r3, #0]
10000f28:	42b3      	cmp	r3, r6
10000f2a:	d901      	bls.n	10000f30 <mem_free+0x48>
10000f2c:	4b21      	ldr	r3, [pc, #132]	@ (10000fb4 <mem_free+0xcc>)
10000f2e:	601e      	str	r6, [r3, #0]
10000f30:	4a21      	ldr	r2, [pc, #132]	@ (10000fb8 <mem_free+0xd0>)
10000f32:	f8b2 10ac 	ldrh.w	r1, [r2, #172]	@ 0xac
10000f36:	1b73      	subs	r3, r6, r5
10000f38:	b29b      	uxth	r3, r3
10000f3a:	f834 0c08 	ldrh.w	r0, [r4, #-8]
10000f3e:	1a1b      	subs	r3, r3, r0
10000f40:	fa11 f383 	uxtah	r3, r1, r3
10000f44:	f8a2 30ac 	strh.w	r3, [r2, #172]	@ 0xac
10000f48:	4630      	mov	r0, r6
10000f4a:	f7ff ff39 	bl	10000dc0 <plug_holes>
10000f4e:	e014      	b.n	10000f7a <mem_free+0x92>
10000f50:	f7ff fa7c 	bl	1000044c <sys_arch_protect>
10000f54:	4a18      	ldr	r2, [pc, #96]	@ (10000fb8 <mem_free+0xd0>)
10000f56:	f8b2 30b0 	ldrh.w	r3, [r2, #176]	@ 0xb0
10000f5a:	3301      	adds	r3, #1
10000f5c:	f8a2 30b0 	strh.w	r3, [r2, #176]	@ 0xb0
10000f60:	f7ff fa76 	bl	10000450 <sys_arch_unprotect>
10000f64:	e009      	b.n	10000f7a <mem_free+0x92>
10000f66:	f7ff fa71 	bl	1000044c <sys_arch_protect>
10000f6a:	4a13      	ldr	r2, [pc, #76]	@ (10000fb8 <mem_free+0xd0>)
10000f6c:	f8b2 30b0 	ldrh.w	r3, [r2, #176]	@ 0xb0
10000f70:	3301      	adds	r3, #1
10000f72:	f8a2 30b0 	strh.w	r3, [r2, #176]	@ 0xb0
10000f76:	f7ff fa6b 	bl	10000450 <sys_arch_unprotect>
10000f7a:	bd70      	pop	{r4, r5, r6, pc}
10000f7c:	f7ff fa66 	bl	1000044c <sys_arch_protect>
10000f80:	4a0d      	ldr	r2, [pc, #52]	@ (10000fb8 <mem_free+0xd0>)
10000f82:	f8b2 30b0 	ldrh.w	r3, [r2, #176]	@ 0xb0
10000f86:	3301      	adds	r3, #1
10000f88:	f8a2 30b0 	strh.w	r3, [r2, #176]	@ 0xb0
10000f8c:	f7ff fa60 	bl	10000450 <sys_arch_unprotect>
10000f90:	e7f3      	b.n	10000f7a <mem_free+0x92>
10000f92:	f7ff fa5b 	bl	1000044c <sys_arch_protect>
10000f96:	4a08      	ldr	r2, [pc, #32]	@ (10000fb8 <mem_free+0xd0>)
10000f98:	f8b2 30b0 	ldrh.w	r3, [r2, #176]	@ 0xb0
10000f9c:	3301      	adds	r3, #1
10000f9e:	f8a2 30b0 	strh.w	r3, [r2, #176]	@ 0xb0
10000fa2:	f7ff fa55 	bl	10000450 <sys_arch_unprotect>
10000fa6:	e7e8      	b.n	10000f7a <mem_free+0x92>
10000fa8:	4770      	bx	lr
10000faa:	bf00      	nop
10000fac:	200058a0 	.word	0x200058a0
10000fb0:	200058a4 	.word	0x200058a4
10000fb4:	20001dac 	.word	0x20001dac
10000fb8:	20001db0 	.word	0x20001db0

10000fbc <mem_trim>:
10000fbc:	e92d 43f8 	stmdb	sp!, {r3, r4, r5, r6, r7, r8, r9, lr}
10000fc0:	4605      	mov	r5, r0
10000fc2:	1ccc      	adds	r4, r1, #3
10000fc4:	b2a4      	uxth	r4, r4
10000fc6:	f024 0403 	bic.w	r4, r4, #3
10000fca:	b2a4      	uxth	r4, r4
10000fcc:	2c0b      	cmp	r4, #11
10000fce:	d904      	bls.n	10000fda <mem_trim+0x1e>
10000fd0:	f5b4 6fc8 	cmp.w	r4, #1600	@ 0x640
10000fd4:	d902      	bls.n	10000fdc <mem_trim+0x20>
10000fd6:	2000      	movs	r0, #0
10000fd8:	e053      	b.n	10001082 <mem_trim+0xc6>
10000fda:	240c      	movs	r4, #12
10000fdc:	428c      	cmp	r4, r1
10000fde:	f0c0 8087 	bcc.w	100010f0 <mem_trim+0x134>
10000fe2:	4b47      	ldr	r3, [pc, #284]	@ (10001100 <mem_trim+0x144>)
10000fe4:	681b      	ldr	r3, [r3, #0]
10000fe6:	42ab      	cmp	r3, r5
10000fe8:	d840      	bhi.n	1000106c <mem_trim+0xb0>
10000fea:	4b46      	ldr	r3, [pc, #280]	@ (10001104 <mem_trim+0x148>)
10000fec:	681b      	ldr	r3, [r3, #0]
10000fee:	42ab      	cmp	r3, r5
10000ff0:	d93c      	bls.n	1000106c <mem_trim+0xb0>
10000ff2:	f1a5 0008 	sub.w	r0, r5, #8
10000ff6:	f7ff fedb 	bl	10000db0 <mem_to_ptr>
10000ffa:	4607      	mov	r7, r0
10000ffc:	f835 0c08 	ldrh.w	r0, [r5, #-8]
10001000:	1bc6      	subs	r6, r0, r7
10001002:	b2b6      	uxth	r6, r6
10001004:	3e08      	subs	r6, #8
10001006:	b2b6      	uxth	r6, r6
10001008:	42b4      	cmp	r4, r6
1000100a:	d873      	bhi.n	100010f4 <mem_trim+0x138>
1000100c:	d074      	beq.n	100010f8 <mem_trim+0x13c>
1000100e:	f7ff fec9 	bl	10000da4 <ptr_to_mem>
10001012:	7903      	ldrb	r3, [r0, #4]
10001014:	2b00      	cmp	r3, #0
10001016:	d13c      	bne.n	10001092 <mem_trim+0xd6>
10001018:	f8b0 9000 	ldrh.w	r9, [r0]
1000101c:	eb04 0807 	add.w	r8, r4, r7
10001020:	fa1f f888 	uxth.w	r8, r8
10001024:	f108 0808 	add.w	r8, r8, #8
10001028:	fa1f f888 	uxth.w	r8, r8
1000102c:	4b36      	ldr	r3, [pc, #216]	@ (10001108 <mem_trim+0x14c>)
1000102e:	681b      	ldr	r3, [r3, #0]
10001030:	4283      	cmp	r3, r0
10001032:	d028      	beq.n	10001086 <mem_trim+0xca>
10001034:	4640      	mov	r0, r8
10001036:	f7ff feb5 	bl	10000da4 <ptr_to_mem>
1000103a:	2300      	movs	r3, #0
1000103c:	7103      	strb	r3, [r0, #4]
1000103e:	f8a0 9000 	strh.w	r9, [r0]
10001042:	8047      	strh	r7, [r0, #2]
10001044:	f825 8c08 	strh.w	r8, [r5, #-8]
10001048:	8800      	ldrh	r0, [r0, #0]
1000104a:	f5b0 6fc8 	cmp.w	r0, #1600	@ 0x640
1000104e:	d003      	beq.n	10001058 <mem_trim+0x9c>
10001050:	f7ff fea8 	bl	10000da4 <ptr_to_mem>
10001054:	f8a0 8002 	strh.w	r8, [r0, #2]
10001058:	4b2c      	ldr	r3, [pc, #176]	@ (1000110c <mem_trim+0x150>)
1000105a:	f8b3 20ac 	ldrh.w	r2, [r3, #172]	@ 0xac
1000105e:	1ba6      	subs	r6, r4, r6
10001060:	fa12 f686 	uxtah	r6, r2, r6
10001064:	f8a3 60ac 	strh.w	r6, [r3, #172]	@ 0xac
10001068:	4628      	mov	r0, r5
1000106a:	e00a      	b.n	10001082 <mem_trim+0xc6>
1000106c:	f7ff f9ee 	bl	1000044c <sys_arch_protect>
10001070:	4a26      	ldr	r2, [pc, #152]	@ (1000110c <mem_trim+0x150>)
10001072:	f8b2 30b0 	ldrh.w	r3, [r2, #176]	@ 0xb0
10001076:	3301      	adds	r3, #1
10001078:	f8a2 30b0 	strh.w	r3, [r2, #176]	@ 0xb0
1000107c:	f7ff f9e8 	bl	10000450 <sys_arch_unprotect>
10001080:	4628      	mov	r0, r5
10001082:	e8bd 83f8 	ldmia.w	sp!, {r3, r4, r5, r6, r7, r8, r9, pc}
10001086:	4640      	mov	r0, r8
10001088:	f7ff fe8c 	bl	10000da4 <ptr_to_mem>
1000108c:	4b1e      	ldr	r3, [pc, #120]	@ (10001108 <mem_trim+0x14c>)
1000108e:	6018      	str	r0, [r3, #0]
10001090:	e7d0      	b.n	10001034 <mem_trim+0x78>
10001092:	f104 0314 	add.w	r3, r4, #20
10001096:	42b3      	cmp	r3, r6
10001098:	d830      	bhi.n	100010fc <mem_trim+0x140>
1000109a:	eb04 0807 	add.w	r8, r4, r7
1000109e:	fa1f f888 	uxth.w	r8, r8
100010a2:	f108 0808 	add.w	r8, r8, #8
100010a6:	fa1f f888 	uxth.w	r8, r8
100010aa:	4640      	mov	r0, r8
100010ac:	f7ff fe7a 	bl	10000da4 <ptr_to_mem>
100010b0:	4b15      	ldr	r3, [pc, #84]	@ (10001108 <mem_trim+0x14c>)
100010b2:	681b      	ldr	r3, [r3, #0]
100010b4:	4283      	cmp	r3, r0
100010b6:	d901      	bls.n	100010bc <mem_trim+0x100>
100010b8:	4b13      	ldr	r3, [pc, #76]	@ (10001108 <mem_trim+0x14c>)
100010ba:	6018      	str	r0, [r3, #0]
100010bc:	2300      	movs	r3, #0
100010be:	7103      	strb	r3, [r0, #4]
100010c0:	f835 3c08 	ldrh.w	r3, [r5, #-8]
100010c4:	8003      	strh	r3, [r0, #0]
100010c6:	8047      	strh	r7, [r0, #2]
100010c8:	f825 8c08 	strh.w	r8, [r5, #-8]
100010cc:	8800      	ldrh	r0, [r0, #0]
100010ce:	f5b0 6fc8 	cmp.w	r0, #1600	@ 0x640
100010d2:	d003      	beq.n	100010dc <mem_trim+0x120>
100010d4:	f7ff fe66 	bl	10000da4 <ptr_to_mem>
100010d8:	f8a0 8002 	strh.w	r8, [r0, #2]
100010dc:	4b0b      	ldr	r3, [pc, #44]	@ (1000110c <mem_trim+0x150>)
100010de:	f8b3 20ac 	ldrh.w	r2, [r3, #172]	@ 0xac
100010e2:	1ba4      	subs	r4, r4, r6
100010e4:	fa12 f484 	uxtah	r4, r2, r4
100010e8:	f8a3 40ac 	strh.w	r4, [r3, #172]	@ 0xac
100010ec:	4628      	mov	r0, r5
100010ee:	e7c8      	b.n	10001082 <mem_trim+0xc6>
100010f0:	2000      	movs	r0, #0
100010f2:	e7c6      	b.n	10001082 <mem_trim+0xc6>
100010f4:	2000      	movs	r0, #0
100010f6:	e7c4      	b.n	10001082 <mem_trim+0xc6>
100010f8:	4628      	mov	r0, r5
100010fa:	e7c2      	b.n	10001082 <mem_trim+0xc6>
100010fc:	4628      	mov	r0, r5
100010fe:	e7c0      	b.n	10001082 <mem_trim+0xc6>
10001100:	200058a0 	.word	0x200058a0
10001104:	200058a4 	.word	0x200058a4
10001108:	20001dac 	.word	0x20001dac
1000110c:	20001db0 	.word	0x20001db0

10001110 <mem_malloc>:
10001110:	2800      	cmp	r0, #0
10001112:	f000 8089 	beq.w	10001228 <mem_malloc+0x118>
10001116:	e92d 43f8 	stmdb	sp!, {r3, r4, r5, r6, r7, r8, r9, lr}
1000111a:	4603      	mov	r3, r0
1000111c:	1cc7      	adds	r7, r0, #3
1000111e:	b2bf      	uxth	r7, r7
10001120:	f027 0703 	bic.w	r7, r7, #3
10001124:	b2bf      	uxth	r7, r7
10001126:	2f0b      	cmp	r7, #11
10001128:	d904      	bls.n	10001134 <mem_malloc+0x24>
1000112a:	f5b7 6fc8 	cmp.w	r7, #1600	@ 0x640
1000112e:	d902      	bls.n	10001136 <mem_malloc+0x26>
10001130:	2000      	movs	r0, #0
10001132:	e077      	b.n	10001224 <mem_malloc+0x114>
10001134:	270c      	movs	r7, #12
10001136:	429f      	cmp	r7, r3
10001138:	d378      	bcc.n	1000122c <mem_malloc+0x11c>
1000113a:	4b3d      	ldr	r3, [pc, #244]	@ (10001230 <mem_malloc+0x120>)
1000113c:	f8d3 9000 	ldr.w	r9, [r3]
10001140:	4648      	mov	r0, r9
10001142:	f7ff fe35 	bl	10000db0 <mem_to_ptr>
10001146:	4605      	mov	r5, r0
10001148:	e024      	b.n	10001194 <mem_malloc+0x84>
1000114a:	2201      	movs	r2, #1
1000114c:	7102      	strb	r2, [r0, #4]
1000114e:	4e39      	ldr	r6, [pc, #228]	@ (10001234 <mem_malloc+0x124>)
10001150:	f8b6 20ac 	ldrh.w	r2, [r6, #172]	@ 0xac
10001154:	4413      	add	r3, r2
10001156:	b29d      	uxth	r5, r3
10001158:	f7ff fe2a 	bl	10000db0 <mem_to_ptr>
1000115c:	1a2b      	subs	r3, r5, r0
1000115e:	b29b      	uxth	r3, r3
10001160:	f8a6 30ac 	strh.w	r3, [r6, #172]	@ 0xac
10001164:	f8b6 20ae 	ldrh.w	r2, [r6, #174]	@ 0xae
10001168:	4293      	cmp	r3, r2
1000116a:	d94f      	bls.n	1000120c <mem_malloc+0xfc>
1000116c:	f8a6 30ae 	strh.w	r3, [r6, #174]	@ 0xae
10001170:	e04c      	b.n	1000120c <mem_malloc+0xfc>
10001172:	f8b9 0000 	ldrh.w	r0, [r9]
10001176:	f7ff fe15 	bl	10000da4 <ptr_to_mem>
1000117a:	4681      	mov	r9, r0
1000117c:	f899 3004 	ldrb.w	r3, [r9, #4]
10001180:	b11b      	cbz	r3, 1000118a <mem_malloc+0x7a>
10001182:	4b2d      	ldr	r3, [pc, #180]	@ (10001238 <mem_malloc+0x128>)
10001184:	681b      	ldr	r3, [r3, #0]
10001186:	454b      	cmp	r3, r9
10001188:	d1f3      	bne.n	10001172 <mem_malloc+0x62>
1000118a:	4b29      	ldr	r3, [pc, #164]	@ (10001230 <mem_malloc+0x120>)
1000118c:	f8c3 9000 	str.w	r9, [r3]
10001190:	e03e      	b.n	10001210 <mem_malloc+0x100>
10001192:	8825      	ldrh	r5, [r4, #0]
10001194:	462e      	mov	r6, r5
10001196:	46b8      	mov	r8, r7
10001198:	f5c7 63c8 	rsb	r3, r7, #1600	@ 0x640
1000119c:	429d      	cmp	r5, r3
1000119e:	d23a      	bcs.n	10001216 <mem_malloc+0x106>
100011a0:	4628      	mov	r0, r5
100011a2:	f7ff fdff 	bl	10000da4 <ptr_to_mem>
100011a6:	4604      	mov	r4, r0
100011a8:	7903      	ldrb	r3, [r0, #4]
100011aa:	2b00      	cmp	r3, #0
100011ac:	d1f1      	bne.n	10001192 <mem_malloc+0x82>
100011ae:	8803      	ldrh	r3, [r0, #0]
100011b0:	1b9e      	subs	r6, r3, r6
100011b2:	3e08      	subs	r6, #8
100011b4:	4546      	cmp	r6, r8
100011b6:	d3ec      	bcc.n	10001192 <mem_malloc+0x82>
100011b8:	f108 0814 	add.w	r8, r8, #20
100011bc:	4546      	cmp	r6, r8
100011be:	d3c4      	bcc.n	1000114a <mem_malloc+0x3a>
100011c0:	19ee      	adds	r6, r5, r7
100011c2:	b2b6      	uxth	r6, r6
100011c4:	3608      	adds	r6, #8
100011c6:	b2b6      	uxth	r6, r6
100011c8:	4630      	mov	r0, r6
100011ca:	f7ff fdeb 	bl	10000da4 <ptr_to_mem>
100011ce:	2300      	movs	r3, #0
100011d0:	7103      	strb	r3, [r0, #4]
100011d2:	8823      	ldrh	r3, [r4, #0]
100011d4:	8003      	strh	r3, [r0, #0]
100011d6:	8045      	strh	r5, [r0, #2]
100011d8:	8026      	strh	r6, [r4, #0]
100011da:	2301      	movs	r3, #1
100011dc:	7123      	strb	r3, [r4, #4]
100011de:	8800      	ldrh	r0, [r0, #0]
100011e0:	f5b0 6fc8 	cmp.w	r0, #1600	@ 0x640
100011e4:	d002      	beq.n	100011ec <mem_malloc+0xdc>
100011e6:	f7ff fddd 	bl	10000da4 <ptr_to_mem>
100011ea:	8046      	strh	r6, [r0, #2]
100011ec:	4a11      	ldr	r2, [pc, #68]	@ (10001234 <mem_malloc+0x124>)
100011ee:	f8b2 30ac 	ldrh.w	r3, [r2, #172]	@ 0xac
100011f2:	443b      	add	r3, r7
100011f4:	b29b      	uxth	r3, r3
100011f6:	3308      	adds	r3, #8
100011f8:	b29b      	uxth	r3, r3
100011fa:	f8a2 30ac 	strh.w	r3, [r2, #172]	@ 0xac
100011fe:	f8b2 20ae 	ldrh.w	r2, [r2, #174]	@ 0xae
10001202:	4293      	cmp	r3, r2
10001204:	d902      	bls.n	1000120c <mem_malloc+0xfc>
10001206:	4a0b      	ldr	r2, [pc, #44]	@ (10001234 <mem_malloc+0x124>)
10001208:	f8a2 30ae 	strh.w	r3, [r2, #174]	@ 0xae
1000120c:	45a1      	cmp	r9, r4
1000120e:	d0b5      	beq.n	1000117c <mem_malloc+0x6c>
10001210:	f104 0008 	add.w	r0, r4, #8
10001214:	e006      	b.n	10001224 <mem_malloc+0x114>
10001216:	4a07      	ldr	r2, [pc, #28]	@ (10001234 <mem_malloc+0x124>)
10001218:	f8b2 30a8 	ldrh.w	r3, [r2, #168]	@ 0xa8
1000121c:	3301      	adds	r3, #1
1000121e:	f8a2 30a8 	strh.w	r3, [r2, #168]	@ 0xa8
10001222:	2000      	movs	r0, #0
10001224:	e8bd 83f8 	ldmia.w	sp!, {r3, r4, r5, r6, r7, r8, r9, pc}
10001228:	2000      	movs	r0, #0
1000122a:	4770      	bx	lr
1000122c:	2000      	movs	r0, #0
1000122e:	e7f9      	b.n	10001224 <mem_malloc+0x114>
10001230:	20001dac 	.word	0x20001dac
10001234:	20001db0 	.word	0x20001db0
10001238:	200058a4 	.word	0x200058a4

1000123c <do_memp_malloc_pool>:
1000123c:	b538      	push	{r3, r4, r5, lr}
1000123e:	4604      	mov	r4, r0
10001240:	f7ff f904 	bl	1000044c <sys_arch_protect>
10001244:	68e3      	ldr	r3, [r4, #12]
10001246:	681d      	ldr	r5, [r3, #0]
10001248:	b17d      	cbz	r5, 1000126a <do_memp_malloc_pool+0x2e>
1000124a:	682a      	ldr	r2, [r5, #0]
1000124c:	601a      	str	r2, [r3, #0]
1000124e:	6822      	ldr	r2, [r4, #0]
10001250:	8893      	ldrh	r3, [r2, #4]
10001252:	3301      	adds	r3, #1
10001254:	8093      	strh	r3, [r2, #4]
10001256:	6823      	ldr	r3, [r4, #0]
10001258:	889a      	ldrh	r2, [r3, #4]
1000125a:	88d9      	ldrh	r1, [r3, #6]
1000125c:	428a      	cmp	r2, r1
1000125e:	d900      	bls.n	10001262 <do_memp_malloc_pool+0x26>
10001260:	80da      	strh	r2, [r3, #6]
10001262:	f7ff f8f5 	bl	10000450 <sys_arch_unprotect>
10001266:	4628      	mov	r0, r5
10001268:	bd38      	pop	{r3, r4, r5, pc}
1000126a:	6822      	ldr	r2, [r4, #0]
1000126c:	8813      	ldrh	r3, [r2, #0]
1000126e:	3301      	adds	r3, #1
10001270:	8013      	strh	r3, [r2, #0]
10001272:	f7ff f8ed 	bl	10000450 <sys_arch_unprotect>
10001276:	e7f6      	b.n	10001266 <do_memp_malloc_pool+0x2a>

10001278 <do_memp_free_pool>:
10001278:	b538      	push	{r3, r4, r5, lr}
1000127a:	4604      	mov	r4, r0
1000127c:	460d      	mov	r5, r1
1000127e:	f7ff f8e5 	bl	1000044c <sys_arch_protect>
10001282:	6822      	ldr	r2, [r4, #0]
10001284:	8893      	ldrh	r3, [r2, #4]
10001286:	3b01      	subs	r3, #1
10001288:	8093      	strh	r3, [r2, #4]
1000128a:	68e3      	ldr	r3, [r4, #12]
1000128c:	681b      	ldr	r3, [r3, #0]
1000128e:	602b      	str	r3, [r5, #0]
10001290:	68e3      	ldr	r3, [r4, #12]
10001292:	601d      	str	r5, [r3, #0]
10001294:	f7ff f8dc 	bl	10000450 <sys_arch_unprotect>
10001298:	bd38      	pop	{r3, r4, r5, pc}

1000129a <memp_init_pool>:
1000129a:	68c3      	ldr	r3, [r0, #12]
1000129c:	2200      	movs	r2, #0
1000129e:	601a      	str	r2, [r3, #0]
100012a0:	6883      	ldr	r3, [r0, #8]
100012a2:	3303      	adds	r3, #3
100012a4:	f023 0303 	bic.w	r3, r3, #3
100012a8:	e007      	b.n	100012ba <memp_init_pool+0x20>
100012aa:	68c1      	ldr	r1, [r0, #12]
100012ac:	6809      	ldr	r1, [r1, #0]
100012ae:	6019      	str	r1, [r3, #0]
100012b0:	68c1      	ldr	r1, [r0, #12]
100012b2:	600b      	str	r3, [r1, #0]
100012b4:	8881      	ldrh	r1, [r0, #4]
100012b6:	440b      	add	r3, r1
100012b8:	3201      	adds	r2, #1
100012ba:	88c1      	ldrh	r1, [r0, #6]
100012bc:	4291      	cmp	r1, r2
100012be:	dcf4      	bgt.n	100012aa <memp_init_pool+0x10>
100012c0:	6803      	ldr	r3, [r0, #0]
100012c2:	8059      	strh	r1, [r3, #2]
100012c4:	4770      	bx	lr
	...

100012c8 <memp_init>:
100012c8:	b538      	push	{r3, r4, r5, lr}
100012ca:	2400      	movs	r4, #0
100012cc:	e00e      	b.n	100012ec <memp_init+0x24>
100012ce:	4b09      	ldr	r3, [pc, #36]	@ (100012f4 <memp_init+0x2c>)
100012d0:	f853 5024 	ldr.w	r5, [r3, r4, lsl #2]
100012d4:	4628      	mov	r0, r5
100012d6:	f7ff ffe0 	bl	1000129a <memp_init_pool>
100012da:	682a      	ldr	r2, [r5, #0]
100012dc:	f104 012c 	add.w	r1, r4, #44	@ 0x2c
100012e0:	4b05      	ldr	r3, [pc, #20]	@ (100012f8 <memp_init+0x30>)
100012e2:	eb03 0381 	add.w	r3, r3, r1, lsl #2
100012e6:	605a      	str	r2, [r3, #4]
100012e8:	3401      	adds	r4, #1
100012ea:	b2a4      	uxth	r4, r4
100012ec:	2c08      	cmp	r4, #8
100012ee:	d9ee      	bls.n	100012ce <memp_init+0x6>
100012f0:	bd38      	pop	{r3, r4, r5, pc}
100012f2:	bf00      	nop
100012f4:	1000d824 	.word	0x1000d824
100012f8:	20001db0 	.word	0x20001db0

100012fc <memp_malloc>:
100012fc:	2808      	cmp	r0, #8
100012fe:	d806      	bhi.n	1000130e <memp_malloc+0x12>
10001300:	b508      	push	{r3, lr}
10001302:	4b04      	ldr	r3, [pc, #16]	@ (10001314 <memp_malloc+0x18>)
10001304:	f853 0020 	ldr.w	r0, [r3, r0, lsl #2]
10001308:	f7ff ff98 	bl	1000123c <do_memp_malloc_pool>
1000130c:	bd08      	pop	{r3, pc}
1000130e:	2000      	movs	r0, #0
10001310:	4770      	bx	lr
10001312:	bf00      	nop
10001314:	1000d824 	.word	0x1000d824

10001318 <memp_free>:
10001318:	2808      	cmp	r0, #8
1000131a:	d807      	bhi.n	1000132c <memp_free+0x14>
1000131c:	b131      	cbz	r1, 1000132c <memp_free+0x14>
1000131e:	b508      	push	{r3, lr}
10001320:	4b03      	ldr	r3, [pc, #12]	@ (10001330 <memp_free+0x18>)
10001322:	f853 0020 	ldr.w	r0, [r3, r0, lsl #2]
10001326:	f7ff ffa7 	bl	10001278 <do_memp_free_pool>
1000132a:	bd08      	pop	{r3, pc}
1000132c:	4770      	bx	lr
1000132e:	bf00      	nop
10001330:	1000d824 	.word	0x1000d824

10001334 <netif_do_set_netmask>:
10001334:	680b      	ldr	r3, [r1, #0]
10001336:	6842      	ldr	r2, [r0, #4]
10001338:	4293      	cmp	r3, r2
1000133a:	d002      	beq.n	10001342 <netif_do_set_netmask+0xe>
1000133c:	6043      	str	r3, [r0, #4]
1000133e:	2001      	movs	r0, #1
10001340:	4770      	bx	lr
10001342:	2000      	movs	r0, #0
10001344:	4770      	bx	lr

10001346 <netif_do_set_gw>:
10001346:	680b      	ldr	r3, [r1, #0]
10001348:	6882      	ldr	r2, [r0, #8]
1000134a:	4293      	cmp	r3, r2
1000134c:	d002      	beq.n	10001354 <netif_do_set_gw+0xe>
1000134e:	6083      	str	r3, [r0, #8]
10001350:	2001      	movs	r0, #1
10001352:	4770      	bx	lr
10001354:	2000      	movs	r0, #0
10001356:	4770      	bx	lr

10001358 <netif_null_output_ip4>:
10001358:	f06f 000b 	mvn.w	r0, #11
1000135c:	4770      	bx	lr

1000135e <netif_do_ip_addr_changed>:
1000135e:	b538      	push	{r3, r4, r5, lr}
10001360:	4604      	mov	r4, r0
10001362:	460d      	mov	r5, r1
10001364:	f000 ff52 	bl	1000220c <tcp_netif_ip_addr_changed>
10001368:	4629      	mov	r1, r5
1000136a:	4620      	mov	r0, r4
1000136c:	f004 f910 	bl	10005590 <udp_netif_ip_addr_changed>
10001370:	bd38      	pop	{r3, r4, r5, pc}

10001372 <netif_issue_reports>:
10001372:	b508      	push	{r3, lr}
10001374:	f890 3025 	ldrb.w	r3, [r0, #37]	@ 0x25
10001378:	f003 0205 	and.w	r2, r3, #5
1000137c:	2a05      	cmp	r2, #5
1000137e:	d107      	bne.n	10001390 <netif_issue_reports+0x1e>
10001380:	f011 0f01 	tst.w	r1, #1
10001384:	d004      	beq.n	10001390 <netif_issue_reports+0x1e>
10001386:	6802      	ldr	r2, [r0, #0]
10001388:	b112      	cbz	r2, 10001390 <netif_issue_reports+0x1e>
1000138a:	f013 0f08 	tst.w	r3, #8
1000138e:	d100      	bne.n	10001392 <netif_issue_reports+0x20>
10001390:	bd08      	pop	{r3, pc}
10001392:	4601      	mov	r1, r0
10001394:	f004 fb06 	bl	100059a4 <etharp_request>
10001398:	e7fa      	b.n	10001390 <netif_issue_reports+0x1e>

1000139a <netif_do_set_ipaddr>:
1000139a:	b530      	push	{r4, r5, lr}
1000139c:	b083      	sub	sp, #12
1000139e:	460d      	mov	r5, r1
100013a0:	6809      	ldr	r1, [r1, #0]
100013a2:	6803      	ldr	r3, [r0, #0]
100013a4:	4299      	cmp	r1, r3
100013a6:	d102      	bne.n	100013ae <netif_do_set_ipaddr+0x14>
100013a8:	2000      	movs	r0, #0
100013aa:	b003      	add	sp, #12
100013ac:	bd30      	pop	{r4, r5, pc}
100013ae:	4604      	mov	r4, r0
100013b0:	9101      	str	r1, [sp, #4]
100013b2:	6803      	ldr	r3, [r0, #0]
100013b4:	6013      	str	r3, [r2, #0]
100013b6:	a901      	add	r1, sp, #4
100013b8:	4610      	mov	r0, r2
100013ba:	f7ff ffd0 	bl	1000135e <netif_do_ip_addr_changed>
100013be:	b13d      	cbz	r5, 100013d0 <netif_do_set_ipaddr+0x36>
100013c0:	682b      	ldr	r3, [r5, #0]
100013c2:	6023      	str	r3, [r4, #0]
100013c4:	2101      	movs	r1, #1
100013c6:	4620      	mov	r0, r4
100013c8:	f7ff ffd3 	bl	10001372 <netif_issue_reports>
100013cc:	2001      	movs	r0, #1
100013ce:	e7ec      	b.n	100013aa <netif_do_set_ipaddr+0x10>
100013d0:	2300      	movs	r3, #0
100013d2:	e7f6      	b.n	100013c2 <netif_do_set_ipaddr+0x28>

100013d4 <netif_init>:
100013d4:	4770      	bx	lr
	...

100013d8 <netif_set_addr>:
100013d8:	e92d 41f0 	stmdb	sp!, {r4, r5, r6, r7, r8, lr}
100013dc:	b082      	sub	sp, #8
100013de:	4604      	mov	r4, r0
100013e0:	4616      	mov	r6, r2
100013e2:	461d      	mov	r5, r3
100013e4:	460f      	mov	r7, r1
100013e6:	b1d9      	cbz	r1, 10001420 <netif_set_addr+0x48>
100013e8:	b1e6      	cbz	r6, 10001424 <netif_set_addr+0x4c>
100013ea:	b1ed      	cbz	r5, 10001428 <netif_set_addr+0x50>
100013ec:	b10f      	cbz	r7, 100013f2 <netif_set_addr+0x1a>
100013ee:	683b      	ldr	r3, [r7, #0]
100013f0:	b9e3      	cbnz	r3, 1000142c <netif_set_addr+0x54>
100013f2:	aa01      	add	r2, sp, #4
100013f4:	4639      	mov	r1, r7
100013f6:	4620      	mov	r0, r4
100013f8:	f7ff ffcf 	bl	1000139a <netif_do_set_ipaddr>
100013fc:	f04f 0801 	mov.w	r8, #1
10001400:	2200      	movs	r2, #0
10001402:	4631      	mov	r1, r6
10001404:	4620      	mov	r0, r4
10001406:	f7ff ff95 	bl	10001334 <netif_do_set_netmask>
1000140a:	2200      	movs	r2, #0
1000140c:	4629      	mov	r1, r5
1000140e:	4620      	mov	r0, r4
10001410:	f7ff ff99 	bl	10001346 <netif_do_set_gw>
10001414:	f1b8 0f00 	cmp.w	r8, #0
10001418:	d00b      	beq.n	10001432 <netif_set_addr+0x5a>
1000141a:	b002      	add	sp, #8
1000141c:	e8bd 81f0 	ldmia.w	sp!, {r4, r5, r6, r7, r8, pc}
10001420:	4f07      	ldr	r7, [pc, #28]	@ (10001440 <netif_set_addr+0x68>)
10001422:	e7e1      	b.n	100013e8 <netif_set_addr+0x10>
10001424:	4e06      	ldr	r6, [pc, #24]	@ (10001440 <netif_set_addr+0x68>)
10001426:	e7e0      	b.n	100013ea <netif_set_addr+0x12>
10001428:	4d05      	ldr	r5, [pc, #20]	@ (10001440 <netif_set_addr+0x68>)
1000142a:	e7df      	b.n	100013ec <netif_set_addr+0x14>
1000142c:	f04f 0800 	mov.w	r8, #0
10001430:	e7e6      	b.n	10001400 <netif_set_addr+0x28>
10001432:	aa01      	add	r2, sp, #4
10001434:	4639      	mov	r1, r7
10001436:	4620      	mov	r0, r4
10001438:	f7ff ffaf 	bl	1000139a <netif_do_set_ipaddr>
1000143c:	e7ed      	b.n	1000141a <netif_set_addr+0x42>
1000143e:	bf00      	nop
10001440:	1000d91c 	.word	0x1000d91c

10001444 <netif_add>:
10001444:	b5f8      	push	{r3, r4, r5, r6, r7, lr}
10001446:	4604      	mov	r4, r0
10001448:	9d07      	ldr	r5, [sp, #28]
1000144a:	4815      	ldr	r0, [pc, #84]	@ (100014a0 <netif_add+0x5c>)
1000144c:	6806      	ldr	r6, [r0, #0]
1000144e:	bb16      	cbnz	r6, 10001496 <netif_add+0x52>
10001450:	b31c      	cbz	r4, 1000149a <netif_add+0x56>
10001452:	b1c5      	cbz	r5, 10001486 <netif_add+0x42>
10001454:	b1c9      	cbz	r1, 1000148a <netif_add+0x46>
10001456:	b1d2      	cbz	r2, 1000148e <netif_add+0x4a>
10001458:	b1db      	cbz	r3, 10001492 <netif_add+0x4e>
1000145a:	2000      	movs	r0, #0
1000145c:	6020      	str	r0, [r4, #0]
1000145e:	6060      	str	r0, [r4, #4]
10001460:	60a0      	str	r0, [r4, #8]
10001462:	4f10      	ldr	r7, [pc, #64]	@ (100014a4 <netif_add+0x60>)
10001464:	6127      	str	r7, [r4, #16]
10001466:	83a0      	strh	r0, [r4, #28]
10001468:	f884 0025 	strb.w	r0, [r4, #37]	@ 0x25
1000146c:	9f06      	ldr	r7, [sp, #24]
1000146e:	61a7      	str	r7, [r4, #24]
10001470:	f884 0028 	strb.w	r0, [r4, #40]	@ 0x28
10001474:	9808      	ldr	r0, [sp, #32]
10001476:	60e0      	str	r0, [r4, #12]
10001478:	4620      	mov	r0, r4
1000147a:	f7ff ffad 	bl	100013d8 <netif_set_addr>
1000147e:	4620      	mov	r0, r4
10001480:	47a8      	blx	r5
10001482:	b900      	cbnz	r0, 10001486 <netif_add+0x42>
10001484:	4626      	mov	r6, r4
10001486:	4630      	mov	r0, r6
10001488:	bdf8      	pop	{r3, r4, r5, r6, r7, pc}
1000148a:	4907      	ldr	r1, [pc, #28]	@ (100014a8 <netif_add+0x64>)
1000148c:	e7e3      	b.n	10001456 <netif_add+0x12>
1000148e:	4a06      	ldr	r2, [pc, #24]	@ (100014a8 <netif_add+0x64>)
10001490:	e7e2      	b.n	10001458 <netif_add+0x14>
10001492:	4b05      	ldr	r3, [pc, #20]	@ (100014a8 <netif_add+0x64>)
10001494:	e7e1      	b.n	1000145a <netif_add+0x16>
10001496:	2600      	movs	r6, #0
10001498:	e7f5      	b.n	10001486 <netif_add+0x42>
1000149a:	4626      	mov	r6, r4
1000149c:	e7f3      	b.n	10001486 <netif_add+0x42>
1000149e:	bf00      	nop
100014a0:	200057cc 	.word	0x200057cc
100014a4:	10001359 	.word	0x10001359
100014a8:	1000d91c 	.word	0x1000d91c

100014ac <netif_set_default>:
100014ac:	4b01      	ldr	r3, [pc, #4]	@ (100014b4 <netif_set_default+0x8>)
100014ae:	6018      	str	r0, [r3, #0]
100014b0:	4770      	bx	lr
100014b2:	bf00      	nop
100014b4:	200057cc 	.word	0x200057cc

100014b8 <netif_get_by_index>:
100014b8:	4602      	mov	r2, r0
100014ba:	b150      	cbz	r0, 100014d2 <netif_get_by_index+0x1a>
100014bc:	4b06      	ldr	r3, [pc, #24]	@ (100014d8 <netif_get_by_index+0x20>)
100014be:	6818      	ldr	r0, [r3, #0]
100014c0:	b140      	cbz	r0, 100014d4 <netif_get_by_index+0x1c>
100014c2:	f890 3028 	ldrb.w	r3, [r0, #40]	@ 0x28
100014c6:	3301      	adds	r3, #1
100014c8:	b2db      	uxtb	r3, r3
100014ca:	4293      	cmp	r3, r2
100014cc:	d002      	beq.n	100014d4 <netif_get_by_index+0x1c>
100014ce:	2000      	movs	r0, #0
100014d0:	4770      	bx	lr
100014d2:	2000      	movs	r0, #0
100014d4:	4770      	bx	lr
100014d6:	bf00      	nop
100014d8:	200057cc 	.word	0x200057cc

100014dc <pbuf_init_alloced_pbuf>:
100014dc:	b410      	push	{r4}
100014de:	2400      	movs	r4, #0
100014e0:	6004      	str	r4, [r0, #0]
100014e2:	6041      	str	r1, [r0, #4]
100014e4:	8102      	strh	r2, [r0, #8]
100014e6:	8143      	strh	r3, [r0, #10]
100014e8:	f89d 3004 	ldrb.w	r3, [sp, #4]
100014ec:	7303      	strb	r3, [r0, #12]
100014ee:	f89d 3008 	ldrb.w	r3, [sp, #8]
100014f2:	7343      	strb	r3, [r0, #13]
100014f4:	2301      	movs	r3, #1
100014f6:	7383      	strb	r3, [r0, #14]
100014f8:	73c4      	strb	r4, [r0, #15]
100014fa:	f85d 4b04 	ldr.w	r4, [sp], #4
100014fe:	4770      	bx	lr

10001500 <pbuf_add_header_impl>:
10001500:	b320      	cbz	r0, 1000154c <pbuf_add_header_impl+0x4c>
10001502:	4603      	mov	r3, r0
10001504:	f5b1 3f80 	cmp.w	r1, #65536	@ 0x10000
10001508:	d222      	bcs.n	10001550 <pbuf_add_header_impl+0x50>
1000150a:	b319      	cbz	r1, 10001554 <pbuf_add_header_impl+0x54>
1000150c:	fa1f fc81 	uxth.w	ip, r1
10001510:	8900      	ldrh	r0, [r0, #8]
10001512:	4460      	add	r0, ip
10001514:	b280      	uxth	r0, r0
10001516:	4560      	cmp	r0, ip
10001518:	d31e      	bcc.n	10001558 <pbuf_add_header_impl+0x58>
1000151a:	b500      	push	{lr}
1000151c:	f993 e00c 	ldrsb.w	lr, [r3, #12]
10001520:	f1be 0f00 	cmp.w	lr, #0
10001524:	db0a      	blt.n	1000153c <pbuf_add_header_impl+0x3c>
10001526:	b1ca      	cbz	r2, 1000155c <pbuf_add_header_impl+0x5c>
10001528:	685a      	ldr	r2, [r3, #4]
1000152a:	1a51      	subs	r1, r2, r1
1000152c:	6059      	str	r1, [r3, #4]
1000152e:	895a      	ldrh	r2, [r3, #10]
10001530:	4462      	add	r2, ip
10001532:	815a      	strh	r2, [r3, #10]
10001534:	8118      	strh	r0, [r3, #8]
10001536:	2000      	movs	r0, #0
10001538:	f85d fb04 	ldr.w	pc, [sp], #4
1000153c:	685a      	ldr	r2, [r3, #4]
1000153e:	1a51      	subs	r1, r2, r1
10001540:	f103 0210 	add.w	r2, r3, #16
10001544:	428a      	cmp	r2, r1
10001546:	d9f1      	bls.n	1000152c <pbuf_add_header_impl+0x2c>
10001548:	2001      	movs	r0, #1
1000154a:	e7f5      	b.n	10001538 <pbuf_add_header_impl+0x38>
1000154c:	2001      	movs	r0, #1
1000154e:	4770      	bx	lr
10001550:	2001      	movs	r0, #1
10001552:	4770      	bx	lr
10001554:	2000      	movs	r0, #0
10001556:	4770      	bx	lr
10001558:	2001      	movs	r0, #1
1000155a:	4770      	bx	lr
1000155c:	2001      	movs	r0, #1
1000155e:	e7eb      	b.n	10001538 <pbuf_add_header_impl+0x38>

10001560 <pbuf_skip_const>:
10001560:	e002      	b.n	10001568 <pbuf_skip_const+0x8>
10001562:	1ac9      	subs	r1, r1, r3
10001564:	b289      	uxth	r1, r1
10001566:	6800      	ldr	r0, [r0, #0]
10001568:	b110      	cbz	r0, 10001570 <pbuf_skip_const+0x10>
1000156a:	8943      	ldrh	r3, [r0, #10]
1000156c:	428b      	cmp	r3, r1
1000156e:	d9f8      	bls.n	10001562 <pbuf_skip_const+0x2>
10001570:	b102      	cbz	r2, 10001574 <pbuf_skip_const+0x14>
10001572:	8011      	strh	r1, [r2, #0]
10001574:	4770      	bx	lr
	...

10001578 <pbuf_pool_is_empty>:
10001578:	b508      	push	{r3, lr}
1000157a:	f7fe ff67 	bl	1000044c <sys_arch_protect>
1000157e:	4b03      	ldr	r3, [pc, #12]	@ (1000158c <pbuf_pool_is_empty+0x14>)
10001580:	2201      	movs	r2, #1
10001582:	701a      	strb	r2, [r3, #0]
10001584:	f7fe ff64 	bl	10000450 <sys_arch_unprotect>
10001588:	bd08      	pop	{r3, pc}
1000158a:	bf00      	nop
1000158c:	20005f60 	.word	0x20005f60

10001590 <pbuf_free_ooseq>:
10001590:	b508      	push	{r3, lr}
10001592:	f7fe ff5b 	bl	1000044c <sys_arch_protect>
10001596:	4b08      	ldr	r3, [pc, #32]	@ (100015b8 <pbuf_free_ooseq+0x28>)
10001598:	2200      	movs	r2, #0
1000159a:	701a      	strb	r2, [r3, #0]
1000159c:	f7fe ff58 	bl	10000450 <sys_arch_unprotect>
100015a0:	4b06      	ldr	r3, [pc, #24]	@ (100015bc <pbuf_free_ooseq+0x2c>)
100015a2:	6818      	ldr	r0, [r3, #0]
100015a4:	e000      	b.n	100015a8 <pbuf_free_ooseq+0x18>
100015a6:	68c0      	ldr	r0, [r0, #12]
100015a8:	b120      	cbz	r0, 100015b4 <pbuf_free_ooseq+0x24>
100015aa:	6f43      	ldr	r3, [r0, #116]	@ 0x74
100015ac:	2b00      	cmp	r3, #0
100015ae:	d0fa      	beq.n	100015a6 <pbuf_free_ooseq+0x16>
100015b0:	f000 fd06 	bl	10001fc0 <tcp_free_ooseq>
100015b4:	bd08      	pop	{r3, pc}
100015b6:	bf00      	nop
100015b8:	20005f60 	.word	0x20005f60
100015bc:	20005f18 	.word	0x20005f18

100015c0 <pbuf_alloc_reference>:
100015c0:	b5f0      	push	{r4, r5, r6, r7, lr}
100015c2:	b083      	sub	sp, #12
100015c4:	4605      	mov	r5, r0
100015c6:	460c      	mov	r4, r1
100015c8:	4616      	mov	r6, r2
100015ca:	2007      	movs	r0, #7
100015cc:	f7ff fe96 	bl	100012fc <memp_malloc>
100015d0:	4607      	mov	r7, r0
100015d2:	b138      	cbz	r0, 100015e4 <pbuf_alloc_reference+0x24>
100015d4:	2300      	movs	r3, #0
100015d6:	9301      	str	r3, [sp, #4]
100015d8:	9600      	str	r6, [sp, #0]
100015da:	4623      	mov	r3, r4
100015dc:	4622      	mov	r2, r4
100015de:	4629      	mov	r1, r5
100015e0:	f7ff ff7c 	bl	100014dc <pbuf_init_alloced_pbuf>
100015e4:	4638      	mov	r0, r7
100015e6:	b003      	add	sp, #12
100015e8:	bdf0      	pop	{r4, r5, r6, r7, pc}

100015ea <pbuf_alloced_custom>:
100015ea:	b510      	push	{r4, lr}
100015ec:	b082      	sub	sp, #8
100015ee:	4684      	mov	ip, r0
100015f0:	468e      	mov	lr, r1
100015f2:	4618      	mov	r0, r3
100015f4:	9904      	ldr	r1, [sp, #16]
100015f6:	f10c 0c03 	add.w	ip, ip, #3
100015fa:	f02c 0c03 	bic.w	ip, ip, #3
100015fe:	eb0e 040c 	add.w	r4, lr, ip
10001602:	f8bd 3014 	ldrh.w	r3, [sp, #20]
10001606:	429c      	cmp	r4, r3
10001608:	d80c      	bhi.n	10001624 <pbuf_alloced_custom+0x3a>
1000160a:	b101      	cbz	r1, 1000160e <pbuf_alloced_custom+0x24>
1000160c:	4461      	add	r1, ip
1000160e:	4604      	mov	r4, r0
10001610:	2302      	movs	r3, #2
10001612:	9301      	str	r3, [sp, #4]
10001614:	9200      	str	r2, [sp, #0]
10001616:	4673      	mov	r3, lr
10001618:	4672      	mov	r2, lr
1000161a:	f7ff ff5f 	bl	100014dc <pbuf_init_alloced_pbuf>
1000161e:	4620      	mov	r0, r4
10001620:	b002      	add	sp, #8
10001622:	bd10      	pop	{r4, pc}
10001624:	2400      	movs	r4, #0
10001626:	e7fa      	b.n	1000161e <pbuf_alloced_custom+0x34>

10001628 <pbuf_add_header>:
10001628:	b508      	push	{r3, lr}
1000162a:	2200      	movs	r2, #0
1000162c:	f7ff ff68 	bl	10001500 <pbuf_add_header_impl>
10001630:	bd08      	pop	{r3, pc}

10001632 <pbuf_remove_header>:
10001632:	b1a8      	cbz	r0, 10001660 <pbuf_remove_header+0x2e>
10001634:	4603      	mov	r3, r0
10001636:	f5b1 3f80 	cmp.w	r1, #65536	@ 0x10000
1000163a:	d213      	bcs.n	10001664 <pbuf_remove_header+0x32>
1000163c:	b1a1      	cbz	r1, 10001668 <pbuf_remove_header+0x36>
1000163e:	b288      	uxth	r0, r1
10001640:	895a      	ldrh	r2, [r3, #10]
10001642:	4282      	cmp	r2, r0
10001644:	d312      	bcc.n	1000166c <pbuf_remove_header+0x3a>
10001646:	b410      	push	{r4}
10001648:	685c      	ldr	r4, [r3, #4]
1000164a:	4421      	add	r1, r4
1000164c:	6059      	str	r1, [r3, #4]
1000164e:	1a12      	subs	r2, r2, r0
10001650:	815a      	strh	r2, [r3, #10]
10001652:	891a      	ldrh	r2, [r3, #8]
10001654:	1a12      	subs	r2, r2, r0
10001656:	811a      	strh	r2, [r3, #8]
10001658:	2000      	movs	r0, #0
1000165a:	f85d 4b04 	ldr.w	r4, [sp], #4
1000165e:	4770      	bx	lr
10001660:	2001      	movs	r0, #1
10001662:	4770      	bx	lr
10001664:	2001      	movs	r0, #1
10001666:	4770      	bx	lr
10001668:	2000      	movs	r0, #0
1000166a:	4770      	bx	lr
1000166c:	2001      	movs	r0, #1
1000166e:	4770      	bx	lr

10001670 <pbuf_header_impl>:
10001670:	b508      	push	{r3, lr}
10001672:	2900      	cmp	r1, #0
10001674:	db02      	blt.n	1000167c <pbuf_header_impl+0xc>
10001676:	f7ff ff43 	bl	10001500 <pbuf_add_header_impl>
1000167a:	bd08      	pop	{r3, pc}
1000167c:	4249      	negs	r1, r1
1000167e:	f7ff ffd8 	bl	10001632 <pbuf_remove_header>
10001682:	e7fa      	b.n	1000167a <pbuf_header_impl+0xa>

10001684 <pbuf_header_force>:
10001684:	b508      	push	{r3, lr}
10001686:	2201      	movs	r2, #1
10001688:	f7ff fff2 	bl	10001670 <pbuf_header_impl>
1000168c:	bd08      	pop	{r3, pc}

1000168e <pbuf_free>:
1000168e:	b570      	push	{r4, r5, r6, lr}
10001690:	b370      	cbz	r0, 100016f0 <pbuf_free+0x62>
10001692:	4604      	mov	r4, r0
10001694:	2600      	movs	r6, #0
10001696:	e007      	b.n	100016a8 <pbuf_free+0x1a>
10001698:	2b02      	cmp	r3, #2
1000169a:	d01b      	beq.n	100016d4 <pbuf_free+0x46>
1000169c:	2b01      	cmp	r3, #1
1000169e:	d01e      	beq.n	100016de <pbuf_free+0x50>
100016a0:	b313      	cbz	r3, 100016e8 <pbuf_free+0x5a>
100016a2:	3601      	adds	r6, #1
100016a4:	b2f6      	uxtb	r6, r6
100016a6:	462c      	mov	r4, r5
100016a8:	b31c      	cbz	r4, 100016f2 <pbuf_free+0x64>
100016aa:	f7fe fecf 	bl	1000044c <sys_arch_protect>
100016ae:	7ba5      	ldrb	r5, [r4, #14]
100016b0:	3d01      	subs	r5, #1
100016b2:	b2ed      	uxtb	r5, r5
100016b4:	73a5      	strb	r5, [r4, #14]
100016b6:	f7fe fecb 	bl	10000450 <sys_arch_unprotect>
100016ba:	b9d5      	cbnz	r5, 100016f2 <pbuf_free+0x64>
100016bc:	6825      	ldr	r5, [r4, #0]
100016be:	7b23      	ldrb	r3, [r4, #12]
100016c0:	f003 030f 	and.w	r3, r3, #15
100016c4:	7b62      	ldrb	r2, [r4, #13]
100016c6:	f012 0f02 	tst.w	r2, #2
100016ca:	d0e5      	beq.n	10001698 <pbuf_free+0xa>
100016cc:	6923      	ldr	r3, [r4, #16]
100016ce:	4620      	mov	r0, r4
100016d0:	4798      	blx	r3
100016d2:	e7e6      	b.n	100016a2 <pbuf_free+0x14>
100016d4:	4621      	mov	r1, r4
100016d6:	2008      	movs	r0, #8
100016d8:	f7ff fe1e 	bl	10001318 <memp_free>
100016dc:	e7e1      	b.n	100016a2 <pbuf_free+0x14>
100016de:	4621      	mov	r1, r4
100016e0:	2007      	movs	r0, #7
100016e2:	f7ff fe19 	bl	10001318 <memp_free>
100016e6:	e7dc      	b.n	100016a2 <pbuf_free+0x14>
100016e8:	4620      	mov	r0, r4
100016ea:	f7ff fbfd 	bl	10000ee8 <mem_free>
100016ee:	e7d8      	b.n	100016a2 <pbuf_free+0x14>
100016f0:	2600      	movs	r6, #0
100016f2:	4630      	mov	r0, r6
100016f4:	bd70      	pop	{r4, r5, r6, pc}

100016f6 <pbuf_alloc>:
100016f6:	e92d 47f0 	stmdb	sp!, {r4, r5, r6, r7, r8, r9, sl, lr}
100016fa:	b082      	sub	sp, #8
100016fc:	460e      	mov	r6, r1
100016fe:	4690      	mov	r8, r2
10001700:	f5b2 7fc1 	cmp.w	r2, #386	@ 0x182
10001704:	d03d      	beq.n	10001782 <pbuf_alloc+0x8c>
10001706:	4604      	mov	r4, r0
10001708:	d806      	bhi.n	10001718 <pbuf_alloc+0x22>
1000170a:	2a01      	cmp	r2, #1
1000170c:	d02f      	beq.n	1000176e <pbuf_alloc+0x78>
1000170e:	2a41      	cmp	r2, #65	@ 0x41
10001710:	d02d      	beq.n	1000176e <pbuf_alloc+0x78>
10001712:	f04f 0900 	mov.w	r9, #0
10001716:	e030      	b.n	1000177a <pbuf_alloc+0x84>
10001718:	f5b2 7f20 	cmp.w	r2, #640	@ 0x280
1000171c:	d124      	bne.n	10001768 <pbuf_alloc+0x72>
1000171e:	1cc1      	adds	r1, r0, #3
10001720:	f401 71fe 	and.w	r1, r1, #508	@ 0x1fc
10001724:	1cf2      	adds	r2, r6, #3
10001726:	b293      	uxth	r3, r2
10001728:	f023 0303 	bic.w	r3, r3, #3
1000172c:	440b      	add	r3, r1
1000172e:	b29b      	uxth	r3, r3
10001730:	f103 0010 	add.w	r0, r3, #16
10001734:	b280      	uxth	r0, r0
10001736:	f022 0203 	bic.w	r2, r2, #3
1000173a:	4293      	cmp	r3, r2
1000173c:	d35b      	bcc.n	100017f6 <pbuf_alloc+0x100>
1000173e:	4282      	cmp	r2, r0
10001740:	d85c      	bhi.n	100017fc <pbuf_alloc+0x106>
10001742:	f7ff fce5 	bl	10001110 <mem_malloc>
10001746:	4681      	mov	r9, r0
10001748:	b1b8      	cbz	r0, 1000177a <pbuf_alloc+0x84>
1000174a:	f104 0110 	add.w	r1, r4, #16
1000174e:	4401      	add	r1, r0
10001750:	3103      	adds	r1, #3
10001752:	2300      	movs	r3, #0
10001754:	9301      	str	r3, [sp, #4]
10001756:	f8cd 8000 	str.w	r8, [sp]
1000175a:	4633      	mov	r3, r6
1000175c:	4632      	mov	r2, r6
1000175e:	f021 0103 	bic.w	r1, r1, #3
10001762:	f7ff febb 	bl	100014dc <pbuf_init_alloced_pbuf>
10001766:	e008      	b.n	1000177a <pbuf_alloc+0x84>
10001768:	f04f 0900 	mov.w	r9, #0
1000176c:	e005      	b.n	1000177a <pbuf_alloc+0x84>
1000176e:	4642      	mov	r2, r8
10001770:	4631      	mov	r1, r6
10001772:	2000      	movs	r0, #0
10001774:	f7ff ff24 	bl	100015c0 <pbuf_alloc_reference>
10001778:	4681      	mov	r9, r0
1000177a:	4648      	mov	r0, r9
1000177c:	b002      	add	sp, #8
1000177e:	e8bd 87f0 	ldmia.w	sp!, {r4, r5, r6, r7, r8, r9, sl, pc}
10001782:	4605      	mov	r5, r0
10001784:	2700      	movs	r7, #0
10001786:	46b9      	mov	r9, r7
10001788:	e010      	b.n	100017ac <pbuf_alloc+0xb6>
1000178a:	f7ff fef5 	bl	10001578 <pbuf_pool_is_empty>
1000178e:	f1b9 0f00 	cmp.w	r9, #0
10001792:	d002      	beq.n	1000179a <pbuf_alloc+0xa4>
10001794:	4648      	mov	r0, r9
10001796:	f7ff ff7a 	bl	1000168e <pbuf_free>
1000179a:	46b9      	mov	r9, r7
1000179c:	e7ed      	b.n	1000177a <pbuf_alloc+0x84>
1000179e:	f8ca 7000 	str.w	r7, [sl]
100017a2:	1b34      	subs	r4, r6, r4
100017a4:	b2a6      	uxth	r6, r4
100017a6:	2500      	movs	r5, #0
100017a8:	2e00      	cmp	r6, #0
100017aa:	d0e6      	beq.n	1000177a <pbuf_alloc+0x84>
100017ac:	46ba      	mov	sl, r7
100017ae:	2008      	movs	r0, #8
100017b0:	f7ff fda4 	bl	100012fc <memp_malloc>
100017b4:	4607      	mov	r7, r0
100017b6:	2800      	cmp	r0, #0
100017b8:	d0e7      	beq.n	1000178a <pbuf_alloc+0x94>
100017ba:	1ceb      	adds	r3, r5, #3
100017bc:	f023 0303 	bic.w	r3, r3, #3
100017c0:	b29b      	uxth	r3, r3
100017c2:	f5c3 63bd 	rsb	r3, r3, #1512	@ 0x5e8
100017c6:	3304      	adds	r3, #4
100017c8:	b29c      	uxth	r4, r3
100017ca:	42b4      	cmp	r4, r6
100017cc:	bf28      	it	cs
100017ce:	4634      	movcs	r4, r6
100017d0:	f105 0110 	add.w	r1, r5, #16
100017d4:	4401      	add	r1, r0
100017d6:	3103      	adds	r1, #3
100017d8:	2300      	movs	r3, #0
100017da:	9301      	str	r3, [sp, #4]
100017dc:	f8cd 8000 	str.w	r8, [sp]
100017e0:	4623      	mov	r3, r4
100017e2:	4632      	mov	r2, r6
100017e4:	f021 0103 	bic.w	r1, r1, #3
100017e8:	f7ff fe78 	bl	100014dc <pbuf_init_alloced_pbuf>
100017ec:	f1b9 0f00 	cmp.w	r9, #0
100017f0:	d1d5      	bne.n	1000179e <pbuf_alloc+0xa8>
100017f2:	46b9      	mov	r9, r7
100017f4:	e7d5      	b.n	100017a2 <pbuf_alloc+0xac>
100017f6:	f04f 0900 	mov.w	r9, #0
100017fa:	e7be      	b.n	1000177a <pbuf_alloc+0x84>
100017fc:	f04f 0900 	mov.w	r9, #0
10001800:	e7bb      	b.n	1000177a <pbuf_alloc+0x84>

10001802 <pbuf_realloc>:
10001802:	b538      	push	{r3, r4, r5, lr}
10001804:	4604      	mov	r4, r0
10001806:	8900      	ldrh	r0, [r0, #8]
10001808:	4288      	cmp	r0, r1
1000180a:	d91d      	bls.n	10001848 <pbuf_realloc+0x46>
1000180c:	460d      	mov	r5, r1
1000180e:	e006      	b.n	1000181e <pbuf_realloc+0x1c>
10001810:	1aeb      	subs	r3, r5, r3
10001812:	b29d      	uxth	r5, r3
10001814:	8923      	ldrh	r3, [r4, #8]
10001816:	1a0a      	subs	r2, r1, r0
10001818:	4413      	add	r3, r2
1000181a:	8123      	strh	r3, [r4, #8]
1000181c:	6824      	ldr	r4, [r4, #0]
1000181e:	8963      	ldrh	r3, [r4, #10]
10001820:	42ab      	cmp	r3, r5
10001822:	d3f5      	bcc.n	10001810 <pbuf_realloc+0xe>
10001824:	7b22      	ldrb	r2, [r4, #12]
10001826:	f012 0f0f 	tst.w	r2, #15
1000182a:	d105      	bne.n	10001838 <pbuf_realloc+0x36>
1000182c:	42ab      	cmp	r3, r5
1000182e:	d003      	beq.n	10001838 <pbuf_realloc+0x36>
10001830:	7b63      	ldrb	r3, [r4, #13]
10001832:	f013 0f02 	tst.w	r3, #2
10001836:	d008      	beq.n	1000184a <pbuf_realloc+0x48>
10001838:	8165      	strh	r5, [r4, #10]
1000183a:	8125      	strh	r5, [r4, #8]
1000183c:	6820      	ldr	r0, [r4, #0]
1000183e:	b108      	cbz	r0, 10001844 <pbuf_realloc+0x42>
10001840:	f7ff ff25 	bl	1000168e <pbuf_free>
10001844:	2300      	movs	r3, #0
10001846:	6023      	str	r3, [r4, #0]
10001848:	bd38      	pop	{r3, r4, r5, pc}
1000184a:	6863      	ldr	r3, [r4, #4]
1000184c:	1b1b      	subs	r3, r3, r4
1000184e:	18e9      	adds	r1, r5, r3
10001850:	b289      	uxth	r1, r1
10001852:	4620      	mov	r0, r4
10001854:	f7ff fbb2 	bl	10000fbc <mem_trim>
10001858:	e7ee      	b.n	10001838 <pbuf_realloc+0x36>

1000185a <pbuf_clen>:
1000185a:	4603      	mov	r3, r0
1000185c:	2000      	movs	r0, #0
1000185e:	e002      	b.n	10001866 <pbuf_clen+0xc>
10001860:	3001      	adds	r0, #1
10001862:	b280      	uxth	r0, r0
10001864:	681b      	ldr	r3, [r3, #0]
10001866:	2b00      	cmp	r3, #0
10001868:	d1fa      	bne.n	10001860 <pbuf_clen+0x6>
1000186a:	4770      	bx	lr

1000186c <pbuf_ref>:
1000186c:	b148      	cbz	r0, 10001882 <pbuf_ref+0x16>
1000186e:	b510      	push	{r4, lr}
10001870:	4604      	mov	r4, r0
10001872:	f7fe fdeb 	bl	1000044c <sys_arch_protect>
10001876:	7ba3      	ldrb	r3, [r4, #14]
10001878:	3301      	adds	r3, #1
1000187a:	73a3      	strb	r3, [r4, #14]
1000187c:	f7fe fde8 	bl	10000450 <sys_arch_unprotect>
10001880:	bd10      	pop	{r4, pc}
10001882:	4770      	bx	lr

10001884 <pbuf_cat>:
10001884:	4603      	mov	r3, r0
10001886:	b178      	cbz	r0, 100018a8 <pbuf_cat+0x24>
10001888:	b931      	cbnz	r1, 10001898 <pbuf_cat+0x14>
1000188a:	4770      	bx	lr
1000188c:	891a      	ldrh	r2, [r3, #8]
1000188e:	f8b1 c008 	ldrh.w	ip, [r1, #8]
10001892:	4462      	add	r2, ip
10001894:	811a      	strh	r2, [r3, #8]
10001896:	4603      	mov	r3, r0
10001898:	6818      	ldr	r0, [r3, #0]
1000189a:	2800      	cmp	r0, #0
1000189c:	d1f6      	bne.n	1000188c <pbuf_cat+0x8>
1000189e:	891a      	ldrh	r2, [r3, #8]
100018a0:	8908      	ldrh	r0, [r1, #8]
100018a2:	4402      	add	r2, r0
100018a4:	811a      	strh	r2, [r3, #8]
100018a6:	6019      	str	r1, [r3, #0]
100018a8:	4770      	bx	lr

100018aa <pbuf_chain>:
100018aa:	b510      	push	{r4, lr}
100018ac:	460c      	mov	r4, r1
100018ae:	f7ff ffe9 	bl	10001884 <pbuf_cat>
100018b2:	4620      	mov	r0, r4
100018b4:	f7ff ffda 	bl	1000186c <pbuf_ref>
100018b8:	bd10      	pop	{r4, pc}

100018ba <pbuf_copy_partial_pbuf>:
100018ba:	2900      	cmp	r1, #0
100018bc:	d05f      	beq.n	1000197e <pbuf_copy_partial_pbuf+0xc4>
100018be:	e92d 43f8 	stmdb	sp!, {r3, r4, r5, r6, r7, r8, r9, lr}
100018c2:	4606      	mov	r6, r0
100018c4:	4691      	mov	r9, r2
100018c6:	4698      	mov	r8, r3
100018c8:	460d      	mov	r5, r1
100018ca:	890a      	ldrh	r2, [r1, #8]
100018cc:	454a      	cmp	r2, r9
100018ce:	d359      	bcc.n	10001984 <pbuf_copy_partial_pbuf+0xca>
100018d0:	2800      	cmp	r0, #0
100018d2:	d05a      	beq.n	1000198a <pbuf_copy_partial_pbuf+0xd0>
100018d4:	8902      	ldrh	r2, [r0, #8]
100018d6:	444b      	add	r3, r9
100018d8:	429a      	cmp	r2, r3
100018da:	db59      	blt.n	10001990 <pbuf_copy_partial_pbuf+0xd6>
100018dc:	2700      	movs	r7, #0
100018de:	e012      	b.n	10001906 <pbuf_copy_partial_pbuf+0x4c>
100018e0:	f1b9 0f00 	cmp.w	r9, #0
100018e4:	d157      	bne.n	10001996 <pbuf_copy_partial_pbuf+0xdc>
100018e6:	2700      	movs	r7, #0
100018e8:	4542      	cmp	r2, r8
100018ea:	d02e      	beq.n	1000194a <pbuf_copy_partial_pbuf+0x90>
100018ec:	b11d      	cbz	r5, 100018f6 <pbuf_copy_partial_pbuf+0x3c>
100018ee:	896a      	ldrh	r2, [r5, #10]
100018f0:	892b      	ldrh	r3, [r5, #8]
100018f2:	429a      	cmp	r2, r3
100018f4:	d034      	beq.n	10001960 <pbuf_copy_partial_pbuf+0xa6>
100018f6:	b11e      	cbz	r6, 10001900 <pbuf_copy_partial_pbuf+0x46>
100018f8:	8972      	ldrh	r2, [r6, #10]
100018fa:	8933      	ldrh	r3, [r6, #8]
100018fc:	429a      	cmp	r2, r3
100018fe:	d035      	beq.n	1000196c <pbuf_copy_partial_pbuf+0xb2>
10001900:	f1b9 0f00 	cmp.w	r9, #0
10001904:	d038      	beq.n	10001978 <pbuf_copy_partial_pbuf+0xbe>
10001906:	8974      	ldrh	r4, [r6, #10]
10001908:	eba4 0408 	sub.w	r4, r4, r8
1000190c:	896b      	ldrh	r3, [r5, #10]
1000190e:	1bdb      	subs	r3, r3, r7
10001910:	429c      	cmp	r4, r3
10001912:	d300      	bcc.n	10001916 <pbuf_copy_partial_pbuf+0x5c>
10001914:	461c      	mov	r4, r3
10001916:	454c      	cmp	r4, r9
10001918:	bf28      	it	cs
1000191a:	464c      	movcs	r4, r9
1000191c:	6870      	ldr	r0, [r6, #4]
1000191e:	6869      	ldr	r1, [r5, #4]
10001920:	4622      	mov	r2, r4
10001922:	4439      	add	r1, r7
10001924:	4440      	add	r0, r8
10001926:	f00b f9bf 	bl	1000cca8 <memcpy>
1000192a:	44a0      	add	r8, r4
1000192c:	4427      	add	r7, r4
1000192e:	b2a4      	uxth	r4, r4
10001930:	eba9 0404 	sub.w	r4, r9, r4
10001934:	fa1f f984 	uxth.w	r9, r4
10001938:	8972      	ldrh	r2, [r6, #10]
1000193a:	896b      	ldrh	r3, [r5, #10]
1000193c:	42bb      	cmp	r3, r7
1000193e:	d8d3      	bhi.n	100018e8 <pbuf_copy_partial_pbuf+0x2e>
10001940:	682d      	ldr	r5, [r5, #0]
10001942:	2d00      	cmp	r5, #0
10001944:	d0cc      	beq.n	100018e0 <pbuf_copy_partial_pbuf+0x26>
10001946:	2700      	movs	r7, #0
10001948:	e7ce      	b.n	100018e8 <pbuf_copy_partial_pbuf+0x2e>
1000194a:	6836      	ldr	r6, [r6, #0]
1000194c:	b116      	cbz	r6, 10001954 <pbuf_copy_partial_pbuf+0x9a>
1000194e:	f04f 0800 	mov.w	r8, #0
10001952:	e7cb      	b.n	100018ec <pbuf_copy_partial_pbuf+0x32>
10001954:	f1b9 0f00 	cmp.w	r9, #0
10001958:	d120      	bne.n	1000199c <pbuf_copy_partial_pbuf+0xe2>
1000195a:	f04f 0800 	mov.w	r8, #0
1000195e:	e7c5      	b.n	100018ec <pbuf_copy_partial_pbuf+0x32>
10001960:	682b      	ldr	r3, [r5, #0]
10001962:	2b00      	cmp	r3, #0
10001964:	d0c7      	beq.n	100018f6 <pbuf_copy_partial_pbuf+0x3c>
10001966:	f06f 0005 	mvn.w	r0, #5
1000196a:	e006      	b.n	1000197a <pbuf_copy_partial_pbuf+0xc0>
1000196c:	6833      	ldr	r3, [r6, #0]
1000196e:	2b00      	cmp	r3, #0
10001970:	d0c6      	beq.n	10001900 <pbuf_copy_partial_pbuf+0x46>
10001972:	f06f 0005 	mvn.w	r0, #5
10001976:	e000      	b.n	1000197a <pbuf_copy_partial_pbuf+0xc0>
10001978:	2000      	movs	r0, #0
1000197a:	e8bd 83f8 	ldmia.w	sp!, {r3, r4, r5, r6, r7, r8, r9, pc}
1000197e:	f06f 000f 	mvn.w	r0, #15
10001982:	4770      	bx	lr
10001984:	f06f 000f 	mvn.w	r0, #15
10001988:	e7f7      	b.n	1000197a <pbuf_copy_partial_pbuf+0xc0>
1000198a:	f06f 000f 	mvn.w	r0, #15
1000198e:	e7f4      	b.n	1000197a <pbuf_copy_partial_pbuf+0xc0>
10001990:	f06f 000f 	mvn.w	r0, #15
10001994:	e7f1      	b.n	1000197a <pbuf_copy_partial_pbuf+0xc0>
10001996:	f06f 000f 	mvn.w	r0, #15
1000199a:	e7ee      	b.n	1000197a <pbuf_copy_partial_pbuf+0xc0>
1000199c:	f06f 000f 	mvn.w	r0, #15
100019a0:	e7eb      	b.n	1000197a <pbuf_copy_partial_pbuf+0xc0>

100019a2 <pbuf_copy>:
100019a2:	b129      	cbz	r1, 100019b0 <pbuf_copy+0xe>
100019a4:	b508      	push	{r3, lr}
100019a6:	2300      	movs	r3, #0
100019a8:	890a      	ldrh	r2, [r1, #8]
100019aa:	f7ff ff86 	bl	100018ba <pbuf_copy_partial_pbuf>
100019ae:	bd08      	pop	{r3, pc}
100019b0:	f06f 000f 	mvn.w	r0, #15
100019b4:	4770      	bx	lr

100019b6 <pbuf_copy_partial>:
100019b6:	e92d 43f8 	stmdb	sp!, {r3, r4, r5, r6, r7, r8, r9, lr}
100019ba:	b348      	cbz	r0, 10001a10 <pbuf_copy_partial+0x5a>
100019bc:	4688      	mov	r8, r1
100019be:	4691      	mov	r9, r2
100019c0:	4605      	mov	r5, r0
100019c2:	b349      	cbz	r1, 10001a18 <pbuf_copy_partial+0x62>
100019c4:	2700      	movs	r7, #0
100019c6:	463e      	mov	r6, r7
100019c8:	e016      	b.n	100019f8 <pbuf_copy_partial+0x42>
100019ca:	896c      	ldrh	r4, [r5, #10]
100019cc:	1ae4      	subs	r4, r4, r3
100019ce:	b2a4      	uxth	r4, r4
100019d0:	45a1      	cmp	r9, r4
100019d2:	d200      	bcs.n	100019d6 <pbuf_copy_partial+0x20>
100019d4:	464c      	mov	r4, r9
100019d6:	6869      	ldr	r1, [r5, #4]
100019d8:	4622      	mov	r2, r4
100019da:	4419      	add	r1, r3
100019dc:	eb08 0006 	add.w	r0, r8, r6
100019e0:	f00b f962 	bl	1000cca8 <memcpy>
100019e4:	4427      	add	r7, r4
100019e6:	b2bf      	uxth	r7, r7
100019e8:	4426      	add	r6, r4
100019ea:	b2b6      	uxth	r6, r6
100019ec:	eba9 0404 	sub.w	r4, r9, r4
100019f0:	fa1f f984 	uxth.w	r9, r4
100019f4:	2300      	movs	r3, #0
100019f6:	682d      	ldr	r5, [r5, #0]
100019f8:	f1b9 0f00 	cmp.w	r9, #0
100019fc:	d009      	beq.n	10001a12 <pbuf_copy_partial+0x5c>
100019fe:	b145      	cbz	r5, 10001a12 <pbuf_copy_partial+0x5c>
10001a00:	2b00      	cmp	r3, #0
10001a02:	d0e2      	beq.n	100019ca <pbuf_copy_partial+0x14>
10001a04:	896a      	ldrh	r2, [r5, #10]
10001a06:	429a      	cmp	r2, r3
10001a08:	d8df      	bhi.n	100019ca <pbuf_copy_partial+0x14>
10001a0a:	1a9b      	subs	r3, r3, r2
10001a0c:	b29b      	uxth	r3, r3
10001a0e:	e7f2      	b.n	100019f6 <pbuf_copy_partial+0x40>
10001a10:	2700      	movs	r7, #0
10001a12:	4638      	mov	r0, r7
10001a14:	e8bd 83f8 	ldmia.w	sp!, {r3, r4, r5, r6, r7, r8, r9, pc}
10001a18:	2700      	movs	r7, #0
10001a1a:	e7fa      	b.n	10001a12 <pbuf_copy_partial+0x5c>

10001a1c <pbuf_clone>:
10001a1c:	b538      	push	{r3, r4, r5, lr}
10001a1e:	4614      	mov	r4, r2
10001a20:	460a      	mov	r2, r1
10001a22:	8921      	ldrh	r1, [r4, #8]
10001a24:	f7ff fe67 	bl	100016f6 <pbuf_alloc>
10001a28:	4605      	mov	r5, r0
10001a2a:	b110      	cbz	r0, 10001a32 <pbuf_clone+0x16>
10001a2c:	4621      	mov	r1, r4
10001a2e:	f7ff ffb8 	bl	100019a2 <pbuf_copy>
10001a32:	4628      	mov	r0, r5
10001a34:	bd38      	pop	{r3, r4, r5, pc}

10001a36 <pbuf_try_get_at>:
10001a36:	b500      	push	{lr}
10001a38:	b083      	sub	sp, #12
10001a3a:	f10d 0206 	add.w	r2, sp, #6
10001a3e:	f7ff fd8f 	bl	10001560 <pbuf_skip_const>
10001a42:	b148      	cbz	r0, 10001a58 <pbuf_try_get_at+0x22>
10001a44:	8941      	ldrh	r1, [r0, #10]
10001a46:	f8bd 2006 	ldrh.w	r2, [sp, #6]
10001a4a:	4291      	cmp	r1, r2
10001a4c:	d907      	bls.n	10001a5e <pbuf_try_get_at+0x28>
10001a4e:	6843      	ldr	r3, [r0, #4]
10001a50:	5c98      	ldrb	r0, [r3, r2]
10001a52:	b003      	add	sp, #12
10001a54:	f85d fb04 	ldr.w	pc, [sp], #4
10001a58:	f04f 30ff 	mov.w	r0, #4294967295
10001a5c:	e7f9      	b.n	10001a52 <pbuf_try_get_at+0x1c>
10001a5e:	f04f 30ff 	mov.w	r0, #4294967295
10001a62:	e7f6      	b.n	10001a52 <pbuf_try_get_at+0x1c>

10001a64 <pbuf_get_at>:
10001a64:	b508      	push	{r3, lr}
10001a66:	f7ff ffe6 	bl	10001a36 <pbuf_try_get_at>
10001a6a:	2800      	cmp	r0, #0
10001a6c:	da01      	bge.n	10001a72 <pbuf_get_at+0xe>
10001a6e:	2000      	movs	r0, #0
10001a70:	bd08      	pop	{r3, pc}
10001a72:	b2c0      	uxtb	r0, r0
10001a74:	e7fc      	b.n	10001a70 <pbuf_get_at+0xc>

10001a76 <pbuf_memcmp>:
10001a76:	e92d 41f0 	stmdb	sp!, {r4, r5, r6, r7, r8, lr}
10001a7a:	4605      	mov	r5, r0
10001a7c:	460e      	mov	r6, r1
10001a7e:	4690      	mov	r8, r2
10001a80:	461f      	mov	r7, r3
10001a82:	8902      	ldrh	r2, [r0, #8]
10001a84:	18cb      	adds	r3, r1, r3
10001a86:	429a      	cmp	r2, r3
10001a88:	da05      	bge.n	10001a96 <pbuf_memcmp+0x20>
10001a8a:	f64f 70ff 	movw	r0, #65535	@ 0xffff
10001a8e:	e020      	b.n	10001ad2 <pbuf_memcmp+0x5c>
10001a90:	1a30      	subs	r0, r6, r0
10001a92:	b286      	uxth	r6, r0
10001a94:	682d      	ldr	r5, [r5, #0]
10001a96:	b165      	cbz	r5, 10001ab2 <pbuf_memcmp+0x3c>
10001a98:	8968      	ldrh	r0, [r5, #10]
10001a9a:	42b0      	cmp	r0, r6
10001a9c:	d9f8      	bls.n	10001a90 <pbuf_memcmp+0x1a>
10001a9e:	2400      	movs	r4, #0
10001aa0:	e008      	b.n	10001ab4 <pbuf_memcmp+0x3e>
10001aa2:	f64f 70fe 	movw	r0, #65534	@ 0xfffe
10001aa6:	42a0      	cmp	r0, r4
10001aa8:	bf28      	it	cs
10001aaa:	4620      	movcs	r0, r4
10001aac:	3001      	adds	r0, #1
10001aae:	b280      	uxth	r0, r0
10001ab0:	e00f      	b.n	10001ad2 <pbuf_memcmp+0x5c>
10001ab2:	2400      	movs	r4, #0
10001ab4:	42bc      	cmp	r4, r7
10001ab6:	d20b      	bcs.n	10001ad0 <pbuf_memcmp+0x5a>
10001ab8:	1931      	adds	r1, r6, r4
10001aba:	b289      	uxth	r1, r1
10001abc:	4628      	mov	r0, r5
10001abe:	f7ff ffd1 	bl	10001a64 <pbuf_get_at>
10001ac2:	f818 1004 	ldrb.w	r1, [r8, r4]
10001ac6:	4288      	cmp	r0, r1
10001ac8:	d1eb      	bne.n	10001aa2 <pbuf_memcmp+0x2c>
10001aca:	3401      	adds	r4, #1
10001acc:	b2a4      	uxth	r4, r4
10001ace:	e7f1      	b.n	10001ab4 <pbuf_memcmp+0x3e>
10001ad0:	2000      	movs	r0, #0
10001ad2:	e8bd 81f0 	ldmia.w	sp!, {r4, r5, r6, r7, r8, pc}

10001ad6 <stats_init>:
10001ad6:	4770      	bx	lr

10001ad8 <tcp_remove_listener>:
10001ad8:	e000      	b.n	10001adc <tcp_remove_listener+0x4>
10001ada:	68c0      	ldr	r0, [r0, #12]
10001adc:	b128      	cbz	r0, 10001aea <tcp_remove_listener+0x12>
10001ade:	6fc3      	ldr	r3, [r0, #124]	@ 0x7c
10001ae0:	428b      	cmp	r3, r1
10001ae2:	d1fa      	bne.n	10001ada <tcp_remove_listener+0x2>
10001ae4:	2300      	movs	r3, #0
10001ae6:	67c3      	str	r3, [r0, #124]	@ 0x7c
10001ae8:	e7f7      	b.n	10001ada <tcp_remove_listener+0x2>
10001aea:	4770      	bx	lr

10001aec <tcp_listen_closed>:
10001aec:	b538      	push	{r3, r4, r5, lr}
10001aee:	4605      	mov	r5, r0
10001af0:	2401      	movs	r4, #1
10001af2:	e007      	b.n	10001b04 <tcp_listen_closed+0x18>
10001af4:	4b05      	ldr	r3, [pc, #20]	@ (10001b0c <tcp_listen_closed+0x20>)
10001af6:	f853 3024 	ldr.w	r3, [r3, r4, lsl #2]
10001afa:	4629      	mov	r1, r5
10001afc:	6818      	ldr	r0, [r3, #0]
10001afe:	f7ff ffeb 	bl	10001ad8 <tcp_remove_listener>
10001b02:	3401      	adds	r4, #1
10001b04:	2c03      	cmp	r4, #3
10001b06:	d9f5      	bls.n	10001af4 <tcp_listen_closed+0x8>
10001b08:	bd38      	pop	{r3, r4, r5, pc}
10001b0a:	bf00      	nop
10001b0c:	1000d8d8 	.word	0x1000d8d8

10001b10 <tcp_new_port>:
10001b10:	f04f 0c00 	mov.w	ip, #0
10001b14:	e00b      	b.n	10001b2e <tcp_new_port+0x1e>
10001b16:	4b16      	ldr	r3, [pc, #88]	@ (10001b70 <tcp_new_port+0x60>)
10001b18:	f44f 4240 	mov.w	r2, #49152	@ 0xc000
10001b1c:	801a      	strh	r2, [r3, #0]
10001b1e:	e00f      	b.n	10001b40 <tcp_new_port+0x30>
10001b20:	f10c 0c01 	add.w	ip, ip, #1
10001b24:	fa1f fc8c 	uxth.w	ip, ip
10001b28:	f5bc 4f80 	cmp.w	ip, #16384	@ 0x4000
10001b2c:	d21d      	bcs.n	10001b6a <tcp_new_port+0x5a>
10001b2e:	4a10      	ldr	r2, [pc, #64]	@ (10001b70 <tcp_new_port+0x60>)
10001b30:	8813      	ldrh	r3, [r2, #0]
10001b32:	3301      	adds	r3, #1
10001b34:	b29b      	uxth	r3, r3
10001b36:	8013      	strh	r3, [r2, #0]
10001b38:	f64f 72ff 	movw	r2, #65535	@ 0xffff
10001b3c:	4293      	cmp	r3, r2
10001b3e:	d0ea      	beq.n	10001b16 <tcp_new_port+0x6>
10001b40:	2000      	movs	r0, #0
10001b42:	2803      	cmp	r0, #3
10001b44:	d80e      	bhi.n	10001b64 <tcp_new_port+0x54>
10001b46:	4b0b      	ldr	r3, [pc, #44]	@ (10001b74 <tcp_new_port+0x64>)
10001b48:	f853 3020 	ldr.w	r3, [r3, r0, lsl #2]
10001b4c:	681b      	ldr	r3, [r3, #0]
10001b4e:	b133      	cbz	r3, 10001b5e <tcp_new_port+0x4e>
10001b50:	8ad9      	ldrh	r1, [r3, #22]
10001b52:	4a07      	ldr	r2, [pc, #28]	@ (10001b70 <tcp_new_port+0x60>)
10001b54:	8812      	ldrh	r2, [r2, #0]
10001b56:	4291      	cmp	r1, r2
10001b58:	d0e2      	beq.n	10001b20 <tcp_new_port+0x10>
10001b5a:	68db      	ldr	r3, [r3, #12]
10001b5c:	e7f7      	b.n	10001b4e <tcp_new_port+0x3e>
10001b5e:	3001      	adds	r0, #1
10001b60:	b2c0      	uxtb	r0, r0
10001b62:	e7ee      	b.n	10001b42 <tcp_new_port+0x32>
10001b64:	4b02      	ldr	r3, [pc, #8]	@ (10001b70 <tcp_new_port+0x60>)
10001b66:	8818      	ldrh	r0, [r3, #0]
10001b68:	4770      	bx	lr
10001b6a:	2000      	movs	r0, #0
10001b6c:	4770      	bx	lr
10001b6e:	bf00      	nop
10001b70:	20000dd8 	.word	0x20000dd8
10001b74:	1000d8d8 	.word	0x1000d8d8

10001b78 <tcp_free_listen>:
10001b78:	b508      	push	{r3, lr}
10001b7a:	4601      	mov	r1, r0
10001b7c:	2002      	movs	r0, #2
10001b7e:	f7ff fbcb 	bl	10001318 <memp_free>
10001b82:	bd08      	pop	{r3, pc}

10001b84 <tcp_close_shutdown_fin>:
10001b84:	b538      	push	{r3, r4, r5, lr}
10001b86:	4604      	mov	r4, r0
10001b88:	7d03      	ldrb	r3, [r0, #20]
10001b8a:	2b04      	cmp	r3, #4
10001b8c:	d00e      	beq.n	10001bac <tcp_close_shutdown_fin+0x28>
10001b8e:	2b07      	cmp	r3, #7
10001b90:	d013      	beq.n	10001bba <tcp_close_shutdown_fin+0x36>
10001b92:	2b03      	cmp	r3, #3
10001b94:	d121      	bne.n	10001bda <tcp_close_shutdown_fin+0x56>
10001b96:	f002 febf 	bl	10004918 <tcp_send_fin>
10001b9a:	4605      	mov	r5, r0
10001b9c:	b9a0      	cbnz	r0, 10001bc8 <tcp_close_shutdown_fin+0x44>
10001b9e:	2305      	movs	r3, #5
10001ba0:	7523      	strb	r3, [r4, #20]
10001ba2:	4620      	mov	r0, r4
10001ba4:	f002 ffcc 	bl	10004b40 <tcp_output>
10001ba8:	4628      	mov	r0, r5
10001baa:	bd38      	pop	{r3, r4, r5, pc}
10001bac:	f002 feb4 	bl	10004918 <tcp_send_fin>
10001bb0:	4605      	mov	r5, r0
10001bb2:	b948      	cbnz	r0, 10001bc8 <tcp_close_shutdown_fin+0x44>
10001bb4:	2305      	movs	r3, #5
10001bb6:	7523      	strb	r3, [r4, #20]
10001bb8:	e7f3      	b.n	10001ba2 <tcp_close_shutdown_fin+0x1e>
10001bba:	f002 fead 	bl	10004918 <tcp_send_fin>
10001bbe:	4605      	mov	r5, r0
10001bc0:	b910      	cbnz	r0, 10001bc8 <tcp_close_shutdown_fin+0x44>
10001bc2:	2309      	movs	r3, #9
10001bc4:	7523      	strb	r3, [r4, #20]
10001bc6:	e7ec      	b.n	10001ba2 <tcp_close_shutdown_fin+0x1e>
10001bc8:	f1b5 3fff 	cmp.w	r5, #4294967295
10001bcc:	d1ec      	bne.n	10001ba8 <tcp_close_shutdown_fin+0x24>
10001bce:	8b63      	ldrh	r3, [r4, #26]
10001bd0:	f043 0308 	orr.w	r3, r3, #8
10001bd4:	8363      	strh	r3, [r4, #26]
10001bd6:	2500      	movs	r5, #0
10001bd8:	e7e6      	b.n	10001ba8 <tcp_close_shutdown_fin+0x24>
10001bda:	2500      	movs	r5, #0
10001bdc:	e7e4      	b.n	10001ba8 <tcp_close_shutdown_fin+0x24>
	...

10001be0 <tcp_handle_closepend>:
10001be0:	4b09      	ldr	r3, [pc, #36]	@ (10001c08 <tcp_handle_closepend+0x28>)
10001be2:	6818      	ldr	r0, [r3, #0]
10001be4:	b178      	cbz	r0, 10001c06 <tcp_handle_closepend+0x26>
10001be6:	b510      	push	{r4, lr}
10001be8:	e001      	b.n	10001bee <tcp_handle_closepend+0xe>
10001bea:	4620      	mov	r0, r4
10001bec:	b154      	cbz	r4, 10001c04 <tcp_handle_closepend+0x24>
10001bee:	68c4      	ldr	r4, [r0, #12]
10001bf0:	8b43      	ldrh	r3, [r0, #26]
10001bf2:	f013 0f08 	tst.w	r3, #8
10001bf6:	d0f8      	beq.n	10001bea <tcp_handle_closepend+0xa>
10001bf8:	f023 0308 	bic.w	r3, r3, #8
10001bfc:	8343      	strh	r3, [r0, #26]
10001bfe:	f7ff ffc1 	bl	10001b84 <tcp_close_shutdown_fin>
10001c02:	e7f2      	b.n	10001bea <tcp_handle_closepend+0xa>
10001c04:	bd10      	pop	{r4, pc}
10001c06:	4770      	bx	lr
10001c08:	20005f18 	.word	0x20005f18

10001c0c <tcp_init>:
10001c0c:	4770      	bx	lr

10001c0e <tcp_free>:
10001c0e:	b508      	push	{r3, lr}
10001c10:	4601      	mov	r1, r0
10001c12:	2001      	movs	r0, #1
10001c14:	f7ff fb80 	bl	10001318 <memp_free>
10001c18:	bd08      	pop	{r3, pc}
	...

10001c1c <tcp_bind>:
10001c1c:	b570      	push	{r4, r5, r6, lr}
10001c1e:	4606      	mov	r6, r0
10001c20:	460d      	mov	r5, r1
10001c22:	b159      	cbz	r1, 10001c3c <tcp_bind+0x20>
10001c24:	b376      	cbz	r6, 10001c84 <tcp_bind+0x68>
10001c26:	7d33      	ldrb	r3, [r6, #20]
10001c28:	bb7b      	cbnz	r3, 10001c8a <tcp_bind+0x6e>
10001c2a:	b14a      	cbz	r2, 10001c40 <tcp_bind+0x24>
10001c2c:	2000      	movs	r0, #0
10001c2e:	2803      	cmp	r0, #3
10001c30:	dc0a      	bgt.n	10001c48 <tcp_bind+0x2c>
10001c32:	4b1d      	ldr	r3, [pc, #116]	@ (10001ca8 <tcp_bind+0x8c>)
10001c34:	f853 3020 	ldr.w	r3, [r3, r0, lsl #2]
10001c38:	681b      	ldr	r3, [r3, #0]
10001c3a:	e013      	b.n	10001c64 <tcp_bind+0x48>
10001c3c:	4d1b      	ldr	r5, [pc, #108]	@ (10001cac <tcp_bind+0x90>)
10001c3e:	e7f1      	b.n	10001c24 <tcp_bind+0x8>
10001c40:	f7ff ff66 	bl	10001b10 <tcp_new_port>
10001c44:	4602      	mov	r2, r0
10001c46:	b318      	cbz	r0, 10001c90 <tcp_bind+0x74>
10001c48:	b115      	cbz	r5, 10001c50 <tcp_bind+0x34>
10001c4a:	682b      	ldr	r3, [r5, #0]
10001c4c:	b103      	cbz	r3, 10001c50 <tcp_bind+0x34>
10001c4e:	6033      	str	r3, [r6, #0]
10001c50:	82f2      	strh	r2, [r6, #22]
10001c52:	4b17      	ldr	r3, [pc, #92]	@ (10001cb0 <tcp_bind+0x94>)
10001c54:	681a      	ldr	r2, [r3, #0]
10001c56:	60f2      	str	r2, [r6, #12]
10001c58:	601e      	str	r6, [r3, #0]
10001c5a:	f003 f971 	bl	10004f40 <tcp_timer_needed>
10001c5e:	2000      	movs	r0, #0
10001c60:	bd70      	pop	{r4, r5, r6, pc}
10001c62:	68db      	ldr	r3, [r3, #12]
10001c64:	b163      	cbz	r3, 10001c80 <tcp_bind+0x64>
10001c66:	8ad9      	ldrh	r1, [r3, #22]
10001c68:	4291      	cmp	r1, r2
10001c6a:	d1fa      	bne.n	10001c62 <tcp_bind+0x46>
10001c6c:	6819      	ldr	r1, [r3, #0]
10001c6e:	b191      	cbz	r1, 10001c96 <tcp_bind+0x7a>
10001c70:	b1a5      	cbz	r5, 10001c9c <tcp_bind+0x80>
10001c72:	682c      	ldr	r4, [r5, #0]
10001c74:	b1ac      	cbz	r4, 10001ca2 <tcp_bind+0x86>
10001c76:	42a1      	cmp	r1, r4
10001c78:	d1f3      	bne.n	10001c62 <tcp_bind+0x46>
10001c7a:	f06f 0007 	mvn.w	r0, #7
10001c7e:	e7ef      	b.n	10001c60 <tcp_bind+0x44>
10001c80:	3001      	adds	r0, #1
10001c82:	e7d4      	b.n	10001c2e <tcp_bind+0x12>
10001c84:	f06f 000f 	mvn.w	r0, #15
10001c88:	e7ea      	b.n	10001c60 <tcp_bind+0x44>
10001c8a:	f06f 0005 	mvn.w	r0, #5
10001c8e:	e7e7      	b.n	10001c60 <tcp_bind+0x44>
10001c90:	f06f 0001 	mvn.w	r0, #1
10001c94:	e7e4      	b.n	10001c60 <tcp_bind+0x44>
10001c96:	f06f 0007 	mvn.w	r0, #7
10001c9a:	e7e1      	b.n	10001c60 <tcp_bind+0x44>
10001c9c:	f06f 0007 	mvn.w	r0, #7
10001ca0:	e7de      	b.n	10001c60 <tcp_bind+0x44>
10001ca2:	f06f 0007 	mvn.w	r0, #7
10001ca6:	e7db      	b.n	10001c60 <tcp_bind+0x44>
10001ca8:	1000d8d8 	.word	0x1000d8d8
10001cac:	1000d91c 	.word	0x1000d91c
10001cb0:	20005f1c 	.word	0x20005f1c

10001cb4 <tcp_listen_with_backlog_and_err>:
10001cb4:	b570      	push	{r4, r5, r6, lr}
10001cb6:	4616      	mov	r6, r2
10001cb8:	4604      	mov	r4, r0
10001cba:	2800      	cmp	r0, #0
10001cbc:	d040      	beq.n	10001d40 <tcp_listen_with_backlog_and_err+0x8c>
10001cbe:	7d03      	ldrb	r3, [r0, #20]
10001cc0:	2b00      	cmp	r3, #0
10001cc2:	d141      	bne.n	10001d48 <tcp_listen_with_backlog_and_err+0x94>
10001cc4:	2b01      	cmp	r3, #1
10001cc6:	d043      	beq.n	10001d50 <tcp_listen_with_backlog_and_err+0x9c>
10001cc8:	2002      	movs	r0, #2
10001cca:	f7ff fb17 	bl	100012fc <memp_malloc>
10001cce:	4605      	mov	r5, r0
10001cd0:	2800      	cmp	r0, #0
10001cd2:	d041      	beq.n	10001d58 <tcp_listen_with_backlog_and_err+0xa4>
10001cd4:	6923      	ldr	r3, [r4, #16]
10001cd6:	6103      	str	r3, [r0, #16]
10001cd8:	8ae3      	ldrh	r3, [r4, #22]
10001cda:	82c3      	strh	r3, [r0, #22]
10001cdc:	2301      	movs	r3, #1
10001cde:	7503      	strb	r3, [r0, #20]
10001ce0:	7d63      	ldrb	r3, [r4, #21]
10001ce2:	7543      	strb	r3, [r0, #21]
10001ce4:	7a63      	ldrb	r3, [r4, #9]
10001ce6:	7243      	strb	r3, [r0, #9]
10001ce8:	7a23      	ldrb	r3, [r4, #8]
10001cea:	7203      	strb	r3, [r0, #8]
10001cec:	7ae3      	ldrb	r3, [r4, #11]
10001cee:	72c3      	strb	r3, [r0, #11]
10001cf0:	7aa3      	ldrb	r3, [r4, #10]
10001cf2:	7283      	strb	r3, [r0, #10]
10001cf4:	6823      	ldr	r3, [r4, #0]
10001cf6:	6003      	str	r3, [r0, #0]
10001cf8:	8ae3      	ldrh	r3, [r4, #22]
10001cfa:	b18b      	cbz	r3, 10001d20 <tcp_listen_with_backlog_and_err+0x6c>
10001cfc:	4b18      	ldr	r3, [pc, #96]	@ (10001d60 <tcp_listen_with_backlog_and_err+0xac>)
10001cfe:	681b      	ldr	r3, [r3, #0]
10001d00:	42a3      	cmp	r3, r4
10001d02:	d005      	beq.n	10001d10 <tcp_listen_with_backlog_and_err+0x5c>
10001d04:	b153      	cbz	r3, 10001d1c <tcp_listen_with_backlog_and_err+0x68>
10001d06:	68da      	ldr	r2, [r3, #12]
10001d08:	42a2      	cmp	r2, r4
10001d0a:	d005      	beq.n	10001d18 <tcp_listen_with_backlog_and_err+0x64>
10001d0c:	4613      	mov	r3, r2
10001d0e:	e7f9      	b.n	10001d04 <tcp_listen_with_backlog_and_err+0x50>
10001d10:	68da      	ldr	r2, [r3, #12]
10001d12:	4b13      	ldr	r3, [pc, #76]	@ (10001d60 <tcp_listen_with_backlog_and_err+0xac>)
10001d14:	601a      	str	r2, [r3, #0]
10001d16:	e001      	b.n	10001d1c <tcp_listen_with_backlog_and_err+0x68>
10001d18:	68e2      	ldr	r2, [r4, #12]
10001d1a:	60da      	str	r2, [r3, #12]
10001d1c:	2300      	movs	r3, #0
10001d1e:	60e3      	str	r3, [r4, #12]
10001d20:	4620      	mov	r0, r4
10001d22:	f7ff ff74 	bl	10001c0e <tcp_free>
10001d26:	4b0f      	ldr	r3, [pc, #60]	@ (10001d64 <tcp_listen_with_backlog_and_err+0xb0>)
10001d28:	61ab      	str	r3, [r5, #24]
10001d2a:	4b0f      	ldr	r3, [pc, #60]	@ (10001d68 <tcp_listen_with_backlog_and_err+0xb4>)
10001d2c:	681a      	ldr	r2, [r3, #0]
10001d2e:	60ea      	str	r2, [r5, #12]
10001d30:	601d      	str	r5, [r3, #0]
10001d32:	f003 f905 	bl	10004f40 <tcp_timer_needed>
10001d36:	2300      	movs	r3, #0
10001d38:	b106      	cbz	r6, 10001d3c <tcp_listen_with_backlog_and_err+0x88>
10001d3a:	7033      	strb	r3, [r6, #0]
10001d3c:	4628      	mov	r0, r5
10001d3e:	bd70      	pop	{r4, r5, r6, pc}
10001d40:	4605      	mov	r5, r0
10001d42:	f06f 030f 	mvn.w	r3, #15
10001d46:	e7f7      	b.n	10001d38 <tcp_listen_with_backlog_and_err+0x84>
10001d48:	f06f 030e 	mvn.w	r3, #14
10001d4c:	2500      	movs	r5, #0
10001d4e:	e7f3      	b.n	10001d38 <tcp_listen_with_backlog_and_err+0x84>
10001d50:	4605      	mov	r5, r0
10001d52:	f06f 0308 	mvn.w	r3, #8
10001d56:	e7ef      	b.n	10001d38 <tcp_listen_with_backlog_and_err+0x84>
10001d58:	f04f 33ff 	mov.w	r3, #4294967295
10001d5c:	e7ec      	b.n	10001d38 <tcp_listen_with_backlog_and_err+0x84>
10001d5e:	bf00      	nop
10001d60:	20005f1c 	.word	0x20005f1c
10001d64:	10002153 	.word	0x10002153
10001d68:	20005f24 	.word	0x20005f24

10001d6c <tcp_listen_with_backlog>:
10001d6c:	b508      	push	{r3, lr}
10001d6e:	2200      	movs	r2, #0
10001d70:	f7ff ffa0 	bl	10001cb4 <tcp_listen_with_backlog_and_err>
10001d74:	bd08      	pop	{r3, pc}

10001d76 <tcp_update_rcv_ann_wnd>:
10001d76:	b530      	push	{r4, r5, lr}
10001d78:	6a44      	ldr	r4, [r0, #36]	@ 0x24
10001d7a:	f8b0 c028 	ldrh.w	ip, [r0, #40]	@ 0x28
10001d7e:	eb04 030c 	add.w	r3, r4, ip
10001d82:	6ac2      	ldr	r2, [r0, #44]	@ 0x2c
10001d84:	8e45      	ldrh	r5, [r0, #50]	@ 0x32
10001d86:	f640 3e68 	movw	lr, #2920	@ 0xb68
10001d8a:	4575      	cmp	r5, lr
10001d8c:	bf94      	ite	ls
10001d8e:	1951      	addls	r1, r2, r5
10001d90:	eb02 010e 	addhi.w	r1, r2, lr
10001d94:	1a59      	subs	r1, r3, r1
10001d96:	2900      	cmp	r1, #0
10001d98:	db03      	blt.n	10001da2 <tcp_update_rcv_ann_wnd+0x2c>
10001d9a:	f8a0 c02a 	strh.w	ip, [r0, #42]	@ 0x2a
10001d9e:	1a98      	subs	r0, r3, r2
10001da0:	bd30      	pop	{r4, r5, pc}
10001da2:	1b12      	subs	r2, r2, r4
10001da4:	d402      	bmi.n	10001dac <tcp_update_rcv_ann_wnd+0x36>
10001da6:	8542      	strh	r2, [r0, #42]	@ 0x2a
10001da8:	2000      	movs	r0, #0
10001daa:	e7f9      	b.n	10001da0 <tcp_update_rcv_ann_wnd+0x2a>
10001dac:	2300      	movs	r3, #0
10001dae:	8543      	strh	r3, [r0, #42]	@ 0x2a
10001db0:	e7fa      	b.n	10001da8 <tcp_update_rcv_ann_wnd+0x32>

10001db2 <tcp_recved>:
10001db2:	b1f8      	cbz	r0, 10001df4 <tcp_recved+0x42>
10001db4:	b510      	push	{r4, lr}
10001db6:	4604      	mov	r4, r0
10001db8:	8d03      	ldrh	r3, [r0, #40]	@ 0x28
10001dba:	4419      	add	r1, r3
10001dbc:	b289      	uxth	r1, r1
10001dbe:	f241 62d0 	movw	r2, #5840	@ 0x16d0
10001dc2:	4291      	cmp	r1, r2
10001dc4:	d801      	bhi.n	10001dca <tcp_recved+0x18>
10001dc6:	428b      	cmp	r3, r1
10001dc8:	d90a      	bls.n	10001de0 <tcp_recved+0x2e>
10001dca:	f241 63d0 	movw	r3, #5840	@ 0x16d0
10001dce:	8523      	strh	r3, [r4, #40]	@ 0x28
10001dd0:	4620      	mov	r0, r4
10001dd2:	f7ff ffd0 	bl	10001d76 <tcp_update_rcv_ann_wnd>
10001dd6:	f240 53b3 	movw	r3, #1459	@ 0x5b3
10001dda:	4298      	cmp	r0, r3
10001ddc:	d802      	bhi.n	10001de4 <tcp_recved+0x32>
10001dde:	bd10      	pop	{r4, pc}
10001de0:	8501      	strh	r1, [r0, #40]	@ 0x28
10001de2:	e7f5      	b.n	10001dd0 <tcp_recved+0x1e>
10001de4:	8b63      	ldrh	r3, [r4, #26]
10001de6:	f043 0302 	orr.w	r3, r3, #2
10001dea:	8363      	strh	r3, [r4, #26]
10001dec:	4620      	mov	r0, r4
10001dee:	f002 fea7 	bl	10004b40 <tcp_output>
10001df2:	e7f4      	b.n	10001dde <tcp_recved+0x2c>
10001df4:	4770      	bx	lr

10001df6 <tcp_seg_free>:
10001df6:	b150      	cbz	r0, 10001e0e <tcp_seg_free+0x18>
10001df8:	b510      	push	{r4, lr}
10001dfa:	4604      	mov	r4, r0
10001dfc:	6840      	ldr	r0, [r0, #4]
10001dfe:	b108      	cbz	r0, 10001e04 <tcp_seg_free+0xe>
10001e00:	f7ff fc45 	bl	1000168e <pbuf_free>
10001e04:	4621      	mov	r1, r4
10001e06:	2003      	movs	r0, #3
10001e08:	f7ff fa86 	bl	10001318 <memp_free>
10001e0c:	bd10      	pop	{r4, pc}
10001e0e:	4770      	bx	lr

10001e10 <tcp_segs_free>:
10001e10:	b138      	cbz	r0, 10001e22 <tcp_segs_free+0x12>
10001e12:	b510      	push	{r4, lr}
10001e14:	6804      	ldr	r4, [r0, #0]
10001e16:	f7ff ffee 	bl	10001df6 <tcp_seg_free>
10001e1a:	4620      	mov	r0, r4
10001e1c:	2c00      	cmp	r4, #0
10001e1e:	d1f9      	bne.n	10001e14 <tcp_segs_free+0x4>
10001e20:	bd10      	pop	{r4, pc}
10001e22:	4770      	bx	lr

10001e24 <tcp_setprio>:
10001e24:	b100      	cbz	r0, 10001e28 <tcp_setprio+0x4>
10001e26:	7541      	strb	r1, [r0, #21]
10001e28:	4770      	bx	lr

10001e2a <tcp_seg_copy>:
10001e2a:	b538      	push	{r3, r4, r5, lr}
10001e2c:	4604      	mov	r4, r0
10001e2e:	2003      	movs	r0, #3
10001e30:	f7ff fa64 	bl	100012fc <memp_malloc>
10001e34:	4605      	mov	r5, r0
10001e36:	b150      	cbz	r0, 10001e4e <tcp_seg_copy+0x24>
10001e38:	6820      	ldr	r0, [r4, #0]
10001e3a:	6861      	ldr	r1, [r4, #4]
10001e3c:	68a2      	ldr	r2, [r4, #8]
10001e3e:	68e3      	ldr	r3, [r4, #12]
10001e40:	6028      	str	r0, [r5, #0]
10001e42:	6069      	str	r1, [r5, #4]
10001e44:	60aa      	str	r2, [r5, #8]
10001e46:	60eb      	str	r3, [r5, #12]
10001e48:	6868      	ldr	r0, [r5, #4]
10001e4a:	f7ff fd0f 	bl	1000186c <pbuf_ref>
10001e4e:	4628      	mov	r0, r5
10001e50:	bd38      	pop	{r3, r4, r5, pc}

10001e52 <tcp_arg>:
10001e52:	b100      	cbz	r0, 10001e56 <tcp_arg+0x4>
10001e54:	6101      	str	r1, [r0, #16]
10001e56:	4770      	bx	lr

10001e58 <tcp_recv>:
10001e58:	b108      	cbz	r0, 10001e5e <tcp_recv+0x6>
10001e5a:	f8c0 1084 	str.w	r1, [r0, #132]	@ 0x84
10001e5e:	4770      	bx	lr

10001e60 <tcp_sent>:
10001e60:	b108      	cbz	r0, 10001e66 <tcp_sent+0x6>
10001e62:	f8c0 1080 	str.w	r1, [r0, #128]	@ 0x80
10001e66:	4770      	bx	lr

10001e68 <tcp_err>:
10001e68:	b108      	cbz	r0, 10001e6e <tcp_err+0x6>
10001e6a:	f8c0 1090 	str.w	r1, [r0, #144]	@ 0x90
10001e6e:	4770      	bx	lr

10001e70 <tcp_accept>:
10001e70:	b110      	cbz	r0, 10001e78 <tcp_accept+0x8>
10001e72:	7d02      	ldrb	r2, [r0, #20]
10001e74:	2a01      	cmp	r2, #1
10001e76:	d000      	beq.n	10001e7a <tcp_accept+0xa>
10001e78:	4770      	bx	lr
10001e7a:	6181      	str	r1, [r0, #24]
10001e7c:	e7fc      	b.n	10001e78 <tcp_accept+0x8>

10001e7e <tcp_poll>:
10001e7e:	b110      	cbz	r0, 10001e86 <tcp_poll+0x8>
10001e80:	f8c0 108c 	str.w	r1, [r0, #140]	@ 0x8c
10001e84:	7742      	strb	r2, [r0, #29]
10001e86:	4770      	bx	lr

10001e88 <tcp_next_iss>:
10001e88:	4b03      	ldr	r3, [pc, #12]	@ (10001e98 <tcp_next_iss+0x10>)
10001e8a:	6818      	ldr	r0, [r3, #0]
10001e8c:	4a03      	ldr	r2, [pc, #12]	@ (10001e9c <tcp_next_iss+0x14>)
10001e8e:	6812      	ldr	r2, [r2, #0]
10001e90:	4410      	add	r0, r2
10001e92:	6018      	str	r0, [r3, #0]
10001e94:	4770      	bx	lr
10001e96:	bf00      	nop
10001e98:	20000dd4 	.word	0x20000dd4
10001e9c:	20005f28 	.word	0x20005f28

10001ea0 <tcp_eff_send_mss_netif>:
10001ea0:	b141      	cbz	r1, 10001eb4 <tcp_eff_send_mss_netif+0x14>
10001ea2:	8b8b      	ldrh	r3, [r1, #28]
10001ea4:	b133      	cbz	r3, 10001eb4 <tcp_eff_send_mss_netif+0x14>
10001ea6:	2b28      	cmp	r3, #40	@ 0x28
10001ea8:	d905      	bls.n	10001eb6 <tcp_eff_send_mss_netif+0x16>
10001eaa:	3b28      	subs	r3, #40	@ 0x28
10001eac:	b29b      	uxth	r3, r3
10001eae:	4298      	cmp	r0, r3
10001eb0:	bf28      	it	cs
10001eb2:	4618      	movcs	r0, r3
10001eb4:	4770      	bx	lr
10001eb6:	2300      	movs	r3, #0
10001eb8:	e7f9      	b.n	10001eae <tcp_eff_send_mss_netif+0xe>
	...

10001ebc <tcp_connect>:
10001ebc:	b5f8      	push	{r3, r4, r5, r6, r7, lr}
10001ebe:	2800      	cmp	r0, #0
10001ec0:	d069      	beq.n	10001f96 <tcp_connect+0xda>
10001ec2:	461e      	mov	r6, r3
10001ec4:	4604      	mov	r4, r0
10001ec6:	2900      	cmp	r1, #0
10001ec8:	d068      	beq.n	10001f9c <tcp_connect+0xe0>
10001eca:	7d03      	ldrb	r3, [r0, #20]
10001ecc:	2b00      	cmp	r3, #0
10001ece:	d168      	bne.n	10001fa2 <tcp_connect+0xe6>
10001ed0:	680b      	ldr	r3, [r1, #0]
10001ed2:	6043      	str	r3, [r0, #4]
10001ed4:	8302      	strh	r2, [r0, #24]
10001ed6:	7a00      	ldrb	r0, [r0, #8]
10001ed8:	2800      	cmp	r0, #0
10001eda:	d041      	beq.n	10001f60 <tcp_connect+0xa4>
10001edc:	f7ff faec 	bl	100014b8 <netif_get_by_index>
10001ee0:	4605      	mov	r5, r0
10001ee2:	2d00      	cmp	r5, #0
10001ee4:	d060      	beq.n	10001fa8 <tcp_connect+0xec>
10001ee6:	b10c      	cbz	r4, 10001eec <tcp_connect+0x30>
10001ee8:	6823      	ldr	r3, [r4, #0]
10001eea:	b90b      	cbnz	r3, 10001ef0 <tcp_connect+0x34>
10001eec:	682b      	ldr	r3, [r5, #0]
10001eee:	6023      	str	r3, [r4, #0]
10001ef0:	8ae7      	ldrh	r7, [r4, #22]
10001ef2:	b927      	cbnz	r7, 10001efe <tcp_connect+0x42>
10001ef4:	f7ff fe0c 	bl	10001b10 <tcp_new_port>
10001ef8:	82e0      	strh	r0, [r4, #22]
10001efa:	2800      	cmp	r0, #0
10001efc:	d057      	beq.n	10001fae <tcp_connect+0xf2>
10001efe:	4620      	mov	r0, r4
10001f00:	f7ff ffc2 	bl	10001e88 <tcp_next_iss>
10001f04:	2100      	movs	r1, #0
10001f06:	6261      	str	r1, [r4, #36]	@ 0x24
10001f08:	6520      	str	r0, [r4, #80]	@ 0x50
10001f0a:	3801      	subs	r0, #1
10001f0c:	6460      	str	r0, [r4, #68]	@ 0x44
10001f0e:	65a0      	str	r0, [r4, #88]	@ 0x58
10001f10:	65e0      	str	r0, [r4, #92]	@ 0x5c
10001f12:	f241 63d0 	movw	r3, #5840	@ 0x16d0
10001f16:	8563      	strh	r3, [r4, #42]	@ 0x2a
10001f18:	8523      	strh	r3, [r4, #40]	@ 0x28
10001f1a:	62e1      	str	r1, [r4, #44]	@ 0x2c
10001f1c:	f8a4 3060 	strh.w	r3, [r4, #96]	@ 0x60
10001f20:	f44f 7006 	mov.w	r0, #536	@ 0x218
10001f24:	8660      	strh	r0, [r4, #50]	@ 0x32
10001f26:	1d22      	adds	r2, r4, #4
10001f28:	4629      	mov	r1, r5
10001f2a:	f7ff ffb9 	bl	10001ea0 <tcp_eff_send_mss_netif>
10001f2e:	8660      	strh	r0, [r4, #50]	@ 0x32
10001f30:	2301      	movs	r3, #1
10001f32:	f8a4 3048 	strh.w	r3, [r4, #72]	@ 0x48
10001f36:	f8c4 6088 	str.w	r6, [r4, #136]	@ 0x88
10001f3a:	2102      	movs	r1, #2
10001f3c:	4620      	mov	r0, r4
10001f3e:	f002 fc8f 	bl	10004860 <tcp_enqueue_flags>
10001f42:	4605      	mov	r5, r0
10001f44:	bb28      	cbnz	r0, 10001f92 <tcp_connect+0xd6>
10001f46:	2302      	movs	r3, #2
10001f48:	7523      	strb	r3, [r4, #20]
10001f4a:	b1b7      	cbz	r7, 10001f7a <tcp_connect+0xbe>
10001f4c:	4b19      	ldr	r3, [pc, #100]	@ (10001fb4 <tcp_connect+0xf8>)
10001f4e:	681b      	ldr	r3, [r3, #0]
10001f50:	42a3      	cmp	r3, r4
10001f52:	d00a      	beq.n	10001f6a <tcp_connect+0xae>
10001f54:	b17b      	cbz	r3, 10001f76 <tcp_connect+0xba>
10001f56:	68da      	ldr	r2, [r3, #12]
10001f58:	42a2      	cmp	r2, r4
10001f5a:	d00a      	beq.n	10001f72 <tcp_connect+0xb6>
10001f5c:	4613      	mov	r3, r2
10001f5e:	e7f9      	b.n	10001f54 <tcp_connect+0x98>
10001f60:	1d20      	adds	r0, r4, #4
10001f62:	f004 f853 	bl	1000600c <ip4_route>
10001f66:	4605      	mov	r5, r0
10001f68:	e7bb      	b.n	10001ee2 <tcp_connect+0x26>
10001f6a:	68da      	ldr	r2, [r3, #12]
10001f6c:	4b11      	ldr	r3, [pc, #68]	@ (10001fb4 <tcp_connect+0xf8>)
10001f6e:	601a      	str	r2, [r3, #0]
10001f70:	e001      	b.n	10001f76 <tcp_connect+0xba>
10001f72:	68e2      	ldr	r2, [r4, #12]
10001f74:	60da      	str	r2, [r3, #12]
10001f76:	2300      	movs	r3, #0
10001f78:	60e3      	str	r3, [r4, #12]
10001f7a:	4b0f      	ldr	r3, [pc, #60]	@ (10001fb8 <tcp_connect+0xfc>)
10001f7c:	681a      	ldr	r2, [r3, #0]
10001f7e:	60e2      	str	r2, [r4, #12]
10001f80:	601c      	str	r4, [r3, #0]
10001f82:	f002 ffdd 	bl	10004f40 <tcp_timer_needed>
10001f86:	4b0d      	ldr	r3, [pc, #52]	@ (10001fbc <tcp_connect+0x100>)
10001f88:	2201      	movs	r2, #1
10001f8a:	701a      	strb	r2, [r3, #0]
10001f8c:	4620      	mov	r0, r4
10001f8e:	f002 fdd7 	bl	10004b40 <tcp_output>
10001f92:	4628      	mov	r0, r5
10001f94:	bdf8      	pop	{r3, r4, r5, r6, r7, pc}
10001f96:	f06f 050f 	mvn.w	r5, #15
10001f9a:	e7fa      	b.n	10001f92 <tcp_connect+0xd6>
10001f9c:	f06f 050f 	mvn.w	r5, #15
10001fa0:	e7f7      	b.n	10001f92 <tcp_connect+0xd6>
10001fa2:	f06f 0509 	mvn.w	r5, #9
10001fa6:	e7f4      	b.n	10001f92 <tcp_connect+0xd6>
10001fa8:	f06f 0503 	mvn.w	r5, #3
10001fac:	e7f1      	b.n	10001f92 <tcp_connect+0xd6>
10001fae:	f06f 0501 	mvn.w	r5, #1
10001fb2:	e7ee      	b.n	10001f92 <tcp_connect+0xd6>
10001fb4:	20005f1c 	.word	0x20005f1c
10001fb8:	20005f18 	.word	0x20005f18
10001fbc:	20005f62 	.word	0x20005f62

10001fc0 <tcp_free_ooseq>:
10001fc0:	b510      	push	{r4, lr}
10001fc2:	4604      	mov	r4, r0
10001fc4:	6f40      	ldr	r0, [r0, #116]	@ 0x74
10001fc6:	b118      	cbz	r0, 10001fd0 <tcp_free_ooseq+0x10>
10001fc8:	f7ff ff22 	bl	10001e10 <tcp_segs_free>
10001fcc:	2300      	movs	r3, #0
10001fce:	6763      	str	r3, [r4, #116]	@ 0x74
10001fd0:	bd10      	pop	{r4, pc}

10001fd2 <tcp_pcb_purge>:
10001fd2:	b308      	cbz	r0, 10002018 <tcp_pcb_purge+0x46>
10001fd4:	b510      	push	{r4, lr}
10001fd6:	4604      	mov	r4, r0
10001fd8:	7d03      	ldrb	r3, [r0, #20]
10001fda:	b1e3      	cbz	r3, 10002016 <tcp_pcb_purge+0x44>
10001fdc:	2b0a      	cmp	r3, #10
10001fde:	d01a      	beq.n	10002016 <tcp_pcb_purge+0x44>
10001fe0:	2b01      	cmp	r3, #1
10001fe2:	d018      	beq.n	10002016 <tcp_pcb_purge+0x44>
10001fe4:	6f80      	ldr	r0, [r0, #120]	@ 0x78
10001fe6:	b118      	cbz	r0, 10001ff0 <tcp_pcb_purge+0x1e>
10001fe8:	f7ff fb51 	bl	1000168e <pbuf_free>
10001fec:	2300      	movs	r3, #0
10001fee:	67a3      	str	r3, [r4, #120]	@ 0x78
10001ff0:	6f63      	ldr	r3, [r4, #116]	@ 0x74
10001ff2:	b113      	cbz	r3, 10001ffa <tcp_pcb_purge+0x28>
10001ff4:	4620      	mov	r0, r4
10001ff6:	f7ff ffe3 	bl	10001fc0 <tcp_free_ooseq>
10001ffa:	f64f 73ff 	movw	r3, #65535	@ 0xffff
10001ffe:	8623      	strh	r3, [r4, #48]	@ 0x30
10002000:	6ee0      	ldr	r0, [r4, #108]	@ 0x6c
10002002:	f7ff ff05 	bl	10001e10 <tcp_segs_free>
10002006:	6f20      	ldr	r0, [r4, #112]	@ 0x70
10002008:	f7ff ff02 	bl	10001e10 <tcp_segs_free>
1000200c:	2300      	movs	r3, #0
1000200e:	66e3      	str	r3, [r4, #108]	@ 0x6c
10002010:	6723      	str	r3, [r4, #112]	@ 0x70
10002012:	f8a4 3068 	strh.w	r3, [r4, #104]	@ 0x68
10002016:	bd10      	pop	{r4, pc}
10002018:	4770      	bx	lr

1000201a <tcp_pcb_remove>:
1000201a:	b510      	push	{r4, lr}
1000201c:	460c      	mov	r4, r1
1000201e:	6803      	ldr	r3, [r0, #0]
10002020:	428b      	cmp	r3, r1
10002022:	d005      	beq.n	10002030 <tcp_pcb_remove+0x16>
10002024:	b14b      	cbz	r3, 1000203a <tcp_pcb_remove+0x20>
10002026:	68da      	ldr	r2, [r3, #12]
10002028:	42a2      	cmp	r2, r4
1000202a:	d004      	beq.n	10002036 <tcp_pcb_remove+0x1c>
1000202c:	4613      	mov	r3, r2
1000202e:	e7f9      	b.n	10002024 <tcp_pcb_remove+0xa>
10002030:	68db      	ldr	r3, [r3, #12]
10002032:	6003      	str	r3, [r0, #0]
10002034:	e001      	b.n	1000203a <tcp_pcb_remove+0x20>
10002036:	68e2      	ldr	r2, [r4, #12]
10002038:	60da      	str	r2, [r3, #12]
1000203a:	2300      	movs	r3, #0
1000203c:	60e3      	str	r3, [r4, #12]
1000203e:	4620      	mov	r0, r4
10002040:	f7ff ffc7 	bl	10001fd2 <tcp_pcb_purge>
10002044:	7d23      	ldrb	r3, [r4, #20]
10002046:	2b0a      	cmp	r3, #10
10002048:	d005      	beq.n	10002056 <tcp_pcb_remove+0x3c>
1000204a:	2b01      	cmp	r3, #1
1000204c:	d003      	beq.n	10002056 <tcp_pcb_remove+0x3c>
1000204e:	8b63      	ldrh	r3, [r4, #26]
10002050:	f013 0f01 	tst.w	r3, #1
10002054:	d103      	bne.n	1000205e <tcp_pcb_remove+0x44>
10002056:	2300      	movs	r3, #0
10002058:	7523      	strb	r3, [r4, #20]
1000205a:	82e3      	strh	r3, [r4, #22]
1000205c:	bd10      	pop	{r4, pc}
1000205e:	f043 0302 	orr.w	r3, r3, #2
10002062:	8363      	strh	r3, [r4, #26]
10002064:	4620      	mov	r0, r4
10002066:	f002 fd6b 	bl	10004b40 <tcp_output>
1000206a:	e7f4      	b.n	10002056 <tcp_pcb_remove+0x3c>

1000206c <tcp_abandon>:
1000206c:	2800      	cmp	r0, #0
1000206e:	d061      	beq.n	10002134 <tcp_abandon+0xc8>
10002070:	e92d 47f0 	stmdb	sp!, {r4, r5, r6, r7, r8, r9, sl, lr}
10002074:	b084      	sub	sp, #16
10002076:	460d      	mov	r5, r1
10002078:	4604      	mov	r4, r0
1000207a:	7d03      	ldrb	r3, [r0, #20]
1000207c:	2b0a      	cmp	r3, #10
1000207e:	d017      	beq.n	100020b0 <tcp_abandon+0x44>
10002080:	f8d0 8050 	ldr.w	r8, [r0, #80]	@ 0x50
10002084:	f8d0 9024 	ldr.w	r9, [r0, #36]	@ 0x24
10002088:	f8d0 6090 	ldr.w	r6, [r0, #144]	@ 0x90
1000208c:	6907      	ldr	r7, [r0, #16]
1000208e:	2b00      	cmp	r3, #0
10002090:	d137      	bne.n	10002102 <tcp_abandon+0x96>
10002092:	f8b0 a016 	ldrh.w	sl, [r0, #22]
10002096:	f1ba 0f00 	cmp.w	sl, #0
1000209a:	d03c      	beq.n	10002116 <tcp_abandon+0xaa>
1000209c:	4b26      	ldr	r3, [pc, #152]	@ (10002138 <tcp_abandon+0xcc>)
1000209e:	681b      	ldr	r3, [r3, #0]
100020a0:	4283      	cmp	r3, r0
100020a2:	d00d      	beq.n	100020c0 <tcp_abandon+0x54>
100020a4:	b193      	cbz	r3, 100020cc <tcp_abandon+0x60>
100020a6:	68da      	ldr	r2, [r3, #12]
100020a8:	42a2      	cmp	r2, r4
100020aa:	d00d      	beq.n	100020c8 <tcp_abandon+0x5c>
100020ac:	4613      	mov	r3, r2
100020ae:	e7f9      	b.n	100020a4 <tcp_abandon+0x38>
100020b0:	4601      	mov	r1, r0
100020b2:	4822      	ldr	r0, [pc, #136]	@ (1000213c <tcp_abandon+0xd0>)
100020b4:	f7ff ffb1 	bl	1000201a <tcp_pcb_remove>
100020b8:	4620      	mov	r0, r4
100020ba:	f7ff fda8 	bl	10001c0e <tcp_free>
100020be:	e01d      	b.n	100020fc <tcp_abandon+0x90>
100020c0:	68da      	ldr	r2, [r3, #12]
100020c2:	4b1d      	ldr	r3, [pc, #116]	@ (10002138 <tcp_abandon+0xcc>)
100020c4:	601a      	str	r2, [r3, #0]
100020c6:	e001      	b.n	100020cc <tcp_abandon+0x60>
100020c8:	68e2      	ldr	r2, [r4, #12]
100020ca:	60da      	str	r2, [r3, #12]
100020cc:	2500      	movs	r5, #0
100020ce:	60e5      	str	r5, [r4, #12]
100020d0:	46aa      	mov	sl, r5
100020d2:	6f20      	ldr	r0, [r4, #112]	@ 0x70
100020d4:	b108      	cbz	r0, 100020da <tcp_abandon+0x6e>
100020d6:	f7ff fe9b 	bl	10001e10 <tcp_segs_free>
100020da:	6ee0      	ldr	r0, [r4, #108]	@ 0x6c
100020dc:	b108      	cbz	r0, 100020e2 <tcp_abandon+0x76>
100020de:	f7ff fe97 	bl	10001e10 <tcp_segs_free>
100020e2:	6f60      	ldr	r0, [r4, #116]	@ 0x74
100020e4:	b108      	cbz	r0, 100020ea <tcp_abandon+0x7e>
100020e6:	f7ff fe93 	bl	10001e10 <tcp_segs_free>
100020ea:	b9b5      	cbnz	r5, 1000211a <tcp_abandon+0xae>
100020ec:	4620      	mov	r0, r4
100020ee:	f7ff fd8e 	bl	10001c0e <tcp_free>
100020f2:	b11e      	cbz	r6, 100020fc <tcp_abandon+0x90>
100020f4:	f06f 010c 	mvn.w	r1, #12
100020f8:	4638      	mov	r0, r7
100020fa:	47b0      	blx	r6
100020fc:	b004      	add	sp, #16
100020fe:	e8bd 87f0 	ldmia.w	sp!, {r4, r5, r6, r7, r8, r9, sl, pc}
10002102:	f8b0 a016 	ldrh.w	sl, [r0, #22]
10002106:	4601      	mov	r1, r0
10002108:	480d      	ldr	r0, [pc, #52]	@ (10002140 <tcp_abandon+0xd4>)
1000210a:	f7ff ff86 	bl	1000201a <tcp_pcb_remove>
1000210e:	4b0d      	ldr	r3, [pc, #52]	@ (10002144 <tcp_abandon+0xd8>)
10002110:	2201      	movs	r2, #1
10002112:	701a      	strb	r2, [r3, #0]
10002114:	e7dd      	b.n	100020d2 <tcp_abandon+0x66>
10002116:	2500      	movs	r5, #0
10002118:	e7db      	b.n	100020d2 <tcp_abandon+0x66>
1000211a:	1d23      	adds	r3, r4, #4
1000211c:	8b22      	ldrh	r2, [r4, #24]
1000211e:	9202      	str	r2, [sp, #8]
10002120:	f8cd a004 	str.w	sl, [sp, #4]
10002124:	9300      	str	r3, [sp, #0]
10002126:	4623      	mov	r3, r4
10002128:	464a      	mov	r2, r9
1000212a:	4641      	mov	r1, r8
1000212c:	4620      	mov	r0, r4
1000212e:	f002 fcb0 	bl	10004a92 <tcp_rst>
10002132:	e7db      	b.n	100020ec <tcp_abandon+0x80>
10002134:	4770      	bx	lr
10002136:	bf00      	nop
10002138:	20005f1c 	.word	0x20005f1c
1000213c:	20005f2c 	.word	0x20005f2c
10002140:	20005f18 	.word	0x20005f18
10002144:	20005f62 	.word	0x20005f62

10002148 <tcp_abort>:
10002148:	b508      	push	{r3, lr}
1000214a:	2101      	movs	r1, #1
1000214c:	f7ff ff8e 	bl	1000206c <tcp_abandon>
10002150:	bd08      	pop	{r3, pc}

10002152 <tcp_accept_null>:
10002152:	b508      	push	{r3, lr}
10002154:	4608      	mov	r0, r1
10002156:	f7ff fff7 	bl	10002148 <tcp_abort>
1000215a:	f06f 000c 	mvn.w	r0, #12
1000215e:	bd08      	pop	{r3, pc}

10002160 <tcp_kill_timewait>:
10002160:	b508      	push	{r3, lr}
10002162:	4b0a      	ldr	r3, [pc, #40]	@ (1000218c <tcp_kill_timewait+0x2c>)
10002164:	681b      	ldr	r3, [r3, #0]
10002166:	f04f 0c00 	mov.w	ip, #0
1000216a:	4660      	mov	r0, ip
1000216c:	e000      	b.n	10002170 <tcp_kill_timewait+0x10>
1000216e:	68db      	ldr	r3, [r3, #12]
10002170:	b143      	cbz	r3, 10002184 <tcp_kill_timewait+0x24>
10002172:	6a19      	ldr	r1, [r3, #32]
10002174:	4a06      	ldr	r2, [pc, #24]	@ (10002190 <tcp_kill_timewait+0x30>)
10002176:	6812      	ldr	r2, [r2, #0]
10002178:	1a52      	subs	r2, r2, r1
1000217a:	4562      	cmp	r2, ip
1000217c:	d3f7      	bcc.n	1000216e <tcp_kill_timewait+0xe>
1000217e:	4694      	mov	ip, r2
10002180:	4618      	mov	r0, r3
10002182:	e7f4      	b.n	1000216e <tcp_kill_timewait+0xe>
10002184:	b108      	cbz	r0, 1000218a <tcp_kill_timewait+0x2a>
10002186:	f7ff ffdf 	bl	10002148 <tcp_abort>
1000218a:	bd08      	pop	{r3, pc}
1000218c:	20005f2c 	.word	0x20005f2c
10002190:	20005f28 	.word	0x20005f28

10002194 <tcp_kill_prio>:
10002194:	f010 0f80 	tst.w	r0, #128	@ 0x80
10002198:	d101      	bne.n	1000219e <tcp_kill_prio+0xa>
1000219a:	b908      	cbnz	r0, 100021a0 <tcp_kill_prio+0xc>
1000219c:	4770      	bx	lr
1000219e:	207f      	movs	r0, #127	@ 0x7f
100021a0:	b538      	push	{r3, r4, r5, lr}
100021a2:	3801      	subs	r0, #1
100021a4:	b2c2      	uxtb	r2, r0
100021a6:	4b0f      	ldr	r3, [pc, #60]	@ (100021e4 <tcp_kill_prio+0x50>)
100021a8:	681b      	ldr	r3, [r3, #0]
100021aa:	f04f 0c00 	mov.w	ip, #0
100021ae:	4660      	mov	r0, ip
100021b0:	e007      	b.n	100021c2 <tcp_kill_prio+0x2e>
100021b2:	4a0d      	ldr	r2, [pc, #52]	@ (100021e8 <tcp_kill_prio+0x54>)
100021b4:	6812      	ldr	r2, [r2, #0]
100021b6:	6a18      	ldr	r0, [r3, #32]
100021b8:	eba2 0c00 	sub.w	ip, r2, r0
100021bc:	460a      	mov	r2, r1
100021be:	4618      	mov	r0, r3
100021c0:	68db      	ldr	r3, [r3, #12]
100021c2:	b15b      	cbz	r3, 100021dc <tcp_kill_prio+0x48>
100021c4:	7d59      	ldrb	r1, [r3, #21]
100021c6:	4291      	cmp	r1, r2
100021c8:	d3f3      	bcc.n	100021b2 <tcp_kill_prio+0x1e>
100021ca:	d1f9      	bne.n	100021c0 <tcp_kill_prio+0x2c>
100021cc:	4c06      	ldr	r4, [pc, #24]	@ (100021e8 <tcp_kill_prio+0x54>)
100021ce:	6824      	ldr	r4, [r4, #0]
100021d0:	6a1d      	ldr	r5, [r3, #32]
100021d2:	eba4 0e05 	sub.w	lr, r4, r5
100021d6:	45e6      	cmp	lr, ip
100021d8:	d3f2      	bcc.n	100021c0 <tcp_kill_prio+0x2c>
100021da:	e7ea      	b.n	100021b2 <tcp_kill_prio+0x1e>
100021dc:	b108      	cbz	r0, 100021e2 <tcp_kill_prio+0x4e>
100021de:	f7ff ffb3 	bl	10002148 <tcp_abort>
100021e2:	bd38      	pop	{r3, r4, r5, pc}
100021e4:	20005f18 	.word	0x20005f18
100021e8:	20005f28 	.word	0x20005f28

100021ec <tcp_netif_ip_addr_changed_pcblist>:
100021ec:	b538      	push	{r3, r4, r5, lr}
100021ee:	4604      	mov	r4, r0
100021f0:	4608      	mov	r0, r1
100021f2:	e003      	b.n	100021fc <tcp_netif_ip_addr_changed_pcblist+0x10>
100021f4:	68c5      	ldr	r5, [r0, #12]
100021f6:	f7ff ffa7 	bl	10002148 <tcp_abort>
100021fa:	4628      	mov	r0, r5
100021fc:	b128      	cbz	r0, 1000220a <tcp_netif_ip_addr_changed_pcblist+0x1e>
100021fe:	6802      	ldr	r2, [r0, #0]
10002200:	6823      	ldr	r3, [r4, #0]
10002202:	429a      	cmp	r2, r3
10002204:	d0f6      	beq.n	100021f4 <tcp_netif_ip_addr_changed_pcblist+0x8>
10002206:	68c0      	ldr	r0, [r0, #12]
10002208:	e7f8      	b.n	100021fc <tcp_netif_ip_addr_changed_pcblist+0x10>
1000220a:	bd38      	pop	{r3, r4, r5, pc}

1000220c <tcp_netif_ip_addr_changed>:
1000220c:	b300      	cbz	r0, 10002250 <tcp_netif_ip_addr_changed+0x44>
1000220e:	b538      	push	{r3, r4, r5, lr}
10002210:	460d      	mov	r5, r1
10002212:	4604      	mov	r4, r0
10002214:	6803      	ldr	r3, [r0, #0]
10002216:	b903      	cbnz	r3, 1000221a <tcp_netif_ip_addr_changed+0xe>
10002218:	bd38      	pop	{r3, r4, r5, pc}
1000221a:	4b0e      	ldr	r3, [pc, #56]	@ (10002254 <tcp_netif_ip_addr_changed+0x48>)
1000221c:	6819      	ldr	r1, [r3, #0]
1000221e:	f7ff ffe5 	bl	100021ec <tcp_netif_ip_addr_changed_pcblist>
10002222:	4b0d      	ldr	r3, [pc, #52]	@ (10002258 <tcp_netif_ip_addr_changed+0x4c>)
10002224:	6819      	ldr	r1, [r3, #0]
10002226:	4620      	mov	r0, r4
10002228:	f7ff ffe0 	bl	100021ec <tcp_netif_ip_addr_changed_pcblist>
1000222c:	2d00      	cmp	r5, #0
1000222e:	d0f3      	beq.n	10002218 <tcp_netif_ip_addr_changed+0xc>
10002230:	682b      	ldr	r3, [r5, #0]
10002232:	2b00      	cmp	r3, #0
10002234:	d0f0      	beq.n	10002218 <tcp_netif_ip_addr_changed+0xc>
10002236:	4b09      	ldr	r3, [pc, #36]	@ (1000225c <tcp_netif_ip_addr_changed+0x50>)
10002238:	681b      	ldr	r3, [r3, #0]
1000223a:	e000      	b.n	1000223e <tcp_netif_ip_addr_changed+0x32>
1000223c:	68db      	ldr	r3, [r3, #12]
1000223e:	2b00      	cmp	r3, #0
10002240:	d0ea      	beq.n	10002218 <tcp_netif_ip_addr_changed+0xc>
10002242:	6819      	ldr	r1, [r3, #0]
10002244:	6822      	ldr	r2, [r4, #0]
10002246:	4291      	cmp	r1, r2
10002248:	d1f8      	bne.n	1000223c <tcp_netif_ip_addr_changed+0x30>
1000224a:	682a      	ldr	r2, [r5, #0]
1000224c:	601a      	str	r2, [r3, #0]
1000224e:	e7f5      	b.n	1000223c <tcp_netif_ip_addr_changed+0x30>
10002250:	4770      	bx	lr
10002252:	bf00      	nop
10002254:	20005f18 	.word	0x20005f18
10002258:	20005f1c 	.word	0x20005f1c
1000225c:	20005f24 	.word	0x20005f24

10002260 <tcp_kill_state>:
10002260:	b510      	push	{r4, lr}
10002262:	4601      	mov	r1, r0
10002264:	4b0c      	ldr	r3, [pc, #48]	@ (10002298 <tcp_kill_state+0x38>)
10002266:	681b      	ldr	r3, [r3, #0]
10002268:	f04f 0c00 	mov.w	ip, #0
1000226c:	4660      	mov	r0, ip
1000226e:	e000      	b.n	10002272 <tcp_kill_state+0x12>
10002270:	68db      	ldr	r3, [r3, #12]
10002272:	b15b      	cbz	r3, 1000228c <tcp_kill_state+0x2c>
10002274:	7d1a      	ldrb	r2, [r3, #20]
10002276:	428a      	cmp	r2, r1
10002278:	d1fa      	bne.n	10002270 <tcp_kill_state+0x10>
1000227a:	4a08      	ldr	r2, [pc, #32]	@ (1000229c <tcp_kill_state+0x3c>)
1000227c:	6812      	ldr	r2, [r2, #0]
1000227e:	6a1c      	ldr	r4, [r3, #32]
10002280:	1b12      	subs	r2, r2, r4
10002282:	4562      	cmp	r2, ip
10002284:	d3f4      	bcc.n	10002270 <tcp_kill_state+0x10>
10002286:	4694      	mov	ip, r2
10002288:	4618      	mov	r0, r3
1000228a:	e7f1      	b.n	10002270 <tcp_kill_state+0x10>
1000228c:	b110      	cbz	r0, 10002294 <tcp_kill_state+0x34>
1000228e:	2100      	movs	r1, #0
10002290:	f7ff feec 	bl	1000206c <tcp_abandon>
10002294:	bd10      	pop	{r4, pc}
10002296:	bf00      	nop
10002298:	20005f18 	.word	0x20005f18
1000229c:	20005f28 	.word	0x20005f28

100022a0 <tcp_alloc>:
100022a0:	b538      	push	{r3, r4, r5, lr}
100022a2:	4605      	mov	r5, r0
100022a4:	2001      	movs	r0, #1
100022a6:	f7ff f829 	bl	100012fc <memp_malloc>
100022aa:	4604      	mov	r4, r0
100022ac:	b350      	cbz	r0, 10002304 <tcp_alloc+0x64>
100022ae:	229c      	movs	r2, #156	@ 0x9c
100022b0:	2100      	movs	r1, #0
100022b2:	4620      	mov	r0, r4
100022b4:	f00a fb20 	bl	1000c8f8 <memset>
100022b8:	7565      	strb	r5, [r4, #21]
100022ba:	f241 63d0 	movw	r3, #5840	@ 0x16d0
100022be:	f8a4 3064 	strh.w	r3, [r4, #100]	@ 0x64
100022c2:	8563      	strh	r3, [r4, #42]	@ 0x2a
100022c4:	8523      	strh	r3, [r4, #40]	@ 0x28
100022c6:	22ff      	movs	r2, #255	@ 0xff
100022c8:	72e2      	strb	r2, [r4, #11]
100022ca:	f44f 7206 	mov.w	r2, #536	@ 0x218
100022ce:	8662      	strh	r2, [r4, #50]	@ 0x32
100022d0:	2206      	movs	r2, #6
100022d2:	f8a4 2040 	strh.w	r2, [r4, #64]	@ 0x40
100022d6:	87e2      	strh	r2, [r4, #62]	@ 0x3e
100022d8:	f64f 72ff 	movw	r2, #65535	@ 0xffff
100022dc:	8622      	strh	r2, [r4, #48]	@ 0x30
100022de:	2201      	movs	r2, #1
100022e0:	f8a4 2048 	strh.w	r2, [r4, #72]	@ 0x48
100022e4:	4a29      	ldr	r2, [pc, #164]	@ (1000238c <tcp_alloc+0xec>)
100022e6:	6812      	ldr	r2, [r2, #0]
100022e8:	6222      	str	r2, [r4, #32]
100022ea:	4a29      	ldr	r2, [pc, #164]	@ (10002390 <tcp_alloc+0xf0>)
100022ec:	7812      	ldrb	r2, [r2, #0]
100022ee:	77a2      	strb	r2, [r4, #30]
100022f0:	f8a4 304a 	strh.w	r3, [r4, #74]	@ 0x4a
100022f4:	4b27      	ldr	r3, [pc, #156]	@ (10002394 <tcp_alloc+0xf4>)
100022f6:	f8c4 3084 	str.w	r3, [r4, #132]	@ 0x84
100022fa:	4b27      	ldr	r3, [pc, #156]	@ (10002398 <tcp_alloc+0xf8>)
100022fc:	f8c4 3094 	str.w	r3, [r4, #148]	@ 0x94
10002300:	4620      	mov	r0, r4
10002302:	bd38      	pop	{r3, r4, r5, pc}
10002304:	f7ff fc6c 	bl	10001be0 <tcp_handle_closepend>
10002308:	f7ff ff2a 	bl	10002160 <tcp_kill_timewait>
1000230c:	2001      	movs	r0, #1
1000230e:	f7fe fff5 	bl	100012fc <memp_malloc>
10002312:	4604      	mov	r4, r0
10002314:	b140      	cbz	r0, 10002328 <tcp_alloc+0x88>
10002316:	4b21      	ldr	r3, [pc, #132]	@ (1000239c <tcp_alloc+0xfc>)
10002318:	f8d3 20b8 	ldr.w	r2, [r3, #184]	@ 0xb8
1000231c:	8813      	ldrh	r3, [r2, #0]
1000231e:	3b01      	subs	r3, #1
10002320:	8013      	strh	r3, [r2, #0]
10002322:	2c00      	cmp	r4, #0
10002324:	d1c3      	bne.n	100022ae <tcp_alloc+0xe>
10002326:	e7eb      	b.n	10002300 <tcp_alloc+0x60>
10002328:	2009      	movs	r0, #9
1000232a:	f7ff ff99 	bl	10002260 <tcp_kill_state>
1000232e:	2001      	movs	r0, #1
10002330:	f7fe ffe4 	bl	100012fc <memp_malloc>
10002334:	4604      	mov	r4, r0
10002336:	b140      	cbz	r0, 1000234a <tcp_alloc+0xaa>
10002338:	4b18      	ldr	r3, [pc, #96]	@ (1000239c <tcp_alloc+0xfc>)
1000233a:	f8d3 20b8 	ldr.w	r2, [r3, #184]	@ 0xb8
1000233e:	8813      	ldrh	r3, [r2, #0]
10002340:	3b01      	subs	r3, #1
10002342:	8013      	strh	r3, [r2, #0]
10002344:	2c00      	cmp	r4, #0
10002346:	d1e6      	bne.n	10002316 <tcp_alloc+0x76>
10002348:	e7da      	b.n	10002300 <tcp_alloc+0x60>
1000234a:	2008      	movs	r0, #8
1000234c:	f7ff ff88 	bl	10002260 <tcp_kill_state>
10002350:	2001      	movs	r0, #1
10002352:	f7fe ffd3 	bl	100012fc <memp_malloc>
10002356:	4604      	mov	r4, r0
10002358:	b140      	cbz	r0, 1000236c <tcp_alloc+0xcc>
1000235a:	4b10      	ldr	r3, [pc, #64]	@ (1000239c <tcp_alloc+0xfc>)
1000235c:	f8d3 20b8 	ldr.w	r2, [r3, #184]	@ 0xb8
10002360:	8813      	ldrh	r3, [r2, #0]
10002362:	3b01      	subs	r3, #1
10002364:	8013      	strh	r3, [r2, #0]
10002366:	2c00      	cmp	r4, #0
10002368:	d1e6      	bne.n	10002338 <tcp_alloc+0x98>
1000236a:	e7c9      	b.n	10002300 <tcp_alloc+0x60>
1000236c:	4628      	mov	r0, r5
1000236e:	f7ff ff11 	bl	10002194 <tcp_kill_prio>
10002372:	2001      	movs	r0, #1
10002374:	f7fe ffc2 	bl	100012fc <memp_malloc>
10002378:	4604      	mov	r4, r0
1000237a:	2800      	cmp	r0, #0
1000237c:	d0c0      	beq.n	10002300 <tcp_alloc+0x60>
1000237e:	4b07      	ldr	r3, [pc, #28]	@ (1000239c <tcp_alloc+0xfc>)
10002380:	f8d3 20b8 	ldr.w	r2, [r3, #184]	@ 0xb8
10002384:	8813      	ldrh	r3, [r2, #0]
10002386:	3b01      	subs	r3, #1
10002388:	8013      	strh	r3, [r2, #0]
1000238a:	e7e6      	b.n	1000235a <tcp_alloc+0xba>
1000238c:	20005f28 	.word	0x20005f28
10002390:	20005f64 	.word	0x20005f64
10002394:	100024e5 	.word	0x100024e5
10002398:	006ddd00 	.word	0x006ddd00
1000239c:	20001db0 	.word	0x20001db0

100023a0 <tcp_new_ip_type>:
100023a0:	b508      	push	{r3, lr}
100023a2:	2040      	movs	r0, #64	@ 0x40
100023a4:	f7ff ff7c 	bl	100022a0 <tcp_alloc>
100023a8:	bd08      	pop	{r3, pc}
	...

100023ac <tcp_close_shutdown>:
100023ac:	b510      	push	{r4, lr}
100023ae:	b084      	sub	sp, #16
100023b0:	4604      	mov	r4, r0
100023b2:	b121      	cbz	r1, 100023be <tcp_close_shutdown+0x12>
100023b4:	7d03      	ldrb	r3, [r0, #20]
100023b6:	2b04      	cmp	r3, #4
100023b8:	d016      	beq.n	100023e8 <tcp_close_shutdown+0x3c>
100023ba:	2b07      	cmp	r3, #7
100023bc:	d014      	beq.n	100023e8 <tcp_close_shutdown+0x3c>
100023be:	7d23      	ldrb	r3, [r4, #20]
100023c0:	2b01      	cmp	r3, #1
100023c2:	d056      	beq.n	10002472 <tcp_close_shutdown+0xc6>
100023c4:	2b02      	cmp	r3, #2
100023c6:	d060      	beq.n	1000248a <tcp_close_shutdown+0xde>
100023c8:	2b00      	cmp	r3, #0
100023ca:	d16a      	bne.n	100024a2 <tcp_close_shutdown+0xf6>
100023cc:	8ae3      	ldrh	r3, [r4, #22]
100023ce:	2b00      	cmp	r3, #0
100023d0:	d049      	beq.n	10002466 <tcp_close_shutdown+0xba>
100023d2:	4b36      	ldr	r3, [pc, #216]	@ (100024ac <tcp_close_shutdown+0x100>)
100023d4:	681b      	ldr	r3, [r3, #0]
100023d6:	42a3      	cmp	r3, r4
100023d8:	d03d      	beq.n	10002456 <tcp_close_shutdown+0xaa>
100023da:	2b00      	cmp	r3, #0
100023dc:	d041      	beq.n	10002462 <tcp_close_shutdown+0xb6>
100023de:	68da      	ldr	r2, [r3, #12]
100023e0:	42a2      	cmp	r2, r4
100023e2:	d03c      	beq.n	1000245e <tcp_close_shutdown+0xb2>
100023e4:	4613      	mov	r3, r2
100023e6:	e7f8      	b.n	100023da <tcp_close_shutdown+0x2e>
100023e8:	6fa3      	ldr	r3, [r4, #120]	@ 0x78
100023ea:	b923      	cbnz	r3, 100023f6 <tcp_close_shutdown+0x4a>
100023ec:	8d22      	ldrh	r2, [r4, #40]	@ 0x28
100023ee:	f241 63d0 	movw	r3, #5840	@ 0x16d0
100023f2:	429a      	cmp	r2, r3
100023f4:	d0e3      	beq.n	100023be <tcp_close_shutdown+0x12>
100023f6:	1d23      	adds	r3, r4, #4
100023f8:	8b22      	ldrh	r2, [r4, #24]
100023fa:	9202      	str	r2, [sp, #8]
100023fc:	8ae2      	ldrh	r2, [r4, #22]
100023fe:	9201      	str	r2, [sp, #4]
10002400:	9300      	str	r3, [sp, #0]
10002402:	4623      	mov	r3, r4
10002404:	6a62      	ldr	r2, [r4, #36]	@ 0x24
10002406:	6d21      	ldr	r1, [r4, #80]	@ 0x50
10002408:	4620      	mov	r0, r4
1000240a:	f002 fb42 	bl	10004a92 <tcp_rst>
1000240e:	4620      	mov	r0, r4
10002410:	f7ff fddf 	bl	10001fd2 <tcp_pcb_purge>
10002414:	4b26      	ldr	r3, [pc, #152]	@ (100024b0 <tcp_close_shutdown+0x104>)
10002416:	681b      	ldr	r3, [r3, #0]
10002418:	42a3      	cmp	r3, r4
1000241a:	d005      	beq.n	10002428 <tcp_close_shutdown+0x7c>
1000241c:	b153      	cbz	r3, 10002434 <tcp_close_shutdown+0x88>
1000241e:	68da      	ldr	r2, [r3, #12]
10002420:	42a2      	cmp	r2, r4
10002422:	d005      	beq.n	10002430 <tcp_close_shutdown+0x84>
10002424:	4613      	mov	r3, r2
10002426:	e7f9      	b.n	1000241c <tcp_close_shutdown+0x70>
10002428:	68da      	ldr	r2, [r3, #12]
1000242a:	4b21      	ldr	r3, [pc, #132]	@ (100024b0 <tcp_close_shutdown+0x104>)
1000242c:	601a      	str	r2, [r3, #0]
1000242e:	e001      	b.n	10002434 <tcp_close_shutdown+0x88>
10002430:	68e2      	ldr	r2, [r4, #12]
10002432:	60da      	str	r2, [r3, #12]
10002434:	2300      	movs	r3, #0
10002436:	60e3      	str	r3, [r4, #12]
10002438:	4b1e      	ldr	r3, [pc, #120]	@ (100024b4 <tcp_close_shutdown+0x108>)
1000243a:	2201      	movs	r2, #1
1000243c:	701a      	strb	r2, [r3, #0]
1000243e:	4b1e      	ldr	r3, [pc, #120]	@ (100024b8 <tcp_close_shutdown+0x10c>)
10002440:	681b      	ldr	r3, [r3, #0]
10002442:	42a3      	cmp	r3, r4
10002444:	d004      	beq.n	10002450 <tcp_close_shutdown+0xa4>
10002446:	4620      	mov	r0, r4
10002448:	f7ff fbe1 	bl	10001c0e <tcp_free>
1000244c:	2000      	movs	r0, #0
1000244e:	e00e      	b.n	1000246e <tcp_close_shutdown+0xc2>
10002450:	f001 fd90 	bl	10003f74 <tcp_trigger_input_pcb_close>
10002454:	e7fa      	b.n	1000244c <tcp_close_shutdown+0xa0>
10002456:	68da      	ldr	r2, [r3, #12]
10002458:	4b14      	ldr	r3, [pc, #80]	@ (100024ac <tcp_close_shutdown+0x100>)
1000245a:	601a      	str	r2, [r3, #0]
1000245c:	e001      	b.n	10002462 <tcp_close_shutdown+0xb6>
1000245e:	68e2      	ldr	r2, [r4, #12]
10002460:	60da      	str	r2, [r3, #12]
10002462:	2300      	movs	r3, #0
10002464:	60e3      	str	r3, [r4, #12]
10002466:	4620      	mov	r0, r4
10002468:	f7ff fbd1 	bl	10001c0e <tcp_free>
1000246c:	2000      	movs	r0, #0
1000246e:	b004      	add	sp, #16
10002470:	bd10      	pop	{r4, pc}
10002472:	4620      	mov	r0, r4
10002474:	f7ff fb3a 	bl	10001aec <tcp_listen_closed>
10002478:	4621      	mov	r1, r4
1000247a:	4810      	ldr	r0, [pc, #64]	@ (100024bc <tcp_close_shutdown+0x110>)
1000247c:	f7ff fdcd 	bl	1000201a <tcp_pcb_remove>
10002480:	4620      	mov	r0, r4
10002482:	f7ff fb79 	bl	10001b78 <tcp_free_listen>
10002486:	2000      	movs	r0, #0
10002488:	e7f1      	b.n	1000246e <tcp_close_shutdown+0xc2>
1000248a:	4621      	mov	r1, r4
1000248c:	4808      	ldr	r0, [pc, #32]	@ (100024b0 <tcp_close_shutdown+0x104>)
1000248e:	f7ff fdc4 	bl	1000201a <tcp_pcb_remove>
10002492:	4b08      	ldr	r3, [pc, #32]	@ (100024b4 <tcp_close_shutdown+0x108>)
10002494:	2201      	movs	r2, #1
10002496:	701a      	strb	r2, [r3, #0]
10002498:	4620      	mov	r0, r4
1000249a:	f7ff fbb8 	bl	10001c0e <tcp_free>
1000249e:	2000      	movs	r0, #0
100024a0:	e7e5      	b.n	1000246e <tcp_close_shutdown+0xc2>
100024a2:	4620      	mov	r0, r4
100024a4:	f7ff fb6e 	bl	10001b84 <tcp_close_shutdown_fin>
100024a8:	e7e1      	b.n	1000246e <tcp_close_shutdown+0xc2>
100024aa:	bf00      	nop
100024ac:	20005f1c 	.word	0x20005f1c
100024b0:	20005f18 	.word	0x20005f18
100024b4:	20005f62 	.word	0x20005f62
100024b8:	20005f20 	.word	0x20005f20
100024bc:	20005f24 	.word	0x20005f24

100024c0 <tcp_close>:
100024c0:	b168      	cbz	r0, 100024de <tcp_close+0x1e>
100024c2:	b508      	push	{r3, lr}
100024c4:	4603      	mov	r3, r0
100024c6:	7d02      	ldrb	r2, [r0, #20]
100024c8:	2a01      	cmp	r2, #1
100024ca:	d003      	beq.n	100024d4 <tcp_close+0x14>
100024cc:	8b42      	ldrh	r2, [r0, #26]
100024ce:	f042 0210 	orr.w	r2, r2, #16
100024d2:	8342      	strh	r2, [r0, #26]
100024d4:	2101      	movs	r1, #1
100024d6:	4618      	mov	r0, r3
100024d8:	f7ff ff68 	bl	100023ac <tcp_close_shutdown>
100024dc:	bd08      	pop	{r3, pc}
100024de:	f06f 000f 	mvn.w	r0, #15
100024e2:	4770      	bx	lr

100024e4 <tcp_recv_null>:
100024e4:	b189      	cbz	r1, 1000250a <tcp_recv_null+0x26>
100024e6:	b510      	push	{r4, lr}
100024e8:	4614      	mov	r4, r2
100024ea:	4608      	mov	r0, r1
100024ec:	b13a      	cbz	r2, 100024fe <tcp_recv_null+0x1a>
100024ee:	8911      	ldrh	r1, [r2, #8]
100024f0:	f7ff fc5f 	bl	10001db2 <tcp_recved>
100024f4:	4620      	mov	r0, r4
100024f6:	f7ff f8ca 	bl	1000168e <pbuf_free>
100024fa:	2000      	movs	r0, #0
100024fc:	bd10      	pop	{r4, pc}
100024fe:	b10b      	cbz	r3, 10002504 <tcp_recv_null+0x20>
10002500:	2000      	movs	r0, #0
10002502:	e7fb      	b.n	100024fc <tcp_recv_null+0x18>
10002504:	f7ff ffdc 	bl	100024c0 <tcp_close>
10002508:	e7f8      	b.n	100024fc <tcp_recv_null+0x18>
1000250a:	f06f 000f 	mvn.w	r0, #15
1000250e:	4770      	bx	lr

10002510 <tcp_process_refused_data>:
10002510:	b5f8      	push	{r3, r4, r5, r6, r7, lr}
10002512:	b3a0      	cbz	r0, 1000257e <tcp_process_refused_data+0x6e>
10002514:	4604      	mov	r4, r0
10002516:	6f86      	ldr	r6, [r0, #120]	@ 0x78
10002518:	7b77      	ldrb	r7, [r6, #13]
1000251a:	2300      	movs	r3, #0
1000251c:	6783      	str	r3, [r0, #120]	@ 0x78
1000251e:	f8d0 5084 	ldr.w	r5, [r0, #132]	@ 0x84
10002522:	b1e5      	cbz	r5, 1000255e <tcp_process_refused_data+0x4e>
10002524:	4632      	mov	r2, r6
10002526:	4601      	mov	r1, r0
10002528:	6900      	ldr	r0, [r0, #16]
1000252a:	47a8      	blx	r5
1000252c:	4605      	mov	r5, r0
1000252e:	b9f5      	cbnz	r5, 1000256e <tcp_process_refused_data+0x5e>
10002530:	f017 0f20 	tst.w	r7, #32
10002534:	d021      	beq.n	1000257a <tcp_process_refused_data+0x6a>
10002536:	8d23      	ldrh	r3, [r4, #40]	@ 0x28
10002538:	f241 62d0 	movw	r2, #5840	@ 0x16d0
1000253c:	4293      	cmp	r3, r2
1000253e:	d001      	beq.n	10002544 <tcp_process_refused_data+0x34>
10002540:	3301      	adds	r3, #1
10002542:	8523      	strh	r3, [r4, #40]	@ 0x28
10002544:	f8d4 6084 	ldr.w	r6, [r4, #132]	@ 0x84
10002548:	b1be      	cbz	r6, 1000257a <tcp_process_refused_data+0x6a>
1000254a:	2300      	movs	r3, #0
1000254c:	461a      	mov	r2, r3
1000254e:	4621      	mov	r1, r4
10002550:	6920      	ldr	r0, [r4, #16]
10002552:	47b0      	blx	r6
10002554:	f110 0f0d 	cmn.w	r0, #13
10002558:	d10f      	bne.n	1000257a <tcp_process_refused_data+0x6a>
1000255a:	4605      	mov	r5, r0
1000255c:	e00d      	b.n	1000257a <tcp_process_refused_data+0x6a>
1000255e:	2300      	movs	r3, #0
10002560:	4632      	mov	r2, r6
10002562:	4601      	mov	r1, r0
10002564:	4618      	mov	r0, r3
10002566:	f7ff ffbd 	bl	100024e4 <tcp_recv_null>
1000256a:	4605      	mov	r5, r0
1000256c:	e7df      	b.n	1000252e <tcp_process_refused_data+0x1e>
1000256e:	f115 0f0d 	cmn.w	r5, #13
10002572:	d002      	beq.n	1000257a <tcp_process_refused_data+0x6a>
10002574:	67a6      	str	r6, [r4, #120]	@ 0x78
10002576:	f06f 0504 	mvn.w	r5, #4
1000257a:	4628      	mov	r0, r5
1000257c:	bdf8      	pop	{r3, r4, r5, r6, r7, pc}
1000257e:	f06f 050f 	mvn.w	r5, #15
10002582:	e7fa      	b.n	1000257a <tcp_process_refused_data+0x6a>

10002584 <tcp_fasttmr>:
10002584:	b570      	push	{r4, r5, r6, lr}
10002586:	4a1c      	ldr	r2, [pc, #112]	@ (100025f8 <tcp_fasttmr+0x74>)
10002588:	7813      	ldrb	r3, [r2, #0]
1000258a:	3301      	adds	r3, #1
1000258c:	7013      	strb	r3, [r2, #0]
1000258e:	4b1b      	ldr	r3, [pc, #108]	@ (100025fc <tcp_fasttmr+0x78>)
10002590:	681c      	ldr	r4, [r3, #0]
10002592:	e013      	b.n	100025bc <tcp_fasttmr+0x38>
10002594:	f043 0302 	orr.w	r3, r3, #2
10002598:	8363      	strh	r3, [r4, #26]
1000259a:	4620      	mov	r0, r4
1000259c:	f002 fad0 	bl	10004b40 <tcp_output>
100025a0:	8b63      	ldrh	r3, [r4, #26]
100025a2:	f023 0303 	bic.w	r3, r3, #3
100025a6:	8363      	strh	r3, [r4, #26]
100025a8:	e013      	b.n	100025d2 <tcp_fasttmr+0x4e>
100025aa:	f023 0308 	bic.w	r3, r3, #8
100025ae:	8363      	strh	r3, [r4, #26]
100025b0:	4620      	mov	r0, r4
100025b2:	f7ff fae7 	bl	10001b84 <tcp_close_shutdown_fin>
100025b6:	e010      	b.n	100025da <tcp_fasttmr+0x56>
100025b8:	68e5      	ldr	r5, [r4, #12]
100025ba:	462c      	mov	r4, r5
100025bc:	b1dc      	cbz	r4, 100025f6 <tcp_fasttmr+0x72>
100025be:	7fa2      	ldrb	r2, [r4, #30]
100025c0:	4b0d      	ldr	r3, [pc, #52]	@ (100025f8 <tcp_fasttmr+0x74>)
100025c2:	781b      	ldrb	r3, [r3, #0]
100025c4:	429a      	cmp	r2, r3
100025c6:	d0f7      	beq.n	100025b8 <tcp_fasttmr+0x34>
100025c8:	77a3      	strb	r3, [r4, #30]
100025ca:	8b63      	ldrh	r3, [r4, #26]
100025cc:	f013 0f01 	tst.w	r3, #1
100025d0:	d1e0      	bne.n	10002594 <tcp_fasttmr+0x10>
100025d2:	8b63      	ldrh	r3, [r4, #26]
100025d4:	f013 0f08 	tst.w	r3, #8
100025d8:	d1e7      	bne.n	100025aa <tcp_fasttmr+0x26>
100025da:	68e5      	ldr	r5, [r4, #12]
100025dc:	6fa3      	ldr	r3, [r4, #120]	@ 0x78
100025de:	2b00      	cmp	r3, #0
100025e0:	d0eb      	beq.n	100025ba <tcp_fasttmr+0x36>
100025e2:	4e07      	ldr	r6, [pc, #28]	@ (10002600 <tcp_fasttmr+0x7c>)
100025e4:	2300      	movs	r3, #0
100025e6:	7033      	strb	r3, [r6, #0]
100025e8:	4620      	mov	r0, r4
100025ea:	f7ff ff91 	bl	10002510 <tcp_process_refused_data>
100025ee:	7833      	ldrb	r3, [r6, #0]
100025f0:	2b00      	cmp	r3, #0
100025f2:	d0e2      	beq.n	100025ba <tcp_fasttmr+0x36>
100025f4:	e7cb      	b.n	1000258e <tcp_fasttmr+0xa>
100025f6:	bd70      	pop	{r4, r5, r6, pc}
100025f8:	20005f64 	.word	0x20005f64
100025fc:	20005f18 	.word	0x20005f18
10002600:	20005f62 	.word	0x20005f62

10002604 <tcp_slowtmr>:
10002604:	e92d 41f0 	stmdb	sp!, {r4, r5, r6, r7, r8, lr}
10002608:	b084      	sub	sp, #16
1000260a:	4aa6      	ldr	r2, [pc, #664]	@ (100028a4 <tcp_slowtmr+0x2a0>)
1000260c:	6813      	ldr	r3, [r2, #0]
1000260e:	3301      	adds	r3, #1
10002610:	6013      	str	r3, [r2, #0]
10002612:	4aa5      	ldr	r2, [pc, #660]	@ (100028a8 <tcp_slowtmr+0x2a4>)
10002614:	7813      	ldrb	r3, [r2, #0]
10002616:	3301      	adds	r3, #1
10002618:	7013      	strb	r3, [r2, #0]
1000261a:	4ba4      	ldr	r3, [pc, #656]	@ (100028ac <tcp_slowtmr+0x2a8>)
1000261c:	681c      	ldr	r4, [r3, #0]
1000261e:	2600      	movs	r6, #0
10002620:	e150      	b.n	100028c4 <tcp_slowtmr+0x2c0>
10002622:	4626      	mov	r6, r4
10002624:	68e4      	ldr	r4, [r4, #12]
10002626:	e14d      	b.n	100028c4 <tcp_slowtmr+0x2c0>
10002628:	f894 3042 	ldrb.w	r3, [r4, #66]	@ 0x42
1000262c:	2b05      	cmp	r3, #5
1000262e:	f240 8155 	bls.w	100028dc <tcp_slowtmr+0x2d8>
10002632:	2501      	movs	r5, #1
10002634:	e067      	b.n	10002706 <tcp_slowtmr+0x102>
10002636:	4620      	mov	r0, r4
10002638:	f002 f862 	bl	10004700 <tcp_split_unsent_seg>
1000263c:	b160      	cbz	r0, 10002658 <tcp_slowtmr+0x54>
1000263e:	2300      	movs	r3, #0
10002640:	f884 3098 	strb.w	r3, [r4, #152]	@ 0x98
10002644:	f894 3099 	ldrb.w	r3, [r4, #153]	@ 0x99
10002648:	2b06      	cmp	r3, #6
1000264a:	f200 80a0 	bhi.w	1000278e <tcp_slowtmr+0x18a>
1000264e:	3301      	adds	r3, #1
10002650:	f884 3099 	strb.w	r3, [r4, #153]	@ 0x99
10002654:	2500      	movs	r5, #0
10002656:	e056      	b.n	10002706 <tcp_slowtmr+0x102>
10002658:	4620      	mov	r0, r4
1000265a:	f002 fa71 	bl	10004b40 <tcp_output>
1000265e:	2800      	cmp	r0, #0
10002660:	d1ed      	bne.n	1000263e <tcp_slowtmr+0x3a>
10002662:	2500      	movs	r5, #0
10002664:	e04f      	b.n	10002706 <tcp_slowtmr+0x102>
10002666:	f9b4 3030 	ldrsh.w	r3, [r4, #48]	@ 0x30
1000266a:	b29b      	uxth	r3, r3
1000266c:	f647 72fe 	movw	r2, #32766	@ 0x7ffe
10002670:	4293      	cmp	r3, r2
10002672:	d801      	bhi.n	10002678 <tcp_slowtmr+0x74>
10002674:	3301      	adds	r3, #1
10002676:	8623      	strh	r3, [r4, #48]	@ 0x30
10002678:	f9b4 2030 	ldrsh.w	r2, [r4, #48]	@ 0x30
1000267c:	f9b4 3040 	ldrsh.w	r3, [r4, #64]	@ 0x40
10002680:	429a      	cmp	r2, r3
10002682:	db40      	blt.n	10002706 <tcp_slowtmr+0x102>
10002684:	4620      	mov	r0, r4
10002686:	f002 f969 	bl	1000495c <tcp_rexmit_rto_prepare>
1000268a:	b120      	cbz	r0, 10002696 <tcp_slowtmr+0x92>
1000268c:	6f23      	ldr	r3, [r4, #112]	@ 0x70
1000268e:	2b00      	cmp	r3, #0
10002690:	d139      	bne.n	10002706 <tcp_slowtmr+0x102>
10002692:	6ee3      	ldr	r3, [r4, #108]	@ 0x6c
10002694:	b3bb      	cbz	r3, 10002706 <tcp_slowtmr+0x102>
10002696:	7d23      	ldrb	r3, [r4, #20]
10002698:	2b02      	cmp	r3, #2
1000269a:	d014      	beq.n	100026c6 <tcp_slowtmr+0xc2>
1000269c:	f894 2042 	ldrb.w	r2, [r4, #66]	@ 0x42
100026a0:	2a0c      	cmp	r2, #12
100026a2:	bf28      	it	cs
100026a4:	220c      	movcs	r2, #12
100026a6:	f9b4 103c 	ldrsh.w	r1, [r4, #60]	@ 0x3c
100026aa:	f9b4 303e 	ldrsh.w	r3, [r4, #62]	@ 0x3e
100026ae:	eb03 03e1 	add.w	r3, r3, r1, asr #3
100026b2:	497f      	ldr	r1, [pc, #508]	@ (100028b0 <tcp_slowtmr+0x2ac>)
100026b4:	5c8a      	ldrb	r2, [r1, r2]
100026b6:	4093      	lsls	r3, r2
100026b8:	f647 72fe 	movw	r2, #32766	@ 0x7ffe
100026bc:	4293      	cmp	r3, r2
100026be:	dc1e      	bgt.n	100026fe <tcp_slowtmr+0xfa>
100026c0:	b21b      	sxth	r3, r3
100026c2:	f8a4 3040 	strh.w	r3, [r4, #64]	@ 0x40
100026c6:	2300      	movs	r3, #0
100026c8:	8623      	strh	r3, [r4, #48]	@ 0x30
100026ca:	f8b4 3060 	ldrh.w	r3, [r4, #96]	@ 0x60
100026ce:	f8b4 2048 	ldrh.w	r2, [r4, #72]	@ 0x48
100026d2:	4293      	cmp	r3, r2
100026d4:	bf28      	it	cs
100026d6:	4613      	movcs	r3, r2
100026d8:	085b      	lsrs	r3, r3, #1
100026da:	f8a4 304a 	strh.w	r3, [r4, #74]	@ 0x4a
100026de:	8e61      	ldrh	r1, [r4, #50]	@ 0x32
100026e0:	004a      	lsls	r2, r1, #1
100026e2:	b292      	uxth	r2, r2
100026e4:	4293      	cmp	r3, r2
100026e6:	d201      	bcs.n	100026ec <tcp_slowtmr+0xe8>
100026e8:	f8a4 204a 	strh.w	r2, [r4, #74]	@ 0x4a
100026ec:	f8a4 1048 	strh.w	r1, [r4, #72]	@ 0x48
100026f0:	2300      	movs	r3, #0
100026f2:	f8a4 306a 	strh.w	r3, [r4, #106]	@ 0x6a
100026f6:	4620      	mov	r0, r4
100026f8:	f002 fb46 	bl	10004d88 <tcp_rexmit_rto_commit>
100026fc:	e003      	b.n	10002706 <tcp_slowtmr+0x102>
100026fe:	f647 73ff 	movw	r3, #32767	@ 0x7fff
10002702:	e7de      	b.n	100026c2 <tcp_slowtmr+0xbe>
10002704:	2501      	movs	r5, #1
10002706:	7d22      	ldrb	r2, [r4, #20]
10002708:	2a06      	cmp	r2, #6
1000270a:	d042      	beq.n	10002792 <tcp_slowtmr+0x18e>
1000270c:	7a63      	ldrb	r3, [r4, #9]
1000270e:	f013 0708 	ands.w	r7, r3, #8
10002712:	d004      	beq.n	1000271e <tcp_slowtmr+0x11a>
10002714:	2a04      	cmp	r2, #4
10002716:	d049      	beq.n	100027ac <tcp_slowtmr+0x1a8>
10002718:	2a07      	cmp	r2, #7
1000271a:	d047      	beq.n	100027ac <tcp_slowtmr+0x1a8>
1000271c:	2700      	movs	r7, #0
1000271e:	6f63      	ldr	r3, [r4, #116]	@ 0x74
10002720:	b153      	cbz	r3, 10002738 <tcp_slowtmr+0x134>
10002722:	6a23      	ldr	r3, [r4, #32]
10002724:	4a5f      	ldr	r2, [pc, #380]	@ (100028a4 <tcp_slowtmr+0x2a0>)
10002726:	6812      	ldr	r2, [r2, #0]
10002728:	1ad2      	subs	r2, r2, r3
1000272a:	f9b4 3040 	ldrsh.w	r3, [r4, #64]	@ 0x40
1000272e:	eb03 0343 	add.w	r3, r3, r3, lsl #1
10002732:	ebb2 0f43 	cmp.w	r2, r3, lsl #1
10002736:	d267      	bcs.n	10002808 <tcp_slowtmr+0x204>
10002738:	7d23      	ldrb	r3, [r4, #20]
1000273a:	2b03      	cmp	r3, #3
1000273c:	d068      	beq.n	10002810 <tcp_slowtmr+0x20c>
1000273e:	2b09      	cmp	r3, #9
10002740:	d06f      	beq.n	10002822 <tcp_slowtmr+0x21e>
10002742:	2d00      	cmp	r5, #0
10002744:	d176      	bne.n	10002834 <tcp_slowtmr+0x230>
10002746:	68e5      	ldr	r5, [r4, #12]
10002748:	7f23      	ldrb	r3, [r4, #28]
1000274a:	3301      	adds	r3, #1
1000274c:	b2db      	uxtb	r3, r3
1000274e:	7723      	strb	r3, [r4, #28]
10002750:	7f62      	ldrb	r2, [r4, #29]
10002752:	4293      	cmp	r3, r2
10002754:	f0c0 80b4 	bcc.w	100028c0 <tcp_slowtmr+0x2bc>
10002758:	2300      	movs	r3, #0
1000275a:	7723      	strb	r3, [r4, #28]
1000275c:	4a55      	ldr	r2, [pc, #340]	@ (100028b4 <tcp_slowtmr+0x2b0>)
1000275e:	7013      	strb	r3, [r2, #0]
10002760:	f8d4 308c 	ldr.w	r3, [r4, #140]	@ 0x8c
10002764:	2b00      	cmp	r3, #0
10002766:	f000 8094 	beq.w	10002892 <tcp_slowtmr+0x28e>
1000276a:	4621      	mov	r1, r4
1000276c:	6920      	ldr	r0, [r4, #16]
1000276e:	4798      	blx	r3
10002770:	4b50      	ldr	r3, [pc, #320]	@ (100028b4 <tcp_slowtmr+0x2b0>)
10002772:	781b      	ldrb	r3, [r3, #0]
10002774:	2b00      	cmp	r3, #0
10002776:	f47f af50 	bne.w	1000261a <tcp_slowtmr+0x16>
1000277a:	2800      	cmp	r0, #0
1000277c:	f000 808b 	beq.w	10002896 <tcp_slowtmr+0x292>
10002780:	4626      	mov	r6, r4
10002782:	462c      	mov	r4, r5
10002784:	e09e      	b.n	100028c4 <tcp_slowtmr+0x2c0>
10002786:	2501      	movs	r5, #1
10002788:	e7bd      	b.n	10002706 <tcp_slowtmr+0x102>
1000278a:	2500      	movs	r5, #0
1000278c:	e7bb      	b.n	10002706 <tcp_slowtmr+0x102>
1000278e:	2500      	movs	r5, #0
10002790:	e7b9      	b.n	10002706 <tcp_slowtmr+0x102>
10002792:	8b63      	ldrh	r3, [r4, #26]
10002794:	f013 0f10 	tst.w	r3, #16
10002798:	d0b8      	beq.n	1000270c <tcp_slowtmr+0x108>
1000279a:	6a21      	ldr	r1, [r4, #32]
1000279c:	4b41      	ldr	r3, [pc, #260]	@ (100028a4 <tcp_slowtmr+0x2a0>)
1000279e:	681b      	ldr	r3, [r3, #0]
100027a0:	1a5b      	subs	r3, r3, r1
100027a2:	2b28      	cmp	r3, #40	@ 0x28
100027a4:	d9b2      	bls.n	1000270c <tcp_slowtmr+0x108>
100027a6:	3501      	adds	r5, #1
100027a8:	b2ed      	uxtb	r5, r5
100027aa:	e7af      	b.n	1000270c <tcp_slowtmr+0x108>
100027ac:	4b3d      	ldr	r3, [pc, #244]	@ (100028a4 <tcp_slowtmr+0x2a0>)
100027ae:	681a      	ldr	r2, [r3, #0]
100027b0:	6a23      	ldr	r3, [r4, #32]
100027b2:	1ad2      	subs	r2, r2, r3
100027b4:	f8d4 1094 	ldr.w	r1, [r4, #148]	@ 0x94
100027b8:	f501 2324 	add.w	r3, r1, #671744	@ 0xa4000
100027bc:	f603 43b8 	addw	r3, r3, #3256	@ 0xcb8
100027c0:	483d      	ldr	r0, [pc, #244]	@ (100028b8 <tcp_slowtmr+0x2b4>)
100027c2:	fba0 0303 	umull	r0, r3, r0, r3
100027c6:	ebb2 1f53 	cmp.w	r2, r3, lsr #5
100027ca:	d903      	bls.n	100027d4 <tcp_slowtmr+0x1d0>
100027cc:	3501      	adds	r5, #1
100027ce:	b2ed      	uxtb	r5, r5
100027d0:	2701      	movs	r7, #1
100027d2:	e7a4      	b.n	1000271e <tcp_slowtmr+0x11a>
100027d4:	f894 309b 	ldrb.w	r3, [r4, #155]	@ 0x9b
100027d8:	4838      	ldr	r0, [pc, #224]	@ (100028bc <tcp_slowtmr+0x2b8>)
100027da:	fb00 1103 	mla	r1, r0, r3, r1
100027de:	4b36      	ldr	r3, [pc, #216]	@ (100028b8 <tcp_slowtmr+0x2b4>)
100027e0:	fba3 3101 	umull	r3, r1, r3, r1
100027e4:	ebb2 1f51 	cmp.w	r2, r1, lsr #5
100027e8:	d801      	bhi.n	100027ee <tcp_slowtmr+0x1ea>
100027ea:	2700      	movs	r7, #0
100027ec:	e797      	b.n	1000271e <tcp_slowtmr+0x11a>
100027ee:	4620      	mov	r0, r4
100027f0:	f002 fadf 	bl	10004db2 <tcp_keepalive>
100027f4:	b930      	cbnz	r0, 10002804 <tcp_slowtmr+0x200>
100027f6:	f894 309b 	ldrb.w	r3, [r4, #155]	@ 0x9b
100027fa:	3301      	adds	r3, #1
100027fc:	f884 309b 	strb.w	r3, [r4, #155]	@ 0x9b
10002800:	2700      	movs	r7, #0
10002802:	e78c      	b.n	1000271e <tcp_slowtmr+0x11a>
10002804:	2700      	movs	r7, #0
10002806:	e78a      	b.n	1000271e <tcp_slowtmr+0x11a>
10002808:	4620      	mov	r0, r4
1000280a:	f7ff fbd9 	bl	10001fc0 <tcp_free_ooseq>
1000280e:	e793      	b.n	10002738 <tcp_slowtmr+0x134>
10002810:	6a21      	ldr	r1, [r4, #32]
10002812:	4a24      	ldr	r2, [pc, #144]	@ (100028a4 <tcp_slowtmr+0x2a0>)
10002814:	6812      	ldr	r2, [r2, #0]
10002816:	1a52      	subs	r2, r2, r1
10002818:	2a28      	cmp	r2, #40	@ 0x28
1000281a:	d990      	bls.n	1000273e <tcp_slowtmr+0x13a>
1000281c:	3501      	adds	r5, #1
1000281e:	b2ed      	uxtb	r5, r5
10002820:	e78d      	b.n	1000273e <tcp_slowtmr+0x13a>
10002822:	6a22      	ldr	r2, [r4, #32]
10002824:	4b1f      	ldr	r3, [pc, #124]	@ (100028a4 <tcp_slowtmr+0x2a0>)
10002826:	681b      	ldr	r3, [r3, #0]
10002828:	1a9b      	subs	r3, r3, r2
1000282a:	2bf0      	cmp	r3, #240	@ 0xf0
1000282c:	d989      	bls.n	10002742 <tcp_slowtmr+0x13e>
1000282e:	3501      	adds	r5, #1
10002830:	b2ed      	uxtb	r5, r5
10002832:	e786      	b.n	10002742 <tcp_slowtmr+0x13e>
10002834:	f8d4 5090 	ldr.w	r5, [r4, #144]	@ 0x90
10002838:	4620      	mov	r0, r4
1000283a:	f7ff fbca 	bl	10001fd2 <tcp_pcb_purge>
1000283e:	b1be      	cbz	r6, 10002870 <tcp_slowtmr+0x26c>
10002840:	68e3      	ldr	r3, [r4, #12]
10002842:	60f3      	str	r3, [r6, #12]
10002844:	b9c7      	cbnz	r7, 10002878 <tcp_slowtmr+0x274>
10002846:	f8d4 8010 	ldr.w	r8, [r4, #16]
1000284a:	68e7      	ldr	r7, [r4, #12]
1000284c:	4620      	mov	r0, r4
1000284e:	f7ff f9de 	bl	10001c0e <tcp_free>
10002852:	4b18      	ldr	r3, [pc, #96]	@ (100028b4 <tcp_slowtmr+0x2b0>)
10002854:	2200      	movs	r2, #0
10002856:	701a      	strb	r2, [r3, #0]
10002858:	b11d      	cbz	r5, 10002862 <tcp_slowtmr+0x25e>
1000285a:	f06f 010c 	mvn.w	r1, #12
1000285e:	4640      	mov	r0, r8
10002860:	47a8      	blx	r5
10002862:	4b14      	ldr	r3, [pc, #80]	@ (100028b4 <tcp_slowtmr+0x2b0>)
10002864:	781b      	ldrb	r3, [r3, #0]
10002866:	2b00      	cmp	r3, #0
10002868:	f47f aed7 	bne.w	1000261a <tcp_slowtmr+0x16>
1000286c:	463c      	mov	r4, r7
1000286e:	e029      	b.n	100028c4 <tcp_slowtmr+0x2c0>
10002870:	68e2      	ldr	r2, [r4, #12]
10002872:	4b0e      	ldr	r3, [pc, #56]	@ (100028ac <tcp_slowtmr+0x2a8>)
10002874:	601a      	str	r2, [r3, #0]
10002876:	e7e5      	b.n	10002844 <tcp_slowtmr+0x240>
10002878:	1d23      	adds	r3, r4, #4
1000287a:	6a62      	ldr	r2, [r4, #36]	@ 0x24
1000287c:	6d21      	ldr	r1, [r4, #80]	@ 0x50
1000287e:	8b20      	ldrh	r0, [r4, #24]
10002880:	9002      	str	r0, [sp, #8]
10002882:	8ae0      	ldrh	r0, [r4, #22]
10002884:	9001      	str	r0, [sp, #4]
10002886:	9300      	str	r3, [sp, #0]
10002888:	4623      	mov	r3, r4
1000288a:	4620      	mov	r0, r4
1000288c:	f002 f901 	bl	10004a92 <tcp_rst>
10002890:	e7d9      	b.n	10002846 <tcp_slowtmr+0x242>
10002892:	2000      	movs	r0, #0
10002894:	e76c      	b.n	10002770 <tcp_slowtmr+0x16c>
10002896:	4620      	mov	r0, r4
10002898:	f002 f952 	bl	10004b40 <tcp_output>
1000289c:	4626      	mov	r6, r4
1000289e:	462c      	mov	r4, r5
100028a0:	e010      	b.n	100028c4 <tcp_slowtmr+0x2c0>
100028a2:	bf00      	nop
100028a4:	20005f28 	.word	0x20005f28
100028a8:	20005f64 	.word	0x20005f64
100028ac:	20005f18 	.word	0x20005f18
100028b0:	1000d8f0 	.word	0x1000d8f0
100028b4:	20005f62 	.word	0x20005f62
100028b8:	10624dd3 	.word	0x10624dd3
100028bc:	000124f8 	.word	0x000124f8
100028c0:	4626      	mov	r6, r4
100028c2:	462c      	mov	r4, r5
100028c4:	b3ac      	cbz	r4, 10002932 <tcp_slowtmr+0x32e>
100028c6:	7fa2      	ldrb	r2, [r4, #30]
100028c8:	4b29      	ldr	r3, [pc, #164]	@ (10002970 <tcp_slowtmr+0x36c>)
100028ca:	781b      	ldrb	r3, [r3, #0]
100028cc:	429a      	cmp	r2, r3
100028ce:	f43f aea8 	beq.w	10002622 <tcp_slowtmr+0x1e>
100028d2:	77a3      	strb	r3, [r4, #30]
100028d4:	7d23      	ldrb	r3, [r4, #20]
100028d6:	2b02      	cmp	r3, #2
100028d8:	f43f aea6 	beq.w	10002628 <tcp_slowtmr+0x24>
100028dc:	f894 3042 	ldrb.w	r3, [r4, #66]	@ 0x42
100028e0:	2b0b      	cmp	r3, #11
100028e2:	f63f af0f 	bhi.w	10002704 <tcp_slowtmr+0x100>
100028e6:	f894 5099 	ldrb.w	r5, [r4, #153]	@ 0x99
100028ea:	2d00      	cmp	r5, #0
100028ec:	f43f aebb 	beq.w	10002666 <tcp_slowtmr+0x62>
100028f0:	f894 309a 	ldrb.w	r3, [r4, #154]	@ 0x9a
100028f4:	2b0b      	cmp	r3, #11
100028f6:	f63f af46 	bhi.w	10002786 <tcp_slowtmr+0x182>
100028fa:	3d01      	subs	r5, #1
100028fc:	4b1d      	ldr	r3, [pc, #116]	@ (10002974 <tcp_slowtmr+0x370>)
100028fe:	5d5a      	ldrb	r2, [r3, r5]
10002900:	f894 3098 	ldrb.w	r3, [r4, #152]	@ 0x98
10002904:	4293      	cmp	r3, r2
10002906:	d202      	bcs.n	1000290e <tcp_slowtmr+0x30a>
10002908:	3301      	adds	r3, #1
1000290a:	f884 3098 	strb.w	r3, [r4, #152]	@ 0x98
1000290e:	f894 3098 	ldrb.w	r3, [r4, #152]	@ 0x98
10002912:	4293      	cmp	r3, r2
10002914:	f4ff af39 	bcc.w	1000278a <tcp_slowtmr+0x186>
10002918:	f8b4 1060 	ldrh.w	r1, [r4, #96]	@ 0x60
1000291c:	2900      	cmp	r1, #0
1000291e:	f47f ae8a 	bne.w	10002636 <tcp_slowtmr+0x32>
10002922:	4620      	mov	r0, r4
10002924:	f002 fa5c 	bl	10004de0 <tcp_zero_window_probe>
10002928:	2800      	cmp	r0, #0
1000292a:	f43f ae88 	beq.w	1000263e <tcp_slowtmr+0x3a>
1000292e:	2500      	movs	r5, #0
10002930:	e6e9      	b.n	10002706 <tcp_slowtmr+0x102>
10002932:	4b11      	ldr	r3, [pc, #68]	@ (10002978 <tcp_slowtmr+0x374>)
10002934:	681d      	ldr	r5, [r3, #0]
10002936:	e00a      	b.n	1000294e <tcp_slowtmr+0x34a>
10002938:	4628      	mov	r0, r5
1000293a:	f7ff fb4a 	bl	10001fd2 <tcp_pcb_purge>
1000293e:	b184      	cbz	r4, 10002962 <tcp_slowtmr+0x35e>
10002940:	68eb      	ldr	r3, [r5, #12]
10002942:	60e3      	str	r3, [r4, #12]
10002944:	68ee      	ldr	r6, [r5, #12]
10002946:	4628      	mov	r0, r5
10002948:	f7ff f961 	bl	10001c0e <tcp_free>
1000294c:	4635      	mov	r5, r6
1000294e:	b165      	cbz	r5, 1000296a <tcp_slowtmr+0x366>
10002950:	6a2a      	ldr	r2, [r5, #32]
10002952:	4b0a      	ldr	r3, [pc, #40]	@ (1000297c <tcp_slowtmr+0x378>)
10002954:	681b      	ldr	r3, [r3, #0]
10002956:	1a9b      	subs	r3, r3, r2
10002958:	2bf0      	cmp	r3, #240	@ 0xf0
1000295a:	d8ed      	bhi.n	10002938 <tcp_slowtmr+0x334>
1000295c:	462c      	mov	r4, r5
1000295e:	68ed      	ldr	r5, [r5, #12]
10002960:	e7f5      	b.n	1000294e <tcp_slowtmr+0x34a>
10002962:	68ea      	ldr	r2, [r5, #12]
10002964:	4b04      	ldr	r3, [pc, #16]	@ (10002978 <tcp_slowtmr+0x374>)
10002966:	601a      	str	r2, [r3, #0]
10002968:	e7ec      	b.n	10002944 <tcp_slowtmr+0x340>
1000296a:	b004      	add	sp, #16
1000296c:	e8bd 81f0 	ldmia.w	sp!, {r4, r5, r6, r7, r8, pc}
10002970:	20005f64 	.word	0x20005f64
10002974:	1000d8e8 	.word	0x1000d8e8
10002978:	20005f2c 	.word	0x20005f2c
1000297c:	20005f28 	.word	0x20005f28

10002980 <tcp_tmr>:
10002980:	b508      	push	{r3, lr}
10002982:	f7ff fdff 	bl	10002584 <tcp_fasttmr>
10002986:	4a06      	ldr	r2, [pc, #24]	@ (100029a0 <tcp_tmr+0x20>)
10002988:	7813      	ldrb	r3, [r2, #0]
1000298a:	3301      	adds	r3, #1
1000298c:	b2db      	uxtb	r3, r3
1000298e:	7013      	strb	r3, [r2, #0]
10002990:	f013 0f01 	tst.w	r3, #1
10002994:	d100      	bne.n	10002998 <tcp_tmr+0x18>
10002996:	bd08      	pop	{r3, pc}
10002998:	f7ff fe34 	bl	10002604 <tcp_slowtmr>
1000299c:	e7fb      	b.n	10002996 <tcp_tmr+0x16>
1000299e:	bf00      	nop
100029a0:	20005f63 	.word	0x20005f63

100029a4 <tcp_get_next_optbyte>:
100029a4:	4a0a      	ldr	r2, [pc, #40]	@ (100029d0 <tcp_get_next_optbyte+0x2c>)
100029a6:	8813      	ldrh	r3, [r2, #0]
100029a8:	1c59      	adds	r1, r3, #1
100029aa:	8011      	strh	r1, [r2, #0]
100029ac:	4a09      	ldr	r2, [pc, #36]	@ (100029d4 <tcp_get_next_optbyte+0x30>)
100029ae:	6811      	ldr	r1, [r2, #0]
100029b0:	b119      	cbz	r1, 100029ba <tcp_get_next_optbyte+0x16>
100029b2:	4a09      	ldr	r2, [pc, #36]	@ (100029d8 <tcp_get_next_optbyte+0x34>)
100029b4:	8812      	ldrh	r2, [r2, #0]
100029b6:	4293      	cmp	r3, r2
100029b8:	d204      	bcs.n	100029c4 <tcp_get_next_optbyte+0x20>
100029ba:	4a08      	ldr	r2, [pc, #32]	@ (100029dc <tcp_get_next_optbyte+0x38>)
100029bc:	6812      	ldr	r2, [r2, #0]
100029be:	4413      	add	r3, r2
100029c0:	7d18      	ldrb	r0, [r3, #20]
100029c2:	4770      	bx	lr
100029c4:	b2db      	uxtb	r3, r3
100029c6:	b2d2      	uxtb	r2, r2
100029c8:	1a9b      	subs	r3, r3, r2
100029ca:	b2db      	uxtb	r3, r3
100029cc:	5cc8      	ldrb	r0, [r1, r3]
100029ce:	4770      	bx	lr
100029d0:	20005f52 	.word	0x20005f52
100029d4:	20005f34 	.word	0x20005f34
100029d8:	20005f54 	.word	0x20005f54
100029dc:	20005f30 	.word	0x20005f30

100029e0 <tcp_parseopt>:
100029e0:	b538      	push	{r3, r4, r5, lr}
100029e2:	4b1f      	ldr	r3, [pc, #124]	@ (10002a60 <tcp_parseopt+0x80>)
100029e4:	881b      	ldrh	r3, [r3, #0]
100029e6:	2b00      	cmp	r3, #0
100029e8:	d038      	beq.n	10002a5c <tcp_parseopt+0x7c>
100029ea:	4604      	mov	r4, r0
100029ec:	4b1d      	ldr	r3, [pc, #116]	@ (10002a64 <tcp_parseopt+0x84>)
100029ee:	2200      	movs	r2, #0
100029f0:	801a      	strh	r2, [r3, #0]
100029f2:	4b1c      	ldr	r3, [pc, #112]	@ (10002a64 <tcp_parseopt+0x84>)
100029f4:	881a      	ldrh	r2, [r3, #0]
100029f6:	4b1a      	ldr	r3, [pc, #104]	@ (10002a60 <tcp_parseopt+0x80>)
100029f8:	881b      	ldrh	r3, [r3, #0]
100029fa:	429a      	cmp	r2, r3
100029fc:	d22e      	bcs.n	10002a5c <tcp_parseopt+0x7c>
100029fe:	f7ff ffd1 	bl	100029a4 <tcp_get_next_optbyte>
10002a02:	2801      	cmp	r0, #1
10002a04:	d0f5      	beq.n	100029f2 <tcp_parseopt+0x12>
10002a06:	2802      	cmp	r0, #2
10002a08:	d00b      	beq.n	10002a22 <tcp_parseopt+0x42>
10002a0a:	b338      	cbz	r0, 10002a5c <tcp_parseopt+0x7c>
10002a0c:	f7ff ffca 	bl	100029a4 <tcp_get_next_optbyte>
10002a10:	4603      	mov	r3, r0
10002a12:	2801      	cmp	r0, #1
10002a14:	d922      	bls.n	10002a5c <tcp_parseopt+0x7c>
10002a16:	4a13      	ldr	r2, [pc, #76]	@ (10002a64 <tcp_parseopt+0x84>)
10002a18:	8811      	ldrh	r1, [r2, #0]
10002a1a:	440b      	add	r3, r1
10002a1c:	3b02      	subs	r3, #2
10002a1e:	8013      	strh	r3, [r2, #0]
10002a20:	e7e7      	b.n	100029f2 <tcp_parseopt+0x12>
10002a22:	f7ff ffbf 	bl	100029a4 <tcp_get_next_optbyte>
10002a26:	2804      	cmp	r0, #4
10002a28:	d118      	bne.n	10002a5c <tcp_parseopt+0x7c>
10002a2a:	4b0e      	ldr	r3, [pc, #56]	@ (10002a64 <tcp_parseopt+0x84>)
10002a2c:	881b      	ldrh	r3, [r3, #0]
10002a2e:	3301      	adds	r3, #1
10002a30:	4a0b      	ldr	r2, [pc, #44]	@ (10002a60 <tcp_parseopt+0x80>)
10002a32:	8812      	ldrh	r2, [r2, #0]
10002a34:	4293      	cmp	r3, r2
10002a36:	da11      	bge.n	10002a5c <tcp_parseopt+0x7c>
10002a38:	f7ff ffb4 	bl	100029a4 <tcp_get_next_optbyte>
10002a3c:	0205      	lsls	r5, r0, #8
10002a3e:	b2ad      	uxth	r5, r5
10002a40:	f7ff ffb0 	bl	100029a4 <tcp_get_next_optbyte>
10002a44:	4328      	orrs	r0, r5
10002a46:	b280      	uxth	r0, r0
10002a48:	1e43      	subs	r3, r0, #1
10002a4a:	b29b      	uxth	r3, r3
10002a4c:	f240 52b3 	movw	r2, #1459	@ 0x5b3
10002a50:	4293      	cmp	r3, r2
10002a52:	d901      	bls.n	10002a58 <tcp_parseopt+0x78>
10002a54:	f240 50b4 	movw	r0, #1460	@ 0x5b4
10002a58:	8660      	strh	r0, [r4, #50]	@ 0x32
10002a5a:	e7ca      	b.n	100029f2 <tcp_parseopt+0x12>
10002a5c:	bd38      	pop	{r3, r4, r5, pc}
10002a5e:	bf00      	nop
10002a60:	20005f56 	.word	0x20005f56
10002a64:	20005f52 	.word	0x20005f52

10002a68 <tcp_input_delayed_close>:
10002a68:	4b0e      	ldr	r3, [pc, #56]	@ (10002aa4 <tcp_input_delayed_close+0x3c>)
10002a6a:	781b      	ldrb	r3, [r3, #0]
10002a6c:	f013 0f10 	tst.w	r3, #16
10002a70:	d101      	bne.n	10002a76 <tcp_input_delayed_close+0xe>
10002a72:	2000      	movs	r0, #0
10002a74:	4770      	bx	lr
10002a76:	b510      	push	{r4, lr}
10002a78:	4604      	mov	r4, r0
10002a7a:	8b43      	ldrh	r3, [r0, #26]
10002a7c:	f013 0f10 	tst.w	r3, #16
10002a80:	d106      	bne.n	10002a90 <tcp_input_delayed_close+0x28>
10002a82:	f8d0 3090 	ldr.w	r3, [r0, #144]	@ 0x90
10002a86:	b11b      	cbz	r3, 10002a90 <tcp_input_delayed_close+0x28>
10002a88:	f06f 010e 	mvn.w	r1, #14
10002a8c:	6900      	ldr	r0, [r0, #16]
10002a8e:	4798      	blx	r3
10002a90:	4621      	mov	r1, r4
10002a92:	4805      	ldr	r0, [pc, #20]	@ (10002aa8 <tcp_input_delayed_close+0x40>)
10002a94:	f7ff fac1 	bl	1000201a <tcp_pcb_remove>
10002a98:	4620      	mov	r0, r4
10002a9a:	f7ff f8b8 	bl	10001c0e <tcp_free>
10002a9e:	2001      	movs	r0, #1
10002aa0:	bd10      	pop	{r4, pc}
10002aa2:	bf00      	nop
10002aa4:	20005f61 	.word	0x20005f61
10002aa8:	20005f18 	.word	0x20005f18

10002aac <tcp_timewait_input>:
10002aac:	4b1c      	ldr	r3, [pc, #112]	@ (10002b20 <tcp_timewait_input+0x74>)
10002aae:	781b      	ldrb	r3, [r3, #0]
10002ab0:	f013 0f04 	tst.w	r3, #4
10002ab4:	d133      	bne.n	10002b1e <tcp_timewait_input+0x72>
10002ab6:	b510      	push	{r4, lr}
10002ab8:	b084      	sub	sp, #16
10002aba:	f013 0f02 	tst.w	r3, #2
10002abe:	d01c      	beq.n	10002afa <tcp_timewait_input+0x4e>
10002ac0:	4b18      	ldr	r3, [pc, #96]	@ (10002b24 <tcp_timewait_input+0x78>)
10002ac2:	681a      	ldr	r2, [r3, #0]
10002ac4:	6a43      	ldr	r3, [r0, #36]	@ 0x24
10002ac6:	1ad1      	subs	r1, r2, r3
10002ac8:	2900      	cmp	r1, #0
10002aca:	db1c      	blt.n	10002b06 <tcp_timewait_input+0x5a>
10002acc:	8d01      	ldrh	r1, [r0, #40]	@ 0x28
10002ace:	440b      	add	r3, r1
10002ad0:	1a9b      	subs	r3, r3, r2
10002ad2:	2b00      	cmp	r3, #0
10002ad4:	db17      	blt.n	10002b06 <tcp_timewait_input+0x5a>
10002ad6:	4b14      	ldr	r3, [pc, #80]	@ (10002b28 <tcp_timewait_input+0x7c>)
10002ad8:	6819      	ldr	r1, [r3, #0]
10002ada:	4b14      	ldr	r3, [pc, #80]	@ (10002b2c <tcp_timewait_input+0x80>)
10002adc:	4c14      	ldr	r4, [pc, #80]	@ (10002b30 <tcp_timewait_input+0x84>)
10002ade:	f8b4 c000 	ldrh.w	ip, [r4]
10002ae2:	880c      	ldrh	r4, [r1, #0]
10002ae4:	9402      	str	r4, [sp, #8]
10002ae6:	8849      	ldrh	r1, [r1, #2]
10002ae8:	9101      	str	r1, [sp, #4]
10002aea:	1f19      	subs	r1, r3, #4
10002aec:	9100      	str	r1, [sp, #0]
10002aee:	4462      	add	r2, ip
10002af0:	4910      	ldr	r1, [pc, #64]	@ (10002b34 <tcp_timewait_input+0x88>)
10002af2:	6809      	ldr	r1, [r1, #0]
10002af4:	f001 ffcd 	bl	10004a92 <tcp_rst>
10002af8:	e008      	b.n	10002b0c <tcp_timewait_input+0x60>
10002afa:	f013 0f01 	tst.w	r3, #1
10002afe:	d002      	beq.n	10002b06 <tcp_timewait_input+0x5a>
10002b00:	4b0d      	ldr	r3, [pc, #52]	@ (10002b38 <tcp_timewait_input+0x8c>)
10002b02:	681b      	ldr	r3, [r3, #0]
10002b04:	6203      	str	r3, [r0, #32]
10002b06:	4b0a      	ldr	r3, [pc, #40]	@ (10002b30 <tcp_timewait_input+0x84>)
10002b08:	881b      	ldrh	r3, [r3, #0]
10002b0a:	b90b      	cbnz	r3, 10002b10 <tcp_timewait_input+0x64>
10002b0c:	b004      	add	sp, #16
10002b0e:	bd10      	pop	{r4, pc}
10002b10:	8b43      	ldrh	r3, [r0, #26]
10002b12:	f043 0302 	orr.w	r3, r3, #2
10002b16:	8343      	strh	r3, [r0, #26]
10002b18:	f002 f812 	bl	10004b40 <tcp_output>
10002b1c:	e7f6      	b.n	10002b0c <tcp_timewait_input+0x60>
10002b1e:	4770      	bx	lr
10002b20:	20005f5e 	.word	0x20005f5e
10002b24:	20005f10 	.word	0x20005f10
10002b28:	20005f30 	.word	0x20005f30
10002b2c:	20001da8 	.word	0x20001da8
10002b30:	20005f58 	.word	0x20005f58
10002b34:	20001200 	.word	0x20001200
10002b38:	20005f28 	.word	0x20005f28

10002b3c <tcp_listen_input>:
10002b3c:	4b45      	ldr	r3, [pc, #276]	@ (10002c54 <tcp_listen_input+0x118>)
10002b3e:	781b      	ldrb	r3, [r3, #0]
10002b40:	f013 0f04 	tst.w	r3, #4
10002b44:	f040 8084 	bne.w	10002c50 <tcp_listen_input+0x114>
10002b48:	b5f0      	push	{r4, r5, r6, r7, lr}
10002b4a:	b085      	sub	sp, #20
10002b4c:	4605      	mov	r5, r0
10002b4e:	f013 0f10 	tst.w	r3, #16
10002b52:	d104      	bne.n	10002b5e <tcp_listen_input+0x22>
10002b54:	f013 0f02 	tst.w	r3, #2
10002b58:	d116      	bne.n	10002b88 <tcp_listen_input+0x4c>
10002b5a:	b005      	add	sp, #20
10002b5c:	bdf0      	pop	{r4, r5, r6, r7, pc}
10002b5e:	4b3e      	ldr	r3, [pc, #248]	@ (10002c58 <tcp_listen_input+0x11c>)
10002b60:	6819      	ldr	r1, [r3, #0]
10002b62:	4b3e      	ldr	r3, [pc, #248]	@ (10002c5c <tcp_listen_input+0x120>)
10002b64:	4a3e      	ldr	r2, [pc, #248]	@ (10002c60 <tcp_listen_input+0x124>)
10002b66:	8810      	ldrh	r0, [r2, #0]
10002b68:	4a3e      	ldr	r2, [pc, #248]	@ (10002c64 <tcp_listen_input+0x128>)
10002b6a:	6812      	ldr	r2, [r2, #0]
10002b6c:	880c      	ldrh	r4, [r1, #0]
10002b6e:	9402      	str	r4, [sp, #8]
10002b70:	8849      	ldrh	r1, [r1, #2]
10002b72:	9101      	str	r1, [sp, #4]
10002b74:	1f19      	subs	r1, r3, #4
10002b76:	9100      	str	r1, [sp, #0]
10002b78:	4402      	add	r2, r0
10002b7a:	493b      	ldr	r1, [pc, #236]	@ (10002c68 <tcp_listen_input+0x12c>)
10002b7c:	6809      	ldr	r1, [r1, #0]
10002b7e:	f853 0c10 	ldr.w	r0, [r3, #-16]
10002b82:	f001 ff9d 	bl	10004ac0 <tcp_rst_netif>
10002b86:	e7e8      	b.n	10002b5a <tcp_listen_input+0x1e>
10002b88:	7d40      	ldrb	r0, [r0, #21]
10002b8a:	f7ff fb89 	bl	100022a0 <tcp_alloc>
10002b8e:	4604      	mov	r4, r0
10002b90:	2800      	cmp	r0, #0
10002b92:	d049      	beq.n	10002c28 <tcp_listen_input+0xec>
10002b94:	4b35      	ldr	r3, [pc, #212]	@ (10002c6c <tcp_listen_input+0x130>)
10002b96:	695a      	ldr	r2, [r3, #20]
10002b98:	6002      	str	r2, [r0, #0]
10002b9a:	691b      	ldr	r3, [r3, #16]
10002b9c:	6043      	str	r3, [r0, #4]
10002b9e:	8aeb      	ldrh	r3, [r5, #22]
10002ba0:	82c3      	strh	r3, [r0, #22]
10002ba2:	4e2d      	ldr	r6, [pc, #180]	@ (10002c58 <tcp_listen_input+0x11c>)
10002ba4:	6833      	ldr	r3, [r6, #0]
10002ba6:	881b      	ldrh	r3, [r3, #0]
10002ba8:	8303      	strh	r3, [r0, #24]
10002baa:	2303      	movs	r3, #3
10002bac:	7503      	strb	r3, [r0, #20]
10002bae:	4f2d      	ldr	r7, [pc, #180]	@ (10002c64 <tcp_listen_input+0x128>)
10002bb0:	683b      	ldr	r3, [r7, #0]
10002bb2:	3301      	adds	r3, #1
10002bb4:	6243      	str	r3, [r0, #36]	@ 0x24
10002bb6:	62c3      	str	r3, [r0, #44]	@ 0x2c
10002bb8:	f7ff f966 	bl	10001e88 <tcp_next_iss>
10002bbc:	65a0      	str	r0, [r4, #88]	@ 0x58
10002bbe:	6520      	str	r0, [r4, #80]	@ 0x50
10002bc0:	6460      	str	r0, [r4, #68]	@ 0x44
10002bc2:	65e0      	str	r0, [r4, #92]	@ 0x5c
10002bc4:	683b      	ldr	r3, [r7, #0]
10002bc6:	3b01      	subs	r3, #1
10002bc8:	6563      	str	r3, [r4, #84]	@ 0x54
10002bca:	692b      	ldr	r3, [r5, #16]
10002bcc:	6123      	str	r3, [r4, #16]
10002bce:	67e5      	str	r5, [r4, #124]	@ 0x7c
10002bd0:	7a6b      	ldrb	r3, [r5, #9]
10002bd2:	f003 030c 	and.w	r3, r3, #12
10002bd6:	7263      	strb	r3, [r4, #9]
10002bd8:	7a2b      	ldrb	r3, [r5, #8]
10002bda:	7223      	strb	r3, [r4, #8]
10002bdc:	4b24      	ldr	r3, [pc, #144]	@ (10002c70 <tcp_listen_input+0x134>)
10002bde:	681a      	ldr	r2, [r3, #0]
10002be0:	60e2      	str	r2, [r4, #12]
10002be2:	601c      	str	r4, [r3, #0]
10002be4:	f002 f9ac 	bl	10004f40 <tcp_timer_needed>
10002be8:	4b22      	ldr	r3, [pc, #136]	@ (10002c74 <tcp_listen_input+0x138>)
10002bea:	2201      	movs	r2, #1
10002bec:	701a      	strb	r2, [r3, #0]
10002bee:	4620      	mov	r0, r4
10002bf0:	f7ff fef6 	bl	100029e0 <tcp_parseopt>
10002bf4:	6833      	ldr	r3, [r6, #0]
10002bf6:	89db      	ldrh	r3, [r3, #14]
10002bf8:	f8a4 3060 	strh.w	r3, [r4, #96]	@ 0x60
10002bfc:	f8a4 3062 	strh.w	r3, [r4, #98]	@ 0x62
10002c00:	8e66      	ldrh	r6, [r4, #50]	@ 0x32
10002c02:	1d25      	adds	r5, r4, #4
10002c04:	4628      	mov	r0, r5
10002c06:	f003 fa01 	bl	1000600c <ip4_route>
10002c0a:	4601      	mov	r1, r0
10002c0c:	462a      	mov	r2, r5
10002c0e:	4630      	mov	r0, r6
10002c10:	f7ff f946 	bl	10001ea0 <tcp_eff_send_mss_netif>
10002c14:	8660      	strh	r0, [r4, #50]	@ 0x32
10002c16:	2112      	movs	r1, #18
10002c18:	4620      	mov	r0, r4
10002c1a:	f001 fe21 	bl	10004860 <tcp_enqueue_flags>
10002c1e:	b990      	cbnz	r0, 10002c46 <tcp_listen_input+0x10a>
10002c20:	4620      	mov	r0, r4
10002c22:	f001 ff8d 	bl	10004b40 <tcp_output>
10002c26:	e798      	b.n	10002b5a <tcp_listen_input+0x1e>
10002c28:	4a13      	ldr	r2, [pc, #76]	@ (10002c78 <tcp_listen_input+0x13c>)
10002c2a:	f8b2 309c 	ldrh.w	r3, [r2, #156]	@ 0x9c
10002c2e:	3301      	adds	r3, #1
10002c30:	f8a2 309c 	strh.w	r3, [r2, #156]	@ 0x9c
10002c34:	69ab      	ldr	r3, [r5, #24]
10002c36:	2b00      	cmp	r3, #0
10002c38:	d08f      	beq.n	10002b5a <tcp_listen_input+0x1e>
10002c3a:	f04f 32ff 	mov.w	r2, #4294967295
10002c3e:	2100      	movs	r1, #0
10002c40:	6928      	ldr	r0, [r5, #16]
10002c42:	4798      	blx	r3
10002c44:	e789      	b.n	10002b5a <tcp_listen_input+0x1e>
10002c46:	2100      	movs	r1, #0
10002c48:	4620      	mov	r0, r4
10002c4a:	f7ff fa0f 	bl	1000206c <tcp_abandon>
10002c4e:	e784      	b.n	10002b5a <tcp_listen_input+0x1e>
10002c50:	4770      	bx	lr
10002c52:	bf00      	nop
10002c54:	20005f5e 	.word	0x20005f5e
10002c58:	20005f30 	.word	0x20005f30
10002c5c:	20001da8 	.word	0x20001da8
10002c60:	20005f58 	.word	0x20005f58
10002c64:	20005f10 	.word	0x20005f10
10002c68:	20001200 	.word	0x20001200
10002c6c:	20001d94 	.word	0x20001d94
10002c70:	20005f18 	.word	0x20005f18
10002c74:	20005f62 	.word	0x20005f62
10002c78:	20001db0 	.word	0x20001db0

10002c7c <tcp_free_acked_segments>:
10002c7c:	e92d 41f0 	stmdb	sp!, {r4, r5, r6, r7, r8, lr}
10002c80:	4680      	mov	r8, r0
10002c82:	460c      	mov	r4, r1
10002c84:	e017      	b.n	10002cb6 <tcp_free_acked_segments+0x3a>
10002c86:	2300      	movs	r3, #0
10002c88:	441f      	add	r7, r3
10002c8a:	19eb      	adds	r3, r5, r7
10002c8c:	1af5      	subs	r5, r6, r3
10002c8e:	2d00      	cmp	r5, #0
10002c90:	db23      	blt.n	10002cda <tcp_free_acked_segments+0x5e>
10002c92:	6825      	ldr	r5, [r4, #0]
10002c94:	6860      	ldr	r0, [r4, #4]
10002c96:	f7fe fde0 	bl	1000185a <pbuf_clen>
10002c9a:	f8b8 3066 	ldrh.w	r3, [r8, #102]	@ 0x66
10002c9e:	1a1b      	subs	r3, r3, r0
10002ca0:	f8a8 3066 	strh.w	r3, [r8, #102]	@ 0x66
10002ca4:	8923      	ldrh	r3, [r4, #8]
10002ca6:	4a0e      	ldr	r2, [pc, #56]	@ (10002ce0 <tcp_free_acked_segments+0x64>)
10002ca8:	8811      	ldrh	r1, [r2, #0]
10002caa:	440b      	add	r3, r1
10002cac:	8013      	strh	r3, [r2, #0]
10002cae:	4620      	mov	r0, r4
10002cb0:	f7ff f8a1 	bl	10001df6 <tcp_seg_free>
10002cb4:	462c      	mov	r4, r5
10002cb6:	b184      	cbz	r4, 10002cda <tcp_free_acked_segments+0x5e>
10002cb8:	4b0a      	ldr	r3, [pc, #40]	@ (10002ce4 <tcp_free_acked_segments+0x68>)
10002cba:	681e      	ldr	r6, [r3, #0]
10002cbc:	68e3      	ldr	r3, [r4, #12]
10002cbe:	6858      	ldr	r0, [r3, #4]
10002cc0:	f7fd ff7f 	bl	10000bc2 <lwip_htonl>
10002cc4:	4605      	mov	r5, r0
10002cc6:	8927      	ldrh	r7, [r4, #8]
10002cc8:	68e3      	ldr	r3, [r4, #12]
10002cca:	8998      	ldrh	r0, [r3, #12]
10002ccc:	f7fd ff74 	bl	10000bb8 <lwip_htons>
10002cd0:	f010 0f03 	tst.w	r0, #3
10002cd4:	d0d7      	beq.n	10002c86 <tcp_free_acked_segments+0xa>
10002cd6:	2301      	movs	r3, #1
10002cd8:	e7d6      	b.n	10002c88 <tcp_free_acked_segments+0xc>
10002cda:	4620      	mov	r0, r4
10002cdc:	e8bd 81f0 	ldmia.w	sp!, {r4, r5, r6, r7, r8, pc}
10002ce0:	20005f50 	.word	0x20005f50
10002ce4:	20001200 	.word	0x20001200

10002ce8 <tcp_oos_insert_segment>:
10002ce8:	b570      	push	{r4, r5, r6, lr}
10002cea:	4605      	mov	r5, r0
10002cec:	460c      	mov	r4, r1
10002cee:	68c3      	ldr	r3, [r0, #12]
10002cf0:	8998      	ldrh	r0, [r3, #12]
10002cf2:	f7fd ff61 	bl	10000bb8 <lwip_htons>
10002cf6:	f010 0f01 	tst.w	r0, #1
10002cfa:	d009      	beq.n	10002d10 <tcp_oos_insert_segment+0x28>
10002cfc:	4620      	mov	r0, r4
10002cfe:	f7ff f887 	bl	10001e10 <tcp_segs_free>
10002d02:	2400      	movs	r4, #0
10002d04:	e029      	b.n	10002d5a <tcp_oos_insert_segment+0x72>
10002d06:	6826      	ldr	r6, [r4, #0]
10002d08:	4620      	mov	r0, r4
10002d0a:	f7ff f874 	bl	10001df6 <tcp_seg_free>
10002d0e:	4634      	mov	r4, r6
10002d10:	b1cc      	cbz	r4, 10002d46 <tcp_oos_insert_segment+0x5e>
10002d12:	892b      	ldrh	r3, [r5, #8]
10002d14:	4a15      	ldr	r2, [pc, #84]	@ (10002d6c <tcp_oos_insert_segment+0x84>)
10002d16:	6812      	ldr	r2, [r2, #0]
10002d18:	4413      	add	r3, r2
10002d1a:	68e1      	ldr	r1, [r4, #12]
10002d1c:	684a      	ldr	r2, [r1, #4]
10002d1e:	8920      	ldrh	r0, [r4, #8]
10002d20:	4402      	add	r2, r0
10002d22:	1a9b      	subs	r3, r3, r2
10002d24:	2b00      	cmp	r3, #0
10002d26:	db0e      	blt.n	10002d46 <tcp_oos_insert_segment+0x5e>
10002d28:	8988      	ldrh	r0, [r1, #12]
10002d2a:	f7fd ff45 	bl	10000bb8 <lwip_htons>
10002d2e:	f010 0f01 	tst.w	r0, #1
10002d32:	d0e8      	beq.n	10002d06 <tcp_oos_insert_segment+0x1e>
10002d34:	68eb      	ldr	r3, [r5, #12]
10002d36:	899e      	ldrh	r6, [r3, #12]
10002d38:	2001      	movs	r0, #1
10002d3a:	f7fd ff3d 	bl	10000bb8 <lwip_htons>
10002d3e:	68eb      	ldr	r3, [r5, #12]
10002d40:	4306      	orrs	r6, r0
10002d42:	819e      	strh	r6, [r3, #12]
10002d44:	e7df      	b.n	10002d06 <tcp_oos_insert_segment+0x1e>
10002d46:	b144      	cbz	r4, 10002d5a <tcp_oos_insert_segment+0x72>
10002d48:	68e3      	ldr	r3, [r4, #12]
10002d4a:	685a      	ldr	r2, [r3, #4]
10002d4c:	892b      	ldrh	r3, [r5, #8]
10002d4e:	4907      	ldr	r1, [pc, #28]	@ (10002d6c <tcp_oos_insert_segment+0x84>)
10002d50:	6809      	ldr	r1, [r1, #0]
10002d52:	440b      	add	r3, r1
10002d54:	1ad3      	subs	r3, r2, r3
10002d56:	2b00      	cmp	r3, #0
10002d58:	db01      	blt.n	10002d5e <tcp_oos_insert_segment+0x76>
10002d5a:	602c      	str	r4, [r5, #0]
10002d5c:	bd70      	pop	{r4, r5, r6, pc}
10002d5e:	1a52      	subs	r2, r2, r1
10002d60:	b291      	uxth	r1, r2
10002d62:	8129      	strh	r1, [r5, #8]
10002d64:	6868      	ldr	r0, [r5, #4]
10002d66:	f7fe fd4c 	bl	10001802 <pbuf_realloc>
10002d6a:	e7f6      	b.n	10002d5a <tcp_oos_insert_segment+0x72>
10002d6c:	20005f10 	.word	0x20005f10

10002d70 <tcp_receive>:
10002d70:	b5f8      	push	{r3, r4, r5, r6, r7, lr}
10002d72:	4604      	mov	r4, r0
10002d74:	4ba1      	ldr	r3, [pc, #644]	@ (10002ffc <tcp_receive+0x28c>)
10002d76:	781b      	ldrb	r3, [r3, #0]
10002d78:	f013 0f10 	tst.w	r3, #16
10002d7c:	f000 8121 	beq.w	10002fc2 <tcp_receive+0x252>
10002d80:	f8b0 0060 	ldrh.w	r0, [r0, #96]	@ 0x60
10002d84:	6da2      	ldr	r2, [r4, #88]	@ 0x58
10002d86:	1886      	adds	r6, r0, r2
10002d88:	6d61      	ldr	r1, [r4, #84]	@ 0x54
10002d8a:	4b9d      	ldr	r3, [pc, #628]	@ (10003000 <tcp_receive+0x290>)
10002d8c:	681b      	ldr	r3, [r3, #0]
10002d8e:	1acd      	subs	r5, r1, r3
10002d90:	2d00      	cmp	r5, #0
10002d92:	db0a      	blt.n	10002daa <tcp_receive+0x3a>
10002d94:	4299      	cmp	r1, r3
10002d96:	d04d      	beq.n	10002e34 <tcp_receive+0xc4>
10002d98:	499a      	ldr	r1, [pc, #616]	@ (10003004 <tcp_receive+0x294>)
10002d9a:	6809      	ldr	r1, [r1, #0]
10002d9c:	428a      	cmp	r2, r1
10002d9e:	d114      	bne.n	10002dca <tcp_receive+0x5a>
10002da0:	4a99      	ldr	r2, [pc, #612]	@ (10003008 <tcp_receive+0x298>)
10002da2:	6812      	ldr	r2, [r2, #0]
10002da4:	89d2      	ldrh	r2, [r2, #14]
10002da6:	4290      	cmp	r0, r2
10002da8:	d20f      	bcs.n	10002dca <tcp_receive+0x5a>
10002daa:	4a97      	ldr	r2, [pc, #604]	@ (10003008 <tcp_receive+0x298>)
10002dac:	6812      	ldr	r2, [r2, #0]
10002dae:	89d2      	ldrh	r2, [r2, #14]
10002db0:	b290      	uxth	r0, r2
10002db2:	f8a4 2060 	strh.w	r2, [r4, #96]	@ 0x60
10002db6:	f8b4 1062 	ldrh.w	r1, [r4, #98]	@ 0x62
10002dba:	4288      	cmp	r0, r1
10002dbc:	d901      	bls.n	10002dc2 <tcp_receive+0x52>
10002dbe:	f8a4 2062 	strh.w	r2, [r4, #98]	@ 0x62
10002dc2:	6563      	str	r3, [r4, #84]	@ 0x54
10002dc4:	4b8f      	ldr	r3, [pc, #572]	@ (10003004 <tcp_receive+0x294>)
10002dc6:	681b      	ldr	r3, [r3, #0]
10002dc8:	65a3      	str	r3, [r4, #88]	@ 0x58
10002dca:	6c62      	ldr	r2, [r4, #68]	@ 0x44
10002dcc:	4b8d      	ldr	r3, [pc, #564]	@ (10003004 <tcp_receive+0x294>)
10002dce:	681b      	ldr	r3, [r3, #0]
10002dd0:	1ad1      	subs	r1, r2, r3
10002dd2:	2900      	cmp	r1, #0
10002dd4:	db39      	blt.n	10002e4a <tcp_receive+0xda>
10002dd6:	498d      	ldr	r1, [pc, #564]	@ (1000300c <tcp_receive+0x29c>)
10002dd8:	8809      	ldrh	r1, [r1, #0]
10002dda:	2900      	cmp	r1, #0
10002ddc:	f040 80e9 	bne.w	10002fb2 <tcp_receive+0x242>
10002de0:	6da1      	ldr	r1, [r4, #88]	@ 0x58
10002de2:	f8b4 0060 	ldrh.w	r0, [r4, #96]	@ 0x60
10002de6:	4401      	add	r1, r0
10002de8:	42b1      	cmp	r1, r6
10002dea:	f040 80e2 	bne.w	10002fb2 <tcp_receive+0x242>
10002dee:	f9b4 1030 	ldrsh.w	r1, [r4, #48]	@ 0x30
10002df2:	2900      	cmp	r1, #0
10002df4:	f2c0 80dd 	blt.w	10002fb2 <tcp_receive+0x242>
10002df8:	429a      	cmp	r2, r3
10002dfa:	f040 80da 	bne.w	10002fb2 <tcp_receive+0x242>
10002dfe:	f894 3043 	ldrb.w	r3, [r4, #67]	@ 0x43
10002e02:	2bff      	cmp	r3, #255	@ 0xff
10002e04:	d002      	beq.n	10002e0c <tcp_receive+0x9c>
10002e06:	3301      	adds	r3, #1
10002e08:	f884 3043 	strb.w	r3, [r4, #67]	@ 0x43
10002e0c:	f894 3043 	ldrb.w	r3, [r4, #67]	@ 0x43
10002e10:	2b03      	cmp	r3, #3
10002e12:	d908      	bls.n	10002e26 <tcp_receive+0xb6>
10002e14:	f8b4 1048 	ldrh.w	r1, [r4, #72]	@ 0x48
10002e18:	8e62      	ldrh	r2, [r4, #50]	@ 0x32
10002e1a:	440a      	add	r2, r1
10002e1c:	b292      	uxth	r2, r2
10002e1e:	4291      	cmp	r1, r2
10002e20:	d80e      	bhi.n	10002e40 <tcp_receive+0xd0>
10002e22:	f8a4 2048 	strh.w	r2, [r4, #72]	@ 0x48
10002e26:	2b02      	cmp	r3, #2
10002e28:	f240 80c3 	bls.w	10002fb2 <tcp_receive+0x242>
10002e2c:	4620      	mov	r0, r4
10002e2e:	f001 fe02 	bl	10004a36 <tcp_rexmit_fast>
10002e32:	e0be      	b.n	10002fb2 <tcp_receive+0x242>
10002e34:	4973      	ldr	r1, [pc, #460]	@ (10003004 <tcp_receive+0x294>)
10002e36:	6809      	ldr	r1, [r1, #0]
10002e38:	1a51      	subs	r1, r2, r1
10002e3a:	2900      	cmp	r1, #0
10002e3c:	daac      	bge.n	10002d98 <tcp_receive+0x28>
10002e3e:	e7b4      	b.n	10002daa <tcp_receive+0x3a>
10002e40:	f64f 72ff 	movw	r2, #65535	@ 0xffff
10002e44:	f8a4 2048 	strh.w	r2, [r4, #72]	@ 0x48
10002e48:	e7ed      	b.n	10002e26 <tcp_receive+0xb6>
10002e4a:	1a99      	subs	r1, r3, r2
10002e4c:	2901      	cmp	r1, #1
10002e4e:	f100 80ad 	bmi.w	10002fac <tcp_receive+0x23c>
10002e52:	6d21      	ldr	r1, [r4, #80]	@ 0x50
10002e54:	1ac9      	subs	r1, r1, r3
10002e56:	2900      	cmp	r1, #0
10002e58:	f2c0 80a8 	blt.w	10002fac <tcp_receive+0x23c>
10002e5c:	8b61      	ldrh	r1, [r4, #26]
10002e5e:	f011 0f04 	tst.w	r1, #4
10002e62:	d009      	beq.n	10002e78 <tcp_receive+0x108>
10002e64:	f021 0104 	bic.w	r1, r1, #4
10002e68:	8361      	strh	r1, [r4, #26]
10002e6a:	f8b4 104a 	ldrh.w	r1, [r4, #74]	@ 0x4a
10002e6e:	f8a4 1048 	strh.w	r1, [r4, #72]	@ 0x48
10002e72:	2100      	movs	r1, #0
10002e74:	f8a4 106a 	strh.w	r1, [r4, #106]	@ 0x6a
10002e78:	2000      	movs	r0, #0
10002e7a:	f884 0042 	strb.w	r0, [r4, #66]	@ 0x42
10002e7e:	f9b4 503c 	ldrsh.w	r5, [r4, #60]	@ 0x3c
10002e82:	8fe1      	ldrh	r1, [r4, #62]	@ 0x3e
10002e84:	eb01 01e5 	add.w	r1, r1, r5, asr #3
10002e88:	f8a4 1040 	strh.w	r1, [r4, #64]	@ 0x40
10002e8c:	b299      	uxth	r1, r3
10002e8e:	b292      	uxth	r2, r2
10002e90:	1a8a      	subs	r2, r1, r2
10002e92:	b292      	uxth	r2, r2
10002e94:	f884 0043 	strb.w	r0, [r4, #67]	@ 0x43
10002e98:	6463      	str	r3, [r4, #68]	@ 0x44
10002e9a:	7d23      	ldrb	r3, [r4, #20]
10002e9c:	2b03      	cmp	r3, #3
10002e9e:	d917      	bls.n	10002ed0 <tcp_receive+0x160>
10002ea0:	f8b4 3048 	ldrh.w	r3, [r4, #72]	@ 0x48
10002ea4:	f8b4 104a 	ldrh.w	r1, [r4, #74]	@ 0x4a
10002ea8:	428b      	cmp	r3, r1
10002eaa:	d249      	bcs.n	10002f40 <tcp_receive+0x1d0>
10002eac:	8b61      	ldrh	r1, [r4, #26]
10002eae:	f411 6f00 	tst.w	r1, #2048	@ 0x800
10002eb2:	d03e      	beq.n	10002f32 <tcp_receive+0x1c2>
10002eb4:	2101      	movs	r1, #1
10002eb6:	8e60      	ldrh	r0, [r4, #50]	@ 0x32
10002eb8:	fb11 f100 	smulbb	r1, r1, r0
10002ebc:	b289      	uxth	r1, r1
10002ebe:	4291      	cmp	r1, r2
10002ec0:	bf94      	ite	ls
10002ec2:	1858      	addls	r0, r3, r1
10002ec4:	1898      	addhi	r0, r3, r2
10002ec6:	b282      	uxth	r2, r0
10002ec8:	4293      	cmp	r3, r2
10002eca:	d834      	bhi.n	10002f36 <tcp_receive+0x1c6>
10002ecc:	f8a4 2048 	strh.w	r2, [r4, #72]	@ 0x48
10002ed0:	6ee3      	ldr	r3, [r4, #108]	@ 0x6c
10002ed2:	4a4f      	ldr	r2, [pc, #316]	@ (10003010 <tcp_receive+0x2a0>)
10002ed4:	6f21      	ldr	r1, [r4, #112]	@ 0x70
10002ed6:	4620      	mov	r0, r4
10002ed8:	f7ff fed0 	bl	10002c7c <tcp_free_acked_segments>
10002edc:	4603      	mov	r3, r0
10002ede:	6720      	str	r0, [r4, #112]	@ 0x70
10002ee0:	4a4c      	ldr	r2, [pc, #304]	@ (10003014 <tcp_receive+0x2a4>)
10002ee2:	6ee1      	ldr	r1, [r4, #108]	@ 0x6c
10002ee4:	4620      	mov	r0, r4
10002ee6:	f7ff fec9 	bl	10002c7c <tcp_free_acked_segments>
10002eea:	66e0      	str	r0, [r4, #108]	@ 0x6c
10002eec:	6f22      	ldr	r2, [r4, #112]	@ 0x70
10002eee:	2a00      	cmp	r2, #0
10002ef0:	d047      	beq.n	10002f82 <tcp_receive+0x212>
10002ef2:	2300      	movs	r3, #0
10002ef4:	8623      	strh	r3, [r4, #48]	@ 0x30
10002ef6:	2300      	movs	r3, #0
10002ef8:	7723      	strb	r3, [r4, #28]
10002efa:	2800      	cmp	r0, #0
10002efc:	d045      	beq.n	10002f8a <tcp_receive+0x21a>
10002efe:	f8b4 3064 	ldrh.w	r3, [r4, #100]	@ 0x64
10002f02:	4945      	ldr	r1, [pc, #276]	@ (10003018 <tcp_receive+0x2a8>)
10002f04:	8809      	ldrh	r1, [r1, #0]
10002f06:	440b      	add	r3, r1
10002f08:	f8a4 3064 	strh.w	r3, [r4, #100]	@ 0x64
10002f0c:	8b63      	ldrh	r3, [r4, #26]
10002f0e:	f413 6f00 	tst.w	r3, #2048	@ 0x800
10002f12:	d04e      	beq.n	10002fb2 <tcp_receive+0x242>
10002f14:	2a00      	cmp	r2, #0
10002f16:	d03b      	beq.n	10002f90 <tcp_receive+0x220>
10002f18:	68d3      	ldr	r3, [r2, #12]
10002f1a:	6858      	ldr	r0, [r3, #4]
10002f1c:	f7fd fe51 	bl	10000bc2 <lwip_htonl>
10002f20:	6ce3      	ldr	r3, [r4, #76]	@ 0x4c
10002f22:	1ac0      	subs	r0, r0, r3
10002f24:	2800      	cmp	r0, #0
10002f26:	db44      	blt.n	10002fb2 <tcp_receive+0x242>
10002f28:	8b63      	ldrh	r3, [r4, #26]
10002f2a:	f423 6300 	bic.w	r3, r3, #2048	@ 0x800
10002f2e:	8363      	strh	r3, [r4, #26]
10002f30:	e03f      	b.n	10002fb2 <tcp_receive+0x242>
10002f32:	2102      	movs	r1, #2
10002f34:	e7bf      	b.n	10002eb6 <tcp_receive+0x146>
10002f36:	f64f 73ff 	movw	r3, #65535	@ 0xffff
10002f3a:	f8a4 3048 	strh.w	r3, [r4, #72]	@ 0x48
10002f3e:	e7c7      	b.n	10002ed0 <tcp_receive+0x160>
10002f40:	f8b4 106a 	ldrh.w	r1, [r4, #106]	@ 0x6a
10002f44:	440a      	add	r2, r1
10002f46:	b292      	uxth	r2, r2
10002f48:	4291      	cmp	r1, r2
10002f4a:	d810      	bhi.n	10002f6e <tcp_receive+0x1fe>
10002f4c:	f8a4 206a 	strh.w	r2, [r4, #106]	@ 0x6a
10002f50:	f8b4 206a 	ldrh.w	r2, [r4, #106]	@ 0x6a
10002f54:	4293      	cmp	r3, r2
10002f56:	d8bb      	bhi.n	10002ed0 <tcp_receive+0x160>
10002f58:	1ad2      	subs	r2, r2, r3
10002f5a:	f8a4 206a 	strh.w	r2, [r4, #106]	@ 0x6a
10002f5e:	8e62      	ldrh	r2, [r4, #50]	@ 0x32
10002f60:	441a      	add	r2, r3
10002f62:	b292      	uxth	r2, r2
10002f64:	4293      	cmp	r3, r2
10002f66:	d807      	bhi.n	10002f78 <tcp_receive+0x208>
10002f68:	f8a4 2048 	strh.w	r2, [r4, #72]	@ 0x48
10002f6c:	e7b0      	b.n	10002ed0 <tcp_receive+0x160>
10002f6e:	f64f 72ff 	movw	r2, #65535	@ 0xffff
10002f72:	f8a4 206a 	strh.w	r2, [r4, #106]	@ 0x6a
10002f76:	e7eb      	b.n	10002f50 <tcp_receive+0x1e0>
10002f78:	f64f 73ff 	movw	r3, #65535	@ 0xffff
10002f7c:	f8a4 3048 	strh.w	r3, [r4, #72]	@ 0x48
10002f80:	e7a6      	b.n	10002ed0 <tcp_receive+0x160>
10002f82:	f64f 73ff 	movw	r3, #65535	@ 0xffff
10002f86:	8623      	strh	r3, [r4, #48]	@ 0x30
10002f88:	e7b5      	b.n	10002ef6 <tcp_receive+0x186>
10002f8a:	f8a4 3068 	strh.w	r3, [r4, #104]	@ 0x68
10002f8e:	e7b6      	b.n	10002efe <tcp_receive+0x18e>
10002f90:	b138      	cbz	r0, 10002fa2 <tcp_receive+0x232>
10002f92:	68c3      	ldr	r3, [r0, #12]
10002f94:	6858      	ldr	r0, [r3, #4]
10002f96:	f7fd fe14 	bl	10000bc2 <lwip_htonl>
10002f9a:	6ce3      	ldr	r3, [r4, #76]	@ 0x4c
10002f9c:	1ac3      	subs	r3, r0, r3
10002f9e:	2b00      	cmp	r3, #0
10002fa0:	db07      	blt.n	10002fb2 <tcp_receive+0x242>
10002fa2:	8b63      	ldrh	r3, [r4, #26]
10002fa4:	f423 6300 	bic.w	r3, r3, #2048	@ 0x800
10002fa8:	8363      	strh	r3, [r4, #26]
10002faa:	e002      	b.n	10002fb2 <tcp_receive+0x242>
10002fac:	4620      	mov	r0, r4
10002fae:	f001 fda3 	bl	10004af8 <tcp_send_empty_ack>
10002fb2:	6b63      	ldr	r3, [r4, #52]	@ 0x34
10002fb4:	b12b      	cbz	r3, 10002fc2 <tcp_receive+0x252>
10002fb6:	6ba2      	ldr	r2, [r4, #56]	@ 0x38
10002fb8:	4912      	ldr	r1, [pc, #72]	@ (10003004 <tcp_receive+0x294>)
10002fba:	6809      	ldr	r1, [r1, #0]
10002fbc:	1a52      	subs	r2, r2, r1
10002fbe:	2a00      	cmp	r2, #0
10002fc0:	db2e      	blt.n	10003020 <tcp_receive+0x2b0>
10002fc2:	4b12      	ldr	r3, [pc, #72]	@ (1000300c <tcp_receive+0x29c>)
10002fc4:	881b      	ldrh	r3, [r3, #0]
10002fc6:	2b00      	cmp	r3, #0
10002fc8:	f000 829f 	beq.w	1000350a <tcp_receive+0x79a>
10002fcc:	7d22      	ldrb	r2, [r4, #20]
10002fce:	2a06      	cmp	r2, #6
10002fd0:	f200 829b 	bhi.w	1000350a <tcp_receive+0x79a>
10002fd4:	6a60      	ldr	r0, [r4, #36]	@ 0x24
10002fd6:	4a0a      	ldr	r2, [pc, #40]	@ (10003000 <tcp_receive+0x290>)
10002fd8:	6812      	ldr	r2, [r2, #0]
10002fda:	1a81      	subs	r1, r0, r2
10002fdc:	2901      	cmp	r1, #1
10002fde:	d457      	bmi.n	10003090 <tcp_receive+0x320>
10002fe0:	4413      	add	r3, r2
10002fe2:	1a1b      	subs	r3, r3, r0
10002fe4:	2b01      	cmp	r3, #1
10002fe6:	d453      	bmi.n	10003090 <tcp_receive+0x320>
10002fe8:	4b0c      	ldr	r3, [pc, #48]	@ (1000301c <tcp_receive+0x2ac>)
10002fea:	6858      	ldr	r0, [r3, #4]
10002fec:	b289      	uxth	r1, r1
10002fee:	891a      	ldrh	r2, [r3, #8]
10002ff0:	1a52      	subs	r2, r2, r1
10002ff2:	811a      	strh	r2, [r3, #8]
10002ff4:	8902      	ldrh	r2, [r0, #8]
10002ff6:	1a52      	subs	r2, r2, r1
10002ff8:	b292      	uxth	r2, r2
10002ffa:	e03d      	b.n	10003078 <tcp_receive+0x308>
10002ffc:	20005f5e 	.word	0x20005f5e
10003000:	20005f10 	.word	0x20005f10
10003004:	20001200 	.word	0x20001200
10003008:	20005f30 	.word	0x20005f30
1000300c:	20005f58 	.word	0x20005f58
10003010:	1000cee8 	.word	0x1000cee8
10003014:	1000cef0 	.word	0x1000cef0
10003018:	20005f50 	.word	0x20005f50
1000301c:	20001d84 	.word	0x20001d84
10003020:	4aa2      	ldr	r2, [pc, #648]	@ (100032ac <tcp_receive+0x53c>)
10003022:	8816      	ldrh	r6, [r2, #0]
10003024:	b29b      	uxth	r3, r3
10003026:	1af2      	subs	r2, r6, r3
10003028:	b292      	uxth	r2, r2
1000302a:	f9b4 003c 	ldrsh.w	r0, [r4, #60]	@ 0x3c
1000302e:	f3c0 05cf 	ubfx	r5, r0, #3, #16
10003032:	1b52      	subs	r2, r2, r5
10003034:	b211      	sxth	r1, r2
10003036:	b280      	uxth	r0, r0
10003038:	fa10 f282 	uxtah	r2, r0, r2
1000303c:	b212      	sxth	r2, r2
1000303e:	87a2      	strh	r2, [r4, #60]	@ 0x3c
10003040:	2900      	cmp	r1, #0
10003042:	db0f      	blt.n	10003064 <tcp_receive+0x2f4>
10003044:	f9b4 303e 	ldrsh.w	r3, [r4, #62]	@ 0x3e
10003048:	eba1 01a3 	sub.w	r1, r1, r3, asr #2
1000304c:	b29b      	uxth	r3, r3
1000304e:	fa13 f181 	uxtah	r1, r3, r1
10003052:	87e1      	strh	r1, [r4, #62]	@ 0x3e
10003054:	10d2      	asrs	r2, r2, #3
10003056:	fa12 f181 	uxtah	r1, r2, r1
1000305a:	f8a4 1040 	strh.w	r1, [r4, #64]	@ 0x40
1000305e:	2300      	movs	r3, #0
10003060:	6363      	str	r3, [r4, #52]	@ 0x34
10003062:	e7ae      	b.n	10002fc2 <tcp_receive+0x252>
10003064:	1b9b      	subs	r3, r3, r6
10003066:	441d      	add	r5, r3
10003068:	b229      	sxth	r1, r5
1000306a:	e7eb      	b.n	10003044 <tcp_receive+0x2d4>
1000306c:	1ac9      	subs	r1, r1, r3
1000306e:	b289      	uxth	r1, r1
10003070:	8102      	strh	r2, [r0, #8]
10003072:	2300      	movs	r3, #0
10003074:	8143      	strh	r3, [r0, #10]
10003076:	6800      	ldr	r0, [r0, #0]
10003078:	8943      	ldrh	r3, [r0, #10]
1000307a:	428b      	cmp	r3, r1
1000307c:	d3f6      	bcc.n	1000306c <tcp_receive+0x2fc>
1000307e:	f7fe fad8 	bl	10001632 <pbuf_remove_header>
10003082:	6a63      	ldr	r3, [r4, #36]	@ 0x24
10003084:	4a8a      	ldr	r2, [pc, #552]	@ (100032b0 <tcp_receive+0x540>)
10003086:	6013      	str	r3, [r2, #0]
10003088:	4a8a      	ldr	r2, [pc, #552]	@ (100032b4 <tcp_receive+0x544>)
1000308a:	68d2      	ldr	r2, [r2, #12]
1000308c:	6053      	str	r3, [r2, #4]
1000308e:	e002      	b.n	10003096 <tcp_receive+0x326>
10003090:	1a12      	subs	r2, r2, r0
10003092:	2a00      	cmp	r2, #0
10003094:	db14      	blt.n	100030c0 <tcp_receive+0x350>
10003096:	4b86      	ldr	r3, [pc, #536]	@ (100032b0 <tcp_receive+0x540>)
10003098:	681a      	ldr	r2, [r3, #0]
1000309a:	6a61      	ldr	r1, [r4, #36]	@ 0x24
1000309c:	1a53      	subs	r3, r2, r1
1000309e:	2b00      	cmp	r3, #0
100030a0:	f2c0 822f 	blt.w	10003502 <tcp_receive+0x792>
100030a4:	8d23      	ldrh	r3, [r4, #40]	@ 0x28
100030a6:	440b      	add	r3, r1
100030a8:	1a9b      	subs	r3, r3, r2
100030aa:	2b01      	cmp	r3, #1
100030ac:	f100 8229 	bmi.w	10003502 <tcp_receive+0x792>
100030b0:	428a      	cmp	r2, r1
100030b2:	d00a      	beq.n	100030ca <tcp_receive+0x35a>
100030b4:	6f65      	ldr	r5, [r4, #116]	@ 0x74
100030b6:	2d00      	cmp	r5, #0
100030b8:	f000 8164 	beq.w	10003384 <tcp_receive+0x614>
100030bc:	2600      	movs	r6, #0
100030be:	e186      	b.n	100033ce <tcp_receive+0x65e>
100030c0:	8b63      	ldrh	r3, [r4, #26]
100030c2:	f043 0302 	orr.w	r3, r3, #2
100030c6:	8363      	strh	r3, [r4, #26]
100030c8:	e7e5      	b.n	10003096 <tcp_receive+0x326>
100030ca:	4b7a      	ldr	r3, [pc, #488]	@ (100032b4 <tcp_receive+0x544>)
100030cc:	891d      	ldrh	r5, [r3, #8]
100030ce:	68db      	ldr	r3, [r3, #12]
100030d0:	8998      	ldrh	r0, [r3, #12]
100030d2:	f7fd fd71 	bl	10000bb8 <lwip_htons>
100030d6:	f010 0f03 	tst.w	r0, #3
100030da:	d015      	beq.n	10003108 <tcp_receive+0x398>
100030dc:	2301      	movs	r3, #1
100030de:	442b      	add	r3, r5
100030e0:	b29b      	uxth	r3, r3
100030e2:	4a75      	ldr	r2, [pc, #468]	@ (100032b8 <tcp_receive+0x548>)
100030e4:	8013      	strh	r3, [r2, #0]
100030e6:	8d22      	ldrh	r2, [r4, #40]	@ 0x28
100030e8:	4293      	cmp	r3, r2
100030ea:	d80f      	bhi.n	1000310c <tcp_receive+0x39c>
100030ec:	6f63      	ldr	r3, [r4, #116]	@ 0x74
100030ee:	2b00      	cmp	r3, #0
100030f0:	f000 8092 	beq.w	10003218 <tcp_receive+0x4a8>
100030f4:	4b6f      	ldr	r3, [pc, #444]	@ (100032b4 <tcp_receive+0x544>)
100030f6:	68db      	ldr	r3, [r3, #12]
100030f8:	8998      	ldrh	r0, [r3, #12]
100030fa:	f7fd fd5d 	bl	10000bb8 <lwip_htons>
100030fe:	f010 0f01 	tst.w	r0, #1
10003102:	d142      	bne.n	1000318a <tcp_receive+0x41a>
10003104:	6f65      	ldr	r5, [r4, #116]	@ 0x74
10003106:	e04d      	b.n	100031a4 <tcp_receive+0x434>
10003108:	2300      	movs	r3, #0
1000310a:	e7e8      	b.n	100030de <tcp_receive+0x36e>
1000310c:	4b69      	ldr	r3, [pc, #420]	@ (100032b4 <tcp_receive+0x544>)
1000310e:	68db      	ldr	r3, [r3, #12]
10003110:	8998      	ldrh	r0, [r3, #12]
10003112:	f7fd fd51 	bl	10000bb8 <lwip_htons>
10003116:	f010 0f01 	tst.w	r0, #1
1000311a:	d11f      	bne.n	1000315c <tcp_receive+0x3ec>
1000311c:	8d22      	ldrh	r2, [r4, #40]	@ 0x28
1000311e:	4b65      	ldr	r3, [pc, #404]	@ (100032b4 <tcp_receive+0x544>)
10003120:	811a      	strh	r2, [r3, #8]
10003122:	68db      	ldr	r3, [r3, #12]
10003124:	8998      	ldrh	r0, [r3, #12]
10003126:	f7fd fd47 	bl	10000bb8 <lwip_htons>
1000312a:	f010 0f02 	tst.w	r0, #2
1000312e:	d003      	beq.n	10003138 <tcp_receive+0x3c8>
10003130:	4a60      	ldr	r2, [pc, #384]	@ (100032b4 <tcp_receive+0x544>)
10003132:	8913      	ldrh	r3, [r2, #8]
10003134:	3b01      	subs	r3, #1
10003136:	8113      	strh	r3, [r2, #8]
10003138:	4d5e      	ldr	r5, [pc, #376]	@ (100032b4 <tcp_receive+0x544>)
1000313a:	8929      	ldrh	r1, [r5, #8]
1000313c:	6868      	ldr	r0, [r5, #4]
1000313e:	f7fe fb60 	bl	10001802 <pbuf_realloc>
10003142:	892e      	ldrh	r6, [r5, #8]
10003144:	68eb      	ldr	r3, [r5, #12]
10003146:	8998      	ldrh	r0, [r3, #12]
10003148:	f7fd fd36 	bl	10000bb8 <lwip_htons>
1000314c:	f010 0f03 	tst.w	r0, #3
10003150:	d015      	beq.n	1000317e <tcp_receive+0x40e>
10003152:	2301      	movs	r3, #1
10003154:	441e      	add	r6, r3
10003156:	4b58      	ldr	r3, [pc, #352]	@ (100032b8 <tcp_receive+0x548>)
10003158:	801e      	strh	r6, [r3, #0]
1000315a:	e7c7      	b.n	100030ec <tcp_receive+0x37c>
1000315c:	4e55      	ldr	r6, [pc, #340]	@ (100032b4 <tcp_receive+0x544>)
1000315e:	68f3      	ldr	r3, [r6, #12]
10003160:	899d      	ldrh	r5, [r3, #12]
10003162:	4628      	mov	r0, r5
10003164:	f7fd fd28 	bl	10000bb8 <lwip_htons>
10003168:	f000 003e 	and.w	r0, r0, #62	@ 0x3e
1000316c:	f7fd fd24 	bl	10000bb8 <lwip_htons>
10003170:	68f2      	ldr	r2, [r6, #12]
10003172:	f425 557c 	bic.w	r5, r5, #16128	@ 0x3f00
10003176:	ea40 0305 	orr.w	r3, r0, r5
1000317a:	8193      	strh	r3, [r2, #12]
1000317c:	e7ce      	b.n	1000311c <tcp_receive+0x3ac>
1000317e:	2300      	movs	r3, #0
10003180:	e7e8      	b.n	10003154 <tcp_receive+0x3e4>
10003182:	6803      	ldr	r3, [r0, #0]
10003184:	6763      	str	r3, [r4, #116]	@ 0x74
10003186:	f7fe fe36 	bl	10001df6 <tcp_seg_free>
1000318a:	6f60      	ldr	r0, [r4, #116]	@ 0x74
1000318c:	2800      	cmp	r0, #0
1000318e:	d1f8      	bne.n	10003182 <tcp_receive+0x412>
10003190:	e042      	b.n	10003218 <tcp_receive+0x4a8>
10003192:	2300      	movs	r3, #0
10003194:	441f      	add	r7, r3
10003196:	4b48      	ldr	r3, [pc, #288]	@ (100032b8 <tcp_receive+0x548>)
10003198:	801f      	strh	r7, [r3, #0]
1000319a:	682e      	ldr	r6, [r5, #0]
1000319c:	4628      	mov	r0, r5
1000319e:	f7fe fe2a 	bl	10001df6 <tcp_seg_free>
100031a2:	4635      	mov	r5, r6
100031a4:	b365      	cbz	r5, 10003200 <tcp_receive+0x490>
100031a6:	4b44      	ldr	r3, [pc, #272]	@ (100032b8 <tcp_receive+0x548>)
100031a8:	881b      	ldrh	r3, [r3, #0]
100031aa:	4a41      	ldr	r2, [pc, #260]	@ (100032b0 <tcp_receive+0x540>)
100031ac:	6812      	ldr	r2, [r2, #0]
100031ae:	4413      	add	r3, r2
100031b0:	68e9      	ldr	r1, [r5, #12]
100031b2:	684a      	ldr	r2, [r1, #4]
100031b4:	8928      	ldrh	r0, [r5, #8]
100031b6:	4402      	add	r2, r0
100031b8:	1a9b      	subs	r3, r3, r2
100031ba:	2b00      	cmp	r3, #0
100031bc:	db20      	blt.n	10003200 <tcp_receive+0x490>
100031be:	8988      	ldrh	r0, [r1, #12]
100031c0:	f7fd fcfa 	bl	10000bb8 <lwip_htons>
100031c4:	f010 0f01 	tst.w	r0, #1
100031c8:	d0e7      	beq.n	1000319a <tcp_receive+0x42a>
100031ca:	4b3a      	ldr	r3, [pc, #232]	@ (100032b4 <tcp_receive+0x544>)
100031cc:	68db      	ldr	r3, [r3, #12]
100031ce:	8998      	ldrh	r0, [r3, #12]
100031d0:	f7fd fcf2 	bl	10000bb8 <lwip_htons>
100031d4:	f010 0f02 	tst.w	r0, #2
100031d8:	d1df      	bne.n	1000319a <tcp_receive+0x42a>
100031da:	4e36      	ldr	r6, [pc, #216]	@ (100032b4 <tcp_receive+0x544>)
100031dc:	68f3      	ldr	r3, [r6, #12]
100031de:	899f      	ldrh	r7, [r3, #12]
100031e0:	2001      	movs	r0, #1
100031e2:	f7fd fce9 	bl	10000bb8 <lwip_htons>
100031e6:	68f3      	ldr	r3, [r6, #12]
100031e8:	4307      	orrs	r7, r0
100031ea:	819f      	strh	r7, [r3, #12]
100031ec:	8937      	ldrh	r7, [r6, #8]
100031ee:	68f3      	ldr	r3, [r6, #12]
100031f0:	8998      	ldrh	r0, [r3, #12]
100031f2:	f7fd fce1 	bl	10000bb8 <lwip_htons>
100031f6:	f010 0f03 	tst.w	r0, #3
100031fa:	d0ca      	beq.n	10003192 <tcp_receive+0x422>
100031fc:	2301      	movs	r3, #1
100031fe:	e7c9      	b.n	10003194 <tcp_receive+0x424>
10003200:	b14d      	cbz	r5, 10003216 <tcp_receive+0x4a6>
10003202:	68eb      	ldr	r3, [r5, #12]
10003204:	685a      	ldr	r2, [r3, #4]
10003206:	4b2a      	ldr	r3, [pc, #168]	@ (100032b0 <tcp_receive+0x540>)
10003208:	6819      	ldr	r1, [r3, #0]
1000320a:	4b2b      	ldr	r3, [pc, #172]	@ (100032b8 <tcp_receive+0x548>)
1000320c:	881b      	ldrh	r3, [r3, #0]
1000320e:	440b      	add	r3, r1
10003210:	1ad3      	subs	r3, r2, r3
10003212:	2b00      	cmp	r3, #0
10003214:	db23      	blt.n	1000325e <tcp_receive+0x4ee>
10003216:	6765      	str	r5, [r4, #116]	@ 0x74
10003218:	4b27      	ldr	r3, [pc, #156]	@ (100032b8 <tcp_receive+0x548>)
1000321a:	881a      	ldrh	r2, [r3, #0]
1000321c:	4b24      	ldr	r3, [pc, #144]	@ (100032b0 <tcp_receive+0x540>)
1000321e:	681b      	ldr	r3, [r3, #0]
10003220:	4413      	add	r3, r2
10003222:	6263      	str	r3, [r4, #36]	@ 0x24
10003224:	8d23      	ldrh	r3, [r4, #40]	@ 0x28
10003226:	1a9b      	subs	r3, r3, r2
10003228:	8523      	strh	r3, [r4, #40]	@ 0x28
1000322a:	4620      	mov	r0, r4
1000322c:	f7fe fda3 	bl	10001d76 <tcp_update_rcv_ann_wnd>
10003230:	4b20      	ldr	r3, [pc, #128]	@ (100032b4 <tcp_receive+0x544>)
10003232:	685b      	ldr	r3, [r3, #4]
10003234:	891a      	ldrh	r2, [r3, #8]
10003236:	b122      	cbz	r2, 10003242 <tcp_receive+0x4d2>
10003238:	4a20      	ldr	r2, [pc, #128]	@ (100032bc <tcp_receive+0x54c>)
1000323a:	6013      	str	r3, [r2, #0]
1000323c:	4b1d      	ldr	r3, [pc, #116]	@ (100032b4 <tcp_receive+0x544>)
1000323e:	2200      	movs	r2, #0
10003240:	605a      	str	r2, [r3, #4]
10003242:	4b1c      	ldr	r3, [pc, #112]	@ (100032b4 <tcp_receive+0x544>)
10003244:	68db      	ldr	r3, [r3, #12]
10003246:	8998      	ldrh	r0, [r3, #12]
10003248:	f7fd fcb6 	bl	10000bb8 <lwip_htons>
1000324c:	f010 0f01 	tst.w	r0, #1
10003250:	d050      	beq.n	100032f4 <tcp_receive+0x584>
10003252:	4a1b      	ldr	r2, [pc, #108]	@ (100032c0 <tcp_receive+0x550>)
10003254:	7813      	ldrb	r3, [r2, #0]
10003256:	f043 0320 	orr.w	r3, r3, #32
1000325a:	7013      	strb	r3, [r2, #0]
1000325c:	e04a      	b.n	100032f4 <tcp_receive+0x584>
1000325e:	1a52      	subs	r2, r2, r1
10003260:	4b14      	ldr	r3, [pc, #80]	@ (100032b4 <tcp_receive+0x544>)
10003262:	811a      	strh	r2, [r3, #8]
10003264:	68db      	ldr	r3, [r3, #12]
10003266:	8998      	ldrh	r0, [r3, #12]
10003268:	f7fd fca6 	bl	10000bb8 <lwip_htons>
1000326c:	f010 0f02 	tst.w	r0, #2
10003270:	d003      	beq.n	1000327a <tcp_receive+0x50a>
10003272:	4a10      	ldr	r2, [pc, #64]	@ (100032b4 <tcp_receive+0x544>)
10003274:	8913      	ldrh	r3, [r2, #8]
10003276:	3b01      	subs	r3, #1
10003278:	8113      	strh	r3, [r2, #8]
1000327a:	4e0e      	ldr	r6, [pc, #56]	@ (100032b4 <tcp_receive+0x544>)
1000327c:	8931      	ldrh	r1, [r6, #8]
1000327e:	6870      	ldr	r0, [r6, #4]
10003280:	f7fe fabf 	bl	10001802 <pbuf_realloc>
10003284:	8937      	ldrh	r7, [r6, #8]
10003286:	68f3      	ldr	r3, [r6, #12]
10003288:	8998      	ldrh	r0, [r3, #12]
1000328a:	f7fd fc95 	bl	10000bb8 <lwip_htons>
1000328e:	f010 0f03 	tst.w	r0, #3
10003292:	d004      	beq.n	1000329e <tcp_receive+0x52e>
10003294:	2301      	movs	r3, #1
10003296:	441f      	add	r7, r3
10003298:	4b07      	ldr	r3, [pc, #28]	@ (100032b8 <tcp_receive+0x548>)
1000329a:	801f      	strh	r7, [r3, #0]
1000329c:	e7bb      	b.n	10003216 <tcp_receive+0x4a6>
1000329e:	2300      	movs	r3, #0
100032a0:	e7f9      	b.n	10003296 <tcp_receive+0x526>
100032a2:	2300      	movs	r3, #0
100032a4:	e038      	b.n	10003318 <tcp_receive+0x5a8>
100032a6:	2300      	movs	r3, #0
100032a8:	e047      	b.n	1000333a <tcp_receive+0x5ca>
100032aa:	bf00      	nop
100032ac:	20005f28 	.word	0x20005f28
100032b0:	20005f10 	.word	0x20005f10
100032b4:	20001d84 	.word	0x20001d84
100032b8:	20005f58 	.word	0x20005f58
100032bc:	20005f04 	.word	0x20005f04
100032c0:	20005f61 	.word	0x20005f61
100032c4:	4b99      	ldr	r3, [pc, #612]	@ (1000352c <tcp_receive+0x7bc>)
100032c6:	6019      	str	r1, [r3, #0]
100032c8:	2300      	movs	r3, #0
100032ca:	606b      	str	r3, [r5, #4]
100032cc:	68eb      	ldr	r3, [r5, #12]
100032ce:	8998      	ldrh	r0, [r3, #12]
100032d0:	f7fd fc72 	bl	10000bb8 <lwip_htons>
100032d4:	f010 0f01 	tst.w	r0, #1
100032d8:	d007      	beq.n	100032ea <tcp_receive+0x57a>
100032da:	4a95      	ldr	r2, [pc, #596]	@ (10003530 <tcp_receive+0x7c0>)
100032dc:	7813      	ldrb	r3, [r2, #0]
100032de:	f043 0320 	orr.w	r3, r3, #32
100032e2:	7013      	strb	r3, [r2, #0]
100032e4:	7d23      	ldrb	r3, [r4, #20]
100032e6:	2b04      	cmp	r3, #4
100032e8:	d039      	beq.n	1000335e <tcp_receive+0x5ee>
100032ea:	682b      	ldr	r3, [r5, #0]
100032ec:	6763      	str	r3, [r4, #116]	@ 0x74
100032ee:	4628      	mov	r0, r5
100032f0:	f7fe fd81 	bl	10001df6 <tcp_seg_free>
100032f4:	6f65      	ldr	r5, [r4, #116]	@ 0x74
100032f6:	2d00      	cmp	r5, #0
100032f8:	d034      	beq.n	10003364 <tcp_receive+0x5f4>
100032fa:	68ea      	ldr	r2, [r5, #12]
100032fc:	6853      	ldr	r3, [r2, #4]
100032fe:	6a61      	ldr	r1, [r4, #36]	@ 0x24
10003300:	428b      	cmp	r3, r1
10003302:	d12f      	bne.n	10003364 <tcp_receive+0x5f4>
10003304:	498b      	ldr	r1, [pc, #556]	@ (10003534 <tcp_receive+0x7c4>)
10003306:	600b      	str	r3, [r1, #0]
10003308:	892e      	ldrh	r6, [r5, #8]
1000330a:	8990      	ldrh	r0, [r2, #12]
1000330c:	f7fd fc54 	bl	10000bb8 <lwip_htons>
10003310:	f010 0f03 	tst.w	r0, #3
10003314:	d0c5      	beq.n	100032a2 <tcp_receive+0x532>
10003316:	2301      	movs	r3, #1
10003318:	441e      	add	r6, r3
1000331a:	6a63      	ldr	r3, [r4, #36]	@ 0x24
1000331c:	4433      	add	r3, r6
1000331e:	6263      	str	r3, [r4, #36]	@ 0x24
10003320:	68eb      	ldr	r3, [r5, #12]
10003322:	8998      	ldrh	r0, [r3, #12]
10003324:	f7fd fc48 	bl	10000bb8 <lwip_htons>
10003328:	892e      	ldrh	r6, [r5, #8]
1000332a:	68eb      	ldr	r3, [r5, #12]
1000332c:	8998      	ldrh	r0, [r3, #12]
1000332e:	f7fd fc43 	bl	10000bb8 <lwip_htons>
10003332:	f010 0f03 	tst.w	r0, #3
10003336:	d0b6      	beq.n	100032a6 <tcp_receive+0x536>
10003338:	2301      	movs	r3, #1
1000333a:	441e      	add	r6, r3
1000333c:	8d23      	ldrh	r3, [r4, #40]	@ 0x28
1000333e:	1b9b      	subs	r3, r3, r6
10003340:	8523      	strh	r3, [r4, #40]	@ 0x28
10003342:	4620      	mov	r0, r4
10003344:	f7fe fd17 	bl	10001d76 <tcp_update_rcv_ann_wnd>
10003348:	6869      	ldr	r1, [r5, #4]
1000334a:	890b      	ldrh	r3, [r1, #8]
1000334c:	2b00      	cmp	r3, #0
1000334e:	d0bd      	beq.n	100032cc <tcp_receive+0x55c>
10003350:	4b76      	ldr	r3, [pc, #472]	@ (1000352c <tcp_receive+0x7bc>)
10003352:	6818      	ldr	r0, [r3, #0]
10003354:	2800      	cmp	r0, #0
10003356:	d0b5      	beq.n	100032c4 <tcp_receive+0x554>
10003358:	f7fe fa94 	bl	10001884 <pbuf_cat>
1000335c:	e7b4      	b.n	100032c8 <tcp_receive+0x558>
1000335e:	2307      	movs	r3, #7
10003360:	7523      	strb	r3, [r4, #20]
10003362:	e7c2      	b.n	100032ea <tcp_receive+0x57a>
10003364:	8b63      	ldrh	r3, [r4, #26]
10003366:	f013 0f01 	tst.w	r3, #1
1000336a:	d007      	beq.n	1000337c <tcp_receive+0x60c>
1000336c:	f023 0301 	bic.w	r3, r3, #1
10003370:	b29b      	uxth	r3, r3
10003372:	8363      	strh	r3, [r4, #26]
10003374:	f043 0302 	orr.w	r3, r3, #2
10003378:	8363      	strh	r3, [r4, #26]
1000337a:	e0d5      	b.n	10003528 <tcp_receive+0x7b8>
1000337c:	f043 0301 	orr.w	r3, r3, #1
10003380:	8363      	strh	r3, [r4, #26]
10003382:	e0d1      	b.n	10003528 <tcp_receive+0x7b8>
10003384:	486c      	ldr	r0, [pc, #432]	@ (10003538 <tcp_receive+0x7c8>)
10003386:	f7fe fd50 	bl	10001e2a <tcp_seg_copy>
1000338a:	6760      	str	r0, [r4, #116]	@ 0x74
1000338c:	e004      	b.n	10003398 <tcp_receive+0x628>
1000338e:	4b6a      	ldr	r3, [pc, #424]	@ (10003538 <tcp_receive+0x7c8>)
10003390:	891a      	ldrh	r2, [r3, #8]
10003392:	892b      	ldrh	r3, [r5, #8]
10003394:	429a      	cmp	r2, r3
10003396:	d803      	bhi.n	100033a0 <tcp_receive+0x630>
10003398:	4620      	mov	r0, r4
1000339a:	f001 fbad 	bl	10004af8 <tcp_send_empty_ack>
1000339e:	e0c3      	b.n	10003528 <tcp_receive+0x7b8>
100033a0:	4865      	ldr	r0, [pc, #404]	@ (10003538 <tcp_receive+0x7c8>)
100033a2:	f7fe fd42 	bl	10001e2a <tcp_seg_copy>
100033a6:	4603      	mov	r3, r0
100033a8:	2800      	cmp	r0, #0
100033aa:	d0f5      	beq.n	10003398 <tcp_receive+0x628>
100033ac:	b12e      	cbz	r6, 100033ba <tcp_receive+0x64a>
100033ae:	6030      	str	r0, [r6, #0]
100033b0:	4629      	mov	r1, r5
100033b2:	4618      	mov	r0, r3
100033b4:	f7ff fc98 	bl	10002ce8 <tcp_oos_insert_segment>
100033b8:	e7ee      	b.n	10003398 <tcp_receive+0x628>
100033ba:	6760      	str	r0, [r4, #116]	@ 0x74
100033bc:	e7f8      	b.n	100033b0 <tcp_receive+0x640>
100033be:	1ad1      	subs	r1, r2, r3
100033c0:	2900      	cmp	r1, #0
100033c2:	db29      	blt.n	10003418 <tcp_receive+0x6a8>
100033c4:	6829      	ldr	r1, [r5, #0]
100033c6:	462e      	mov	r6, r5
100033c8:	2900      	cmp	r1, #0
100033ca:	d036      	beq.n	1000343a <tcp_receive+0x6ca>
100033cc:	460d      	mov	r5, r1
100033ce:	2d00      	cmp	r5, #0
100033d0:	d0e2      	beq.n	10003398 <tcp_receive+0x628>
100033d2:	68e8      	ldr	r0, [r5, #12]
100033d4:	6843      	ldr	r3, [r0, #4]
100033d6:	429a      	cmp	r2, r3
100033d8:	d0d9      	beq.n	1000338e <tcp_receive+0x61e>
100033da:	2e00      	cmp	r6, #0
100033dc:	d0ef      	beq.n	100033be <tcp_receive+0x64e>
100033de:	68f1      	ldr	r1, [r6, #12]
100033e0:	6849      	ldr	r1, [r1, #4]
100033e2:	1a51      	subs	r1, r2, r1
100033e4:	2901      	cmp	r1, #1
100033e6:	d4ed      	bmi.n	100033c4 <tcp_receive+0x654>
100033e8:	1a99      	subs	r1, r3, r2
100033ea:	2901      	cmp	r1, #1
100033ec:	d4ea      	bmi.n	100033c4 <tcp_receive+0x654>
100033ee:	4852      	ldr	r0, [pc, #328]	@ (10003538 <tcp_receive+0x7c8>)
100033f0:	f7fe fd1b 	bl	10001e2a <tcp_seg_copy>
100033f4:	4607      	mov	r7, r0
100033f6:	2800      	cmp	r0, #0
100033f8:	d0ce      	beq.n	10003398 <tcp_receive+0x628>
100033fa:	4b4e      	ldr	r3, [pc, #312]	@ (10003534 <tcp_receive+0x7c4>)
100033fc:	681a      	ldr	r2, [r3, #0]
100033fe:	68f3      	ldr	r3, [r6, #12]
10003400:	6859      	ldr	r1, [r3, #4]
10003402:	8933      	ldrh	r3, [r6, #8]
10003404:	440b      	add	r3, r1
10003406:	1ad3      	subs	r3, r2, r3
10003408:	2b00      	cmp	r3, #0
1000340a:	db0f      	blt.n	1000342c <tcp_receive+0x6bc>
1000340c:	6037      	str	r7, [r6, #0]
1000340e:	4629      	mov	r1, r5
10003410:	4638      	mov	r0, r7
10003412:	f7ff fc69 	bl	10002ce8 <tcp_oos_insert_segment>
10003416:	e7bf      	b.n	10003398 <tcp_receive+0x628>
10003418:	4847      	ldr	r0, [pc, #284]	@ (10003538 <tcp_receive+0x7c8>)
1000341a:	f7fe fd06 	bl	10001e2a <tcp_seg_copy>
1000341e:	2800      	cmp	r0, #0
10003420:	d0ba      	beq.n	10003398 <tcp_receive+0x628>
10003422:	6760      	str	r0, [r4, #116]	@ 0x74
10003424:	4629      	mov	r1, r5
10003426:	f7ff fc5f 	bl	10002ce8 <tcp_oos_insert_segment>
1000342a:	e7b5      	b.n	10003398 <tcp_receive+0x628>
1000342c:	1a52      	subs	r2, r2, r1
1000342e:	b291      	uxth	r1, r2
10003430:	8131      	strh	r1, [r6, #8]
10003432:	6870      	ldr	r0, [r6, #4]
10003434:	f7fe f9e5 	bl	10001802 <pbuf_realloc>
10003438:	e7e8      	b.n	1000340c <tcp_receive+0x69c>
1000343a:	1a9b      	subs	r3, r3, r2
1000343c:	2b00      	cmp	r3, #0
1000343e:	db01      	blt.n	10003444 <tcp_receive+0x6d4>
10003440:	460d      	mov	r5, r1
10003442:	e7c4      	b.n	100033ce <tcp_receive+0x65e>
10003444:	8980      	ldrh	r0, [r0, #12]
10003446:	f7fd fbb7 	bl	10000bb8 <lwip_htons>
1000344a:	f010 0f01 	tst.w	r0, #1
1000344e:	d1a3      	bne.n	10003398 <tcp_receive+0x628>
10003450:	4839      	ldr	r0, [pc, #228]	@ (10003538 <tcp_receive+0x7c8>)
10003452:	f7fe fcea 	bl	10001e2a <tcp_seg_copy>
10003456:	6028      	str	r0, [r5, #0]
10003458:	2800      	cmp	r0, #0
1000345a:	d09d      	beq.n	10003398 <tcp_receive+0x628>
1000345c:	4b35      	ldr	r3, [pc, #212]	@ (10003534 <tcp_receive+0x7c4>)
1000345e:	681b      	ldr	r3, [r3, #0]
10003460:	68ea      	ldr	r2, [r5, #12]
10003462:	6851      	ldr	r1, [r2, #4]
10003464:	892a      	ldrh	r2, [r5, #8]
10003466:	440a      	add	r2, r1
10003468:	1a9a      	subs	r2, r3, r2
1000346a:	2a00      	cmp	r2, #0
1000346c:	db2e      	blt.n	100034cc <tcp_receive+0x75c>
1000346e:	6a63      	ldr	r3, [r4, #36]	@ 0x24
10003470:	8d22      	ldrh	r2, [r4, #40]	@ 0x28
10003472:	4413      	add	r3, r2
10003474:	4a31      	ldr	r2, [pc, #196]	@ (1000353c <tcp_receive+0x7cc>)
10003476:	8812      	ldrh	r2, [r2, #0]
10003478:	492e      	ldr	r1, [pc, #184]	@ (10003534 <tcp_receive+0x7c4>)
1000347a:	6809      	ldr	r1, [r1, #0]
1000347c:	440a      	add	r2, r1
1000347e:	1a9b      	subs	r3, r3, r2
10003480:	2b00      	cmp	r3, #0
10003482:	da89      	bge.n	10003398 <tcp_receive+0x628>
10003484:	682b      	ldr	r3, [r5, #0]
10003486:	68db      	ldr	r3, [r3, #12]
10003488:	8998      	ldrh	r0, [r3, #12]
1000348a:	f7fd fb95 	bl	10000bb8 <lwip_htons>
1000348e:	f010 0f01 	tst.w	r0, #1
10003492:	d122      	bne.n	100034da <tcp_receive+0x76a>
10003494:	6a62      	ldr	r2, [r4, #36]	@ 0x24
10003496:	8d23      	ldrh	r3, [r4, #40]	@ 0x28
10003498:	4413      	add	r3, r2
1000349a:	b29b      	uxth	r3, r3
1000349c:	682a      	ldr	r2, [r5, #0]
1000349e:	4925      	ldr	r1, [pc, #148]	@ (10003534 <tcp_receive+0x7c4>)
100034a0:	6809      	ldr	r1, [r1, #0]
100034a2:	1a5b      	subs	r3, r3, r1
100034a4:	8113      	strh	r3, [r2, #8]
100034a6:	682b      	ldr	r3, [r5, #0]
100034a8:	8919      	ldrh	r1, [r3, #8]
100034aa:	6858      	ldr	r0, [r3, #4]
100034ac:	f7fe f9a9 	bl	10001802 <pbuf_realloc>
100034b0:	682b      	ldr	r3, [r5, #0]
100034b2:	891d      	ldrh	r5, [r3, #8]
100034b4:	68db      	ldr	r3, [r3, #12]
100034b6:	8998      	ldrh	r0, [r3, #12]
100034b8:	f7fd fb7e 	bl	10000bb8 <lwip_htons>
100034bc:	f010 0f03 	tst.w	r0, #3
100034c0:	d01d      	beq.n	100034fe <tcp_receive+0x78e>
100034c2:	2301      	movs	r3, #1
100034c4:	441d      	add	r5, r3
100034c6:	4b1d      	ldr	r3, [pc, #116]	@ (1000353c <tcp_receive+0x7cc>)
100034c8:	801d      	strh	r5, [r3, #0]
100034ca:	e765      	b.n	10003398 <tcp_receive+0x628>
100034cc:	1a5b      	subs	r3, r3, r1
100034ce:	b299      	uxth	r1, r3
100034d0:	8129      	strh	r1, [r5, #8]
100034d2:	6868      	ldr	r0, [r5, #4]
100034d4:	f7fe f995 	bl	10001802 <pbuf_realloc>
100034d8:	e7c9      	b.n	1000346e <tcp_receive+0x6fe>
100034da:	682b      	ldr	r3, [r5, #0]
100034dc:	68db      	ldr	r3, [r3, #12]
100034de:	899e      	ldrh	r6, [r3, #12]
100034e0:	4630      	mov	r0, r6
100034e2:	f7fd fb69 	bl	10000bb8 <lwip_htons>
100034e6:	f000 003e 	and.w	r0, r0, #62	@ 0x3e
100034ea:	f7fd fb65 	bl	10000bb8 <lwip_htons>
100034ee:	682b      	ldr	r3, [r5, #0]
100034f0:	68da      	ldr	r2, [r3, #12]
100034f2:	f426 567c 	bic.w	r6, r6, #16128	@ 0x3f00
100034f6:	ea40 0306 	orr.w	r3, r0, r6
100034fa:	8193      	strh	r3, [r2, #12]
100034fc:	e7ca      	b.n	10003494 <tcp_receive+0x724>
100034fe:	2300      	movs	r3, #0
10003500:	e7e0      	b.n	100034c4 <tcp_receive+0x754>
10003502:	4620      	mov	r0, r4
10003504:	f001 faf8 	bl	10004af8 <tcp_send_empty_ack>
10003508:	e00e      	b.n	10003528 <tcp_receive+0x7b8>
1000350a:	4b0a      	ldr	r3, [pc, #40]	@ (10003534 <tcp_receive+0x7c4>)
1000350c:	681a      	ldr	r2, [r3, #0]
1000350e:	6a63      	ldr	r3, [r4, #36]	@ 0x24
10003510:	1ad1      	subs	r1, r2, r3
10003512:	2900      	cmp	r1, #0
10003514:	db04      	blt.n	10003520 <tcp_receive+0x7b0>
10003516:	8d21      	ldrh	r1, [r4, #40]	@ 0x28
10003518:	440b      	add	r3, r1
1000351a:	1a9b      	subs	r3, r3, r2
1000351c:	2b01      	cmp	r3, #1
1000351e:	d503      	bpl.n	10003528 <tcp_receive+0x7b8>
10003520:	8b63      	ldrh	r3, [r4, #26]
10003522:	f043 0302 	orr.w	r3, r3, #2
10003526:	8363      	strh	r3, [r4, #26]
10003528:	bdf8      	pop	{r3, r4, r5, r6, r7, pc}
1000352a:	bf00      	nop
1000352c:	20005f04 	.word	0x20005f04
10003530:	20005f61 	.word	0x20005f61
10003534:	20005f10 	.word	0x20005f10
10003538:	20001d84 	.word	0x20001d84
1000353c:	20005f58 	.word	0x20005f58

10003540 <tcp_process>:
10003540:	b570      	push	{r4, r5, r6, lr}
10003542:	b084      	sub	sp, #16
10003544:	4604      	mov	r4, r0
10003546:	4ba0      	ldr	r3, [pc, #640]	@ (100037c8 <tcp_process+0x288>)
10003548:	781b      	ldrb	r3, [r3, #0]
1000354a:	f013 0f04 	tst.w	r3, #4
1000354e:	d029      	beq.n	100035a4 <tcp_process+0x64>
10003550:	7d03      	ldrb	r3, [r0, #20]
10003552:	2b02      	cmp	r3, #2
10003554:	d011      	beq.n	1000357a <tcp_process+0x3a>
10003556:	6a43      	ldr	r3, [r0, #36]	@ 0x24
10003558:	4a9c      	ldr	r2, [pc, #624]	@ (100037cc <tcp_process+0x28c>)
1000355a:	6812      	ldr	r2, [r2, #0]
1000355c:	4293      	cmp	r3, r2
1000355e:	d015      	beq.n	1000358c <tcp_process+0x4c>
10003560:	1ad1      	subs	r1, r2, r3
10003562:	2900      	cmp	r1, #0
10003564:	db0e      	blt.n	10003584 <tcp_process+0x44>
10003566:	8d01      	ldrh	r1, [r0, #40]	@ 0x28
10003568:	440b      	add	r3, r1
1000356a:	1a9b      	subs	r3, r3, r2
1000356c:	2b00      	cmp	r3, #0
1000356e:	db09      	blt.n	10003584 <tcp_process+0x44>
10003570:	8b43      	ldrh	r3, [r0, #26]
10003572:	f043 0302 	orr.w	r3, r3, #2
10003576:	8343      	strh	r3, [r0, #26]
10003578:	e004      	b.n	10003584 <tcp_process+0x44>
1000357a:	6d02      	ldr	r2, [r0, #80]	@ 0x50
1000357c:	4b94      	ldr	r3, [pc, #592]	@ (100037d0 <tcp_process+0x290>)
1000357e:	681b      	ldr	r3, [r3, #0]
10003580:	429a      	cmp	r2, r3
10003582:	d003      	beq.n	1000358c <tcp_process+0x4c>
10003584:	2500      	movs	r5, #0
10003586:	4628      	mov	r0, r5
10003588:	b004      	add	sp, #16
1000358a:	bd70      	pop	{r4, r5, r6, pc}
1000358c:	4a91      	ldr	r2, [pc, #580]	@ (100037d4 <tcp_process+0x294>)
1000358e:	7813      	ldrb	r3, [r2, #0]
10003590:	f043 0308 	orr.w	r3, r3, #8
10003594:	7013      	strb	r3, [r2, #0]
10003596:	8b63      	ldrh	r3, [r4, #26]
10003598:	f023 0301 	bic.w	r3, r3, #1
1000359c:	8363      	strh	r3, [r4, #26]
1000359e:	f06f 050d 	mvn.w	r5, #13
100035a2:	e7f0      	b.n	10003586 <tcp_process+0x46>
100035a4:	f013 0f02 	tst.w	r3, #2
100035a8:	d004      	beq.n	100035b4 <tcp_process+0x74>
100035aa:	7d03      	ldrb	r3, [r0, #20]
100035ac:	3b02      	subs	r3, #2
100035ae:	b2db      	uxtb	r3, r3
100035b0:	2b01      	cmp	r3, #1
100035b2:	d828      	bhi.n	10003606 <tcp_process+0xc6>
100035b4:	8b63      	ldrh	r3, [r4, #26]
100035b6:	f013 0f10 	tst.w	r3, #16
100035ba:	d102      	bne.n	100035c2 <tcp_process+0x82>
100035bc:	4b86      	ldr	r3, [pc, #536]	@ (100037d8 <tcp_process+0x298>)
100035be:	681b      	ldr	r3, [r3, #0]
100035c0:	6223      	str	r3, [r4, #32]
100035c2:	2300      	movs	r3, #0
100035c4:	f884 309b 	strb.w	r3, [r4, #155]	@ 0x9b
100035c8:	f884 309a 	strb.w	r3, [r4, #154]	@ 0x9a
100035cc:	4620      	mov	r0, r4
100035ce:	f7ff fa07 	bl	100029e0 <tcp_parseopt>
100035d2:	4b7d      	ldr	r3, [pc, #500]	@ (100037c8 <tcp_process+0x288>)
100035d4:	781a      	ldrb	r2, [r3, #0]
100035d6:	f012 0102 	ands.w	r1, r2, #2
100035da:	d005      	beq.n	100035e8 <tcp_process+0xa8>
100035dc:	7d23      	ldrb	r3, [r4, #20]
100035de:	3b02      	subs	r3, #2
100035e0:	b2db      	uxtb	r3, r3
100035e2:	2b01      	cmp	r3, #1
100035e4:	f200 8213 	bhi.w	10003a0e <tcp_process+0x4ce>
100035e8:	7d23      	ldrb	r3, [r4, #20]
100035ea:	3b02      	subs	r3, #2
100035ec:	2b07      	cmp	r3, #7
100035ee:	f200 8210 	bhi.w	10003a12 <tcp_process+0x4d2>
100035f2:	e8df f013 	tbh	[pc, r3, lsl #1]
100035f6:	000e      	.short	0x000e
100035f8:	0127009a 	.word	0x0127009a
100035fc:	018f0138 	.word	0x018f0138
10003600:	01be0127 	.word	0x01be0127
10003604:	01f2      	.short	0x01f2
10003606:	8b43      	ldrh	r3, [r0, #26]
10003608:	f043 0302 	orr.w	r3, r3, #2
1000360c:	8343      	strh	r3, [r0, #26]
1000360e:	2500      	movs	r5, #0
10003610:	e7b9      	b.n	10003586 <tcp_process+0x46>
10003612:	f002 0312 	and.w	r3, r2, #18
10003616:	2b12      	cmp	r3, #18
10003618:	d004      	beq.n	10003624 <tcp_process+0xe4>
1000361a:	f012 0f10 	tst.w	r2, #16
1000361e:	d165      	bne.n	100036ec <tcp_process+0x1ac>
10003620:	2500      	movs	r5, #0
10003622:	e7b0      	b.n	10003586 <tcp_process+0x46>
10003624:	6c63      	ldr	r3, [r4, #68]	@ 0x44
10003626:	3301      	adds	r3, #1
10003628:	4969      	ldr	r1, [pc, #420]	@ (100037d0 <tcp_process+0x290>)
1000362a:	6809      	ldr	r1, [r1, #0]
1000362c:	428b      	cmp	r3, r1
1000362e:	d1f4      	bne.n	1000361a <tcp_process+0xda>
10003630:	4b66      	ldr	r3, [pc, #408]	@ (100037cc <tcp_process+0x28c>)
10003632:	681b      	ldr	r3, [r3, #0]
10003634:	1c5a      	adds	r2, r3, #1
10003636:	6262      	str	r2, [r4, #36]	@ 0x24
10003638:	62e2      	str	r2, [r4, #44]	@ 0x2c
1000363a:	6461      	str	r1, [r4, #68]	@ 0x44
1000363c:	4a67      	ldr	r2, [pc, #412]	@ (100037dc <tcp_process+0x29c>)
1000363e:	6812      	ldr	r2, [r2, #0]
10003640:	89d2      	ldrh	r2, [r2, #14]
10003642:	f8a4 2060 	strh.w	r2, [r4, #96]	@ 0x60
10003646:	f8a4 2062 	strh.w	r2, [r4, #98]	@ 0x62
1000364a:	3b01      	subs	r3, #1
1000364c:	6563      	str	r3, [r4, #84]	@ 0x54
1000364e:	2304      	movs	r3, #4
10003650:	7523      	strb	r3, [r4, #20]
10003652:	8e66      	ldrh	r6, [r4, #50]	@ 0x32
10003654:	18e5      	adds	r5, r4, r3
10003656:	4628      	mov	r0, r5
10003658:	f002 fcd8 	bl	1000600c <ip4_route>
1000365c:	4601      	mov	r1, r0
1000365e:	462a      	mov	r2, r5
10003660:	4630      	mov	r0, r6
10003662:	f7fe fc1d 	bl	10001ea0 <tcp_eff_send_mss_netif>
10003666:	8660      	strh	r0, [r4, #50]	@ 0x32
10003668:	0042      	lsls	r2, r0, #1
1000366a:	f241 131c 	movw	r3, #4380	@ 0x111c
1000366e:	4293      	cmp	r3, r2
10003670:	bf38      	it	cc
10003672:	4613      	movcc	r3, r2
10003674:	ebb3 0f80 	cmp.w	r3, r0, lsl #2
10003678:	d926      	bls.n	100036c8 <tcp_process+0x188>
1000367a:	0083      	lsls	r3, r0, #2
1000367c:	b29b      	uxth	r3, r3
1000367e:	f8a4 3048 	strh.w	r3, [r4, #72]	@ 0x48
10003682:	f8b4 3066 	ldrh.w	r3, [r4, #102]	@ 0x66
10003686:	3b01      	subs	r3, #1
10003688:	f8a4 3066 	strh.w	r3, [r4, #102]	@ 0x66
1000368c:	6f20      	ldr	r0, [r4, #112]	@ 0x70
1000368e:	b328      	cbz	r0, 100036dc <tcp_process+0x19c>
10003690:	6803      	ldr	r3, [r0, #0]
10003692:	6723      	str	r3, [r4, #112]	@ 0x70
10003694:	f7fe fbaf 	bl	10001df6 <tcp_seg_free>
10003698:	6f23      	ldr	r3, [r4, #112]	@ 0x70
1000369a:	b31b      	cbz	r3, 100036e4 <tcp_process+0x1a4>
1000369c:	2300      	movs	r3, #0
1000369e:	8623      	strh	r3, [r4, #48]	@ 0x30
100036a0:	f884 3042 	strb.w	r3, [r4, #66]	@ 0x42
100036a4:	f8d4 3088 	ldr.w	r3, [r4, #136]	@ 0x88
100036a8:	b143      	cbz	r3, 100036bc <tcp_process+0x17c>
100036aa:	2200      	movs	r2, #0
100036ac:	4621      	mov	r1, r4
100036ae:	6920      	ldr	r0, [r4, #16]
100036b0:	4798      	blx	r3
100036b2:	4605      	mov	r5, r0
100036b4:	f110 0f0d 	cmn.w	r0, #13
100036b8:	f43f af65 	beq.w	10003586 <tcp_process+0x46>
100036bc:	8b63      	ldrh	r3, [r4, #26]
100036be:	f043 0302 	orr.w	r3, r3, #2
100036c2:	8363      	strh	r3, [r4, #26]
100036c4:	2500      	movs	r5, #0
100036c6:	e75e      	b.n	10003586 <tcp_process+0x46>
100036c8:	f241 131c 	movw	r3, #4380	@ 0x111c
100036cc:	429a      	cmp	r2, r3
100036ce:	d902      	bls.n	100036d6 <tcp_process+0x196>
100036d0:	0043      	lsls	r3, r0, #1
100036d2:	b29b      	uxth	r3, r3
100036d4:	e7d3      	b.n	1000367e <tcp_process+0x13e>
100036d6:	f241 131c 	movw	r3, #4380	@ 0x111c
100036da:	e7d0      	b.n	1000367e <tcp_process+0x13e>
100036dc:	6ee0      	ldr	r0, [r4, #108]	@ 0x6c
100036de:	6803      	ldr	r3, [r0, #0]
100036e0:	66e3      	str	r3, [r4, #108]	@ 0x6c
100036e2:	e7d7      	b.n	10003694 <tcp_process+0x154>
100036e4:	f64f 73ff 	movw	r3, #65535	@ 0xffff
100036e8:	8623      	strh	r3, [r4, #48]	@ 0x30
100036ea:	e7db      	b.n	100036a4 <tcp_process+0x164>
100036ec:	4b3b      	ldr	r3, [pc, #236]	@ (100037dc <tcp_process+0x29c>)
100036ee:	6819      	ldr	r1, [r3, #0]
100036f0:	4b3b      	ldr	r3, [pc, #236]	@ (100037e0 <tcp_process+0x2a0>)
100036f2:	4a3c      	ldr	r2, [pc, #240]	@ (100037e4 <tcp_process+0x2a4>)
100036f4:	8810      	ldrh	r0, [r2, #0]
100036f6:	4a35      	ldr	r2, [pc, #212]	@ (100037cc <tcp_process+0x28c>)
100036f8:	6812      	ldr	r2, [r2, #0]
100036fa:	880d      	ldrh	r5, [r1, #0]
100036fc:	9502      	str	r5, [sp, #8]
100036fe:	8849      	ldrh	r1, [r1, #2]
10003700:	9101      	str	r1, [sp, #4]
10003702:	1f19      	subs	r1, r3, #4
10003704:	9100      	str	r1, [sp, #0]
10003706:	4402      	add	r2, r0
10003708:	4931      	ldr	r1, [pc, #196]	@ (100037d0 <tcp_process+0x290>)
1000370a:	6809      	ldr	r1, [r1, #0]
1000370c:	4620      	mov	r0, r4
1000370e:	f001 f9c0 	bl	10004a92 <tcp_rst>
10003712:	f894 3042 	ldrb.w	r3, [r4, #66]	@ 0x42
10003716:	2b05      	cmp	r3, #5
10003718:	d901      	bls.n	1000371e <tcp_process+0x1de>
1000371a:	2500      	movs	r5, #0
1000371c:	e733      	b.n	10003586 <tcp_process+0x46>
1000371e:	2500      	movs	r5, #0
10003720:	8625      	strh	r5, [r4, #48]	@ 0x30
10003722:	4620      	mov	r0, r4
10003724:	f001 fb3b 	bl	10004d9e <tcp_rexmit_rto>
10003728:	e72d      	b.n	10003586 <tcp_process+0x46>
1000372a:	b161      	cbz	r1, 10003746 <tcp_process+0x206>
1000372c:	6a63      	ldr	r3, [r4, #36]	@ 0x24
1000372e:	3b01      	subs	r3, #1
10003730:	4a26      	ldr	r2, [pc, #152]	@ (100037cc <tcp_process+0x28c>)
10003732:	6812      	ldr	r2, [r2, #0]
10003734:	4293      	cmp	r3, r2
10003736:	d001      	beq.n	1000373c <tcp_process+0x1fc>
10003738:	2500      	movs	r5, #0
1000373a:	e724      	b.n	10003586 <tcp_process+0x46>
1000373c:	4620      	mov	r0, r4
1000373e:	f001 f946 	bl	100049ce <tcp_rexmit>
10003742:	2500      	movs	r5, #0
10003744:	e71f      	b.n	10003586 <tcp_process+0x46>
10003746:	f012 0f10 	tst.w	r2, #16
1000374a:	f000 8164 	beq.w	10003a16 <tcp_process+0x4d6>
1000374e:	4b20      	ldr	r3, [pc, #128]	@ (100037d0 <tcp_process+0x290>)
10003750:	6819      	ldr	r1, [r3, #0]
10003752:	6c63      	ldr	r3, [r4, #68]	@ 0x44
10003754:	1acb      	subs	r3, r1, r3
10003756:	2b01      	cmp	r3, #1
10003758:	d461      	bmi.n	1000381e <tcp_process+0x2de>
1000375a:	6d23      	ldr	r3, [r4, #80]	@ 0x50
1000375c:	1a5b      	subs	r3, r3, r1
1000375e:	2b00      	cmp	r3, #0
10003760:	db5d      	blt.n	1000381e <tcp_process+0x2de>
10003762:	2304      	movs	r3, #4
10003764:	7523      	strb	r3, [r4, #20]
10003766:	6fe3      	ldr	r3, [r4, #124]	@ 0x7c
10003768:	2b00      	cmp	r3, #0
1000376a:	d03f      	beq.n	100037ec <tcp_process+0x2ac>
1000376c:	699b      	ldr	r3, [r3, #24]
1000376e:	2b00      	cmp	r3, #0
10003770:	d044      	beq.n	100037fc <tcp_process+0x2bc>
10003772:	2200      	movs	r2, #0
10003774:	4621      	mov	r1, r4
10003776:	6920      	ldr	r0, [r4, #16]
10003778:	4798      	blx	r3
1000377a:	4605      	mov	r5, r0
1000377c:	2800      	cmp	r0, #0
1000377e:	d137      	bne.n	100037f0 <tcp_process+0x2b0>
10003780:	4620      	mov	r0, r4
10003782:	f7ff faf5 	bl	10002d70 <tcp_receive>
10003786:	4b18      	ldr	r3, [pc, #96]	@ (100037e8 <tcp_process+0x2a8>)
10003788:	881b      	ldrh	r3, [r3, #0]
1000378a:	b113      	cbz	r3, 10003792 <tcp_process+0x252>
1000378c:	3b01      	subs	r3, #1
1000378e:	4a16      	ldr	r2, [pc, #88]	@ (100037e8 <tcp_process+0x2a8>)
10003790:	8013      	strh	r3, [r2, #0]
10003792:	8e63      	ldrh	r3, [r4, #50]	@ 0x32
10003794:	0059      	lsls	r1, r3, #1
10003796:	f241 121c 	movw	r2, #4380	@ 0x111c
1000379a:	428a      	cmp	r2, r1
1000379c:	bf38      	it	cc
1000379e:	460a      	movcc	r2, r1
100037a0:	ebb2 0f83 	cmp.w	r2, r3, lsl #2
100037a4:	d931      	bls.n	1000380a <tcp_process+0x2ca>
100037a6:	009b      	lsls	r3, r3, #2
100037a8:	b29b      	uxth	r3, r3
100037aa:	f8a4 3048 	strh.w	r3, [r4, #72]	@ 0x48
100037ae:	4b09      	ldr	r3, [pc, #36]	@ (100037d4 <tcp_process+0x294>)
100037b0:	781b      	ldrb	r3, [r3, #0]
100037b2:	f013 0f20 	tst.w	r3, #32
100037b6:	f43f aee6 	beq.w	10003586 <tcp_process+0x46>
100037ba:	8b63      	ldrh	r3, [r4, #26]
100037bc:	f043 0302 	orr.w	r3, r3, #2
100037c0:	8363      	strh	r3, [r4, #26]
100037c2:	2307      	movs	r3, #7
100037c4:	7523      	strb	r3, [r4, #20]
100037c6:	e6de      	b.n	10003586 <tcp_process+0x46>
100037c8:	20005f5e 	.word	0x20005f5e
100037cc:	20005f10 	.word	0x20005f10
100037d0:	20001200 	.word	0x20001200
100037d4:	20005f61 	.word	0x20005f61
100037d8:	20005f28 	.word	0x20005f28
100037dc:	20005f30 	.word	0x20005f30
100037e0:	20001da8 	.word	0x20001da8
100037e4:	20005f58 	.word	0x20005f58
100037e8:	20005f50 	.word	0x20005f50
100037ec:	f06f 0505 	mvn.w	r5, #5
100037f0:	f115 0f0d 	cmn.w	r5, #13
100037f4:	d105      	bne.n	10003802 <tcp_process+0x2c2>
100037f6:	f06f 050c 	mvn.w	r5, #12
100037fa:	e6c4      	b.n	10003586 <tcp_process+0x46>
100037fc:	f06f 050f 	mvn.w	r5, #15
10003800:	e7f6      	b.n	100037f0 <tcp_process+0x2b0>
10003802:	4620      	mov	r0, r4
10003804:	f7fe fca0 	bl	10002148 <tcp_abort>
10003808:	e7f5      	b.n	100037f6 <tcp_process+0x2b6>
1000380a:	f241 121c 	movw	r2, #4380	@ 0x111c
1000380e:	4291      	cmp	r1, r2
10003810:	d902      	bls.n	10003818 <tcp_process+0x2d8>
10003812:	005b      	lsls	r3, r3, #1
10003814:	b29b      	uxth	r3, r3
10003816:	e7c8      	b.n	100037aa <tcp_process+0x26a>
10003818:	f241 131c 	movw	r3, #4380	@ 0x111c
1000381c:	e7c5      	b.n	100037aa <tcp_process+0x26a>
1000381e:	4b83      	ldr	r3, [pc, #524]	@ (10003a2c <tcp_process+0x4ec>)
10003820:	6818      	ldr	r0, [r3, #0]
10003822:	4b83      	ldr	r3, [pc, #524]	@ (10003a30 <tcp_process+0x4f0>)
10003824:	4a83      	ldr	r2, [pc, #524]	@ (10003a34 <tcp_process+0x4f4>)
10003826:	8815      	ldrh	r5, [r2, #0]
10003828:	4a83      	ldr	r2, [pc, #524]	@ (10003a38 <tcp_process+0x4f8>)
1000382a:	6812      	ldr	r2, [r2, #0]
1000382c:	8806      	ldrh	r6, [r0, #0]
1000382e:	9602      	str	r6, [sp, #8]
10003830:	8840      	ldrh	r0, [r0, #2]
10003832:	9001      	str	r0, [sp, #4]
10003834:	1f18      	subs	r0, r3, #4
10003836:	9000      	str	r0, [sp, #0]
10003838:	442a      	add	r2, r5
1000383a:	4620      	mov	r0, r4
1000383c:	f001 f929 	bl	10004a92 <tcp_rst>
10003840:	2500      	movs	r5, #0
10003842:	e6a0      	b.n	10003586 <tcp_process+0x46>
10003844:	4620      	mov	r0, r4
10003846:	f7ff fa93 	bl	10002d70 <tcp_receive>
1000384a:	4b7c      	ldr	r3, [pc, #496]	@ (10003a3c <tcp_process+0x4fc>)
1000384c:	781b      	ldrb	r3, [r3, #0]
1000384e:	f013 0f20 	tst.w	r3, #32
10003852:	f000 80e2 	beq.w	10003a1a <tcp_process+0x4da>
10003856:	8b63      	ldrh	r3, [r4, #26]
10003858:	f043 0302 	orr.w	r3, r3, #2
1000385c:	8363      	strh	r3, [r4, #26]
1000385e:	2307      	movs	r3, #7
10003860:	7523      	strb	r3, [r4, #20]
10003862:	2500      	movs	r5, #0
10003864:	e68f      	b.n	10003586 <tcp_process+0x46>
10003866:	4620      	mov	r0, r4
10003868:	f7ff fa82 	bl	10002d70 <tcp_receive>
1000386c:	4b73      	ldr	r3, [pc, #460]	@ (10003a3c <tcp_process+0x4fc>)
1000386e:	781b      	ldrb	r3, [r3, #0]
10003870:	f013 0f20 	tst.w	r3, #32
10003874:	d039      	beq.n	100038ea <tcp_process+0x3aa>
10003876:	4b72      	ldr	r3, [pc, #456]	@ (10003a40 <tcp_process+0x500>)
10003878:	781b      	ldrb	r3, [r3, #0]
1000387a:	f013 0f10 	tst.w	r3, #16
1000387e:	d004      	beq.n	1000388a <tcp_process+0x34a>
10003880:	6d22      	ldr	r2, [r4, #80]	@ 0x50
10003882:	4b70      	ldr	r3, [pc, #448]	@ (10003a44 <tcp_process+0x504>)
10003884:	681b      	ldr	r3, [r3, #0]
10003886:	429a      	cmp	r2, r3
10003888:	d007      	beq.n	1000389a <tcp_process+0x35a>
1000388a:	8b63      	ldrh	r3, [r4, #26]
1000388c:	f043 0302 	orr.w	r3, r3, #2
10003890:	8363      	strh	r3, [r4, #26]
10003892:	2308      	movs	r3, #8
10003894:	7523      	strb	r3, [r4, #20]
10003896:	2500      	movs	r5, #0
10003898:	e675      	b.n	10003586 <tcp_process+0x46>
1000389a:	6ee3      	ldr	r3, [r4, #108]	@ 0x6c
1000389c:	2b00      	cmp	r3, #0
1000389e:	d1f4      	bne.n	1000388a <tcp_process+0x34a>
100038a0:	8b63      	ldrh	r3, [r4, #26]
100038a2:	f043 0302 	orr.w	r3, r3, #2
100038a6:	8363      	strh	r3, [r4, #26]
100038a8:	4620      	mov	r0, r4
100038aa:	f7fe fb92 	bl	10001fd2 <tcp_pcb_purge>
100038ae:	4b66      	ldr	r3, [pc, #408]	@ (10003a48 <tcp_process+0x508>)
100038b0:	681b      	ldr	r3, [r3, #0]
100038b2:	42a3      	cmp	r3, r4
100038b4:	d005      	beq.n	100038c2 <tcp_process+0x382>
100038b6:	b153      	cbz	r3, 100038ce <tcp_process+0x38e>
100038b8:	68da      	ldr	r2, [r3, #12]
100038ba:	42a2      	cmp	r2, r4
100038bc:	d005      	beq.n	100038ca <tcp_process+0x38a>
100038be:	4613      	mov	r3, r2
100038c0:	e7f9      	b.n	100038b6 <tcp_process+0x376>
100038c2:	68da      	ldr	r2, [r3, #12]
100038c4:	4b60      	ldr	r3, [pc, #384]	@ (10003a48 <tcp_process+0x508>)
100038c6:	601a      	str	r2, [r3, #0]
100038c8:	e001      	b.n	100038ce <tcp_process+0x38e>
100038ca:	68e2      	ldr	r2, [r4, #12]
100038cc:	60da      	str	r2, [r3, #12]
100038ce:	2500      	movs	r5, #0
100038d0:	60e5      	str	r5, [r4, #12]
100038d2:	4b5e      	ldr	r3, [pc, #376]	@ (10003a4c <tcp_process+0x50c>)
100038d4:	2201      	movs	r2, #1
100038d6:	701a      	strb	r2, [r3, #0]
100038d8:	230a      	movs	r3, #10
100038da:	7523      	strb	r3, [r4, #20]
100038dc:	4b5c      	ldr	r3, [pc, #368]	@ (10003a50 <tcp_process+0x510>)
100038de:	681a      	ldr	r2, [r3, #0]
100038e0:	60e2      	str	r2, [r4, #12]
100038e2:	601c      	str	r4, [r3, #0]
100038e4:	f001 fb2c 	bl	10004f40 <tcp_timer_needed>
100038e8:	e64d      	b.n	10003586 <tcp_process+0x46>
100038ea:	4b55      	ldr	r3, [pc, #340]	@ (10003a40 <tcp_process+0x500>)
100038ec:	781b      	ldrb	r3, [r3, #0]
100038ee:	f013 0f10 	tst.w	r3, #16
100038f2:	f000 8094 	beq.w	10003a1e <tcp_process+0x4de>
100038f6:	6d22      	ldr	r2, [r4, #80]	@ 0x50
100038f8:	4b52      	ldr	r3, [pc, #328]	@ (10003a44 <tcp_process+0x504>)
100038fa:	681b      	ldr	r3, [r3, #0]
100038fc:	429a      	cmp	r2, r3
100038fe:	d001      	beq.n	10003904 <tcp_process+0x3c4>
10003900:	2500      	movs	r5, #0
10003902:	e640      	b.n	10003586 <tcp_process+0x46>
10003904:	6ee3      	ldr	r3, [r4, #108]	@ 0x6c
10003906:	b10b      	cbz	r3, 1000390c <tcp_process+0x3cc>
10003908:	2500      	movs	r5, #0
1000390a:	e63c      	b.n	10003586 <tcp_process+0x46>
1000390c:	2306      	movs	r3, #6
1000390e:	7523      	strb	r3, [r4, #20]
10003910:	2500      	movs	r5, #0
10003912:	e638      	b.n	10003586 <tcp_process+0x46>
10003914:	4620      	mov	r0, r4
10003916:	f7ff fa2b 	bl	10002d70 <tcp_receive>
1000391a:	4b48      	ldr	r3, [pc, #288]	@ (10003a3c <tcp_process+0x4fc>)
1000391c:	781b      	ldrb	r3, [r3, #0]
1000391e:	f013 0f20 	tst.w	r3, #32
10003922:	d101      	bne.n	10003928 <tcp_process+0x3e8>
10003924:	2500      	movs	r5, #0
10003926:	e62e      	b.n	10003586 <tcp_process+0x46>
10003928:	8b63      	ldrh	r3, [r4, #26]
1000392a:	f043 0302 	orr.w	r3, r3, #2
1000392e:	8363      	strh	r3, [r4, #26]
10003930:	4620      	mov	r0, r4
10003932:	f7fe fb4e 	bl	10001fd2 <tcp_pcb_purge>
10003936:	4b44      	ldr	r3, [pc, #272]	@ (10003a48 <tcp_process+0x508>)
10003938:	681b      	ldr	r3, [r3, #0]
1000393a:	42a3      	cmp	r3, r4
1000393c:	d005      	beq.n	1000394a <tcp_process+0x40a>
1000393e:	b153      	cbz	r3, 10003956 <tcp_process+0x416>
10003940:	68da      	ldr	r2, [r3, #12]
10003942:	42a2      	cmp	r2, r4
10003944:	d005      	beq.n	10003952 <tcp_process+0x412>
10003946:	4613      	mov	r3, r2
10003948:	e7f9      	b.n	1000393e <tcp_process+0x3fe>
1000394a:	68da      	ldr	r2, [r3, #12]
1000394c:	4b3e      	ldr	r3, [pc, #248]	@ (10003a48 <tcp_process+0x508>)
1000394e:	601a      	str	r2, [r3, #0]
10003950:	e001      	b.n	10003956 <tcp_process+0x416>
10003952:	68e2      	ldr	r2, [r4, #12]
10003954:	60da      	str	r2, [r3, #12]
10003956:	2500      	movs	r5, #0
10003958:	60e5      	str	r5, [r4, #12]
1000395a:	4b3c      	ldr	r3, [pc, #240]	@ (10003a4c <tcp_process+0x50c>)
1000395c:	2201      	movs	r2, #1
1000395e:	701a      	strb	r2, [r3, #0]
10003960:	230a      	movs	r3, #10
10003962:	7523      	strb	r3, [r4, #20]
10003964:	4b3a      	ldr	r3, [pc, #232]	@ (10003a50 <tcp_process+0x510>)
10003966:	681a      	ldr	r2, [r3, #0]
10003968:	60e2      	str	r2, [r4, #12]
1000396a:	601c      	str	r4, [r3, #0]
1000396c:	f001 fae8 	bl	10004f40 <tcp_timer_needed>
10003970:	e609      	b.n	10003586 <tcp_process+0x46>
10003972:	4620      	mov	r0, r4
10003974:	f7ff f9fc 	bl	10002d70 <tcp_receive>
10003978:	4b31      	ldr	r3, [pc, #196]	@ (10003a40 <tcp_process+0x500>)
1000397a:	781b      	ldrb	r3, [r3, #0]
1000397c:	f013 0f10 	tst.w	r3, #16
10003980:	d04f      	beq.n	10003a22 <tcp_process+0x4e2>
10003982:	6d22      	ldr	r2, [r4, #80]	@ 0x50
10003984:	4b2f      	ldr	r3, [pc, #188]	@ (10003a44 <tcp_process+0x504>)
10003986:	681b      	ldr	r3, [r3, #0]
10003988:	429a      	cmp	r2, r3
1000398a:	d001      	beq.n	10003990 <tcp_process+0x450>
1000398c:	2500      	movs	r5, #0
1000398e:	e5fa      	b.n	10003586 <tcp_process+0x46>
10003990:	6ee3      	ldr	r3, [r4, #108]	@ 0x6c
10003992:	b10b      	cbz	r3, 10003998 <tcp_process+0x458>
10003994:	2500      	movs	r5, #0
10003996:	e5f6      	b.n	10003586 <tcp_process+0x46>
10003998:	4620      	mov	r0, r4
1000399a:	f7fe fb1a 	bl	10001fd2 <tcp_pcb_purge>
1000399e:	4b2a      	ldr	r3, [pc, #168]	@ (10003a48 <tcp_process+0x508>)
100039a0:	681b      	ldr	r3, [r3, #0]
100039a2:	42a3      	cmp	r3, r4
100039a4:	d005      	beq.n	100039b2 <tcp_process+0x472>
100039a6:	b153      	cbz	r3, 100039be <tcp_process+0x47e>
100039a8:	68da      	ldr	r2, [r3, #12]
100039aa:	42a2      	cmp	r2, r4
100039ac:	d005      	beq.n	100039ba <tcp_process+0x47a>
100039ae:	4613      	mov	r3, r2
100039b0:	e7f9      	b.n	100039a6 <tcp_process+0x466>
100039b2:	68da      	ldr	r2, [r3, #12]
100039b4:	4b24      	ldr	r3, [pc, #144]	@ (10003a48 <tcp_process+0x508>)
100039b6:	601a      	str	r2, [r3, #0]
100039b8:	e001      	b.n	100039be <tcp_process+0x47e>
100039ba:	68e2      	ldr	r2, [r4, #12]
100039bc:	60da      	str	r2, [r3, #12]
100039be:	2500      	movs	r5, #0
100039c0:	60e5      	str	r5, [r4, #12]
100039c2:	4b22      	ldr	r3, [pc, #136]	@ (10003a4c <tcp_process+0x50c>)
100039c4:	2201      	movs	r2, #1
100039c6:	701a      	strb	r2, [r3, #0]
100039c8:	230a      	movs	r3, #10
100039ca:	7523      	strb	r3, [r4, #20]
100039cc:	4b20      	ldr	r3, [pc, #128]	@ (10003a50 <tcp_process+0x510>)
100039ce:	681a      	ldr	r2, [r3, #0]
100039d0:	60e2      	str	r2, [r4, #12]
100039d2:	601c      	str	r4, [r3, #0]
100039d4:	f001 fab4 	bl	10004f40 <tcp_timer_needed>
100039d8:	e5d5      	b.n	10003586 <tcp_process+0x46>
100039da:	4620      	mov	r0, r4
100039dc:	f7ff f9c8 	bl	10002d70 <tcp_receive>
100039e0:	4b17      	ldr	r3, [pc, #92]	@ (10003a40 <tcp_process+0x500>)
100039e2:	781b      	ldrb	r3, [r3, #0]
100039e4:	f013 0f10 	tst.w	r3, #16
100039e8:	d01d      	beq.n	10003a26 <tcp_process+0x4e6>
100039ea:	6d22      	ldr	r2, [r4, #80]	@ 0x50
100039ec:	4b15      	ldr	r3, [pc, #84]	@ (10003a44 <tcp_process+0x504>)
100039ee:	681b      	ldr	r3, [r3, #0]
100039f0:	429a      	cmp	r2, r3
100039f2:	d001      	beq.n	100039f8 <tcp_process+0x4b8>
100039f4:	2500      	movs	r5, #0
100039f6:	e5c6      	b.n	10003586 <tcp_process+0x46>
100039f8:	6ee3      	ldr	r3, [r4, #108]	@ 0x6c
100039fa:	b10b      	cbz	r3, 10003a00 <tcp_process+0x4c0>
100039fc:	2500      	movs	r5, #0
100039fe:	e5c2      	b.n	10003586 <tcp_process+0x46>
10003a00:	4a0e      	ldr	r2, [pc, #56]	@ (10003a3c <tcp_process+0x4fc>)
10003a02:	7813      	ldrb	r3, [r2, #0]
10003a04:	f043 0310 	orr.w	r3, r3, #16
10003a08:	7013      	strb	r3, [r2, #0]
10003a0a:	2500      	movs	r5, #0
10003a0c:	e5bb      	b.n	10003586 <tcp_process+0x46>
10003a0e:	2500      	movs	r5, #0
10003a10:	e5b9      	b.n	10003586 <tcp_process+0x46>
10003a12:	2500      	movs	r5, #0
10003a14:	e5b7      	b.n	10003586 <tcp_process+0x46>
10003a16:	2500      	movs	r5, #0
10003a18:	e5b5      	b.n	10003586 <tcp_process+0x46>
10003a1a:	2500      	movs	r5, #0
10003a1c:	e5b3      	b.n	10003586 <tcp_process+0x46>
10003a1e:	2500      	movs	r5, #0
10003a20:	e5b1      	b.n	10003586 <tcp_process+0x46>
10003a22:	2500      	movs	r5, #0
10003a24:	e5af      	b.n	10003586 <tcp_process+0x46>
10003a26:	2500      	movs	r5, #0
10003a28:	e5ad      	b.n	10003586 <tcp_process+0x46>
10003a2a:	bf00      	nop
10003a2c:	20005f30 	.word	0x20005f30
10003a30:	20001da8 	.word	0x20001da8
10003a34:	20005f58 	.word	0x20005f58
10003a38:	20005f10 	.word	0x20005f10
10003a3c:	20005f61 	.word	0x20005f61
10003a40:	20005f5e 	.word	0x20005f5e
10003a44:	20001200 	.word	0x20001200
10003a48:	20005f18 	.word	0x20005f18
10003a4c:	20005f62 	.word	0x20005f62
10003a50:	20005f2c 	.word	0x20005f2c

10003a54 <tcp_input>:
10003a54:	b5f0      	push	{r4, r5, r6, r7, lr}
10003a56:	b085      	sub	sp, #20
10003a58:	4604      	mov	r4, r0
10003a5a:	4aa2      	ldr	r2, [pc, #648]	@ (10003ce4 <tcp_input+0x290>)
10003a5c:	f8b2 3092 	ldrh.w	r3, [r2, #146]	@ 0x92
10003a60:	3301      	adds	r3, #1
10003a62:	f8a2 3092 	strh.w	r3, [r2, #146]	@ 0x92
10003a66:	6842      	ldr	r2, [r0, #4]
10003a68:	4b9f      	ldr	r3, [pc, #636]	@ (10003ce8 <tcp_input+0x294>)
10003a6a:	601a      	str	r2, [r3, #0]
10003a6c:	8943      	ldrh	r3, [r0, #10]
10003a6e:	2b13      	cmp	r3, #19
10003a70:	d810      	bhi.n	10003a94 <tcp_input+0x40>
10003a72:	4a9c      	ldr	r2, [pc, #624]	@ (10003ce4 <tcp_input+0x290>)
10003a74:	f8b2 309a 	ldrh.w	r3, [r2, #154]	@ 0x9a
10003a78:	3301      	adds	r3, #1
10003a7a:	f8a2 309a 	strh.w	r3, [r2, #154]	@ 0x9a
10003a7e:	4a99      	ldr	r2, [pc, #612]	@ (10003ce4 <tcp_input+0x290>)
10003a80:	f8b2 3096 	ldrh.w	r3, [r2, #150]	@ 0x96
10003a84:	3301      	adds	r3, #1
10003a86:	f8a2 3096 	strh.w	r3, [r2, #150]	@ 0x96
10003a8a:	4620      	mov	r0, r4
10003a8c:	f7fd fdff 	bl	1000168e <pbuf_free>
10003a90:	b005      	add	sp, #20
10003a92:	bdf0      	pop	{r4, r5, r6, r7, pc}
10003a94:	4b95      	ldr	r3, [pc, #596]	@ (10003cec <tcp_input+0x298>)
10003a96:	6819      	ldr	r1, [r3, #0]
10003a98:	6958      	ldr	r0, [r3, #20]
10003a9a:	f002 fc90 	bl	100063be <ip4_addr_isbroadcast_u32>
10003a9e:	b9a8      	cbnz	r0, 10003acc <tcp_input+0x78>
10003aa0:	4b92      	ldr	r3, [pc, #584]	@ (10003cec <tcp_input+0x298>)
10003aa2:	695b      	ldr	r3, [r3, #20]
10003aa4:	f003 03f0 	and.w	r3, r3, #240	@ 0xf0
10003aa8:	2be0      	cmp	r3, #224	@ 0xe0
10003aaa:	d00f      	beq.n	10003acc <tcp_input+0x78>
10003aac:	4b90      	ldr	r3, [pc, #576]	@ (10003cf0 <tcp_input+0x29c>)
10003aae:	1d1a      	adds	r2, r3, #4
10003ab0:	9200      	str	r2, [sp, #0]
10003ab2:	8922      	ldrh	r2, [r4, #8]
10003ab4:	2106      	movs	r1, #6
10003ab6:	4620      	mov	r0, r4
10003ab8:	f7fd f932 	bl	10000d20 <ip_chksum_pseudo>
10003abc:	b168      	cbz	r0, 10003ada <tcp_input+0x86>
10003abe:	4a89      	ldr	r2, [pc, #548]	@ (10003ce4 <tcp_input+0x290>)
10003ac0:	f8b2 3098 	ldrh.w	r3, [r2, #152]	@ 0x98
10003ac4:	3301      	adds	r3, #1
10003ac6:	f8a2 3098 	strh.w	r3, [r2, #152]	@ 0x98
10003aca:	e7d8      	b.n	10003a7e <tcp_input+0x2a>
10003acc:	4a85      	ldr	r2, [pc, #532]	@ (10003ce4 <tcp_input+0x290>)
10003ace:	f8b2 30a0 	ldrh.w	r3, [r2, #160]	@ 0xa0
10003ad2:	3301      	adds	r3, #1
10003ad4:	f8a2 30a0 	strh.w	r3, [r2, #160]	@ 0xa0
10003ad8:	e7d1      	b.n	10003a7e <tcp_input+0x2a>
10003ada:	4b83      	ldr	r3, [pc, #524]	@ (10003ce8 <tcp_input+0x294>)
10003adc:	681b      	ldr	r3, [r3, #0]
10003ade:	8998      	ldrh	r0, [r3, #12]
10003ae0:	f7fd f86a 	bl	10000bb8 <lwip_htons>
10003ae4:	f3c0 3107 	ubfx	r1, r0, #12, #8
10003ae8:	0089      	lsls	r1, r1, #2
10003aea:	b2c9      	uxtb	r1, r1
10003aec:	2913      	cmp	r1, #19
10003aee:	d94a      	bls.n	10003b86 <tcp_input+0x132>
10003af0:	8923      	ldrh	r3, [r4, #8]
10003af2:	4299      	cmp	r1, r3
10003af4:	d847      	bhi.n	10003b86 <tcp_input+0x132>
10003af6:	f1a1 0314 	sub.w	r3, r1, #20
10003afa:	b29b      	uxth	r3, r3
10003afc:	4a7d      	ldr	r2, [pc, #500]	@ (10003cf4 <tcp_input+0x2a0>)
10003afe:	8013      	strh	r3, [r2, #0]
10003b00:	4a7d      	ldr	r2, [pc, #500]	@ (10003cf8 <tcp_input+0x2a4>)
10003b02:	2000      	movs	r0, #0
10003b04:	6010      	str	r0, [r2, #0]
10003b06:	8962      	ldrh	r2, [r4, #10]
10003b08:	4291      	cmp	r1, r2
10003b0a:	d843      	bhi.n	10003b94 <tcp_input+0x140>
10003b0c:	4a7b      	ldr	r2, [pc, #492]	@ (10003cfc <tcp_input+0x2a8>)
10003b0e:	8013      	strh	r3, [r2, #0]
10003b10:	4620      	mov	r0, r4
10003b12:	f7fd fd8e 	bl	10001632 <pbuf_remove_header>
10003b16:	4d74      	ldr	r5, [pc, #464]	@ (10003ce8 <tcp_input+0x294>)
10003b18:	682e      	ldr	r6, [r5, #0]
10003b1a:	8830      	ldrh	r0, [r6, #0]
10003b1c:	f7fd f84c 	bl	10000bb8 <lwip_htons>
10003b20:	8030      	strh	r0, [r6, #0]
10003b22:	682e      	ldr	r6, [r5, #0]
10003b24:	8870      	ldrh	r0, [r6, #2]
10003b26:	f7fd f847 	bl	10000bb8 <lwip_htons>
10003b2a:	8070      	strh	r0, [r6, #2]
10003b2c:	682e      	ldr	r6, [r5, #0]
10003b2e:	6870      	ldr	r0, [r6, #4]
10003b30:	f7fd f847 	bl	10000bc2 <lwip_htonl>
10003b34:	6070      	str	r0, [r6, #4]
10003b36:	4b72      	ldr	r3, [pc, #456]	@ (10003d00 <tcp_input+0x2ac>)
10003b38:	6018      	str	r0, [r3, #0]
10003b3a:	682e      	ldr	r6, [r5, #0]
10003b3c:	68b0      	ldr	r0, [r6, #8]
10003b3e:	f7fd f840 	bl	10000bc2 <lwip_htonl>
10003b42:	60b0      	str	r0, [r6, #8]
10003b44:	4b6f      	ldr	r3, [pc, #444]	@ (10003d04 <tcp_input+0x2b0>)
10003b46:	6018      	str	r0, [r3, #0]
10003b48:	682e      	ldr	r6, [r5, #0]
10003b4a:	89f0      	ldrh	r0, [r6, #14]
10003b4c:	f7fd f834 	bl	10000bb8 <lwip_htons>
10003b50:	81f0      	strh	r0, [r6, #14]
10003b52:	682b      	ldr	r3, [r5, #0]
10003b54:	8998      	ldrh	r0, [r3, #12]
10003b56:	f7fd f82f 	bl	10000bb8 <lwip_htons>
10003b5a:	b2c1      	uxtb	r1, r0
10003b5c:	f000 023f 	and.w	r2, r0, #63	@ 0x3f
10003b60:	4b69      	ldr	r3, [pc, #420]	@ (10003d08 <tcp_input+0x2b4>)
10003b62:	701a      	strb	r2, [r3, #0]
10003b64:	8923      	ldrh	r3, [r4, #8]
10003b66:	4a69      	ldr	r2, [pc, #420]	@ (10003d0c <tcp_input+0x2b8>)
10003b68:	8013      	strh	r3, [r2, #0]
10003b6a:	f010 0f03 	tst.w	r0, #3
10003b6e:	d005      	beq.n	10003b7c <tcp_input+0x128>
10003b70:	1c5a      	adds	r2, r3, #1
10003b72:	b292      	uxth	r2, r2
10003b74:	4865      	ldr	r0, [pc, #404]	@ (10003d0c <tcp_input+0x2b8>)
10003b76:	8002      	strh	r2, [r0, #0]
10003b78:	4293      	cmp	r3, r2
10003b7a:	d830      	bhi.n	10003bde <tcp_input+0x18a>
10003b7c:	4b64      	ldr	r3, [pc, #400]	@ (10003d10 <tcp_input+0x2bc>)
10003b7e:	681f      	ldr	r7, [r3, #0]
10003b80:	463d      	mov	r5, r7
10003b82:	2600      	movs	r6, #0
10003b84:	e03a      	b.n	10003bfc <tcp_input+0x1a8>
10003b86:	4a57      	ldr	r2, [pc, #348]	@ (10003ce4 <tcp_input+0x290>)
10003b88:	f8b2 309a 	ldrh.w	r3, [r2, #154]	@ 0x9a
10003b8c:	3301      	adds	r3, #1
10003b8e:	f8a2 309a 	strh.w	r3, [r2, #154]	@ 0x9a
10003b92:	e774      	b.n	10003a7e <tcp_input+0x2a>
10003b94:	2114      	movs	r1, #20
10003b96:	4620      	mov	r0, r4
10003b98:	f7fd fd4b 	bl	10001632 <pbuf_remove_header>
10003b9c:	8965      	ldrh	r5, [r4, #10]
10003b9e:	4b57      	ldr	r3, [pc, #348]	@ (10003cfc <tcp_input+0x2a8>)
10003ba0:	801d      	strh	r5, [r3, #0]
10003ba2:	4b54      	ldr	r3, [pc, #336]	@ (10003cf4 <tcp_input+0x2a0>)
10003ba4:	881f      	ldrh	r7, [r3, #0]
10003ba6:	1b7e      	subs	r6, r7, r5
10003ba8:	b2b6      	uxth	r6, r6
10003baa:	4629      	mov	r1, r5
10003bac:	4620      	mov	r0, r4
10003bae:	f7fd fd40 	bl	10001632 <pbuf_remove_header>
10003bb2:	6820      	ldr	r0, [r4, #0]
10003bb4:	8943      	ldrh	r3, [r0, #10]
10003bb6:	42b3      	cmp	r3, r6
10003bb8:	d206      	bcs.n	10003bc8 <tcp_input+0x174>
10003bba:	4a4a      	ldr	r2, [pc, #296]	@ (10003ce4 <tcp_input+0x290>)
10003bbc:	f8b2 309a 	ldrh.w	r3, [r2, #154]	@ 0x9a
10003bc0:	3301      	adds	r3, #1
10003bc2:	f8a2 309a 	strh.w	r3, [r2, #154]	@ 0x9a
10003bc6:	e75a      	b.n	10003a7e <tcp_input+0x2a>
10003bc8:	6842      	ldr	r2, [r0, #4]
10003bca:	4b4b      	ldr	r3, [pc, #300]	@ (10003cf8 <tcp_input+0x2a4>)
10003bcc:	601a      	str	r2, [r3, #0]
10003bce:	4631      	mov	r1, r6
10003bd0:	f7fd fd2f 	bl	10001632 <pbuf_remove_header>
10003bd4:	8923      	ldrh	r3, [r4, #8]
10003bd6:	1bed      	subs	r5, r5, r7
10003bd8:	442b      	add	r3, r5
10003bda:	8123      	strh	r3, [r4, #8]
10003bdc:	e79b      	b.n	10003b16 <tcp_input+0xc2>
10003bde:	4a41      	ldr	r2, [pc, #260]	@ (10003ce4 <tcp_input+0x290>)
10003be0:	f8b2 309a 	ldrh.w	r3, [r2, #154]	@ 0x9a
10003be4:	3301      	adds	r3, #1
10003be6:	f8a2 309a 	strh.w	r3, [r2, #154]	@ 0x9a
10003bea:	e748      	b.n	10003a7e <tcp_input+0x2a>
10003bec:	8b28      	ldrh	r0, [r5, #24]
10003bee:	4b3e      	ldr	r3, [pc, #248]	@ (10003ce8 <tcp_input+0x294>)
10003bf0:	681b      	ldr	r3, [r3, #0]
10003bf2:	881a      	ldrh	r2, [r3, #0]
10003bf4:	4290      	cmp	r0, r2
10003bf6:	d00f      	beq.n	10003c18 <tcp_input+0x1c4>
10003bf8:	462e      	mov	r6, r5
10003bfa:	68ed      	ldr	r5, [r5, #12]
10003bfc:	2d00      	cmp	r5, #0
10003bfe:	d06e      	beq.n	10003cde <tcp_input+0x28a>
10003c00:	7a2a      	ldrb	r2, [r5, #8]
10003c02:	2a00      	cmp	r2, #0
10003c04:	d0f2      	beq.n	10003bec <tcp_input+0x198>
10003c06:	4b39      	ldr	r3, [pc, #228]	@ (10003cec <tcp_input+0x298>)
10003c08:	685b      	ldr	r3, [r3, #4]
10003c0a:	f893 3028 	ldrb.w	r3, [r3, #40]	@ 0x28
10003c0e:	3301      	adds	r3, #1
10003c10:	b2db      	uxtb	r3, r3
10003c12:	429a      	cmp	r2, r3
10003c14:	d0ea      	beq.n	10003bec <tcp_input+0x198>
10003c16:	e7ef      	b.n	10003bf8 <tcp_input+0x1a4>
10003c18:	8aea      	ldrh	r2, [r5, #22]
10003c1a:	885b      	ldrh	r3, [r3, #2]
10003c1c:	429a      	cmp	r2, r3
10003c1e:	d1eb      	bne.n	10003bf8 <tcp_input+0x1a4>
10003c20:	686a      	ldr	r2, [r5, #4]
10003c22:	4b32      	ldr	r3, [pc, #200]	@ (10003cec <tcp_input+0x298>)
10003c24:	691b      	ldr	r3, [r3, #16]
10003c26:	429a      	cmp	r2, r3
10003c28:	d1e6      	bne.n	10003bf8 <tcp_input+0x1a4>
10003c2a:	682a      	ldr	r2, [r5, #0]
10003c2c:	4b2f      	ldr	r3, [pc, #188]	@ (10003cec <tcp_input+0x298>)
10003c2e:	695b      	ldr	r3, [r3, #20]
10003c30:	429a      	cmp	r2, r3
10003c32:	d1e1      	bne.n	10003bf8 <tcp_input+0x1a4>
10003c34:	2e00      	cmp	r6, #0
10003c36:	d04b      	beq.n	10003cd0 <tcp_input+0x27c>
10003c38:	68eb      	ldr	r3, [r5, #12]
10003c3a:	60f3      	str	r3, [r6, #12]
10003c3c:	60ef      	str	r7, [r5, #12]
10003c3e:	4b34      	ldr	r3, [pc, #208]	@ (10003d10 <tcp_input+0x2bc>)
10003c40:	601d      	str	r5, [r3, #0]
10003c42:	2d00      	cmp	r5, #0
10003c44:	f000 814f 	beq.w	10003ee6 <tcp_input+0x492>
10003c48:	4a32      	ldr	r2, [pc, #200]	@ (10003d14 <tcp_input+0x2c0>)
10003c4a:	2300      	movs	r3, #0
10003c4c:	6013      	str	r3, [r2, #0]
10003c4e:	8920      	ldrh	r0, [r4, #8]
10003c50:	8110      	strh	r0, [r2, #8]
10003c52:	6054      	str	r4, [r2, #4]
10003c54:	4824      	ldr	r0, [pc, #144]	@ (10003ce8 <tcp_input+0x294>)
10003c56:	6800      	ldr	r0, [r0, #0]
10003c58:	60d0      	str	r0, [r2, #12]
10003c5a:	4a2f      	ldr	r2, [pc, #188]	@ (10003d18 <tcp_input+0x2c4>)
10003c5c:	6013      	str	r3, [r2, #0]
10003c5e:	4a2f      	ldr	r2, [pc, #188]	@ (10003d1c <tcp_input+0x2c8>)
10003c60:	7013      	strb	r3, [r2, #0]
10003c62:	4a2f      	ldr	r2, [pc, #188]	@ (10003d20 <tcp_input+0x2cc>)
10003c64:	8013      	strh	r3, [r2, #0]
10003c66:	f011 0f08 	tst.w	r1, #8
10003c6a:	d003      	beq.n	10003c74 <tcp_input+0x220>
10003c6c:	7b63      	ldrb	r3, [r4, #13]
10003c6e:	f043 0301 	orr.w	r3, r3, #1
10003c72:	7363      	strb	r3, [r4, #13]
10003c74:	6fab      	ldr	r3, [r5, #120]	@ 0x78
10003c76:	b16b      	cbz	r3, 10003c94 <tcp_input+0x240>
10003c78:	4628      	mov	r0, r5
10003c7a:	f7fe fc49 	bl	10002510 <tcp_process_refused_data>
10003c7e:	f110 0f0d 	cmn.w	r0, #13
10003c82:	f000 80b3 	beq.w	10003dec <tcp_input+0x398>
10003c86:	6fab      	ldr	r3, [r5, #120]	@ 0x78
10003c88:	b123      	cbz	r3, 10003c94 <tcp_input+0x240>
10003c8a:	4b20      	ldr	r3, [pc, #128]	@ (10003d0c <tcp_input+0x2b8>)
10003c8c:	881b      	ldrh	r3, [r3, #0]
10003c8e:	2b00      	cmp	r3, #0
10003c90:	f040 80ac 	bne.w	10003dec <tcp_input+0x398>
10003c94:	4b23      	ldr	r3, [pc, #140]	@ (10003d24 <tcp_input+0x2d0>)
10003c96:	601d      	str	r5, [r3, #0]
10003c98:	4628      	mov	r0, r5
10003c9a:	f7ff fc51 	bl	10003540 <tcp_process>
10003c9e:	f110 0f0d 	cmn.w	r0, #13
10003ca2:	f000 80ab 	beq.w	10003dfc <tcp_input+0x3a8>
10003ca6:	4b1d      	ldr	r3, [pc, #116]	@ (10003d1c <tcp_input+0x2c8>)
10003ca8:	781b      	ldrb	r3, [r3, #0]
10003caa:	f013 0f08 	tst.w	r3, #8
10003cae:	f000 80b9 	beq.w	10003e24 <tcp_input+0x3d0>
10003cb2:	f8d5 3090 	ldr.w	r3, [r5, #144]	@ 0x90
10003cb6:	b11b      	cbz	r3, 10003cc0 <tcp_input+0x26c>
10003cb8:	f06f 010d 	mvn.w	r1, #13
10003cbc:	6928      	ldr	r0, [r5, #16]
10003cbe:	4798      	blx	r3
10003cc0:	4629      	mov	r1, r5
10003cc2:	4813      	ldr	r0, [pc, #76]	@ (10003d10 <tcp_input+0x2bc>)
10003cc4:	f7fe f9a9 	bl	1000201a <tcp_pcb_remove>
10003cc8:	4628      	mov	r0, r5
10003cca:	f7fd ffa0 	bl	10001c0e <tcp_free>
10003cce:	e095      	b.n	10003dfc <tcp_input+0x3a8>
10003cd0:	4a04      	ldr	r2, [pc, #16]	@ (10003ce4 <tcp_input+0x290>)
10003cd2:	f8b2 30a6 	ldrh.w	r3, [r2, #166]	@ 0xa6
10003cd6:	3301      	adds	r3, #1
10003cd8:	f8a2 30a6 	strh.w	r3, [r2, #166]	@ 0xa6
10003cdc:	e7b1      	b.n	10003c42 <tcp_input+0x1ee>
10003cde:	4b12      	ldr	r3, [pc, #72]	@ (10003d28 <tcp_input+0x2d4>)
10003ce0:	681d      	ldr	r5, [r3, #0]
10003ce2:	e02a      	b.n	10003d3a <tcp_input+0x2e6>
10003ce4:	20001db0 	.word	0x20001db0
10003ce8:	20005f30 	.word	0x20005f30
10003cec:	20001d94 	.word	0x20001d94
10003cf0:	20001da4 	.word	0x20001da4
10003cf4:	20005f56 	.word	0x20005f56
10003cf8:	20005f34 	.word	0x20005f34
10003cfc:	20005f54 	.word	0x20005f54
10003d00:	20005f10 	.word	0x20005f10
10003d04:	20001200 	.word	0x20001200
10003d08:	20005f5e 	.word	0x20005f5e
10003d0c:	20005f58 	.word	0x20005f58
10003d10:	20005f18 	.word	0x20005f18
10003d14:	20001d84 	.word	0x20001d84
10003d18:	20005f04 	.word	0x20005f04
10003d1c:	20005f61 	.word	0x20005f61
10003d20:	20005f50 	.word	0x20005f50
10003d24:	20005f20 	.word	0x20005f20
10003d28:	20005f2c 	.word	0x20005f2c
10003d2c:	8b28      	ldrh	r0, [r5, #24]
10003d2e:	4b84      	ldr	r3, [pc, #528]	@ (10003f40 <tcp_input+0x4ec>)
10003d30:	681b      	ldr	r3, [r3, #0]
10003d32:	881a      	ldrh	r2, [r3, #0]
10003d34:	4290      	cmp	r0, r2
10003d36:	d00d      	beq.n	10003d54 <tcp_input+0x300>
10003d38:	68ed      	ldr	r5, [r5, #12]
10003d3a:	b305      	cbz	r5, 10003d7e <tcp_input+0x32a>
10003d3c:	7a2a      	ldrb	r2, [r5, #8]
10003d3e:	2a00      	cmp	r2, #0
10003d40:	d0f4      	beq.n	10003d2c <tcp_input+0x2d8>
10003d42:	4b80      	ldr	r3, [pc, #512]	@ (10003f44 <tcp_input+0x4f0>)
10003d44:	685b      	ldr	r3, [r3, #4]
10003d46:	f893 3028 	ldrb.w	r3, [r3, #40]	@ 0x28
10003d4a:	3301      	adds	r3, #1
10003d4c:	b2db      	uxtb	r3, r3
10003d4e:	429a      	cmp	r2, r3
10003d50:	d0ec      	beq.n	10003d2c <tcp_input+0x2d8>
10003d52:	e7f1      	b.n	10003d38 <tcp_input+0x2e4>
10003d54:	8aea      	ldrh	r2, [r5, #22]
10003d56:	885b      	ldrh	r3, [r3, #2]
10003d58:	429a      	cmp	r2, r3
10003d5a:	d1ed      	bne.n	10003d38 <tcp_input+0x2e4>
10003d5c:	686a      	ldr	r2, [r5, #4]
10003d5e:	4b79      	ldr	r3, [pc, #484]	@ (10003f44 <tcp_input+0x4f0>)
10003d60:	691b      	ldr	r3, [r3, #16]
10003d62:	429a      	cmp	r2, r3
10003d64:	d1e8      	bne.n	10003d38 <tcp_input+0x2e4>
10003d66:	682a      	ldr	r2, [r5, #0]
10003d68:	4b76      	ldr	r3, [pc, #472]	@ (10003f44 <tcp_input+0x4f0>)
10003d6a:	695b      	ldr	r3, [r3, #20]
10003d6c:	429a      	cmp	r2, r3
10003d6e:	d1e3      	bne.n	10003d38 <tcp_input+0x2e4>
10003d70:	4628      	mov	r0, r5
10003d72:	f7fe fe9b 	bl	10002aac <tcp_timewait_input>
10003d76:	4620      	mov	r0, r4
10003d78:	f7fd fc89 	bl	1000168e <pbuf_free>
10003d7c:	e688      	b.n	10003a90 <tcp_input+0x3c>
10003d7e:	4b72      	ldr	r3, [pc, #456]	@ (10003f48 <tcp_input+0x4f4>)
10003d80:	681f      	ldr	r7, [r3, #0]
10003d82:	4638      	mov	r0, r7
10003d84:	462e      	mov	r6, r5
10003d86:	e007      	b.n	10003d98 <tcp_input+0x344>
10003d88:	8ac2      	ldrh	r2, [r0, #22]
10003d8a:	4b6d      	ldr	r3, [pc, #436]	@ (10003f40 <tcp_input+0x4ec>)
10003d8c:	681b      	ldr	r3, [r3, #0]
10003d8e:	885b      	ldrh	r3, [r3, #2]
10003d90:	429a      	cmp	r2, r3
10003d92:	d00e      	beq.n	10003db2 <tcp_input+0x35e>
10003d94:	4606      	mov	r6, r0
10003d96:	68c0      	ldr	r0, [r0, #12]
10003d98:	b190      	cbz	r0, 10003dc0 <tcp_input+0x36c>
10003d9a:	7a02      	ldrb	r2, [r0, #8]
10003d9c:	2a00      	cmp	r2, #0
10003d9e:	d0f3      	beq.n	10003d88 <tcp_input+0x334>
10003da0:	4b68      	ldr	r3, [pc, #416]	@ (10003f44 <tcp_input+0x4f0>)
10003da2:	685b      	ldr	r3, [r3, #4]
10003da4:	f893 3028 	ldrb.w	r3, [r3, #40]	@ 0x28
10003da8:	3301      	adds	r3, #1
10003daa:	b2db      	uxtb	r3, r3
10003dac:	429a      	cmp	r2, r3
10003dae:	d0eb      	beq.n	10003d88 <tcp_input+0x334>
10003db0:	e7f0      	b.n	10003d94 <tcp_input+0x340>
10003db2:	6803      	ldr	r3, [r0, #0]
10003db4:	4a63      	ldr	r2, [pc, #396]	@ (10003f44 <tcp_input+0x4f0>)
10003db6:	6952      	ldr	r2, [r2, #20]
10003db8:	4293      	cmp	r3, r2
10003dba:	d001      	beq.n	10003dc0 <tcp_input+0x36c>
10003dbc:	2b00      	cmp	r3, #0
10003dbe:	d1e9      	bne.n	10003d94 <tcp_input+0x340>
10003dc0:	2800      	cmp	r0, #0
10003dc2:	f43f af3e 	beq.w	10003c42 <tcp_input+0x1ee>
10003dc6:	b156      	cbz	r6, 10003dde <tcp_input+0x38a>
10003dc8:	68c3      	ldr	r3, [r0, #12]
10003dca:	60f3      	str	r3, [r6, #12]
10003dcc:	60c7      	str	r7, [r0, #12]
10003dce:	4b5e      	ldr	r3, [pc, #376]	@ (10003f48 <tcp_input+0x4f4>)
10003dd0:	6018      	str	r0, [r3, #0]
10003dd2:	f7fe feb3 	bl	10002b3c <tcp_listen_input>
10003dd6:	4620      	mov	r0, r4
10003dd8:	f7fd fc59 	bl	1000168e <pbuf_free>
10003ddc:	e658      	b.n	10003a90 <tcp_input+0x3c>
10003dde:	4a5b      	ldr	r2, [pc, #364]	@ (10003f4c <tcp_input+0x4f8>)
10003de0:	f8b2 30a6 	ldrh.w	r3, [r2, #166]	@ 0xa6
10003de4:	3301      	adds	r3, #1
10003de6:	f8a2 30a6 	strh.w	r3, [r2, #166]	@ 0xa6
10003dea:	e7f2      	b.n	10003dd2 <tcp_input+0x37e>
10003dec:	8d6b      	ldrh	r3, [r5, #42]	@ 0x2a
10003dee:	b1ab      	cbz	r3, 10003e1c <tcp_input+0x3c8>
10003df0:	4a56      	ldr	r2, [pc, #344]	@ (10003f4c <tcp_input+0x4f8>)
10003df2:	f8b2 3096 	ldrh.w	r3, [r2, #150]	@ 0x96
10003df6:	3301      	adds	r3, #1
10003df8:	f8a2 3096 	strh.w	r3, [r2, #150]	@ 0x96
10003dfc:	2300      	movs	r3, #0
10003dfe:	4a54      	ldr	r2, [pc, #336]	@ (10003f50 <tcp_input+0x4fc>)
10003e00:	6013      	str	r3, [r2, #0]
10003e02:	4a54      	ldr	r2, [pc, #336]	@ (10003f54 <tcp_input+0x500>)
10003e04:	6013      	str	r3, [r2, #0]
10003e06:	4b54      	ldr	r3, [pc, #336]	@ (10003f58 <tcp_input+0x504>)
10003e08:	6858      	ldr	r0, [r3, #4]
10003e0a:	2800      	cmp	r0, #0
10003e0c:	f43f ae40 	beq.w	10003a90 <tcp_input+0x3c>
10003e10:	f7fd fc3d 	bl	1000168e <pbuf_free>
10003e14:	4b50      	ldr	r3, [pc, #320]	@ (10003f58 <tcp_input+0x504>)
10003e16:	2200      	movs	r2, #0
10003e18:	605a      	str	r2, [r3, #4]
10003e1a:	e639      	b.n	10003a90 <tcp_input+0x3c>
10003e1c:	4628      	mov	r0, r5
10003e1e:	f000 fe6b 	bl	10004af8 <tcp_send_empty_ack>
10003e22:	e7e5      	b.n	10003df0 <tcp_input+0x39c>
10003e24:	4b4d      	ldr	r3, [pc, #308]	@ (10003f5c <tcp_input+0x508>)
10003e26:	881a      	ldrh	r2, [r3, #0]
10003e28:	b15a      	cbz	r2, 10003e42 <tcp_input+0x3ee>
10003e2a:	f8d5 3080 	ldr.w	r3, [r5, #128]	@ 0x80
10003e2e:	b12b      	cbz	r3, 10003e3c <tcp_input+0x3e8>
10003e30:	4629      	mov	r1, r5
10003e32:	6928      	ldr	r0, [r5, #16]
10003e34:	4798      	blx	r3
10003e36:	f110 0f0d 	cmn.w	r0, #13
10003e3a:	d0df      	beq.n	10003dfc <tcp_input+0x3a8>
10003e3c:	4b47      	ldr	r3, [pc, #284]	@ (10003f5c <tcp_input+0x508>)
10003e3e:	2200      	movs	r2, #0
10003e40:	801a      	strh	r2, [r3, #0]
10003e42:	4628      	mov	r0, r5
10003e44:	f7fe fe10 	bl	10002a68 <tcp_input_delayed_close>
10003e48:	2800      	cmp	r0, #0
10003e4a:	d1d7      	bne.n	10003dfc <tcp_input+0x3a8>
10003e4c:	4b41      	ldr	r3, [pc, #260]	@ (10003f54 <tcp_input+0x500>)
10003e4e:	681a      	ldr	r2, [r3, #0]
10003e50:	b18a      	cbz	r2, 10003e76 <tcp_input+0x422>
10003e52:	8b6b      	ldrh	r3, [r5, #26]
10003e54:	f013 0f10 	tst.w	r3, #16
10003e58:	d124      	bne.n	10003ea4 <tcp_input+0x450>
10003e5a:	f8d5 4084 	ldr.w	r4, [r5, #132]	@ 0x84
10003e5e:	b344      	cbz	r4, 10003eb2 <tcp_input+0x45e>
10003e60:	2300      	movs	r3, #0
10003e62:	4629      	mov	r1, r5
10003e64:	6928      	ldr	r0, [r5, #16]
10003e66:	47a0      	blx	r4
10003e68:	f110 0f0d 	cmn.w	r0, #13
10003e6c:	d0c6      	beq.n	10003dfc <tcp_input+0x3a8>
10003e6e:	b110      	cbz	r0, 10003e76 <tcp_input+0x422>
10003e70:	4b38      	ldr	r3, [pc, #224]	@ (10003f54 <tcp_input+0x500>)
10003e72:	681b      	ldr	r3, [r3, #0]
10003e74:	67ab      	str	r3, [r5, #120]	@ 0x78
10003e76:	4b3a      	ldr	r3, [pc, #232]	@ (10003f60 <tcp_input+0x50c>)
10003e78:	781b      	ldrb	r3, [r3, #0]
10003e7a:	f013 0f20 	tst.w	r3, #32
10003e7e:	d005      	beq.n	10003e8c <tcp_input+0x438>
10003e80:	6fab      	ldr	r3, [r5, #120]	@ 0x78
10003e82:	b1e3      	cbz	r3, 10003ebe <tcp_input+0x46a>
10003e84:	7b5a      	ldrb	r2, [r3, #13]
10003e86:	f042 0220 	orr.w	r2, r2, #32
10003e8a:	735a      	strb	r2, [r3, #13]
10003e8c:	4b30      	ldr	r3, [pc, #192]	@ (10003f50 <tcp_input+0x4fc>)
10003e8e:	2200      	movs	r2, #0
10003e90:	601a      	str	r2, [r3, #0]
10003e92:	4628      	mov	r0, r5
10003e94:	f7fe fde8 	bl	10002a68 <tcp_input_delayed_close>
10003e98:	2800      	cmp	r0, #0
10003e9a:	d1af      	bne.n	10003dfc <tcp_input+0x3a8>
10003e9c:	4628      	mov	r0, r5
10003e9e:	f000 fe4f 	bl	10004b40 <tcp_output>
10003ea2:	e7ab      	b.n	10003dfc <tcp_input+0x3a8>
10003ea4:	4610      	mov	r0, r2
10003ea6:	f7fd fbf2 	bl	1000168e <pbuf_free>
10003eaa:	4628      	mov	r0, r5
10003eac:	f7fe f94c 	bl	10002148 <tcp_abort>
10003eb0:	e7a4      	b.n	10003dfc <tcp_input+0x3a8>
10003eb2:	2300      	movs	r3, #0
10003eb4:	4629      	mov	r1, r5
10003eb6:	4618      	mov	r0, r3
10003eb8:	f7fe fb14 	bl	100024e4 <tcp_recv_null>
10003ebc:	e7d4      	b.n	10003e68 <tcp_input+0x414>
10003ebe:	8d2b      	ldrh	r3, [r5, #40]	@ 0x28
10003ec0:	f241 62d0 	movw	r2, #5840	@ 0x16d0
10003ec4:	4293      	cmp	r3, r2
10003ec6:	d001      	beq.n	10003ecc <tcp_input+0x478>
10003ec8:	3301      	adds	r3, #1
10003eca:	852b      	strh	r3, [r5, #40]	@ 0x28
10003ecc:	f8d5 4084 	ldr.w	r4, [r5, #132]	@ 0x84
10003ed0:	2c00      	cmp	r4, #0
10003ed2:	d0db      	beq.n	10003e8c <tcp_input+0x438>
10003ed4:	2300      	movs	r3, #0
10003ed6:	461a      	mov	r2, r3
10003ed8:	4629      	mov	r1, r5
10003eda:	6928      	ldr	r0, [r5, #16]
10003edc:	47a0      	blx	r4
10003ede:	f110 0f0d 	cmn.w	r0, #13
10003ee2:	d1d3      	bne.n	10003e8c <tcp_input+0x438>
10003ee4:	e78a      	b.n	10003dfc <tcp_input+0x3a8>
10003ee6:	4b16      	ldr	r3, [pc, #88]	@ (10003f40 <tcp_input+0x4ec>)
10003ee8:	681b      	ldr	r3, [r3, #0]
10003eea:	8998      	ldrh	r0, [r3, #12]
10003eec:	f7fc fe64 	bl	10000bb8 <lwip_htons>
10003ef0:	f010 0f04 	tst.w	r0, #4
10003ef4:	d003      	beq.n	10003efe <tcp_input+0x4aa>
10003ef6:	4620      	mov	r0, r4
10003ef8:	f7fd fbc9 	bl	1000168e <pbuf_free>
10003efc:	e5c8      	b.n	10003a90 <tcp_input+0x3c>
10003efe:	4b13      	ldr	r3, [pc, #76]	@ (10003f4c <tcp_input+0x4f8>)
10003f00:	f8b3 20a0 	ldrh.w	r2, [r3, #160]	@ 0xa0
10003f04:	3201      	adds	r2, #1
10003f06:	f8a3 20a0 	strh.w	r2, [r3, #160]	@ 0xa0
10003f0a:	f8b3 2096 	ldrh.w	r2, [r3, #150]	@ 0x96
10003f0e:	3201      	adds	r2, #1
10003f10:	f8a3 2096 	strh.w	r2, [r3, #150]	@ 0x96
10003f14:	4b0a      	ldr	r3, [pc, #40]	@ (10003f40 <tcp_input+0x4ec>)
10003f16:	6819      	ldr	r1, [r3, #0]
10003f18:	4b12      	ldr	r3, [pc, #72]	@ (10003f64 <tcp_input+0x510>)
10003f1a:	4a13      	ldr	r2, [pc, #76]	@ (10003f68 <tcp_input+0x514>)
10003f1c:	8810      	ldrh	r0, [r2, #0]
10003f1e:	4a13      	ldr	r2, [pc, #76]	@ (10003f6c <tcp_input+0x518>)
10003f20:	6812      	ldr	r2, [r2, #0]
10003f22:	880d      	ldrh	r5, [r1, #0]
10003f24:	9502      	str	r5, [sp, #8]
10003f26:	8849      	ldrh	r1, [r1, #2]
10003f28:	9101      	str	r1, [sp, #4]
10003f2a:	1f19      	subs	r1, r3, #4
10003f2c:	9100      	str	r1, [sp, #0]
10003f2e:	4402      	add	r2, r0
10003f30:	490f      	ldr	r1, [pc, #60]	@ (10003f70 <tcp_input+0x51c>)
10003f32:	6809      	ldr	r1, [r1, #0]
10003f34:	f853 0c10 	ldr.w	r0, [r3, #-16]
10003f38:	f000 fdc2 	bl	10004ac0 <tcp_rst_netif>
10003f3c:	e7db      	b.n	10003ef6 <tcp_input+0x4a2>
10003f3e:	bf00      	nop
10003f40:	20005f30 	.word	0x20005f30
10003f44:	20001d94 	.word	0x20001d94
10003f48:	20005f24 	.word	0x20005f24
10003f4c:	20001db0 	.word	0x20001db0
10003f50:	20005f20 	.word	0x20005f20
10003f54:	20005f04 	.word	0x20005f04
10003f58:	20001d84 	.word	0x20001d84
10003f5c:	20005f50 	.word	0x20005f50
10003f60:	20005f61 	.word	0x20005f61
10003f64:	20001da8 	.word	0x20001da8
10003f68:	20005f58 	.word	0x20005f58
10003f6c:	20005f10 	.word	0x20005f10
10003f70:	20001200 	.word	0x20001200

10003f74 <tcp_trigger_input_pcb_close>:
10003f74:	4a02      	ldr	r2, [pc, #8]	@ (10003f80 <tcp_trigger_input_pcb_close+0xc>)
10003f76:	7813      	ldrb	r3, [r2, #0]
10003f78:	f043 0310 	orr.w	r3, r3, #16
10003f7c:	7013      	strb	r3, [r2, #0]
10003f7e:	4770      	bx	lr
10003f80:	20005f61 	.word	0x20005f61

10003f84 <tcp_write_checks>:
10003f84:	7d03      	ldrb	r3, [r0, #20]
10003f86:	2b04      	cmp	r3, #4
10003f88:	d005      	beq.n	10003f96 <tcp_write_checks+0x12>
10003f8a:	2b07      	cmp	r3, #7
10003f8c:	d003      	beq.n	10003f96 <tcp_write_checks+0x12>
10003f8e:	2b02      	cmp	r3, #2
10003f90:	d001      	beq.n	10003f96 <tcp_write_checks+0x12>
10003f92:	2b03      	cmp	r3, #3
10003f94:	d11e      	bne.n	10003fd4 <tcp_write_checks+0x50>
10003f96:	b301      	cbz	r1, 10003fda <tcp_write_checks+0x56>
10003f98:	f8b0 3064 	ldrh.w	r3, [r0, #100]	@ 0x64
10003f9c:	428b      	cmp	r3, r1
10003f9e:	d305      	bcc.n	10003fac <tcp_write_checks+0x28>
10003fa0:	f8b0 3066 	ldrh.w	r3, [r0, #102]	@ 0x66
10003fa4:	2b0f      	cmp	r3, #15
10003fa6:	d808      	bhi.n	10003fba <tcp_write_checks+0x36>
10003fa8:	2000      	movs	r0, #0
10003faa:	4770      	bx	lr
10003fac:	8b43      	ldrh	r3, [r0, #26]
10003fae:	f043 0380 	orr.w	r3, r3, #128	@ 0x80
10003fb2:	8343      	strh	r3, [r0, #26]
10003fb4:	f04f 30ff 	mov.w	r0, #4294967295
10003fb8:	4770      	bx	lr
10003fba:	4a09      	ldr	r2, [pc, #36]	@ (10003fe0 <tcp_write_checks+0x5c>)
10003fbc:	f8b2 309c 	ldrh.w	r3, [r2, #156]	@ 0x9c
10003fc0:	3301      	adds	r3, #1
10003fc2:	f8a2 309c 	strh.w	r3, [r2, #156]	@ 0x9c
10003fc6:	8b43      	ldrh	r3, [r0, #26]
10003fc8:	f043 0380 	orr.w	r3, r3, #128	@ 0x80
10003fcc:	8343      	strh	r3, [r0, #26]
10003fce:	f04f 30ff 	mov.w	r0, #4294967295
10003fd2:	4770      	bx	lr
10003fd4:	f06f 000a 	mvn.w	r0, #10
10003fd8:	4770      	bx	lr
10003fda:	2000      	movs	r0, #0
10003fdc:	4770      	bx	lr
10003fde:	bf00      	nop
10003fe0:	20001db0 	.word	0x20001db0

10003fe4 <tcp_output_segment_busy>:
10003fe4:	6843      	ldr	r3, [r0, #4]
10003fe6:	7b9b      	ldrb	r3, [r3, #14]
10003fe8:	2b01      	cmp	r3, #1
10003fea:	d101      	bne.n	10003ff0 <tcp_output_segment_busy+0xc>
10003fec:	2000      	movs	r0, #0
10003fee:	4770      	bx	lr
10003ff0:	2001      	movs	r0, #1
10003ff2:	4770      	bx	lr

10003ff4 <tcp_pbuf_prealloc>:
10003ff4:	b538      	push	{r3, r4, r5, lr}
10003ff6:	460c      	mov	r4, r1
10003ff8:	461d      	mov	r5, r3
10003ffa:	f89d 3018 	ldrb.w	r3, [sp, #24]
10003ffe:	4291      	cmp	r1, r2
10004000:	d215      	bcs.n	1000402e <tcp_pbuf_prealloc+0x3a>
10004002:	f89d 1014 	ldrb.w	r1, [sp, #20]
10004006:	f011 0f02 	tst.w	r1, #2
1000400a:	d108      	bne.n	1000401e <tcp_pbuf_prealloc+0x2a>
1000400c:	9904      	ldr	r1, [sp, #16]
1000400e:	8b49      	ldrh	r1, [r1, #26]
10004010:	f011 0f40 	tst.w	r1, #64	@ 0x40
10004014:	d11e      	bne.n	10004054 <tcp_pbuf_prealloc+0x60>
10004016:	b113      	cbz	r3, 1000401e <tcp_pbuf_prealloc+0x2a>
10004018:	9b04      	ldr	r3, [sp, #16]
1000401a:	6edb      	ldr	r3, [r3, #108]	@ 0x6c
1000401c:	b1a3      	cbz	r3, 10004048 <tcp_pbuf_prealloc+0x54>
1000401e:	f204 53b7 	addw	r3, r4, #1463	@ 0x5b7
10004022:	f023 0303 	bic.w	r3, r3, #3
10004026:	429a      	cmp	r2, r3
10004028:	bf28      	it	cs
1000402a:	461a      	movcs	r2, r3
1000402c:	b291      	uxth	r1, r2
1000402e:	f44f 7220 	mov.w	r2, #640	@ 0x280
10004032:	f7fd fb60 	bl	100016f6 <pbuf_alloc>
10004036:	4602      	mov	r2, r0
10004038:	b120      	cbz	r0, 10004044 <tcp_pbuf_prealloc+0x50>
1000403a:	8943      	ldrh	r3, [r0, #10]
1000403c:	1b1b      	subs	r3, r3, r4
1000403e:	802b      	strh	r3, [r5, #0]
10004040:	8104      	strh	r4, [r0, #8]
10004042:	8144      	strh	r4, [r0, #10]
10004044:	4610      	mov	r0, r2
10004046:	bd38      	pop	{r3, r4, r5, pc}
10004048:	9b04      	ldr	r3, [sp, #16]
1000404a:	6f1b      	ldr	r3, [r3, #112]	@ 0x70
1000404c:	2b00      	cmp	r3, #0
1000404e:	d1e6      	bne.n	1000401e <tcp_pbuf_prealloc+0x2a>
10004050:	4621      	mov	r1, r4
10004052:	e7ec      	b.n	1000402e <tcp_pbuf_prealloc+0x3a>
10004054:	4621      	mov	r1, r4
10004056:	e7ea      	b.n	1000402e <tcp_pbuf_prealloc+0x3a>

10004058 <tcp_create_segment>:
10004058:	e92d 47f0 	stmdb	sp!, {r4, r5, r6, r7, r8, r9, sl, lr}
1000405c:	4607      	mov	r7, r0
1000405e:	460e      	mov	r6, r1
10004060:	4690      	mov	r8, r2
10004062:	4699      	mov	r9, r3
10004064:	f89d a020 	ldrb.w	sl, [sp, #32]
10004068:	2003      	movs	r0, #3
1000406a:	f7fd f947 	bl	100012fc <memp_malloc>
1000406e:	4604      	mov	r4, r0
10004070:	b380      	cbz	r0, 100040d4 <tcp_create_segment+0x7c>
10004072:	ea4f 058a 	mov.w	r5, sl, lsl #2
10004076:	f005 0504 	and.w	r5, r5, #4
1000407a:	f880 a00a 	strb.w	sl, [r0, #10]
1000407e:	2300      	movs	r3, #0
10004080:	6003      	str	r3, [r0, #0]
10004082:	6046      	str	r6, [r0, #4]
10004084:	8933      	ldrh	r3, [r6, #8]
10004086:	1b5b      	subs	r3, r3, r5
10004088:	8103      	strh	r3, [r0, #8]
1000408a:	2114      	movs	r1, #20
1000408c:	4630      	mov	r0, r6
1000408e:	f7fd facb 	bl	10001628 <pbuf_add_header>
10004092:	bb18      	cbnz	r0, 100040dc <tcp_create_segment+0x84>
10004094:	6863      	ldr	r3, [r4, #4]
10004096:	685e      	ldr	r6, [r3, #4]
10004098:	60e6      	str	r6, [r4, #12]
1000409a:	8af8      	ldrh	r0, [r7, #22]
1000409c:	f7fc fd8c 	bl	10000bb8 <lwip_htons>
100040a0:	8030      	strh	r0, [r6, #0]
100040a2:	68e6      	ldr	r6, [r4, #12]
100040a4:	8b38      	ldrh	r0, [r7, #24]
100040a6:	f7fc fd87 	bl	10000bb8 <lwip_htons>
100040aa:	8070      	strh	r0, [r6, #2]
100040ac:	68e6      	ldr	r6, [r4, #12]
100040ae:	4648      	mov	r0, r9
100040b0:	f7fc fd87 	bl	10000bc2 <lwip_htonl>
100040b4:	6070      	str	r0, [r6, #4]
100040b6:	08a8      	lsrs	r0, r5, #2
100040b8:	3005      	adds	r0, #5
100040ba:	68e5      	ldr	r5, [r4, #12]
100040bc:	ea48 3000 	orr.w	r0, r8, r0, lsl #12
100040c0:	f7fc fd7a 	bl	10000bb8 <lwip_htons>
100040c4:	81a8      	strh	r0, [r5, #12]
100040c6:	68e3      	ldr	r3, [r4, #12]
100040c8:	2200      	movs	r2, #0
100040ca:	749a      	strb	r2, [r3, #18]
100040cc:	74da      	strb	r2, [r3, #19]
100040ce:	4620      	mov	r0, r4
100040d0:	e8bd 87f0 	ldmia.w	sp!, {r4, r5, r6, r7, r8, r9, sl, pc}
100040d4:	4630      	mov	r0, r6
100040d6:	f7fd fada 	bl	1000168e <pbuf_free>
100040da:	e7f8      	b.n	100040ce <tcp_create_segment+0x76>
100040dc:	4a05      	ldr	r2, [pc, #20]	@ (100040f4 <tcp_create_segment+0x9c>)
100040de:	f8b2 30a4 	ldrh.w	r3, [r2, #164]	@ 0xa4
100040e2:	3301      	adds	r3, #1
100040e4:	f8a2 30a4 	strh.w	r3, [r2, #164]	@ 0xa4
100040e8:	4620      	mov	r0, r4
100040ea:	f7fd fe84 	bl	10001df6 <tcp_seg_free>
100040ee:	2400      	movs	r4, #0
100040f0:	e7ed      	b.n	100040ce <tcp_create_segment+0x76>
100040f2:	bf00      	nop
100040f4:	20001db0 	.word	0x20001db0

100040f8 <tcp_output_alloc_header_common>:
100040f8:	e92d 41f0 	stmdb	sp!, {r4, r5, r6, r7, r8, lr}
100040fc:	4606      	mov	r6, r0
100040fe:	460c      	mov	r4, r1
10004100:	461f      	mov	r7, r3
10004102:	4411      	add	r1, r2
10004104:	b289      	uxth	r1, r1
10004106:	3114      	adds	r1, #20
10004108:	f44f 7220 	mov.w	r2, #640	@ 0x280
1000410c:	b289      	uxth	r1, r1
1000410e:	2022      	movs	r0, #34	@ 0x22
10004110:	f7fd faf1 	bl	100016f6 <pbuf_alloc>
10004114:	4680      	mov	r8, r0
10004116:	b318      	cbz	r0, 10004160 <tcp_output_alloc_header_common+0x68>
10004118:	6845      	ldr	r5, [r0, #4]
1000411a:	f8bd 0018 	ldrh.w	r0, [sp, #24]
1000411e:	f7fc fd4b 	bl	10000bb8 <lwip_htons>
10004122:	8028      	strh	r0, [r5, #0]
10004124:	f8bd 001c 	ldrh.w	r0, [sp, #28]
10004128:	f7fc fd46 	bl	10000bb8 <lwip_htons>
1000412c:	8068      	strh	r0, [r5, #2]
1000412e:	606f      	str	r7, [r5, #4]
10004130:	4630      	mov	r0, r6
10004132:	f7fc fd46 	bl	10000bc2 <lwip_htonl>
10004136:	60a8      	str	r0, [r5, #8]
10004138:	08a4      	lsrs	r4, r4, #2
1000413a:	3405      	adds	r4, #5
1000413c:	0324      	lsls	r4, r4, #12
1000413e:	b2a4      	uxth	r4, r4
10004140:	f89d 0020 	ldrb.w	r0, [sp, #32]
10004144:	4320      	orrs	r0, r4
10004146:	f7fc fd37 	bl	10000bb8 <lwip_htons>
1000414a:	81a8      	strh	r0, [r5, #12]
1000414c:	f8bd 0024 	ldrh.w	r0, [sp, #36]	@ 0x24
10004150:	f7fc fd32 	bl	10000bb8 <lwip_htons>
10004154:	81e8      	strh	r0, [r5, #14]
10004156:	2300      	movs	r3, #0
10004158:	742b      	strb	r3, [r5, #16]
1000415a:	746b      	strb	r3, [r5, #17]
1000415c:	74ab      	strb	r3, [r5, #18]
1000415e:	74eb      	strb	r3, [r5, #19]
10004160:	4640      	mov	r0, r8
10004162:	e8bd 81f0 	ldmia.w	sp!, {r4, r5, r6, r7, r8, pc}

10004166 <tcp_output_alloc_header>:
10004166:	b510      	push	{r4, lr}
10004168:	b084      	sub	sp, #16
1000416a:	4604      	mov	r4, r0
1000416c:	8d40      	ldrh	r0, [r0, #42]	@ 0x2a
1000416e:	9003      	str	r0, [sp, #12]
10004170:	2010      	movs	r0, #16
10004172:	9002      	str	r0, [sp, #8]
10004174:	8b20      	ldrh	r0, [r4, #24]
10004176:	9001      	str	r0, [sp, #4]
10004178:	8ae0      	ldrh	r0, [r4, #22]
1000417a:	9000      	str	r0, [sp, #0]
1000417c:	6a60      	ldr	r0, [r4, #36]	@ 0x24
1000417e:	f7ff ffbb 	bl	100040f8 <tcp_output_alloc_header_common>
10004182:	b118      	cbz	r0, 1000418c <tcp_output_alloc_header+0x26>
10004184:	6a63      	ldr	r3, [r4, #36]	@ 0x24
10004186:	8d62      	ldrh	r2, [r4, #42]	@ 0x2a
10004188:	4413      	add	r3, r2
1000418a:	62e3      	str	r3, [r4, #44]	@ 0x2c
1000418c:	b004      	add	sp, #16
1000418e:	bd10      	pop	{r4, pc}

10004190 <tcp_rst_common>:
10004190:	b510      	push	{r4, lr}
10004192:	b084      	sub	sp, #16
10004194:	4614      	mov	r4, r2
10004196:	4608      	mov	r0, r1
10004198:	f7fc fd13 	bl	10000bc2 <lwip_htonl>
1000419c:	4603      	mov	r3, r0
1000419e:	f24d 0216 	movw	r2, #53270	@ 0xd016
100041a2:	9203      	str	r2, [sp, #12]
100041a4:	2214      	movs	r2, #20
100041a6:	9202      	str	r2, [sp, #8]
100041a8:	f8bd 2020 	ldrh.w	r2, [sp, #32]
100041ac:	9201      	str	r2, [sp, #4]
100041ae:	f8bd 201c 	ldrh.w	r2, [sp, #28]
100041b2:	9200      	str	r2, [sp, #0]
100041b4:	2200      	movs	r2, #0
100041b6:	4611      	mov	r1, r2
100041b8:	4620      	mov	r0, r4
100041ba:	f7ff ff9d 	bl	100040f8 <tcp_output_alloc_header_common>
100041be:	b004      	add	sp, #16
100041c0:	bd10      	pop	{r4, pc}

100041c2 <tcp_route>:
100041c2:	b508      	push	{r3, lr}
100041c4:	b108      	cbz	r0, 100041ca <tcp_route+0x8>
100041c6:	7a00      	ldrb	r0, [r0, #8]
100041c8:	b918      	cbnz	r0, 100041d2 <tcp_route+0x10>
100041ca:	4610      	mov	r0, r2
100041cc:	f001 ff1e 	bl	1000600c <ip4_route>
100041d0:	bd08      	pop	{r3, pc}
100041d2:	f7fd f971 	bl	100014b8 <netif_get_by_index>
100041d6:	e7fb      	b.n	100041d0 <tcp_route+0xe>

100041d8 <tcp_output_segment>:
100041d8:	e92d 41f0 	stmdb	sp!, {r4, r5, r6, r7, r8, lr}
100041dc:	b084      	sub	sp, #16
100041de:	4605      	mov	r5, r0
100041e0:	460c      	mov	r4, r1
100041e2:	4616      	mov	r6, r2
100041e4:	f7ff fefe 	bl	10003fe4 <tcp_output_segment_busy>
100041e8:	b118      	cbz	r0, 100041f2 <tcp_output_segment+0x1a>
100041ea:	2000      	movs	r0, #0
100041ec:	b004      	add	sp, #16
100041ee:	e8bd 81f0 	ldmia.w	sp!, {r4, r5, r6, r7, r8, pc}
100041f2:	68ef      	ldr	r7, [r5, #12]
100041f4:	6a60      	ldr	r0, [r4, #36]	@ 0x24
100041f6:	f7fc fce4 	bl	10000bc2 <lwip_htonl>
100041fa:	60b8      	str	r0, [r7, #8]
100041fc:	68ef      	ldr	r7, [r5, #12]
100041fe:	8d60      	ldrh	r0, [r4, #42]	@ 0x2a
10004200:	f7fc fcda 	bl	10000bb8 <lwip_htons>
10004204:	81f8      	strh	r0, [r7, #14]
10004206:	6a63      	ldr	r3, [r4, #36]	@ 0x24
10004208:	8d62      	ldrh	r2, [r4, #42]	@ 0x2a
1000420a:	4413      	add	r3, r2
1000420c:	62e3      	str	r3, [r4, #44]	@ 0x2c
1000420e:	68ef      	ldr	r7, [r5, #12]
10004210:	7aab      	ldrb	r3, [r5, #10]
10004212:	f013 0f01 	tst.w	r3, #1
10004216:	d136      	bne.n	10004286 <tcp_output_segment+0xae>
10004218:	f9b4 3030 	ldrsh.w	r3, [r4, #48]	@ 0x30
1000421c:	2b00      	cmp	r3, #0
1000421e:	db3e      	blt.n	1000429e <tcp_output_segment+0xc6>
10004220:	6b63      	ldr	r3, [r4, #52]	@ 0x34
10004222:	2b00      	cmp	r3, #0
10004224:	d03e      	beq.n	100042a4 <tcp_output_segment+0xcc>
10004226:	68eb      	ldr	r3, [r5, #12]
10004228:	686a      	ldr	r2, [r5, #4]
1000422a:	6851      	ldr	r1, [r2, #4]
1000422c:	1a5b      	subs	r3, r3, r1
1000422e:	b29b      	uxth	r3, r3
10004230:	8951      	ldrh	r1, [r2, #10]
10004232:	1ac9      	subs	r1, r1, r3
10004234:	8151      	strh	r1, [r2, #10]
10004236:	6869      	ldr	r1, [r5, #4]
10004238:	890a      	ldrh	r2, [r1, #8]
1000423a:	1ad3      	subs	r3, r2, r3
1000423c:	810b      	strh	r3, [r1, #8]
1000423e:	686a      	ldr	r2, [r5, #4]
10004240:	68eb      	ldr	r3, [r5, #12]
10004242:	6053      	str	r3, [r2, #4]
10004244:	2200      	movs	r2, #0
10004246:	741a      	strb	r2, [r3, #16]
10004248:	745a      	strb	r2, [r3, #17]
1000424a:	f8d5 800c 	ldr.w	r8, [r5, #12]
1000424e:	6868      	ldr	r0, [r5, #4]
10004250:	1d27      	adds	r7, r4, #4
10004252:	8902      	ldrh	r2, [r0, #8]
10004254:	9700      	str	r7, [sp, #0]
10004256:	4623      	mov	r3, r4
10004258:	2106      	movs	r1, #6
1000425a:	f7fc fd61 	bl	10000d20 <ip_chksum_pseudo>
1000425e:	f8a8 0010 	strh.w	r0, [r8, #16]
10004262:	4a15      	ldr	r2, [pc, #84]	@ (100042b8 <tcp_output_segment+0xe0>)
10004264:	f8b2 3090 	ldrh.w	r3, [r2, #144]	@ 0x90
10004268:	3301      	adds	r3, #1
1000426a:	f8a2 3090 	strh.w	r3, [r2, #144]	@ 0x90
1000426e:	9602      	str	r6, [sp, #8]
10004270:	2306      	movs	r3, #6
10004272:	9301      	str	r3, [sp, #4]
10004274:	7aa3      	ldrb	r3, [r4, #10]
10004276:	9300      	str	r3, [sp, #0]
10004278:	7ae3      	ldrb	r3, [r4, #11]
1000427a:	463a      	mov	r2, r7
1000427c:	4621      	mov	r1, r4
1000427e:	6868      	ldr	r0, [r5, #4]
10004280:	f002 f888 	bl	10006394 <ip4_output_if>
10004284:	e7b2      	b.n	100041ec <tcp_output_segment+0x14>
10004286:	1d22      	adds	r2, r4, #4
10004288:	4631      	mov	r1, r6
1000428a:	f240 50b4 	movw	r0, #1460	@ 0x5b4
1000428e:	f7fd fe07 	bl	10001ea0 <tcp_eff_send_mss_netif>
10004292:	f040 7001 	orr.w	r0, r0, #33816576	@ 0x2040000
10004296:	f7fc fc94 	bl	10000bc2 <lwip_htonl>
1000429a:	6178      	str	r0, [r7, #20]
1000429c:	e7bc      	b.n	10004218 <tcp_output_segment+0x40>
1000429e:	2300      	movs	r3, #0
100042a0:	8623      	strh	r3, [r4, #48]	@ 0x30
100042a2:	e7bd      	b.n	10004220 <tcp_output_segment+0x48>
100042a4:	4b05      	ldr	r3, [pc, #20]	@ (100042bc <tcp_output_segment+0xe4>)
100042a6:	681b      	ldr	r3, [r3, #0]
100042a8:	6363      	str	r3, [r4, #52]	@ 0x34
100042aa:	68eb      	ldr	r3, [r5, #12]
100042ac:	6858      	ldr	r0, [r3, #4]
100042ae:	f7fc fc88 	bl	10000bc2 <lwip_htonl>
100042b2:	63a0      	str	r0, [r4, #56]	@ 0x38
100042b4:	e7b7      	b.n	10004226 <tcp_output_segment+0x4e>
100042b6:	bf00      	nop
100042b8:	20001db0 	.word	0x20001db0
100042bc:	20005f28 	.word	0x20005f28

100042c0 <tcp_output_control_segment_netif>:
100042c0:	e92d 41f0 	stmdb	sp!, {r4, r5, r6, r7, r8, lr}
100042c4:	b084      	sub	sp, #16
100042c6:	4605      	mov	r5, r0
100042c8:	460c      	mov	r4, r1
100042ca:	4616      	mov	r6, r2
100042cc:	461f      	mov	r7, r3
100042ce:	f8d1 8004 	ldr.w	r8, [r1, #4]
100042d2:	9300      	str	r3, [sp, #0]
100042d4:	4613      	mov	r3, r2
100042d6:	890a      	ldrh	r2, [r1, #8]
100042d8:	2106      	movs	r1, #6
100042da:	4620      	mov	r0, r4
100042dc:	f7fc fd20 	bl	10000d20 <ip_chksum_pseudo>
100042e0:	f8a8 0010 	strh.w	r0, [r8, #16]
100042e4:	b1cd      	cbz	r5, 1000431a <tcp_output_control_segment_netif+0x5a>
100042e6:	7aeb      	ldrb	r3, [r5, #11]
100042e8:	7aa8      	ldrb	r0, [r5, #10]
100042ea:	490d      	ldr	r1, [pc, #52]	@ (10004320 <tcp_output_control_segment_netif+0x60>)
100042ec:	f8b1 2090 	ldrh.w	r2, [r1, #144]	@ 0x90
100042f0:	3201      	adds	r2, #1
100042f2:	f8a1 2090 	strh.w	r2, [r1, #144]	@ 0x90
100042f6:	9a0a      	ldr	r2, [sp, #40]	@ 0x28
100042f8:	9202      	str	r2, [sp, #8]
100042fa:	2206      	movs	r2, #6
100042fc:	9201      	str	r2, [sp, #4]
100042fe:	9000      	str	r0, [sp, #0]
10004300:	463a      	mov	r2, r7
10004302:	4631      	mov	r1, r6
10004304:	4620      	mov	r0, r4
10004306:	f002 f845 	bl	10006394 <ip4_output_if>
1000430a:	4605      	mov	r5, r0
1000430c:	4620      	mov	r0, r4
1000430e:	f7fd f9be 	bl	1000168e <pbuf_free>
10004312:	4628      	mov	r0, r5
10004314:	b004      	add	sp, #16
10004316:	e8bd 81f0 	ldmia.w	sp!, {r4, r5, r6, r7, r8, pc}
1000431a:	2000      	movs	r0, #0
1000431c:	23ff      	movs	r3, #255	@ 0xff
1000431e:	e7e4      	b.n	100042ea <tcp_output_control_segment_netif+0x2a>
10004320:	20001db0 	.word	0x20001db0

10004324 <tcp_output_control_segment>:
10004324:	b5f0      	push	{r4, r5, r6, r7, lr}
10004326:	b083      	sub	sp, #12
10004328:	4607      	mov	r7, r0
1000432a:	460e      	mov	r6, r1
1000432c:	4614      	mov	r4, r2
1000432e:	461d      	mov	r5, r3
10004330:	461a      	mov	r2, r3
10004332:	4621      	mov	r1, r4
10004334:	f7ff ff45 	bl	100041c2 <tcp_route>
10004338:	b140      	cbz	r0, 1000434c <tcp_output_control_segment+0x28>
1000433a:	9000      	str	r0, [sp, #0]
1000433c:	462b      	mov	r3, r5
1000433e:	4622      	mov	r2, r4
10004340:	4631      	mov	r1, r6
10004342:	4638      	mov	r0, r7
10004344:	f7ff ffbc 	bl	100042c0 <tcp_output_control_segment_netif>
10004348:	b003      	add	sp, #12
1000434a:	bdf0      	pop	{r4, r5, r6, r7, pc}
1000434c:	4630      	mov	r0, r6
1000434e:	f7fd f99e 	bl	1000168e <pbuf_free>
10004352:	f06f 0003 	mvn.w	r0, #3
10004356:	e7f7      	b.n	10004348 <tcp_output_control_segment+0x24>

10004358 <tcp_write>:
10004358:	e92d 4ff0 	stmdb	sp!, {r4, r5, r6, r7, r8, r9, sl, fp, lr}
1000435c:	b091      	sub	sp, #68	@ 0x44
1000435e:	9106      	str	r1, [sp, #24]
10004360:	930a      	str	r3, [sp, #40]	@ 0x28
10004362:	2300      	movs	r3, #0
10004364:	f8ad 303e 	strh.w	r3, [sp, #62]	@ 0x3e
10004368:	2800      	cmp	r0, #0
1000436a:	f000 81be 	beq.w	100046ea <tcp_write+0x392>
1000436e:	4692      	mov	sl, r2
10004370:	4607      	mov	r7, r0
10004372:	f8b0 3062 	ldrh.w	r3, [r0, #98]	@ 0x62
10004376:	085b      	lsrs	r3, r3, #1
10004378:	f8b0 b032 	ldrh.w	fp, [r0, #50]	@ 0x32
1000437c:	455b      	cmp	r3, fp
1000437e:	bf28      	it	cs
10004380:	465b      	movcs	r3, fp
10004382:	b103      	cbz	r3, 10004386 <tcp_write+0x2e>
10004384:	469b      	mov	fp, r3
10004386:	9b06      	ldr	r3, [sp, #24]
10004388:	2b00      	cmp	r3, #0
1000438a:	f000 81b2 	beq.w	100046f2 <tcp_write+0x39a>
1000438e:	4651      	mov	r1, sl
10004390:	4638      	mov	r0, r7
10004392:	f7ff fdf7 	bl	10003f84 <tcp_write_checks>
10004396:	9009      	str	r0, [sp, #36]	@ 0x24
10004398:	2800      	cmp	r0, #0
1000439a:	f040 8109 	bne.w	100045b0 <tcp_write+0x258>
1000439e:	f8b7 6066 	ldrh.w	r6, [r7, #102]	@ 0x66
100043a2:	f8d7 906c 	ldr.w	r9, [r7, #108]	@ 0x6c
100043a6:	f1b9 0f00 	cmp.w	r9, #0
100043aa:	f000 8107 	beq.w	100045bc <tcp_write+0x264>
100043ae:	464b      	mov	r3, r9
100043b0:	9308      	str	r3, [sp, #32]
100043b2:	681b      	ldr	r3, [r3, #0]
100043b4:	2b00      	cmp	r3, #0
100043b6:	d1fb      	bne.n	100043b0 <tcp_write+0x58>
100043b8:	4699      	mov	r9, r3
100043ba:	9c08      	ldr	r4, [sp, #32]
100043bc:	f894 c00a 	ldrb.w	ip, [r4, #10]
100043c0:	ea4f 0c8c 	mov.w	ip, ip, lsl #2
100043c4:	f00c 0c04 	and.w	ip, ip, #4
100043c8:	8923      	ldrh	r3, [r4, #8]
100043ca:	449c      	add	ip, r3
100043cc:	fa1f fc8c 	uxth.w	ip, ip
100043d0:	ebab 0c0c 	sub.w	ip, fp, ip
100043d4:	fa1f f08c 	uxth.w	r0, ip
100043d8:	f8b7 5068 	ldrh.w	r5, [r7, #104]	@ 0x68
100043dc:	f8ad 503e 	strh.w	r5, [sp, #62]	@ 0x3e
100043e0:	b185      	cbz	r5, 10004404 <tcp_write+0xac>
100043e2:	462a      	mov	r2, r5
100043e4:	4555      	cmp	r5, sl
100043e6:	bf28      	it	cs
100043e8:	4652      	movcs	r2, sl
100043ea:	4282      	cmp	r2, r0
100043ec:	bf28      	it	cs
100043ee:	4602      	movcs	r2, r0
100043f0:	1aa9      	subs	r1, r5, r2
100043f2:	f8ad 103e 	strh.w	r1, [sp, #62]	@ 0x3e
100043f6:	eba0 0c02 	sub.w	ip, r0, r2
100043fa:	fa1f f08c 	uxth.w	r0, ip
100043fe:	4615      	mov	r5, r2
10004400:	46a0      	mov	r8, r4
10004402:	e000      	b.n	10004406 <tcp_write+0xae>
10004404:	46c8      	mov	r8, r9
10004406:	4555      	cmp	r5, sl
10004408:	f080 80df 	bcs.w	100045ca <tcp_write+0x272>
1000440c:	2800      	cmp	r0, #0
1000440e:	f000 80e9 	beq.w	100045e4 <tcp_write+0x28c>
10004412:	2b00      	cmp	r3, #0
10004414:	f000 80e8 	beq.w	100045e8 <tcp_write+0x290>
10004418:	ebaa 0305 	sub.w	r3, sl, r5
1000441c:	4283      	cmp	r3, r0
1000441e:	bfa8      	it	ge
10004420:	4603      	movge	r3, r0
10004422:	b29c      	uxth	r4, r3
10004424:	9b0a      	ldr	r3, [sp, #40]	@ 0x28
10004426:	f013 0f01 	tst.w	r3, #1
1000442a:	d127      	bne.n	1000447c <tcp_write+0x124>
1000442c:	9b08      	ldr	r3, [sp, #32]
1000442e:	f8d3 9004 	ldr.w	r9, [r3, #4]
10004432:	464a      	mov	r2, r9
10004434:	4613      	mov	r3, r2
10004436:	6812      	ldr	r2, [r2, #0]
10004438:	2a00      	cmp	r2, #0
1000443a:	d1fb      	bne.n	10004434 <tcp_write+0xdc>
1000443c:	4691      	mov	r9, r2
1000443e:	7b1a      	ldrb	r2, [r3, #12]
10004440:	2a3f      	cmp	r2, #63	@ 0x3f
10004442:	d805      	bhi.n	10004450 <tcp_write+0xf8>
10004444:	685a      	ldr	r2, [r3, #4]
10004446:	895b      	ldrh	r3, [r3, #10]
10004448:	4413      	add	r3, r2
1000444a:	9a06      	ldr	r2, [sp, #24]
1000444c:	4293      	cmp	r3, r2
1000444e:	d032      	beq.n	100044b6 <tcp_write+0x15e>
10004450:	2201      	movs	r2, #1
10004452:	4621      	mov	r1, r4
10004454:	2000      	movs	r0, #0
10004456:	f7fd f94e 	bl	100016f6 <pbuf_alloc>
1000445a:	4681      	mov	r9, r0
1000445c:	2800      	cmp	r0, #0
1000445e:	f000 8139 	beq.w	100046d4 <tcp_write+0x37c>
10004462:	9b06      	ldr	r3, [sp, #24]
10004464:	442b      	add	r3, r5
10004466:	6043      	str	r3, [r0, #4]
10004468:	f7fd f9f7 	bl	1000185a <pbuf_clen>
1000446c:	1833      	adds	r3, r6, r0
1000446e:	b29e      	uxth	r6, r3
10004470:	2000      	movs	r0, #0
10004472:	442c      	add	r4, r5
10004474:	b2a4      	uxth	r4, r4
10004476:	f8dd 8020 	ldr.w	r8, [sp, #32]
1000447a:	e0a8      	b.n	100045ce <tcp_write+0x276>
1000447c:	2301      	movs	r3, #1
1000447e:	9302      	str	r3, [sp, #8]
10004480:	9b0a      	ldr	r3, [sp, #40]	@ 0x28
10004482:	9301      	str	r3, [sp, #4]
10004484:	9700      	str	r7, [sp, #0]
10004486:	f10d 033e 	add.w	r3, sp, #62	@ 0x3e
1000448a:	4602      	mov	r2, r0
1000448c:	4621      	mov	r1, r4
1000448e:	2000      	movs	r0, #0
10004490:	f7ff fdb0 	bl	10003ff4 <tcp_pbuf_prealloc>
10004494:	4681      	mov	r9, r0
10004496:	2800      	cmp	r0, #0
10004498:	f000 811a 	beq.w	100046d0 <tcp_write+0x378>
1000449c:	4622      	mov	r2, r4
1000449e:	9b06      	ldr	r3, [sp, #24]
100044a0:	1959      	adds	r1, r3, r5
100044a2:	6840      	ldr	r0, [r0, #4]
100044a4:	f008 fc00 	bl	1000cca8 <memcpy>
100044a8:	4648      	mov	r0, r9
100044aa:	f7fd f9d6 	bl	1000185a <pbuf_clen>
100044ae:	1833      	adds	r3, r6, r0
100044b0:	b29e      	uxth	r6, r3
100044b2:	2000      	movs	r0, #0
100044b4:	e7dd      	b.n	10004472 <tcp_write+0x11a>
100044b6:	4620      	mov	r0, r4
100044b8:	e7db      	b.n	10004472 <tcp_write+0x11a>
100044ba:	2201      	movs	r2, #1
100044bc:	4629      	mov	r1, r5
100044be:	2036      	movs	r0, #54	@ 0x36
100044c0:	f7fd f919 	bl	100016f6 <pbuf_alloc>
100044c4:	9007      	str	r0, [sp, #28]
100044c6:	2800      	cmp	r0, #0
100044c8:	f000 8109 	beq.w	100046de <tcp_write+0x386>
100044cc:	9b06      	ldr	r3, [sp, #24]
100044ce:	4423      	add	r3, r4
100044d0:	6043      	str	r3, [r0, #4]
100044d2:	f44f 7220 	mov.w	r2, #640	@ 0x280
100044d6:	2100      	movs	r1, #0
100044d8:	2036      	movs	r0, #54	@ 0x36
100044da:	f7fd f90c 	bl	100016f6 <pbuf_alloc>
100044de:	4680      	mov	r8, r0
100044e0:	2800      	cmp	r0, #0
100044e2:	d042      	beq.n	1000456a <tcp_write+0x212>
100044e4:	9907      	ldr	r1, [sp, #28]
100044e6:	f7fd f9cd 	bl	10001884 <pbuf_cat>
100044ea:	4640      	mov	r0, r8
100044ec:	f7fd f9b5 	bl	1000185a <pbuf_clen>
100044f0:	4430      	add	r0, r6
100044f2:	b286      	uxth	r6, r0
100044f4:	2e10      	cmp	r6, #16
100044f6:	d83e      	bhi.n	10004576 <tcp_write+0x21e>
100044f8:	6dfb      	ldr	r3, [r7, #92]	@ 0x5c
100044fa:	2200      	movs	r2, #0
100044fc:	9200      	str	r2, [sp, #0]
100044fe:	4423      	add	r3, r4
10004500:	4641      	mov	r1, r8
10004502:	4638      	mov	r0, r7
10004504:	f7ff fda8 	bl	10004058 <tcp_create_segment>
10004508:	4603      	mov	r3, r0
1000450a:	2800      	cmp	r0, #0
1000450c:	f000 80ea 	beq.w	100046e4 <tcp_write+0x38c>
10004510:	9a04      	ldr	r2, [sp, #16]
10004512:	2a00      	cmp	r2, #0
10004514:	d050      	beq.n	100045b8 <tcp_write+0x260>
10004516:	9a05      	ldr	r2, [sp, #20]
10004518:	6010      	str	r0, [r2, #0]
1000451a:	4425      	add	r5, r4
1000451c:	b2ac      	uxth	r4, r5
1000451e:	9305      	str	r3, [sp, #20]
10004520:	4554      	cmp	r4, sl
10004522:	d264      	bcs.n	100045ee <tcp_write+0x296>
10004524:	ebaa 0504 	sub.w	r5, sl, r4
10004528:	b2ad      	uxth	r5, r5
1000452a:	455d      	cmp	r5, fp
1000452c:	bf28      	it	cs
1000452e:	465d      	movcs	r5, fp
10004530:	f019 0f01 	tst.w	r9, #1
10004534:	d0c1      	beq.n	100044ba <tcp_write+0x162>
10004536:	9b04      	ldr	r3, [sp, #16]
10004538:	fab3 f383 	clz	r3, r3
1000453c:	095b      	lsrs	r3, r3, #5
1000453e:	9302      	str	r3, [sp, #8]
10004540:	f8cd 9004 	str.w	r9, [sp, #4]
10004544:	9700      	str	r7, [sp, #0]
10004546:	f10d 033e 	add.w	r3, sp, #62	@ 0x3e
1000454a:	465a      	mov	r2, fp
1000454c:	4629      	mov	r1, r5
1000454e:	2036      	movs	r0, #54	@ 0x36
10004550:	f7ff fd50 	bl	10003ff4 <tcp_pbuf_prealloc>
10004554:	4680      	mov	r8, r0
10004556:	2800      	cmp	r0, #0
10004558:	f000 80be 	beq.w	100046d8 <tcp_write+0x380>
1000455c:	462a      	mov	r2, r5
1000455e:	9b06      	ldr	r3, [sp, #24]
10004560:	1919      	adds	r1, r3, r4
10004562:	6840      	ldr	r0, [r0, #4]
10004564:	f008 fba0 	bl	1000cca8 <memcpy>
10004568:	e7bf      	b.n	100044ea <tcp_write+0x192>
1000456a:	f8dd 902c 	ldr.w	r9, [sp, #44]	@ 0x2c
1000456e:	9807      	ldr	r0, [sp, #28]
10004570:	f7fd f88d 	bl	1000168e <pbuf_free>
10004574:	e004      	b.n	10004580 <tcp_write+0x228>
10004576:	f8dd 902c 	ldr.w	r9, [sp, #44]	@ 0x2c
1000457a:	4640      	mov	r0, r8
1000457c:	f7fd f887 	bl	1000168e <pbuf_free>
10004580:	8b7b      	ldrh	r3, [r7, #26]
10004582:	f043 0380 	orr.w	r3, r3, #128	@ 0x80
10004586:	837b      	strh	r3, [r7, #26]
10004588:	4a5c      	ldr	r2, [pc, #368]	@ (100046fc <tcp_write+0x3a4>)
1000458a:	f8b2 309c 	ldrh.w	r3, [r2, #156]	@ 0x9c
1000458e:	3301      	adds	r3, #1
10004590:	f8a2 309c 	strh.w	r3, [r2, #156]	@ 0x9c
10004594:	f1b9 0f00 	cmp.w	r9, #0
10004598:	d002      	beq.n	100045a0 <tcp_write+0x248>
1000459a:	4648      	mov	r0, r9
1000459c:	f7fd f877 	bl	1000168e <pbuf_free>
100045a0:	9b04      	ldr	r3, [sp, #16]
100045a2:	b113      	cbz	r3, 100045aa <tcp_write+0x252>
100045a4:	4618      	mov	r0, r3
100045a6:	f7fd fc33 	bl	10001e10 <tcp_segs_free>
100045aa:	f04f 33ff 	mov.w	r3, #4294967295
100045ae:	9309      	str	r3, [sp, #36]	@ 0x24
100045b0:	9809      	ldr	r0, [sp, #36]	@ 0x24
100045b2:	b011      	add	sp, #68	@ 0x44
100045b4:	e8bd 8ff0 	ldmia.w	sp!, {r4, r5, r6, r7, r8, r9, sl, fp, pc}
100045b8:	9004      	str	r0, [sp, #16]
100045ba:	e7ae      	b.n	1000451a <tcp_write+0x1c2>
100045bc:	46c8      	mov	r8, r9
100045be:	f8cd 9020 	str.w	r9, [sp, #32]
100045c2:	2000      	movs	r0, #0
100045c4:	4605      	mov	r5, r0
100045c6:	4604      	mov	r4, r0
100045c8:	e001      	b.n	100045ce <tcp_write+0x276>
100045ca:	462c      	mov	r4, r5
100045cc:	2000      	movs	r0, #0
100045ce:	2300      	movs	r3, #0
100045d0:	9304      	str	r3, [sp, #16]
100045d2:	9305      	str	r3, [sp, #20]
100045d4:	f8cd 902c 	str.w	r9, [sp, #44]	@ 0x2c
100045d8:	4643      	mov	r3, r8
100045da:	950c      	str	r5, [sp, #48]	@ 0x30
100045dc:	900d      	str	r0, [sp, #52]	@ 0x34
100045de:	f8dd 9028 	ldr.w	r9, [sp, #40]	@ 0x28
100045e2:	e79d      	b.n	10004520 <tcp_write+0x1c8>
100045e4:	462c      	mov	r4, r5
100045e6:	e7f2      	b.n	100045ce <tcp_write+0x276>
100045e8:	4618      	mov	r0, r3
100045ea:	462c      	mov	r4, r5
100045ec:	e7ef      	b.n	100045ce <tcp_write+0x276>
100045ee:	f8dd 902c 	ldr.w	r9, [sp, #44]	@ 0x2c
100045f2:	4698      	mov	r8, r3
100045f4:	9d0c      	ldr	r5, [sp, #48]	@ 0x30
100045f6:	980d      	ldr	r0, [sp, #52]	@ 0x34
100045f8:	b1dd      	cbz	r5, 10004632 <tcp_write+0x2da>
100045fa:	9b08      	ldr	r3, [sp, #32]
100045fc:	685c      	ldr	r4, [r3, #4]
100045fe:	4683      	mov	fp, r0
10004600:	e000      	b.n	10004604 <tcp_write+0x2ac>
10004602:	6824      	ldr	r4, [r4, #0]
10004604:	b184      	cbz	r4, 10004628 <tcp_write+0x2d0>
10004606:	8923      	ldrh	r3, [r4, #8]
10004608:	442b      	add	r3, r5
1000460a:	8123      	strh	r3, [r4, #8]
1000460c:	6823      	ldr	r3, [r4, #0]
1000460e:	2b00      	cmp	r3, #0
10004610:	d1f7      	bne.n	10004602 <tcp_write+0x2aa>
10004612:	6860      	ldr	r0, [r4, #4]
10004614:	8963      	ldrh	r3, [r4, #10]
10004616:	462a      	mov	r2, r5
10004618:	9906      	ldr	r1, [sp, #24]
1000461a:	4418      	add	r0, r3
1000461c:	f008 fb44 	bl	1000cca8 <memcpy>
10004620:	8963      	ldrh	r3, [r4, #10]
10004622:	442b      	add	r3, r5
10004624:	8163      	strh	r3, [r4, #10]
10004626:	e7ec      	b.n	10004602 <tcp_write+0x2aa>
10004628:	4658      	mov	r0, fp
1000462a:	9a08      	ldr	r2, [sp, #32]
1000462c:	8913      	ldrh	r3, [r2, #8]
1000462e:	442b      	add	r3, r5
10004630:	8113      	strh	r3, [r2, #8]
10004632:	f8bd 303e 	ldrh.w	r3, [sp, #62]	@ 0x3e
10004636:	f8a7 3068 	strh.w	r3, [r7, #104]	@ 0x68
1000463a:	f1b9 0f00 	cmp.w	r9, #0
1000463e:	d02b      	beq.n	10004698 <tcp_write+0x340>
10004640:	4649      	mov	r1, r9
10004642:	9c08      	ldr	r4, [sp, #32]
10004644:	6860      	ldr	r0, [r4, #4]
10004646:	f7fd f91d 	bl	10001884 <pbuf_cat>
1000464a:	8923      	ldrh	r3, [r4, #8]
1000464c:	f8b9 2008 	ldrh.w	r2, [r9, #8]
10004650:	4413      	add	r3, r2
10004652:	8123      	strh	r3, [r4, #8]
10004654:	9b08      	ldr	r3, [sp, #32]
10004656:	9a04      	ldr	r2, [sp, #16]
10004658:	601a      	str	r2, [r3, #0]
1000465a:	6dfb      	ldr	r3, [r7, #92]	@ 0x5c
1000465c:	4453      	add	r3, sl
1000465e:	65fb      	str	r3, [r7, #92]	@ 0x5c
10004660:	f8b7 3064 	ldrh.w	r3, [r7, #100]	@ 0x64
10004664:	eba3 030a 	sub.w	r3, r3, sl
10004668:	f8a7 3064 	strh.w	r3, [r7, #100]	@ 0x64
1000466c:	f8a7 6066 	strh.w	r6, [r7, #102]	@ 0x66
10004670:	f1b8 0f00 	cmp.w	r8, #0
10004674:	d09c      	beq.n	100045b0 <tcp_write+0x258>
10004676:	f8d8 300c 	ldr.w	r3, [r8, #12]
1000467a:	2b00      	cmp	r3, #0
1000467c:	d098      	beq.n	100045b0 <tcp_write+0x258>
1000467e:	9a0a      	ldr	r2, [sp, #40]	@ 0x28
10004680:	f012 0f02 	tst.w	r2, #2
10004684:	d194      	bne.n	100045b0 <tcp_write+0x258>
10004686:	899c      	ldrh	r4, [r3, #12]
10004688:	2008      	movs	r0, #8
1000468a:	f7fc fa95 	bl	10000bb8 <lwip_htons>
1000468e:	f8d8 300c 	ldr.w	r3, [r8, #12]
10004692:	4304      	orrs	r4, r0
10004694:	819c      	strh	r4, [r3, #12]
10004696:	e78b      	b.n	100045b0 <tcp_write+0x258>
10004698:	b1a0      	cbz	r0, 100046c4 <tcp_write+0x36c>
1000469a:	9b08      	ldr	r3, [sp, #32]
1000469c:	685b      	ldr	r3, [r3, #4]
1000469e:	e003      	b.n	100046a8 <tcp_write+0x350>
100046a0:	891a      	ldrh	r2, [r3, #8]
100046a2:	4402      	add	r2, r0
100046a4:	811a      	strh	r2, [r3, #8]
100046a6:	460b      	mov	r3, r1
100046a8:	6819      	ldr	r1, [r3, #0]
100046aa:	2900      	cmp	r1, #0
100046ac:	d1f8      	bne.n	100046a0 <tcp_write+0x348>
100046ae:	891a      	ldrh	r2, [r3, #8]
100046b0:	4402      	add	r2, r0
100046b2:	811a      	strh	r2, [r3, #8]
100046b4:	895a      	ldrh	r2, [r3, #10]
100046b6:	4402      	add	r2, r0
100046b8:	815a      	strh	r2, [r3, #10]
100046ba:	9a08      	ldr	r2, [sp, #32]
100046bc:	8913      	ldrh	r3, [r2, #8]
100046be:	4403      	add	r3, r0
100046c0:	8113      	strh	r3, [r2, #8]
100046c2:	e7c7      	b.n	10004654 <tcp_write+0x2fc>
100046c4:	9b08      	ldr	r3, [sp, #32]
100046c6:	2b00      	cmp	r3, #0
100046c8:	d1c4      	bne.n	10004654 <tcp_write+0x2fc>
100046ca:	9b04      	ldr	r3, [sp, #16]
100046cc:	66fb      	str	r3, [r7, #108]	@ 0x6c
100046ce:	e7c4      	b.n	1000465a <tcp_write+0x302>
100046d0:	9004      	str	r0, [sp, #16]
100046d2:	e755      	b.n	10004580 <tcp_write+0x228>
100046d4:	9004      	str	r0, [sp, #16]
100046d6:	e753      	b.n	10004580 <tcp_write+0x228>
100046d8:	f8dd 902c 	ldr.w	r9, [sp, #44]	@ 0x2c
100046dc:	e750      	b.n	10004580 <tcp_write+0x228>
100046de:	f8dd 902c 	ldr.w	r9, [sp, #44]	@ 0x2c
100046e2:	e74d      	b.n	10004580 <tcp_write+0x228>
100046e4:	f8dd 902c 	ldr.w	r9, [sp, #44]	@ 0x2c
100046e8:	e74a      	b.n	10004580 <tcp_write+0x228>
100046ea:	f06f 030f 	mvn.w	r3, #15
100046ee:	9309      	str	r3, [sp, #36]	@ 0x24
100046f0:	e75e      	b.n	100045b0 <tcp_write+0x258>
100046f2:	f06f 030f 	mvn.w	r3, #15
100046f6:	9309      	str	r3, [sp, #36]	@ 0x24
100046f8:	e75a      	b.n	100045b0 <tcp_write+0x258>
100046fa:	bf00      	nop
100046fc:	20001db0 	.word	0x20001db0

10004700 <tcp_split_unsent_seg>:
10004700:	e92d 4ff0 	stmdb	sp!, {r4, r5, r6, r7, r8, r9, sl, fp, lr}
10004704:	b083      	sub	sp, #12
10004706:	6ec5      	ldr	r5, [r0, #108]	@ 0x6c
10004708:	2d00      	cmp	r5, #0
1000470a:	f000 809d 	beq.w	10004848 <tcp_split_unsent_seg+0x148>
1000470e:	4606      	mov	r6, r0
10004710:	460c      	mov	r4, r1
10004712:	2900      	cmp	r1, #0
10004714:	f000 809b 	beq.w	1000484e <tcp_split_unsent_seg+0x14e>
10004718:	f8b5 8008 	ldrh.w	r8, [r5, #8]
1000471c:	4588      	cmp	r8, r1
1000471e:	d803      	bhi.n	10004728 <tcp_split_unsent_seg+0x28>
10004720:	2000      	movs	r0, #0
10004722:	b003      	add	sp, #12
10004724:	e8bd 8ff0 	ldmia.w	sp!, {r4, r5, r6, r7, r8, r9, sl, fp, pc}
10004728:	f895 a00a 	ldrb.w	sl, [r5, #10]
1000472c:	ea4f 0b8a 	mov.w	fp, sl, lsl #2
10004730:	f00b 0b04 	and.w	fp, fp, #4
10004734:	eba8 0701 	sub.w	r7, r8, r1
10004738:	b2bf      	uxth	r7, r7
1000473a:	eb0b 0107 	add.w	r1, fp, r7
1000473e:	f44f 7220 	mov.w	r2, #640	@ 0x280
10004742:	b289      	uxth	r1, r1
10004744:	2036      	movs	r0, #54	@ 0x36
10004746:	f7fc ffd6 	bl	100016f6 <pbuf_alloc>
1000474a:	4681      	mov	r9, r0
1000474c:	b170      	cbz	r0, 1000476c <tcp_split_unsent_seg+0x6c>
1000474e:	6868      	ldr	r0, [r5, #4]
10004750:	8903      	ldrh	r3, [r0, #8]
10004752:	892a      	ldrh	r2, [r5, #8]
10004754:	1a9b      	subs	r3, r3, r2
10004756:	fa14 f383 	uxtah	r3, r4, r3
1000475a:	f8d9 1004 	ldr.w	r1, [r9, #4]
1000475e:	b29b      	uxth	r3, r3
10004760:	463a      	mov	r2, r7
10004762:	4459      	add	r1, fp
10004764:	f7fd f927 	bl	100019b6 <pbuf_copy_partial>
10004768:	42b8      	cmp	r0, r7
1000476a:	d00e      	beq.n	1000478a <tcp_split_unsent_seg+0x8a>
1000476c:	4a3b      	ldr	r2, [pc, #236]	@ (1000485c <tcp_split_unsent_seg+0x15c>)
1000476e:	f8b2 309c 	ldrh.w	r3, [r2, #156]	@ 0x9c
10004772:	3301      	adds	r3, #1
10004774:	f8a2 309c 	strh.w	r3, [r2, #156]	@ 0x9c
10004778:	f1b9 0f00 	cmp.w	r9, #0
1000477c:	d06a      	beq.n	10004854 <tcp_split_unsent_seg+0x154>
1000477e:	4648      	mov	r0, r9
10004780:	f7fc ff85 	bl	1000168e <pbuf_free>
10004784:	f04f 30ff 	mov.w	r0, #4294967295
10004788:	e7cb      	b.n	10004722 <tcp_split_unsent_seg+0x22>
1000478a:	68eb      	ldr	r3, [r5, #12]
1000478c:	8998      	ldrh	r0, [r3, #12]
1000478e:	f7fc fa13 	bl	10000bb8 <lwip_htons>
10004792:	b2c3      	uxtb	r3, r0
10004794:	f000 073f 	and.w	r7, r0, #63	@ 0x3f
10004798:	f010 0b08 	ands.w	fp, r0, #8
1000479c:	d003      	beq.n	100047a6 <tcp_split_unsent_seg+0xa6>
1000479e:	f003 0737 	and.w	r7, r3, #55	@ 0x37
100047a2:	f04f 0b08 	mov.w	fp, #8
100047a6:	f017 0f01 	tst.w	r7, #1
100047aa:	d003      	beq.n	100047b4 <tcp_split_unsent_seg+0xb4>
100047ac:	f007 07fe 	and.w	r7, r7, #254	@ 0xfe
100047b0:	f04b 0b01 	orr.w	fp, fp, #1
100047b4:	68eb      	ldr	r3, [r5, #12]
100047b6:	6858      	ldr	r0, [r3, #4]
100047b8:	f7fc fa03 	bl	10000bc2 <lwip_htonl>
100047bc:	f8cd a000 	str.w	sl, [sp]
100047c0:	1823      	adds	r3, r4, r0
100047c2:	465a      	mov	r2, fp
100047c4:	4649      	mov	r1, r9
100047c6:	4630      	mov	r0, r6
100047c8:	f7ff fc46 	bl	10004058 <tcp_create_segment>
100047cc:	4681      	mov	r9, r0
100047ce:	2800      	cmp	r0, #0
100047d0:	d0cc      	beq.n	1000476c <tcp_split_unsent_seg+0x6c>
100047d2:	6868      	ldr	r0, [r5, #4]
100047d4:	f7fd f841 	bl	1000185a <pbuf_clen>
100047d8:	f8b6 3066 	ldrh.w	r3, [r6, #102]	@ 0x66
100047dc:	1a1b      	subs	r3, r3, r0
100047de:	f8a6 3066 	strh.w	r3, [r6, #102]	@ 0x66
100047e2:	6868      	ldr	r0, [r5, #4]
100047e4:	8901      	ldrh	r1, [r0, #8]
100047e6:	eba4 0408 	sub.w	r4, r4, r8
100047ea:	b2a4      	uxth	r4, r4
100047ec:	4421      	add	r1, r4
100047ee:	b289      	uxth	r1, r1
100047f0:	f7fd f807 	bl	10001802 <pbuf_realloc>
100047f4:	892b      	ldrh	r3, [r5, #8]
100047f6:	4423      	add	r3, r4
100047f8:	812b      	strh	r3, [r5, #8]
100047fa:	68eb      	ldr	r3, [r5, #12]
100047fc:	899c      	ldrh	r4, [r3, #12]
100047fe:	4638      	mov	r0, r7
10004800:	f7fc f9da 	bl	10000bb8 <lwip_htons>
10004804:	68eb      	ldr	r3, [r5, #12]
10004806:	4304      	orrs	r4, r0
10004808:	819c      	strh	r4, [r3, #12]
1000480a:	6868      	ldr	r0, [r5, #4]
1000480c:	f7fd f825 	bl	1000185a <pbuf_clen>
10004810:	f8b6 3066 	ldrh.w	r3, [r6, #102]	@ 0x66
10004814:	4403      	add	r3, r0
10004816:	f8a6 3066 	strh.w	r3, [r6, #102]	@ 0x66
1000481a:	f8d9 0004 	ldr.w	r0, [r9, #4]
1000481e:	f7fd f81c 	bl	1000185a <pbuf_clen>
10004822:	f8b6 3066 	ldrh.w	r3, [r6, #102]	@ 0x66
10004826:	4403      	add	r3, r0
10004828:	f8a6 3066 	strh.w	r3, [r6, #102]	@ 0x66
1000482c:	682b      	ldr	r3, [r5, #0]
1000482e:	f8c9 3000 	str.w	r3, [r9]
10004832:	f8c5 9000 	str.w	r9, [r5]
10004836:	f8d9 3000 	ldr.w	r3, [r9]
1000483a:	b10b      	cbz	r3, 10004840 <tcp_split_unsent_seg+0x140>
1000483c:	2000      	movs	r0, #0
1000483e:	e770      	b.n	10004722 <tcp_split_unsent_seg+0x22>
10004840:	2000      	movs	r0, #0
10004842:	f8a6 0068 	strh.w	r0, [r6, #104]	@ 0x68
10004846:	e76c      	b.n	10004722 <tcp_split_unsent_seg+0x22>
10004848:	f04f 30ff 	mov.w	r0, #4294967295
1000484c:	e769      	b.n	10004722 <tcp_split_unsent_seg+0x22>
1000484e:	f06f 0005 	mvn.w	r0, #5
10004852:	e766      	b.n	10004722 <tcp_split_unsent_seg+0x22>
10004854:	f04f 30ff 	mov.w	r0, #4294967295
10004858:	e763      	b.n	10004722 <tcp_split_unsent_seg+0x22>
1000485a:	bf00      	nop
1000485c:	20001db0 	.word	0x20001db0

10004860 <tcp_enqueue_flags>:
10004860:	b5f0      	push	{r4, r5, r6, r7, lr}
10004862:	b083      	sub	sp, #12
10004864:	4604      	mov	r4, r0
10004866:	460d      	mov	r5, r1
10004868:	f001 0703 	and.w	r7, r1, #3
1000486c:	f011 0602 	ands.w	r6, r1, #2
10004870:	d000      	beq.n	10004874 <tcp_enqueue_flags+0x14>
10004872:	2601      	movs	r6, #1
10004874:	00b1      	lsls	r1, r6, #2
10004876:	f44f 7220 	mov.w	r2, #640	@ 0x280
1000487a:	f001 0104 	and.w	r1, r1, #4
1000487e:	2036      	movs	r0, #54	@ 0x36
10004880:	f7fc ff39 	bl	100016f6 <pbuf_alloc>
10004884:	4601      	mov	r1, r0
10004886:	b340      	cbz	r0, 100048da <tcp_enqueue_flags+0x7a>
10004888:	9600      	str	r6, [sp, #0]
1000488a:	6de3      	ldr	r3, [r4, #92]	@ 0x5c
1000488c:	462a      	mov	r2, r5
1000488e:	4620      	mov	r0, r4
10004890:	f7ff fbe2 	bl	10004058 <tcp_create_segment>
10004894:	4601      	mov	r1, r0
10004896:	b368      	cbz	r0, 100048f4 <tcp_enqueue_flags+0x94>
10004898:	6ee3      	ldr	r3, [r4, #108]	@ 0x6c
1000489a:	2b00      	cmp	r3, #0
1000489c:	d037      	beq.n	1000490e <tcp_enqueue_flags+0xae>
1000489e:	461a      	mov	r2, r3
100048a0:	681b      	ldr	r3, [r3, #0]
100048a2:	2b00      	cmp	r3, #0
100048a4:	d1fb      	bne.n	1000489e <tcp_enqueue_flags+0x3e>
100048a6:	6011      	str	r1, [r2, #0]
100048a8:	2300      	movs	r3, #0
100048aa:	f8a4 3068 	strh.w	r3, [r4, #104]	@ 0x68
100048ae:	b14f      	cbz	r7, 100048c4 <tcp_enqueue_flags+0x64>
100048b0:	6de3      	ldr	r3, [r4, #92]	@ 0x5c
100048b2:	3301      	adds	r3, #1
100048b4:	65e3      	str	r3, [r4, #92]	@ 0x5c
100048b6:	f015 0f01 	tst.w	r5, #1
100048ba:	d003      	beq.n	100048c4 <tcp_enqueue_flags+0x64>
100048bc:	8b63      	ldrh	r3, [r4, #26]
100048be:	f043 0320 	orr.w	r3, r3, #32
100048c2:	8363      	strh	r3, [r4, #26]
100048c4:	6848      	ldr	r0, [r1, #4]
100048c6:	f7fc ffc8 	bl	1000185a <pbuf_clen>
100048ca:	f8b4 3066 	ldrh.w	r3, [r4, #102]	@ 0x66
100048ce:	4403      	add	r3, r0
100048d0:	f8a4 3066 	strh.w	r3, [r4, #102]	@ 0x66
100048d4:	2000      	movs	r0, #0
100048d6:	b003      	add	sp, #12
100048d8:	bdf0      	pop	{r4, r5, r6, r7, pc}
100048da:	8b63      	ldrh	r3, [r4, #26]
100048dc:	f043 0380 	orr.w	r3, r3, #128	@ 0x80
100048e0:	8363      	strh	r3, [r4, #26]
100048e2:	4a0c      	ldr	r2, [pc, #48]	@ (10004914 <tcp_enqueue_flags+0xb4>)
100048e4:	f8b2 309c 	ldrh.w	r3, [r2, #156]	@ 0x9c
100048e8:	3301      	adds	r3, #1
100048ea:	f8a2 309c 	strh.w	r3, [r2, #156]	@ 0x9c
100048ee:	f04f 30ff 	mov.w	r0, #4294967295
100048f2:	e7f0      	b.n	100048d6 <tcp_enqueue_flags+0x76>
100048f4:	8b63      	ldrh	r3, [r4, #26]
100048f6:	f043 0380 	orr.w	r3, r3, #128	@ 0x80
100048fa:	8363      	strh	r3, [r4, #26]
100048fc:	4a05      	ldr	r2, [pc, #20]	@ (10004914 <tcp_enqueue_flags+0xb4>)
100048fe:	f8b2 309c 	ldrh.w	r3, [r2, #156]	@ 0x9c
10004902:	3301      	adds	r3, #1
10004904:	f8a2 309c 	strh.w	r3, [r2, #156]	@ 0x9c
10004908:	f04f 30ff 	mov.w	r0, #4294967295
1000490c:	e7e3      	b.n	100048d6 <tcp_enqueue_flags+0x76>
1000490e:	66e0      	str	r0, [r4, #108]	@ 0x6c
10004910:	e7ca      	b.n	100048a8 <tcp_enqueue_flags+0x48>
10004912:	bf00      	nop
10004914:	20001db0 	.word	0x20001db0

10004918 <tcp_send_fin>:
10004918:	b570      	push	{r4, r5, r6, lr}
1000491a:	4605      	mov	r5, r0
1000491c:	6ec3      	ldr	r3, [r0, #108]	@ 0x6c
1000491e:	b153      	cbz	r3, 10004936 <tcp_send_fin+0x1e>
10004920:	461c      	mov	r4, r3
10004922:	681b      	ldr	r3, [r3, #0]
10004924:	2b00      	cmp	r3, #0
10004926:	d1fb      	bne.n	10004920 <tcp_send_fin+0x8>
10004928:	68e3      	ldr	r3, [r4, #12]
1000492a:	8998      	ldrh	r0, [r3, #12]
1000492c:	f7fc f944 	bl	10000bb8 <lwip_htons>
10004930:	f010 0f07 	tst.w	r0, #7
10004934:	d004      	beq.n	10004940 <tcp_send_fin+0x28>
10004936:	2101      	movs	r1, #1
10004938:	4628      	mov	r0, r5
1000493a:	f7ff ff91 	bl	10004860 <tcp_enqueue_flags>
1000493e:	bd70      	pop	{r4, r5, r6, pc}
10004940:	68e3      	ldr	r3, [r4, #12]
10004942:	899e      	ldrh	r6, [r3, #12]
10004944:	2001      	movs	r0, #1
10004946:	f7fc f937 	bl	10000bb8 <lwip_htons>
1000494a:	68e3      	ldr	r3, [r4, #12]
1000494c:	4306      	orrs	r6, r0
1000494e:	819e      	strh	r6, [r3, #12]
10004950:	8b6b      	ldrh	r3, [r5, #26]
10004952:	f043 0320 	orr.w	r3, r3, #32
10004956:	836b      	strh	r3, [r5, #26]
10004958:	2000      	movs	r0, #0
1000495a:	e7f0      	b.n	1000493e <tcp_send_fin+0x26>

1000495c <tcp_rexmit_rto_prepare>:
1000495c:	b5f8      	push	{r3, r4, r5, r6, r7, lr}
1000495e:	4606      	mov	r6, r0
10004960:	6f04      	ldr	r4, [r0, #112]	@ 0x70
10004962:	b374      	cbz	r4, 100049c2 <tcp_rexmit_rto_prepare+0x66>
10004964:	4625      	mov	r5, r4
10004966:	6824      	ldr	r4, [r4, #0]
10004968:	b13c      	cbz	r4, 1000497a <tcp_rexmit_rto_prepare+0x1e>
1000496a:	4628      	mov	r0, r5
1000496c:	f7ff fb3a 	bl	10003fe4 <tcp_output_segment_busy>
10004970:	2800      	cmp	r0, #0
10004972:	d0f7      	beq.n	10004964 <tcp_rexmit_rto_prepare+0x8>
10004974:	f06f 0005 	mvn.w	r0, #5
10004978:	e020      	b.n	100049bc <tcp_rexmit_rto_prepare+0x60>
1000497a:	4628      	mov	r0, r5
1000497c:	f7ff fb32 	bl	10003fe4 <tcp_output_segment_busy>
10004980:	bb10      	cbnz	r0, 100049c8 <tcp_rexmit_rto_prepare+0x6c>
10004982:	6ef3      	ldr	r3, [r6, #108]	@ 0x6c
10004984:	602b      	str	r3, [r5, #0]
10004986:	6f33      	ldr	r3, [r6, #112]	@ 0x70
10004988:	66f3      	str	r3, [r6, #108]	@ 0x6c
1000498a:	2300      	movs	r3, #0
1000498c:	6733      	str	r3, [r6, #112]	@ 0x70
1000498e:	8b73      	ldrh	r3, [r6, #26]
10004990:	f443 6300 	orr.w	r3, r3, #2048	@ 0x800
10004994:	8373      	strh	r3, [r6, #26]
10004996:	68eb      	ldr	r3, [r5, #12]
10004998:	6858      	ldr	r0, [r3, #4]
1000499a:	f7fc f912 	bl	10000bc2 <lwip_htonl>
1000499e:	4604      	mov	r4, r0
100049a0:	892f      	ldrh	r7, [r5, #8]
100049a2:	68eb      	ldr	r3, [r5, #12]
100049a4:	8998      	ldrh	r0, [r3, #12]
100049a6:	f7fc f907 	bl	10000bb8 <lwip_htons>
100049aa:	f010 0f03 	tst.w	r0, #3
100049ae:	d006      	beq.n	100049be <tcp_rexmit_rto_prepare+0x62>
100049b0:	2301      	movs	r3, #1
100049b2:	441f      	add	r7, r3
100049b4:	443c      	add	r4, r7
100049b6:	64f4      	str	r4, [r6, #76]	@ 0x4c
100049b8:	2000      	movs	r0, #0
100049ba:	6370      	str	r0, [r6, #52]	@ 0x34
100049bc:	bdf8      	pop	{r3, r4, r5, r6, r7, pc}
100049be:	2300      	movs	r3, #0
100049c0:	e7f7      	b.n	100049b2 <tcp_rexmit_rto_prepare+0x56>
100049c2:	f06f 0005 	mvn.w	r0, #5
100049c6:	e7f9      	b.n	100049bc <tcp_rexmit_rto_prepare+0x60>
100049c8:	f06f 0005 	mvn.w	r0, #5
100049cc:	e7f6      	b.n	100049bc <tcp_rexmit_rto_prepare+0x60>

100049ce <tcp_rexmit>:
100049ce:	b5f8      	push	{r3, r4, r5, r6, r7, lr}
100049d0:	6f06      	ldr	r6, [r0, #112]	@ 0x70
100049d2:	b356      	cbz	r6, 10004a2a <tcp_rexmit+0x5c>
100049d4:	4607      	mov	r7, r0
100049d6:	4630      	mov	r0, r6
100049d8:	f7ff fb04 	bl	10003fe4 <tcp_output_segment_busy>
100049dc:	bb40      	cbnz	r0, 10004a30 <tcp_rexmit+0x62>
100049de:	6833      	ldr	r3, [r6, #0]
100049e0:	673b      	str	r3, [r7, #112]	@ 0x70
100049e2:	f107 056c 	add.w	r5, r7, #108	@ 0x6c
100049e6:	e000      	b.n	100049ea <tcp_rexmit+0x1c>
100049e8:	682d      	ldr	r5, [r5, #0]
100049ea:	682b      	ldr	r3, [r5, #0]
100049ec:	b15b      	cbz	r3, 10004a06 <tcp_rexmit+0x38>
100049ee:	68db      	ldr	r3, [r3, #12]
100049f0:	6858      	ldr	r0, [r3, #4]
100049f2:	f7fc f8e6 	bl	10000bc2 <lwip_htonl>
100049f6:	4604      	mov	r4, r0
100049f8:	68f3      	ldr	r3, [r6, #12]
100049fa:	6858      	ldr	r0, [r3, #4]
100049fc:	f7fc f8e1 	bl	10000bc2 <lwip_htonl>
10004a00:	1a24      	subs	r4, r4, r0
10004a02:	2c00      	cmp	r4, #0
10004a04:	dbf0      	blt.n	100049e8 <tcp_rexmit+0x1a>
10004a06:	682b      	ldr	r3, [r5, #0]
10004a08:	6033      	str	r3, [r6, #0]
10004a0a:	602e      	str	r6, [r5, #0]
10004a0c:	6833      	ldr	r3, [r6, #0]
10004a0e:	b14b      	cbz	r3, 10004a24 <tcp_rexmit+0x56>
10004a10:	f897 3042 	ldrb.w	r3, [r7, #66]	@ 0x42
10004a14:	2bff      	cmp	r3, #255	@ 0xff
10004a16:	d002      	beq.n	10004a1e <tcp_rexmit+0x50>
10004a18:	3301      	adds	r3, #1
10004a1a:	f887 3042 	strb.w	r3, [r7, #66]	@ 0x42
10004a1e:	2000      	movs	r0, #0
10004a20:	6378      	str	r0, [r7, #52]	@ 0x34
10004a22:	bdf8      	pop	{r3, r4, r5, r6, r7, pc}
10004a24:	f8a7 3068 	strh.w	r3, [r7, #104]	@ 0x68
10004a28:	e7f2      	b.n	10004a10 <tcp_rexmit+0x42>
10004a2a:	f06f 0005 	mvn.w	r0, #5
10004a2e:	e7f8      	b.n	10004a22 <tcp_rexmit+0x54>
10004a30:	f06f 0005 	mvn.w	r0, #5
10004a34:	e7f5      	b.n	10004a22 <tcp_rexmit+0x54>

10004a36 <tcp_rexmit_fast>:
10004a36:	6f03      	ldr	r3, [r0, #112]	@ 0x70
10004a38:	b353      	cbz	r3, 10004a90 <tcp_rexmit_fast+0x5a>
10004a3a:	b510      	push	{r4, lr}
10004a3c:	4604      	mov	r4, r0
10004a3e:	8b43      	ldrh	r3, [r0, #26]
10004a40:	f013 0f04 	tst.w	r3, #4
10004a44:	d000      	beq.n	10004a48 <tcp_rexmit_fast+0x12>
10004a46:	bd10      	pop	{r4, pc}
10004a48:	f7ff ffc1 	bl	100049ce <tcp_rexmit>
10004a4c:	2800      	cmp	r0, #0
10004a4e:	d1fa      	bne.n	10004a46 <tcp_rexmit_fast+0x10>
10004a50:	f8b4 3060 	ldrh.w	r3, [r4, #96]	@ 0x60
10004a54:	f8b4 2048 	ldrh.w	r2, [r4, #72]	@ 0x48
10004a58:	4293      	cmp	r3, r2
10004a5a:	bf28      	it	cs
10004a5c:	4613      	movcs	r3, r2
10004a5e:	105b      	asrs	r3, r3, #1
10004a60:	f8a4 304a 	strh.w	r3, [r4, #74]	@ 0x4a
10004a64:	b29b      	uxth	r3, r3
10004a66:	8e62      	ldrh	r2, [r4, #50]	@ 0x32
10004a68:	ebb3 0f42 	cmp.w	r3, r2, lsl #1
10004a6c:	d202      	bcs.n	10004a74 <tcp_rexmit_fast+0x3e>
10004a6e:	0053      	lsls	r3, r2, #1
10004a70:	f8a4 304a 	strh.w	r3, [r4, #74]	@ 0x4a
10004a74:	f8b4 304a 	ldrh.w	r3, [r4, #74]	@ 0x4a
10004a78:	eb02 0242 	add.w	r2, r2, r2, lsl #1
10004a7c:	4413      	add	r3, r2
10004a7e:	f8a4 3048 	strh.w	r3, [r4, #72]	@ 0x48
10004a82:	8b63      	ldrh	r3, [r4, #26]
10004a84:	f043 0304 	orr.w	r3, r3, #4
10004a88:	8363      	strh	r3, [r4, #26]
10004a8a:	2300      	movs	r3, #0
10004a8c:	8623      	strh	r3, [r4, #48]	@ 0x30
10004a8e:	e7da      	b.n	10004a46 <tcp_rexmit_fast+0x10>
10004a90:	4770      	bx	lr

10004a92 <tcp_rst>:
10004a92:	b5f0      	push	{r4, r5, r6, r7, lr}
10004a94:	b085      	sub	sp, #20
10004a96:	4604      	mov	r4, r0
10004a98:	461d      	mov	r5, r3
10004a9a:	9e0a      	ldr	r6, [sp, #40]	@ 0x28
10004a9c:	f8bd 7030 	ldrh.w	r7, [sp, #48]	@ 0x30
10004aa0:	9702      	str	r7, [sp, #8]
10004aa2:	f8bd 702c 	ldrh.w	r7, [sp, #44]	@ 0x2c
10004aa6:	9701      	str	r7, [sp, #4]
10004aa8:	9600      	str	r6, [sp, #0]
10004aaa:	f7ff fb71 	bl	10004190 <tcp_rst_common>
10004aae:	b128      	cbz	r0, 10004abc <tcp_rst+0x2a>
10004ab0:	4601      	mov	r1, r0
10004ab2:	4633      	mov	r3, r6
10004ab4:	462a      	mov	r2, r5
10004ab6:	4620      	mov	r0, r4
10004ab8:	f7ff fc34 	bl	10004324 <tcp_output_control_segment>
10004abc:	b005      	add	sp, #20
10004abe:	bdf0      	pop	{r4, r5, r6, r7, pc}

10004ac0 <tcp_rst_netif>:
10004ac0:	b1c8      	cbz	r0, 10004af6 <tcp_rst_netif+0x36>
10004ac2:	b530      	push	{r4, r5, lr}
10004ac4:	b085      	sub	sp, #20
10004ac6:	461c      	mov	r4, r3
10004ac8:	4605      	mov	r5, r0
10004aca:	f8bd 3028 	ldrh.w	r3, [sp, #40]	@ 0x28
10004ace:	9302      	str	r3, [sp, #8]
10004ad0:	f8bd 3024 	ldrh.w	r3, [sp, #36]	@ 0x24
10004ad4:	9301      	str	r3, [sp, #4]
10004ad6:	9b08      	ldr	r3, [sp, #32]
10004ad8:	9300      	str	r3, [sp, #0]
10004ada:	4623      	mov	r3, r4
10004adc:	2000      	movs	r0, #0
10004ade:	f7ff fb57 	bl	10004190 <tcp_rst_common>
10004ae2:	4601      	mov	r1, r0
10004ae4:	b128      	cbz	r0, 10004af2 <tcp_rst_netif+0x32>
10004ae6:	9500      	str	r5, [sp, #0]
10004ae8:	9b08      	ldr	r3, [sp, #32]
10004aea:	4622      	mov	r2, r4
10004aec:	2000      	movs	r0, #0
10004aee:	f7ff fbe7 	bl	100042c0 <tcp_output_control_segment_netif>
10004af2:	b005      	add	sp, #20
10004af4:	bd30      	pop	{r4, r5, pc}
10004af6:	4770      	bx	lr

10004af8 <tcp_send_empty_ack>:
10004af8:	b510      	push	{r4, lr}
10004afa:	4604      	mov	r4, r0
10004afc:	6d00      	ldr	r0, [r0, #80]	@ 0x50
10004afe:	f7fc f860 	bl	10000bc2 <lwip_htonl>
10004b02:	4603      	mov	r3, r0
10004b04:	2200      	movs	r2, #0
10004b06:	4611      	mov	r1, r2
10004b08:	4620      	mov	r0, r4
10004b0a:	f7ff fb2c 	bl	10004166 <tcp_output_alloc_header>
10004b0e:	b158      	cbz	r0, 10004b28 <tcp_send_empty_ack+0x30>
10004b10:	4601      	mov	r1, r0
10004b12:	1d23      	adds	r3, r4, #4
10004b14:	4622      	mov	r2, r4
10004b16:	4620      	mov	r0, r4
10004b18:	f7ff fc04 	bl	10004324 <tcp_output_control_segment>
10004b1c:	b158      	cbz	r0, 10004b36 <tcp_send_empty_ack+0x3e>
10004b1e:	8b63      	ldrh	r3, [r4, #26]
10004b20:	f043 0303 	orr.w	r3, r3, #3
10004b24:	8363      	strh	r3, [r4, #26]
10004b26:	bd10      	pop	{r4, pc}
10004b28:	8b63      	ldrh	r3, [r4, #26]
10004b2a:	f043 0303 	orr.w	r3, r3, #3
10004b2e:	8363      	strh	r3, [r4, #26]
10004b30:	f06f 0001 	mvn.w	r0, #1
10004b34:	e7f7      	b.n	10004b26 <tcp_send_empty_ack+0x2e>
10004b36:	8b63      	ldrh	r3, [r4, #26]
10004b38:	f023 0303 	bic.w	r3, r3, #3
10004b3c:	8363      	strh	r3, [r4, #26]
10004b3e:	e7f2      	b.n	10004b26 <tcp_send_empty_ack+0x2e>

10004b40 <tcp_output>:
10004b40:	4b90      	ldr	r3, [pc, #576]	@ (10004d84 <tcp_output+0x244>)
10004b42:	681b      	ldr	r3, [r3, #0]
10004b44:	4283      	cmp	r3, r0
10004b46:	f000 8117 	beq.w	10004d78 <tcp_output+0x238>
10004b4a:	e92d 47f0 	stmdb	sp!, {r4, r5, r6, r7, r8, r9, sl, lr}
10004b4e:	4605      	mov	r5, r0
10004b50:	f8b0 6048 	ldrh.w	r6, [r0, #72]	@ 0x48
10004b54:	f8b0 3060 	ldrh.w	r3, [r0, #96]	@ 0x60
10004b58:	429e      	cmp	r6, r3
10004b5a:	bf28      	it	cs
10004b5c:	461e      	movcs	r6, r3
10004b5e:	6ec4      	ldr	r4, [r0, #108]	@ 0x6c
10004b60:	b324      	cbz	r4, 10004bac <tcp_output+0x6c>
10004b62:	1d02      	adds	r2, r0, #4
10004b64:	4601      	mov	r1, r0
10004b66:	f7ff fb2c 	bl	100041c2 <tcp_route>
10004b6a:	4680      	mov	r8, r0
10004b6c:	2800      	cmp	r0, #0
10004b6e:	f000 8106 	beq.w	10004d7e <tcp_output+0x23e>
10004b72:	b10d      	cbz	r5, 10004b78 <tcp_output+0x38>
10004b74:	682b      	ldr	r3, [r5, #0]
10004b76:	b913      	cbnz	r3, 10004b7e <tcp_output+0x3e>
10004b78:	f8d8 3000 	ldr.w	r3, [r8]
10004b7c:	602b      	str	r3, [r5, #0]
10004b7e:	68e3      	ldr	r3, [r4, #12]
10004b80:	6858      	ldr	r0, [r3, #4]
10004b82:	f7fc f81e 	bl	10000bc2 <lwip_htonl>
10004b86:	6c6b      	ldr	r3, [r5, #68]	@ 0x44
10004b88:	1ac0      	subs	r0, r0, r3
10004b8a:	8923      	ldrh	r3, [r4, #8]
10004b8c:	4418      	add	r0, r3
10004b8e:	42b0      	cmp	r0, r6
10004b90:	d92b      	bls.n	10004bea <tcp_output+0xaa>
10004b92:	f8b5 3060 	ldrh.w	r3, [r5, #96]	@ 0x60
10004b96:	429e      	cmp	r6, r3
10004b98:	d018      	beq.n	10004bcc <tcp_output+0x8c>
10004b9a:	8b6b      	ldrh	r3, [r5, #26]
10004b9c:	f013 0f02 	tst.w	r3, #2
10004ba0:	d008      	beq.n	10004bb4 <tcp_output+0x74>
10004ba2:	4628      	mov	r0, r5
10004ba4:	f7ff ffa8 	bl	10004af8 <tcp_send_empty_ack>
10004ba8:	4603      	mov	r3, r0
10004baa:	e008      	b.n	10004bbe <tcp_output+0x7e>
10004bac:	8b43      	ldrh	r3, [r0, #26]
10004bae:	f013 0f02 	tst.w	r3, #2
10004bb2:	d107      	bne.n	10004bc4 <tcp_output+0x84>
10004bb4:	8b6b      	ldrh	r3, [r5, #26]
10004bb6:	f023 0380 	bic.w	r3, r3, #128	@ 0x80
10004bba:	836b      	strh	r3, [r5, #26]
10004bbc:	2300      	movs	r3, #0
10004bbe:	4618      	mov	r0, r3
10004bc0:	e8bd 87f0 	ldmia.w	sp!, {r4, r5, r6, r7, r8, r9, sl, pc}
10004bc4:	f7ff ff98 	bl	10004af8 <tcp_send_empty_ack>
10004bc8:	4603      	mov	r3, r0
10004bca:	e7f8      	b.n	10004bbe <tcp_output+0x7e>
10004bcc:	6f2b      	ldr	r3, [r5, #112]	@ 0x70
10004bce:	2b00      	cmp	r3, #0
10004bd0:	d1e3      	bne.n	10004b9a <tcp_output+0x5a>
10004bd2:	f895 3099 	ldrb.w	r3, [r5, #153]	@ 0x99
10004bd6:	2b00      	cmp	r3, #0
10004bd8:	d1df      	bne.n	10004b9a <tcp_output+0x5a>
10004bda:	f885 3098 	strb.w	r3, [r5, #152]	@ 0x98
10004bde:	2201      	movs	r2, #1
10004be0:	f885 2099 	strb.w	r2, [r5, #153]	@ 0x99
10004be4:	f885 309a 	strb.w	r3, [r5, #154]	@ 0x9a
10004be8:	e7d7      	b.n	10004b9a <tcp_output+0x5a>
10004bea:	2300      	movs	r3, #0
10004bec:	f885 3099 	strb.w	r3, [r5, #153]	@ 0x99
10004bf0:	6f2b      	ldr	r3, [r5, #112]	@ 0x70
10004bf2:	2b00      	cmp	r3, #0
10004bf4:	f000 80be 	beq.w	10004d74 <tcp_output+0x234>
10004bf8:	461f      	mov	r7, r3
10004bfa:	681b      	ldr	r3, [r3, #0]
10004bfc:	2b00      	cmp	r3, #0
10004bfe:	d1fb      	bne.n	10004bf8 <tcp_output+0xb8>
10004c00:	e04e      	b.n	10004ca0 <tcp_output+0x160>
10004c02:	8911      	ldrh	r1, [r2, #8]
10004c04:	8e6a      	ldrh	r2, [r5, #50]	@ 0x32
10004c06:	4291      	cmp	r1, r2
10004c08:	d266      	bcs.n	10004cd8 <tcp_output+0x198>
10004c0a:	f8b5 2064 	ldrh.w	r2, [r5, #100]	@ 0x64
10004c0e:	2a00      	cmp	r2, #0
10004c10:	d062      	beq.n	10004cd8 <tcp_output+0x198>
10004c12:	f8b5 2066 	ldrh.w	r2, [r5, #102]	@ 0x66
10004c16:	2a0f      	cmp	r2, #15
10004c18:	d85e      	bhi.n	10004cd8 <tcp_output+0x198>
10004c1a:	f013 0fa0 	tst.w	r3, #160	@ 0xa0
10004c1e:	d15b      	bne.n	10004cd8 <tcp_output+0x198>
10004c20:	6eeb      	ldr	r3, [r5, #108]	@ 0x6c
10004c22:	2b00      	cmp	r3, #0
10004c24:	d1c6      	bne.n	10004bb4 <tcp_output+0x74>
10004c26:	f8a5 3068 	strh.w	r3, [r5, #104]	@ 0x68
10004c2a:	e7c3      	b.n	10004bb4 <tcp_output+0x74>
10004c2c:	68e3      	ldr	r3, [r4, #12]
10004c2e:	f8b3 900c 	ldrh.w	r9, [r3, #12]
10004c32:	2010      	movs	r0, #16
10004c34:	f7fb ffc0 	bl	10000bb8 <lwip_htons>
10004c38:	68e3      	ldr	r3, [r4, #12]
10004c3a:	ea49 0900 	orr.w	r9, r9, r0
10004c3e:	f8a3 900c 	strh.w	r9, [r3, #12]
10004c42:	e04c      	b.n	10004cde <tcp_output+0x19e>
10004c44:	8b6a      	ldrh	r2, [r5, #26]
10004c46:	f042 0280 	orr.w	r2, r2, #128	@ 0x80
10004c4a:	836a      	strh	r2, [r5, #26]
10004c4c:	e7b7      	b.n	10004bbe <tcp_output+0x7e>
10004c4e:	2300      	movs	r3, #0
10004c50:	e065      	b.n	10004d1e <tcp_output+0x1de>
10004c52:	6528      	str	r0, [r5, #80]	@ 0x50
10004c54:	e06a      	b.n	10004d2c <tcp_output+0x1ec>
10004c56:	2300      	movs	r3, #0
10004c58:	e072      	b.n	10004d40 <tcp_output+0x200>
10004c5a:	672c      	str	r4, [r5, #112]	@ 0x70
10004c5c:	4627      	mov	r7, r4
10004c5e:	e01e      	b.n	10004c9e <tcp_output+0x15e>
10004c60:	f105 0a70 	add.w	sl, r5, #112	@ 0x70
10004c64:	e001      	b.n	10004c6a <tcp_output+0x12a>
10004c66:	f8da a000 	ldr.w	sl, [sl]
10004c6a:	f8da 3000 	ldr.w	r3, [sl]
10004c6e:	b16b      	cbz	r3, 10004c8c <tcp_output+0x14c>
10004c70:	68db      	ldr	r3, [r3, #12]
10004c72:	6858      	ldr	r0, [r3, #4]
10004c74:	f7fb ffa5 	bl	10000bc2 <lwip_htonl>
10004c78:	4681      	mov	r9, r0
10004c7a:	68e3      	ldr	r3, [r4, #12]
10004c7c:	6858      	ldr	r0, [r3, #4]
10004c7e:	f7fb ffa0 	bl	10000bc2 <lwip_htonl>
10004c82:	eba9 0900 	sub.w	r9, r9, r0
10004c86:	f1b9 0f00 	cmp.w	r9, #0
10004c8a:	dbec      	blt.n	10004c66 <tcp_output+0x126>
10004c8c:	f8da 3000 	ldr.w	r3, [sl]
10004c90:	6023      	str	r3, [r4, #0]
10004c92:	f8ca 4000 	str.w	r4, [sl]
10004c96:	e002      	b.n	10004c9e <tcp_output+0x15e>
10004c98:	4620      	mov	r0, r4
10004c9a:	f7fd f8ac 	bl	10001df6 <tcp_seg_free>
10004c9e:	6eec      	ldr	r4, [r5, #108]	@ 0x6c
10004ca0:	2c00      	cmp	r4, #0
10004ca2:	d0bd      	beq.n	10004c20 <tcp_output+0xe0>
10004ca4:	68e3      	ldr	r3, [r4, #12]
10004ca6:	6858      	ldr	r0, [r3, #4]
10004ca8:	f7fb ff8b 	bl	10000bc2 <lwip_htonl>
10004cac:	6c6b      	ldr	r3, [r5, #68]	@ 0x44
10004cae:	1ac0      	subs	r0, r0, r3
10004cb0:	8923      	ldrh	r3, [r4, #8]
10004cb2:	4418      	add	r0, r3
10004cb4:	42b0      	cmp	r0, r6
10004cb6:	d8b3      	bhi.n	10004c20 <tcp_output+0xe0>
10004cb8:	68e3      	ldr	r3, [r4, #12]
10004cba:	8998      	ldrh	r0, [r3, #12]
10004cbc:	f7fb ff7c 	bl	10000bb8 <lwip_htons>
10004cc0:	6f2b      	ldr	r3, [r5, #112]	@ 0x70
10004cc2:	b14b      	cbz	r3, 10004cd8 <tcp_output+0x198>
10004cc4:	8b6b      	ldrh	r3, [r5, #26]
10004cc6:	f013 0f44 	tst.w	r3, #68	@ 0x44
10004cca:	d105      	bne.n	10004cd8 <tcp_output+0x198>
10004ccc:	6eea      	ldr	r2, [r5, #108]	@ 0x6c
10004cce:	2a00      	cmp	r2, #0
10004cd0:	d09b      	beq.n	10004c0a <tcp_output+0xca>
10004cd2:	6811      	ldr	r1, [r2, #0]
10004cd4:	2900      	cmp	r1, #0
10004cd6:	d094      	beq.n	10004c02 <tcp_output+0xc2>
10004cd8:	7d2b      	ldrb	r3, [r5, #20]
10004cda:	2b02      	cmp	r3, #2
10004cdc:	d1a6      	bne.n	10004c2c <tcp_output+0xec>
10004cde:	4642      	mov	r2, r8
10004ce0:	4629      	mov	r1, r5
10004ce2:	4620      	mov	r0, r4
10004ce4:	f7ff fa78 	bl	100041d8 <tcp_output_segment>
10004ce8:	4603      	mov	r3, r0
10004cea:	2800      	cmp	r0, #0
10004cec:	d1aa      	bne.n	10004c44 <tcp_output+0x104>
10004cee:	6823      	ldr	r3, [r4, #0]
10004cf0:	66eb      	str	r3, [r5, #108]	@ 0x6c
10004cf2:	7d2b      	ldrb	r3, [r5, #20]
10004cf4:	2b02      	cmp	r3, #2
10004cf6:	d003      	beq.n	10004d00 <tcp_output+0x1c0>
10004cf8:	8b6b      	ldrh	r3, [r5, #26]
10004cfa:	f023 0303 	bic.w	r3, r3, #3
10004cfe:	836b      	strh	r3, [r5, #26]
10004d00:	68e3      	ldr	r3, [r4, #12]
10004d02:	6858      	ldr	r0, [r3, #4]
10004d04:	f7fb ff5d 	bl	10000bc2 <lwip_htonl>
10004d08:	4681      	mov	r9, r0
10004d0a:	f8b4 a008 	ldrh.w	sl, [r4, #8]
10004d0e:	68e3      	ldr	r3, [r4, #12]
10004d10:	8998      	ldrh	r0, [r3, #12]
10004d12:	f7fb ff51 	bl	10000bb8 <lwip_htons>
10004d16:	f010 0f03 	tst.w	r0, #3
10004d1a:	d098      	beq.n	10004c4e <tcp_output+0x10e>
10004d1c:	2301      	movs	r3, #1
10004d1e:	449a      	add	sl, r3
10004d20:	eb09 000a 	add.w	r0, r9, sl
10004d24:	6d2b      	ldr	r3, [r5, #80]	@ 0x50
10004d26:	1a1b      	subs	r3, r3, r0
10004d28:	2b00      	cmp	r3, #0
10004d2a:	db92      	blt.n	10004c52 <tcp_output+0x112>
10004d2c:	f8b4 9008 	ldrh.w	r9, [r4, #8]
10004d30:	68e3      	ldr	r3, [r4, #12]
10004d32:	8998      	ldrh	r0, [r3, #12]
10004d34:	f7fb ff40 	bl	10000bb8 <lwip_htons>
10004d38:	f010 0f03 	tst.w	r0, #3
10004d3c:	d08b      	beq.n	10004c56 <tcp_output+0x116>
10004d3e:	2301      	movs	r3, #1
10004d40:	eb19 0f03 	cmn.w	r9, r3
10004d44:	d0a8      	beq.n	10004c98 <tcp_output+0x158>
10004d46:	2300      	movs	r3, #0
10004d48:	6023      	str	r3, [r4, #0]
10004d4a:	6f2b      	ldr	r3, [r5, #112]	@ 0x70
10004d4c:	2b00      	cmp	r3, #0
10004d4e:	d084      	beq.n	10004c5a <tcp_output+0x11a>
10004d50:	68e3      	ldr	r3, [r4, #12]
10004d52:	6858      	ldr	r0, [r3, #4]
10004d54:	f7fb ff35 	bl	10000bc2 <lwip_htonl>
10004d58:	4681      	mov	r9, r0
10004d5a:	68fb      	ldr	r3, [r7, #12]
10004d5c:	6858      	ldr	r0, [r3, #4]
10004d5e:	f7fb ff30 	bl	10000bc2 <lwip_htonl>
10004d62:	eba9 0900 	sub.w	r9, r9, r0
10004d66:	f1b9 0f00 	cmp.w	r9, #0
10004d6a:	f6ff af79 	blt.w	10004c60 <tcp_output+0x120>
10004d6e:	603c      	str	r4, [r7, #0]
10004d70:	4627      	mov	r7, r4
10004d72:	e794      	b.n	10004c9e <tcp_output+0x15e>
10004d74:	461f      	mov	r7, r3
10004d76:	e793      	b.n	10004ca0 <tcp_output+0x160>
10004d78:	2300      	movs	r3, #0
10004d7a:	4618      	mov	r0, r3
10004d7c:	4770      	bx	lr
10004d7e:	f06f 0303 	mvn.w	r3, #3
10004d82:	e71c      	b.n	10004bbe <tcp_output+0x7e>
10004d84:	20005f20 	.word	0x20005f20

10004d88 <tcp_rexmit_rto_commit>:
10004d88:	b508      	push	{r3, lr}
10004d8a:	f890 3042 	ldrb.w	r3, [r0, #66]	@ 0x42
10004d8e:	2bff      	cmp	r3, #255	@ 0xff
10004d90:	d002      	beq.n	10004d98 <tcp_rexmit_rto_commit+0x10>
10004d92:	3301      	adds	r3, #1
10004d94:	f880 3042 	strb.w	r3, [r0, #66]	@ 0x42
10004d98:	f7ff fed2 	bl	10004b40 <tcp_output>
10004d9c:	bd08      	pop	{r3, pc}

10004d9e <tcp_rexmit_rto>:
10004d9e:	b510      	push	{r4, lr}
10004da0:	4604      	mov	r4, r0
10004da2:	f7ff fddb 	bl	1000495c <tcp_rexmit_rto_prepare>
10004da6:	b100      	cbz	r0, 10004daa <tcp_rexmit_rto+0xc>
10004da8:	bd10      	pop	{r4, pc}
10004daa:	4620      	mov	r0, r4
10004dac:	f7ff ffec 	bl	10004d88 <tcp_rexmit_rto_commit>
10004db0:	e7fa      	b.n	10004da8 <tcp_rexmit_rto+0xa>

10004db2 <tcp_keepalive>:
10004db2:	b510      	push	{r4, lr}
10004db4:	4604      	mov	r4, r0
10004db6:	6d00      	ldr	r0, [r0, #80]	@ 0x50
10004db8:	3801      	subs	r0, #1
10004dba:	f7fb ff02 	bl	10000bc2 <lwip_htonl>
10004dbe:	4603      	mov	r3, r0
10004dc0:	2200      	movs	r2, #0
10004dc2:	4611      	mov	r1, r2
10004dc4:	4620      	mov	r0, r4
10004dc6:	f7ff f9ce 	bl	10004166 <tcp_output_alloc_header>
10004dca:	b130      	cbz	r0, 10004dda <tcp_keepalive+0x28>
10004dcc:	4601      	mov	r1, r0
10004dce:	1d23      	adds	r3, r4, #4
10004dd0:	4622      	mov	r2, r4
10004dd2:	4620      	mov	r0, r4
10004dd4:	f7ff faa6 	bl	10004324 <tcp_output_control_segment>
10004dd8:	bd10      	pop	{r4, pc}
10004dda:	f04f 30ff 	mov.w	r0, #4294967295
10004dde:	e7fb      	b.n	10004dd8 <tcp_keepalive+0x26>

10004de0 <tcp_zero_window_probe>:
10004de0:	e92d 41f0 	stmdb	sp!, {r4, r5, r6, r7, r8, lr}
10004de4:	6ec5      	ldr	r5, [r0, #108]	@ 0x6c
10004de6:	2d00      	cmp	r5, #0
10004de8:	d04d      	beq.n	10004e86 <tcp_zero_window_probe+0xa6>
10004dea:	4604      	mov	r4, r0
10004dec:	f890 309a 	ldrb.w	r3, [r0, #154]	@ 0x9a
10004df0:	2bff      	cmp	r3, #255	@ 0xff
10004df2:	d002      	beq.n	10004dfa <tcp_zero_window_probe+0x1a>
10004df4:	3301      	adds	r3, #1
10004df6:	f880 309a 	strb.w	r3, [r0, #154]	@ 0x9a
10004dfa:	68eb      	ldr	r3, [r5, #12]
10004dfc:	8998      	ldrh	r0, [r3, #12]
10004dfe:	f7fb fedb 	bl	10000bb8 <lwip_htons>
10004e02:	f010 0f01 	tst.w	r0, #1
10004e06:	d003      	beq.n	10004e10 <tcp_zero_window_probe+0x30>
10004e08:	892b      	ldrh	r3, [r5, #8]
10004e0a:	b36b      	cbz	r3, 10004e68 <tcp_zero_window_probe+0x88>
10004e0c:	2200      	movs	r2, #0
10004e0e:	e000      	b.n	10004e12 <tcp_zero_window_probe+0x32>
10004e10:	2200      	movs	r2, #0
10004e12:	f002 08ff 	and.w	r8, r2, #255	@ 0xff
10004e16:	68eb      	ldr	r3, [r5, #12]
10004e18:	685b      	ldr	r3, [r3, #4]
10004e1a:	f082 0201 	eor.w	r2, r2, #1
10004e1e:	2100      	movs	r1, #0
10004e20:	4620      	mov	r0, r4
10004e22:	f7ff f9a0 	bl	10004166 <tcp_output_alloc_header>
10004e26:	4606      	mov	r6, r0
10004e28:	b378      	cbz	r0, 10004e8a <tcp_zero_window_probe+0xaa>
10004e2a:	6847      	ldr	r7, [r0, #4]
10004e2c:	f1b8 0f00 	cmp.w	r8, #0
10004e30:	d01c      	beq.n	10004e6c <tcp_zero_window_probe+0x8c>
10004e32:	f8b7 800c 	ldrh.w	r8, [r7, #12]
10004e36:	2011      	movs	r0, #17
10004e38:	f7fb febe 	bl	10000bb8 <lwip_htons>
10004e3c:	f428 587c 	bic.w	r8, r8, #16128	@ 0x3f00
10004e40:	ea40 0008 	orr.w	r0, r0, r8
10004e44:	81b8      	strh	r0, [r7, #12]
10004e46:	68eb      	ldr	r3, [r5, #12]
10004e48:	6858      	ldr	r0, [r3, #4]
10004e4a:	f7fb feba 	bl	10000bc2 <lwip_htonl>
10004e4e:	3001      	adds	r0, #1
10004e50:	6d23      	ldr	r3, [r4, #80]	@ 0x50
10004e52:	1a1b      	subs	r3, r3, r0
10004e54:	2b00      	cmp	r3, #0
10004e56:	db14      	blt.n	10004e82 <tcp_zero_window_probe+0xa2>
10004e58:	1d23      	adds	r3, r4, #4
10004e5a:	4622      	mov	r2, r4
10004e5c:	4631      	mov	r1, r6
10004e5e:	4620      	mov	r0, r4
10004e60:	f7ff fa60 	bl	10004324 <tcp_output_control_segment>
10004e64:	e8bd 81f0 	ldmia.w	sp!, {r4, r5, r6, r7, r8, pc}
10004e68:	2201      	movs	r2, #1
10004e6a:	e7d2      	b.n	10004e12 <tcp_zero_window_probe+0x32>
10004e6c:	6868      	ldr	r0, [r5, #4]
10004e6e:	8903      	ldrh	r3, [r0, #8]
10004e70:	892a      	ldrh	r2, [r5, #8]
10004e72:	1a9b      	subs	r3, r3, r2
10004e74:	b29b      	uxth	r3, r3
10004e76:	2201      	movs	r2, #1
10004e78:	f107 0114 	add.w	r1, r7, #20
10004e7c:	f7fc fd9b 	bl	100019b6 <pbuf_copy_partial>
10004e80:	e7e1      	b.n	10004e46 <tcp_zero_window_probe+0x66>
10004e82:	6520      	str	r0, [r4, #80]	@ 0x50
10004e84:	e7e8      	b.n	10004e58 <tcp_zero_window_probe+0x78>
10004e86:	2000      	movs	r0, #0
10004e88:	e7ec      	b.n	10004e64 <tcp_zero_window_probe+0x84>
10004e8a:	f04f 30ff 	mov.w	r0, #4294967295
10004e8e:	e7e9      	b.n	10004e64 <tcp_zero_window_probe+0x84>

10004e90 <sys_timeout_abs>:
10004e90:	b5f8      	push	{r3, r4, r5, r6, r7, lr}
10004e92:	4604      	mov	r4, r0
10004e94:	460f      	mov	r7, r1
10004e96:	4616      	mov	r6, r2
10004e98:	2006      	movs	r0, #6
10004e9a:	f7fc fa2f 	bl	100012fc <memp_malloc>
10004e9e:	b178      	cbz	r0, 10004ec0 <sys_timeout_abs+0x30>
10004ea0:	4605      	mov	r5, r0
10004ea2:	2300      	movs	r3, #0
10004ea4:	6003      	str	r3, [r0, #0]
10004ea6:	6087      	str	r7, [r0, #8]
10004ea8:	60c6      	str	r6, [r0, #12]
10004eaa:	6044      	str	r4, [r0, #4]
10004eac:	4b0d      	ldr	r3, [pc, #52]	@ (10004ee4 <sys_timeout_abs+0x54>)
10004eae:	681a      	ldr	r2, [r3, #0]
10004eb0:	b13a      	cbz	r2, 10004ec2 <sys_timeout_abs+0x32>
10004eb2:	6853      	ldr	r3, [r2, #4]
10004eb4:	1ae3      	subs	r3, r4, r3
10004eb6:	2b00      	cmp	r3, #0
10004eb8:	da08      	bge.n	10004ecc <sys_timeout_abs+0x3c>
10004eba:	6002      	str	r2, [r0, #0]
10004ebc:	4b09      	ldr	r3, [pc, #36]	@ (10004ee4 <sys_timeout_abs+0x54>)
10004ebe:	6018      	str	r0, [r3, #0]
10004ec0:	bdf8      	pop	{r3, r4, r5, r6, r7, pc}
10004ec2:	6018      	str	r0, [r3, #0]
10004ec4:	e7fc      	b.n	10004ec0 <sys_timeout_abs+0x30>
10004ec6:	602b      	str	r3, [r5, #0]
10004ec8:	6015      	str	r5, [r2, #0]
10004eca:	e7f9      	b.n	10004ec0 <sys_timeout_abs+0x30>
10004ecc:	2a00      	cmp	r2, #0
10004ece:	d0f7      	beq.n	10004ec0 <sys_timeout_abs+0x30>
10004ed0:	6813      	ldr	r3, [r2, #0]
10004ed2:	2b00      	cmp	r3, #0
10004ed4:	d0f7      	beq.n	10004ec6 <sys_timeout_abs+0x36>
10004ed6:	6859      	ldr	r1, [r3, #4]
10004ed8:	1a61      	subs	r1, r4, r1
10004eda:	2900      	cmp	r1, #0
10004edc:	dbf3      	blt.n	10004ec6 <sys_timeout_abs+0x36>
10004ede:	461a      	mov	r2, r3
10004ee0:	e7f4      	b.n	10004ecc <sys_timeout_abs+0x3c>
10004ee2:	bf00      	nop
10004ee4:	200057d4 	.word	0x200057d4

10004ee8 <lwip_cyclic_timer>:
10004ee8:	b538      	push	{r3, r4, r5, lr}
10004eea:	4604      	mov	r4, r0
10004eec:	6843      	ldr	r3, [r0, #4]
10004eee:	4798      	blx	r3
10004ef0:	f7fb faaf 	bl	10000452 <sys_now>
10004ef4:	4684      	mov	ip, r0
10004ef6:	6825      	ldr	r5, [r4, #0]
10004ef8:	4b09      	ldr	r3, [pc, #36]	@ (10004f20 <lwip_cyclic_timer+0x38>)
10004efa:	6818      	ldr	r0, [r3, #0]
10004efc:	4428      	add	r0, r5
10004efe:	eba0 030c 	sub.w	r3, r0, ip
10004f02:	2b00      	cmp	r3, #0
10004f04:	da06      	bge.n	10004f14 <lwip_cyclic_timer+0x2c>
10004f06:	4622      	mov	r2, r4
10004f08:	4906      	ldr	r1, [pc, #24]	@ (10004f24 <lwip_cyclic_timer+0x3c>)
10004f0a:	eb05 000c 	add.w	r0, r5, ip
10004f0e:	f7ff ffbf 	bl	10004e90 <sys_timeout_abs>
10004f12:	bd38      	pop	{r3, r4, r5, pc}
10004f14:	4622      	mov	r2, r4
10004f16:	4903      	ldr	r1, [pc, #12]	@ (10004f24 <lwip_cyclic_timer+0x3c>)
10004f18:	f7ff ffba 	bl	10004e90 <sys_timeout_abs>
10004f1c:	e7f9      	b.n	10004f12 <lwip_cyclic_timer+0x2a>
10004f1e:	bf00      	nop
10004f20:	20001330 	.word	0x20001330
10004f24:	10004ee9 	.word	0x10004ee9

10004f28 <sys_timeout>:
10004f28:	b570      	push	{r4, r5, r6, lr}
10004f2a:	4604      	mov	r4, r0
10004f2c:	460d      	mov	r5, r1
10004f2e:	4616      	mov	r6, r2
10004f30:	f7fb fa8f 	bl	10000452 <sys_now>
10004f34:	4632      	mov	r2, r6
10004f36:	4629      	mov	r1, r5
10004f38:	4420      	add	r0, r4
10004f3a:	f7ff ffa9 	bl	10004e90 <sys_timeout_abs>
10004f3e:	bd70      	pop	{r4, r5, r6, pc}

10004f40 <tcp_timer_needed>:
10004f40:	b508      	push	{r3, lr}
10004f42:	4b0a      	ldr	r3, [pc, #40]	@ (10004f6c <tcp_timer_needed+0x2c>)
10004f44:	681b      	ldr	r3, [r3, #0]
10004f46:	b953      	cbnz	r3, 10004f5e <tcp_timer_needed+0x1e>
10004f48:	4b09      	ldr	r3, [pc, #36]	@ (10004f70 <tcp_timer_needed+0x30>)
10004f4a:	681b      	ldr	r3, [r3, #0]
10004f4c:	b143      	cbz	r3, 10004f60 <tcp_timer_needed+0x20>
10004f4e:	4b07      	ldr	r3, [pc, #28]	@ (10004f6c <tcp_timer_needed+0x2c>)
10004f50:	2201      	movs	r2, #1
10004f52:	601a      	str	r2, [r3, #0]
10004f54:	2200      	movs	r2, #0
10004f56:	4907      	ldr	r1, [pc, #28]	@ (10004f74 <tcp_timer_needed+0x34>)
10004f58:	20fa      	movs	r0, #250	@ 0xfa
10004f5a:	f7ff ffe5 	bl	10004f28 <sys_timeout>
10004f5e:	bd08      	pop	{r3, pc}
10004f60:	4b05      	ldr	r3, [pc, #20]	@ (10004f78 <tcp_timer_needed+0x38>)
10004f62:	681b      	ldr	r3, [r3, #0]
10004f64:	2b00      	cmp	r3, #0
10004f66:	d1f2      	bne.n	10004f4e <tcp_timer_needed+0xe>
10004f68:	e7f9      	b.n	10004f5e <tcp_timer_needed+0x1e>
10004f6a:	bf00      	nop
10004f6c:	20005f38 	.word	0x20005f38
10004f70:	20005f18 	.word	0x20005f18
10004f74:	10004f7d 	.word	0x10004f7d
10004f78:	20005f2c 	.word	0x20005f2c

10004f7c <tcpip_tcp_timer>:
10004f7c:	b508      	push	{r3, lr}
10004f7e:	f7fd fcff 	bl	10002980 <tcp_tmr>
10004f82:	4b08      	ldr	r3, [pc, #32]	@ (10004fa4 <tcpip_tcp_timer+0x28>)
10004f84:	681b      	ldr	r3, [r3, #0]
10004f86:	b12b      	cbz	r3, 10004f94 <tcpip_tcp_timer+0x18>
10004f88:	2200      	movs	r2, #0
10004f8a:	4907      	ldr	r1, [pc, #28]	@ (10004fa8 <tcpip_tcp_timer+0x2c>)
10004f8c:	20fa      	movs	r0, #250	@ 0xfa
10004f8e:	f7ff ffcb 	bl	10004f28 <sys_timeout>
10004f92:	bd08      	pop	{r3, pc}
10004f94:	4b05      	ldr	r3, [pc, #20]	@ (10004fac <tcpip_tcp_timer+0x30>)
10004f96:	681b      	ldr	r3, [r3, #0]
10004f98:	2b00      	cmp	r3, #0
10004f9a:	d1f5      	bne.n	10004f88 <tcpip_tcp_timer+0xc>
10004f9c:	4b04      	ldr	r3, [pc, #16]	@ (10004fb0 <tcpip_tcp_timer+0x34>)
10004f9e:	2200      	movs	r2, #0
10004fa0:	601a      	str	r2, [r3, #0]
10004fa2:	e7f6      	b.n	10004f92 <tcpip_tcp_timer+0x16>
10004fa4:	20005f18 	.word	0x20005f18
10004fa8:	10004f7d 	.word	0x10004f7d
10004fac:	20005f2c 	.word	0x20005f2c
10004fb0:	20005f38 	.word	0x20005f38

10004fb4 <sys_timeouts_init>:
10004fb4:	b510      	push	{r4, lr}
10004fb6:	2401      	movs	r4, #1
10004fb8:	e008      	b.n	10004fcc <sys_timeouts_init+0x18>
10004fba:	4b06      	ldr	r3, [pc, #24]	@ (10004fd4 <sys_timeouts_init+0x20>)
10004fbc:	eb03 02c4 	add.w	r2, r3, r4, lsl #3
10004fc0:	4905      	ldr	r1, [pc, #20]	@ (10004fd8 <sys_timeouts_init+0x24>)
10004fc2:	f853 0034 	ldr.w	r0, [r3, r4, lsl #3]
10004fc6:	f7ff ffaf 	bl	10004f28 <sys_timeout>
10004fca:	3401      	adds	r4, #1
10004fcc:	2c02      	cmp	r4, #2
10004fce:	d9f4      	bls.n	10004fba <sys_timeouts_init+0x6>
10004fd0:	bd10      	pop	{r4, pc}
10004fd2:	bf00      	nop
10004fd4:	1000d900 	.word	0x1000d900
10004fd8:	10004ee9 	.word	0x10004ee9

10004fdc <sys_check_timeouts>:
10004fdc:	b570      	push	{r4, r5, r6, lr}
10004fde:	f7fb fa38 	bl	10000452 <sys_now>
10004fe2:	4605      	mov	r5, r0
10004fe4:	e011      	b.n	1000500a <sys_check_timeouts+0x2e>
10004fe6:	4b0e      	ldr	r3, [pc, #56]	@ (10005020 <sys_check_timeouts+0x44>)
10004fe8:	6819      	ldr	r1, [r3, #0]
10004fea:	b1c1      	cbz	r1, 1000501e <sys_check_timeouts+0x42>
10004fec:	684b      	ldr	r3, [r1, #4]
10004fee:	1aea      	subs	r2, r5, r3
10004ff0:	2a00      	cmp	r2, #0
10004ff2:	db14      	blt.n	1000501e <sys_check_timeouts+0x42>
10004ff4:	6808      	ldr	r0, [r1, #0]
10004ff6:	4a0a      	ldr	r2, [pc, #40]	@ (10005020 <sys_check_timeouts+0x44>)
10004ff8:	6010      	str	r0, [r2, #0]
10004ffa:	688c      	ldr	r4, [r1, #8]
10004ffc:	68ce      	ldr	r6, [r1, #12]
10004ffe:	4a09      	ldr	r2, [pc, #36]	@ (10005024 <sys_check_timeouts+0x48>)
10005000:	6013      	str	r3, [r2, #0]
10005002:	2006      	movs	r0, #6
10005004:	f7fc f988 	bl	10001318 <memp_free>
10005008:	b934      	cbnz	r4, 10005018 <sys_check_timeouts+0x3c>
1000500a:	4b07      	ldr	r3, [pc, #28]	@ (10005028 <sys_check_timeouts+0x4c>)
1000500c:	781b      	ldrb	r3, [r3, #0]
1000500e:	2b00      	cmp	r3, #0
10005010:	d0e9      	beq.n	10004fe6 <sys_check_timeouts+0xa>
10005012:	f7fc fabd 	bl	10001590 <pbuf_free_ooseq>
10005016:	e7e6      	b.n	10004fe6 <sys_check_timeouts+0xa>
10005018:	4630      	mov	r0, r6
1000501a:	47a0      	blx	r4
1000501c:	e7f5      	b.n	1000500a <sys_check_timeouts+0x2e>
1000501e:	bd70      	pop	{r4, r5, r6, pc}
10005020:	200057d4 	.word	0x200057d4
10005024:	20001330 	.word	0x20001330
10005028:	20005f60 	.word	0x20005f60

1000502c <udp_new_port>:
1000502c:	2000      	movs	r0, #0
1000502e:	4a10      	ldr	r2, [pc, #64]	@ (10005070 <udp_new_port+0x44>)
10005030:	8813      	ldrh	r3, [r2, #0]
10005032:	1c59      	adds	r1, r3, #1
10005034:	8011      	strh	r1, [r2, #0]
10005036:	f64f 72ff 	movw	r2, #65535	@ 0xffff
1000503a:	4293      	cmp	r3, r2
1000503c:	d009      	beq.n	10005052 <udp_new_port+0x26>
1000503e:	4b0d      	ldr	r3, [pc, #52]	@ (10005074 <udp_new_port+0x48>)
10005040:	681b      	ldr	r3, [r3, #0]
10005042:	b193      	cbz	r3, 1000506a <udp_new_port+0x3e>
10005044:	8a59      	ldrh	r1, [r3, #18]
10005046:	4a0a      	ldr	r2, [pc, #40]	@ (10005070 <udp_new_port+0x44>)
10005048:	8812      	ldrh	r2, [r2, #0]
1000504a:	4291      	cmp	r1, r2
1000504c:	d006      	beq.n	1000505c <udp_new_port+0x30>
1000504e:	68db      	ldr	r3, [r3, #12]
10005050:	e7f7      	b.n	10005042 <udp_new_port+0x16>
10005052:	4b07      	ldr	r3, [pc, #28]	@ (10005070 <udp_new_port+0x44>)
10005054:	f44f 4240 	mov.w	r2, #49152	@ 0xc000
10005058:	801a      	strh	r2, [r3, #0]
1000505a:	e7f0      	b.n	1000503e <udp_new_port+0x12>
1000505c:	3001      	adds	r0, #1
1000505e:	b280      	uxth	r0, r0
10005060:	f5b0 4f80 	cmp.w	r0, #16384	@ 0x4000
10005064:	d3e3      	bcc.n	1000502e <udp_new_port+0x2>
10005066:	2000      	movs	r0, #0
10005068:	4770      	bx	lr
1000506a:	4b01      	ldr	r3, [pc, #4]	@ (10005070 <udp_new_port+0x44>)
1000506c:	8818      	ldrh	r0, [r3, #0]
1000506e:	4770      	bx	lr
10005070:	20000dda 	.word	0x20000dda
10005074:	20005f48 	.word	0x20005f48

10005078 <udp_input_local_match>:
10005078:	b410      	push	{r4}
1000507a:	7a04      	ldrb	r4, [r0, #8]
1000507c:	b13c      	cbz	r4, 1000508e <udp_input_local_match+0x16>
1000507e:	4b19      	ldr	r3, [pc, #100]	@ (100050e4 <udp_input_local_match+0x6c>)
10005080:	685b      	ldr	r3, [r3, #4]
10005082:	f893 3028 	ldrb.w	r3, [r3, #40]	@ 0x28
10005086:	3301      	adds	r3, #1
10005088:	b2db      	uxtb	r3, r3
1000508a:	429c      	cmp	r4, r3
1000508c:	d117      	bne.n	100050be <udp_input_local_match+0x46>
1000508e:	b16a      	cbz	r2, 100050ac <udp_input_local_match+0x34>
10005090:	b1c8      	cbz	r0, 100050c6 <udp_input_local_match+0x4e>
10005092:	6803      	ldr	r3, [r0, #0]
10005094:	b1cb      	cbz	r3, 100050ca <udp_input_local_match+0x52>
10005096:	4a13      	ldr	r2, [pc, #76]	@ (100050e4 <udp_input_local_match+0x6c>)
10005098:	6952      	ldr	r2, [r2, #20]
1000509a:	f1b2 3fff 	cmp.w	r2, #4294967295
1000509e:	d016      	beq.n	100050ce <udp_input_local_match+0x56>
100050a0:	6849      	ldr	r1, [r1, #4]
100050a2:	4053      	eors	r3, r2
100050a4:	420b      	tst	r3, r1
100050a6:	d014      	beq.n	100050d2 <udp_input_local_match+0x5a>
100050a8:	2000      	movs	r0, #0
100050aa:	e009      	b.n	100050c0 <udp_input_local_match+0x48>
100050ac:	b198      	cbz	r0, 100050d6 <udp_input_local_match+0x5e>
100050ae:	6803      	ldr	r3, [r0, #0]
100050b0:	b19b      	cbz	r3, 100050da <udp_input_local_match+0x62>
100050b2:	490c      	ldr	r1, [pc, #48]	@ (100050e4 <udp_input_local_match+0x6c>)
100050b4:	6949      	ldr	r1, [r1, #20]
100050b6:	428b      	cmp	r3, r1
100050b8:	d011      	beq.n	100050de <udp_input_local_match+0x66>
100050ba:	4610      	mov	r0, r2
100050bc:	e000      	b.n	100050c0 <udp_input_local_match+0x48>
100050be:	2000      	movs	r0, #0
100050c0:	f85d 4b04 	ldr.w	r4, [sp], #4
100050c4:	4770      	bx	lr
100050c6:	2001      	movs	r0, #1
100050c8:	e7fa      	b.n	100050c0 <udp_input_local_match+0x48>
100050ca:	2001      	movs	r0, #1
100050cc:	e7f8      	b.n	100050c0 <udp_input_local_match+0x48>
100050ce:	2001      	movs	r0, #1
100050d0:	e7f6      	b.n	100050c0 <udp_input_local_match+0x48>
100050d2:	2001      	movs	r0, #1
100050d4:	e7f4      	b.n	100050c0 <udp_input_local_match+0x48>
100050d6:	2001      	movs	r0, #1
100050d8:	e7f2      	b.n	100050c0 <udp_input_local_match+0x48>
100050da:	2001      	movs	r0, #1
100050dc:	e7f0      	b.n	100050c0 <udp_input_local_match+0x48>
100050de:	2001      	movs	r0, #1
100050e0:	e7ee      	b.n	100050c0 <udp_input_local_match+0x48>
100050e2:	bf00      	nop
100050e4:	20001d94 	.word	0x20001d94

100050e8 <udp_init>:
100050e8:	4770      	bx	lr
	...

100050ec <udp_input>:
100050ec:	e92d 4ff0 	stmdb	sp!, {r4, r5, r6, r7, r8, r9, sl, fp, lr}
100050f0:	b085      	sub	sp, #20
100050f2:	4680      	mov	r8, r0
100050f4:	4a6e      	ldr	r2, [pc, #440]	@ (100052b0 <udp_input+0x1c4>)
100050f6:	f8b2 307a 	ldrh.w	r3, [r2, #122]	@ 0x7a
100050fa:	3301      	adds	r3, #1
100050fc:	f8a2 307a 	strh.w	r3, [r2, #122]	@ 0x7a
10005100:	8943      	ldrh	r3, [r0, #10]
10005102:	2b07      	cmp	r3, #7
10005104:	d91b      	bls.n	1000513e <udp_input+0x52>
10005106:	460e      	mov	r6, r1
10005108:	f8d0 b004 	ldr.w	fp, [r0, #4]
1000510c:	4b69      	ldr	r3, [pc, #420]	@ (100052b4 <udp_input+0x1c8>)
1000510e:	6819      	ldr	r1, [r3, #0]
10005110:	6958      	ldr	r0, [r3, #20]
10005112:	f001 f954 	bl	100063be <ip4_addr_isbroadcast_u32>
10005116:	4607      	mov	r7, r0
10005118:	f8bb 0000 	ldrh.w	r0, [fp]
1000511c:	f7fb fd4c 	bl	10000bb8 <lwip_htons>
10005120:	4681      	mov	r9, r0
10005122:	f8bb 0002 	ldrh.w	r0, [fp, #2]
10005126:	f7fb fd47 	bl	10000bb8 <lwip_htons>
1000512a:	4605      	mov	r5, r0
1000512c:	4b62      	ldr	r3, [pc, #392]	@ (100052b8 <udp_input+0x1cc>)
1000512e:	681a      	ldr	r2, [r3, #0]
10005130:	4614      	mov	r4, r2
10005132:	f04f 0a00 	mov.w	sl, #0
10005136:	f8cd a008 	str.w	sl, [sp, #8]
1000513a:	9203      	str	r2, [sp, #12]
1000513c:	e015      	b.n	1000516a <udp_input+0x7e>
1000513e:	4613      	mov	r3, r2
10005140:	f8b2 2082 	ldrh.w	r2, [r2, #130]	@ 0x82
10005144:	3201      	adds	r2, #1
10005146:	f8a3 2082 	strh.w	r2, [r3, #130]	@ 0x82
1000514a:	f8b3 207e 	ldrh.w	r2, [r3, #126]	@ 0x7e
1000514e:	3201      	adds	r2, #1
10005150:	f8a3 207e 	strh.w	r2, [r3, #126]	@ 0x7e
10005154:	f7fc fa9b 	bl	1000168e <pbuf_free>
10005158:	b005      	add	sp, #20
1000515a:	e8bd 8ff0 	ldmia.w	sp!, {r4, r5, r6, r7, r8, r9, sl, fp, pc}
1000515e:	46a2      	mov	sl, r4
10005160:	8aa3      	ldrh	r3, [r4, #20]
10005162:	454b      	cmp	r3, r9
10005164:	d025      	beq.n	100051b2 <udp_input+0xc6>
10005166:	9402      	str	r4, [sp, #8]
10005168:	68e4      	ldr	r4, [r4, #12]
1000516a:	2c00      	cmp	r4, #0
1000516c:	d036      	beq.n	100051dc <udp_input+0xf0>
1000516e:	8a63      	ldrh	r3, [r4, #18]
10005170:	42ab      	cmp	r3, r5
10005172:	d1f8      	bne.n	10005166 <udp_input+0x7a>
10005174:	463a      	mov	r2, r7
10005176:	4631      	mov	r1, r6
10005178:	4620      	mov	r0, r4
1000517a:	f7ff ff7d 	bl	10005078 <udp_input_local_match>
1000517e:	2800      	cmp	r0, #0
10005180:	d0f1      	beq.n	10005166 <udp_input+0x7a>
10005182:	7c23      	ldrb	r3, [r4, #16]
10005184:	f013 0f04 	tst.w	r3, #4
10005188:	d1ea      	bne.n	10005160 <udp_input+0x74>
1000518a:	f1ba 0f00 	cmp.w	sl, #0
1000518e:	d0e6      	beq.n	1000515e <udp_input+0x72>
10005190:	2f00      	cmp	r7, #0
10005192:	d0e5      	beq.n	10005160 <udp_input+0x74>
10005194:	4b47      	ldr	r3, [pc, #284]	@ (100052b4 <udp_input+0x1c8>)
10005196:	695b      	ldr	r3, [r3, #20]
10005198:	f1b3 3fff 	cmp.w	r3, #4294967295
1000519c:	d1e0      	bne.n	10005160 <udp_input+0x74>
1000519e:	f8da 2000 	ldr.w	r2, [sl]
100051a2:	6833      	ldr	r3, [r6, #0]
100051a4:	429a      	cmp	r2, r3
100051a6:	d0db      	beq.n	10005160 <udp_input+0x74>
100051a8:	6822      	ldr	r2, [r4, #0]
100051aa:	4293      	cmp	r3, r2
100051ac:	d1d8      	bne.n	10005160 <udp_input+0x74>
100051ae:	46a2      	mov	sl, r4
100051b0:	e7d6      	b.n	10005160 <udp_input+0x74>
100051b2:	6863      	ldr	r3, [r4, #4]
100051b4:	b11b      	cbz	r3, 100051be <udp_input+0xd2>
100051b6:	4a3f      	ldr	r2, [pc, #252]	@ (100052b4 <udp_input+0x1c8>)
100051b8:	6912      	ldr	r2, [r2, #16]
100051ba:	4293      	cmp	r3, r2
100051bc:	d1d3      	bne.n	10005166 <udp_input+0x7a>
100051be:	9a03      	ldr	r2, [sp, #12]
100051c0:	9902      	ldr	r1, [sp, #8]
100051c2:	b129      	cbz	r1, 100051d0 <udp_input+0xe4>
100051c4:	68e3      	ldr	r3, [r4, #12]
100051c6:	60cb      	str	r3, [r1, #12]
100051c8:	60e2      	str	r2, [r4, #12]
100051ca:	4b3b      	ldr	r3, [pc, #236]	@ (100052b8 <udp_input+0x1cc>)
100051cc:	601c      	str	r4, [r3, #0]
100051ce:	e024      	b.n	1000521a <udp_input+0x12e>
100051d0:	4a37      	ldr	r2, [pc, #220]	@ (100052b0 <udp_input+0x1c4>)
100051d2:	f8b2 308e 	ldrh.w	r3, [r2, #142]	@ 0x8e
100051d6:	3301      	adds	r3, #1
100051d8:	f8a2 308e 	strh.w	r3, [r2, #142]	@ 0x8e
100051dc:	b1e4      	cbz	r4, 10005218 <udp_input+0x12c>
100051de:	f8bb 3006 	ldrh.w	r3, [fp, #6]
100051e2:	b14b      	cbz	r3, 100051f8 <udp_input+0x10c>
100051e4:	4b35      	ldr	r3, [pc, #212]	@ (100052bc <udp_input+0x1d0>)
100051e6:	1d1a      	adds	r2, r3, #4
100051e8:	9200      	str	r2, [sp, #0]
100051ea:	f8b8 2008 	ldrh.w	r2, [r8, #8]
100051ee:	2111      	movs	r1, #17
100051f0:	4640      	mov	r0, r8
100051f2:	f7fb fd95 	bl	10000d20 <ip_chksum_pseudo>
100051f6:	b9d8      	cbnz	r0, 10005230 <udp_input+0x144>
100051f8:	2108      	movs	r1, #8
100051fa:	4640      	mov	r0, r8
100051fc:	f7fc fa19 	bl	10001632 <pbuf_remove_header>
10005200:	bb28      	cbnz	r0, 1000524e <udp_input+0x162>
10005202:	b394      	cbz	r4, 1000526a <udp_input+0x17e>
10005204:	69a5      	ldr	r5, [r4, #24]
10005206:	b365      	cbz	r5, 10005262 <udp_input+0x176>
10005208:	69e0      	ldr	r0, [r4, #28]
1000520a:	f8cd 9000 	str.w	r9, [sp]
1000520e:	4b2b      	ldr	r3, [pc, #172]	@ (100052bc <udp_input+0x1d0>)
10005210:	4642      	mov	r2, r8
10005212:	4621      	mov	r1, r4
10005214:	47a8      	blx	r5
10005216:	e79f      	b.n	10005158 <udp_input+0x6c>
10005218:	4654      	mov	r4, sl
1000521a:	2c00      	cmp	r4, #0
1000521c:	d1df      	bne.n	100051de <udp_input+0xf2>
1000521e:	6832      	ldr	r2, [r6, #0]
10005220:	4b24      	ldr	r3, [pc, #144]	@ (100052b4 <udp_input+0x1c8>)
10005222:	695b      	ldr	r3, [r3, #20]
10005224:	429a      	cmp	r2, r3
10005226:	d0da      	beq.n	100051de <udp_input+0xf2>
10005228:	4640      	mov	r0, r8
1000522a:	f7fc fa30 	bl	1000168e <pbuf_free>
1000522e:	e793      	b.n	10005158 <udp_input+0x6c>
10005230:	4b1f      	ldr	r3, [pc, #124]	@ (100052b0 <udp_input+0x1c4>)
10005232:	f8b3 2080 	ldrh.w	r2, [r3, #128]	@ 0x80
10005236:	3201      	adds	r2, #1
10005238:	f8a3 2080 	strh.w	r2, [r3, #128]	@ 0x80
1000523c:	f8b3 207e 	ldrh.w	r2, [r3, #126]	@ 0x7e
10005240:	3201      	adds	r2, #1
10005242:	f8a3 207e 	strh.w	r2, [r3, #126]	@ 0x7e
10005246:	4640      	mov	r0, r8
10005248:	f7fc fa21 	bl	1000168e <pbuf_free>
1000524c:	e784      	b.n	10005158 <udp_input+0x6c>
1000524e:	4a18      	ldr	r2, [pc, #96]	@ (100052b0 <udp_input+0x1c4>)
10005250:	f8b2 307e 	ldrh.w	r3, [r2, #126]	@ 0x7e
10005254:	3301      	adds	r3, #1
10005256:	f8a2 307e 	strh.w	r3, [r2, #126]	@ 0x7e
1000525a:	4640      	mov	r0, r8
1000525c:	f7fc fa17 	bl	1000168e <pbuf_free>
10005260:	e77a      	b.n	10005158 <udp_input+0x6c>
10005262:	4640      	mov	r0, r8
10005264:	f7fc fa13 	bl	1000168e <pbuf_free>
10005268:	e776      	b.n	10005158 <udp_input+0x6c>
1000526a:	b92f      	cbnz	r7, 10005278 <udp_input+0x18c>
1000526c:	4b11      	ldr	r3, [pc, #68]	@ (100052b4 <udp_input+0x1c8>)
1000526e:	695b      	ldr	r3, [r3, #20]
10005270:	f003 03f0 	and.w	r3, r3, #240	@ 0xf0
10005274:	2be0      	cmp	r3, #224	@ 0xe0
10005276:	d10e      	bne.n	10005296 <udp_input+0x1aa>
10005278:	4b0d      	ldr	r3, [pc, #52]	@ (100052b0 <udp_input+0x1c4>)
1000527a:	f8b3 2088 	ldrh.w	r2, [r3, #136]	@ 0x88
1000527e:	3201      	adds	r2, #1
10005280:	f8a3 2088 	strh.w	r2, [r3, #136]	@ 0x88
10005284:	f8b3 207e 	ldrh.w	r2, [r3, #126]	@ 0x7e
10005288:	3201      	adds	r2, #1
1000528a:	f8a3 207e 	strh.w	r2, [r3, #126]	@ 0x7e
1000528e:	4640      	mov	r0, r8
10005290:	f7fc f9fd 	bl	1000168e <pbuf_free>
10005294:	e760      	b.n	10005158 <udp_input+0x6c>
10005296:	4b07      	ldr	r3, [pc, #28]	@ (100052b4 <udp_input+0x1c8>)
10005298:	8999      	ldrh	r1, [r3, #12]
1000529a:	3108      	adds	r1, #8
1000529c:	b209      	sxth	r1, r1
1000529e:	4640      	mov	r0, r8
100052a0:	f7fc f9f0 	bl	10001684 <pbuf_header_force>
100052a4:	2103      	movs	r1, #3
100052a6:	4640      	mov	r0, r8
100052a8:	f000 fe8a 	bl	10005fc0 <icmp_dest_unreach>
100052ac:	e7e4      	b.n	10005278 <udp_input+0x18c>
100052ae:	bf00      	nop
100052b0:	20001db0 	.word	0x20001db0
100052b4:	20001d94 	.word	0x20001d94
100052b8:	20005f48 	.word	0x20005f48
100052bc:	20001da4 	.word	0x20001da4

100052c0 <udp_bind>:
100052c0:	b570      	push	{r4, r5, r6, lr}
100052c2:	4604      	mov	r4, r0
100052c4:	460d      	mov	r5, r1
100052c6:	b149      	cbz	r1, 100052dc <udp_bind+0x1c>
100052c8:	2c00      	cmp	r4, #0
100052ca:	d031      	beq.n	10005330 <udp_bind+0x70>
100052cc:	4b21      	ldr	r3, [pc, #132]	@ (10005354 <udp_bind+0x94>)
100052ce:	681b      	ldr	r3, [r3, #0]
100052d0:	4619      	mov	r1, r3
100052d2:	b129      	cbz	r1, 100052e0 <udp_bind+0x20>
100052d4:	42a1      	cmp	r1, r4
100052d6:	d014      	beq.n	10005302 <udp_bind+0x42>
100052d8:	68c9      	ldr	r1, [r1, #12]
100052da:	e7fa      	b.n	100052d2 <udp_bind+0x12>
100052dc:	4d1e      	ldr	r5, [pc, #120]	@ (10005358 <udp_bind+0x98>)
100052de:	e7f3      	b.n	100052c8 <udp_bind+0x8>
100052e0:	2600      	movs	r6, #0
100052e2:	b98a      	cbnz	r2, 10005308 <udp_bind+0x48>
100052e4:	f7ff fea2 	bl	1000502c <udp_new_port>
100052e8:	4602      	mov	r2, r0
100052ea:	b320      	cbz	r0, 10005336 <udp_bind+0x76>
100052ec:	b1f5      	cbz	r5, 1000532c <udp_bind+0x6c>
100052ee:	682b      	ldr	r3, [r5, #0]
100052f0:	6023      	str	r3, [r4, #0]
100052f2:	8262      	strh	r2, [r4, #18]
100052f4:	bb5e      	cbnz	r6, 1000534e <udp_bind+0x8e>
100052f6:	4b17      	ldr	r3, [pc, #92]	@ (10005354 <udp_bind+0x94>)
100052f8:	681a      	ldr	r2, [r3, #0]
100052fa:	60e2      	str	r2, [r4, #12]
100052fc:	601c      	str	r4, [r3, #0]
100052fe:	2000      	movs	r0, #0
10005300:	bd70      	pop	{r4, r5, r6, pc}
10005302:	2601      	movs	r6, #1
10005304:	e7ed      	b.n	100052e2 <udp_bind+0x22>
10005306:	68db      	ldr	r3, [r3, #12]
10005308:	2b00      	cmp	r3, #0
1000530a:	d0ef      	beq.n	100052ec <udp_bind+0x2c>
1000530c:	42a3      	cmp	r3, r4
1000530e:	d0fa      	beq.n	10005306 <udp_bind+0x46>
10005310:	8a59      	ldrh	r1, [r3, #18]
10005312:	4291      	cmp	r1, r2
10005314:	d1f7      	bne.n	10005306 <udp_bind+0x46>
10005316:	6818      	ldr	r0, [r3, #0]
10005318:	6829      	ldr	r1, [r5, #0]
1000531a:	4288      	cmp	r0, r1
1000531c:	d00e      	beq.n	1000533c <udp_bind+0x7c>
1000531e:	b181      	cbz	r1, 10005342 <udp_bind+0x82>
10005320:	b193      	cbz	r3, 10005348 <udp_bind+0x88>
10005322:	2800      	cmp	r0, #0
10005324:	d1ef      	bne.n	10005306 <udp_bind+0x46>
10005326:	f06f 0007 	mvn.w	r0, #7
1000532a:	e7e9      	b.n	10005300 <udp_bind+0x40>
1000532c:	2300      	movs	r3, #0
1000532e:	e7df      	b.n	100052f0 <udp_bind+0x30>
10005330:	f06f 000f 	mvn.w	r0, #15
10005334:	e7e4      	b.n	10005300 <udp_bind+0x40>
10005336:	f06f 0007 	mvn.w	r0, #7
1000533a:	e7e1      	b.n	10005300 <udp_bind+0x40>
1000533c:	f06f 0007 	mvn.w	r0, #7
10005340:	e7de      	b.n	10005300 <udp_bind+0x40>
10005342:	f06f 0007 	mvn.w	r0, #7
10005346:	e7db      	b.n	10005300 <udp_bind+0x40>
10005348:	f06f 0007 	mvn.w	r0, #7
1000534c:	e7d8      	b.n	10005300 <udp_bind+0x40>
1000534e:	2000      	movs	r0, #0
10005350:	e7d6      	b.n	10005300 <udp_bind+0x40>
10005352:	bf00      	nop
10005354:	20005f48 	.word	0x20005f48
10005358:	1000d91c 	.word	0x1000d91c

1000535c <udp_sendto_if_src>:
1000535c:	e92d 4ff0 	stmdb	sp!, {r4, r5, r6, r7, r8, r9, sl, fp, lr}
10005360:	b085      	sub	sp, #20
10005362:	f8dd b038 	ldr.w	fp, [sp, #56]	@ 0x38
10005366:	f8dd a03c 	ldr.w	sl, [sp, #60]	@ 0x3c
1000536a:	2800      	cmp	r0, #0
1000536c:	d06e      	beq.n	1000544c <udp_sendto_if_src+0xf0>
1000536e:	460c      	mov	r4, r1
10005370:	4690      	mov	r8, r2
10005372:	4699      	mov	r9, r3
10005374:	4605      	mov	r5, r0
10005376:	2900      	cmp	r1, #0
10005378:	d06b      	beq.n	10005452 <udp_sendto_if_src+0xf6>
1000537a:	2a00      	cmp	r2, #0
1000537c:	d06c      	beq.n	10005458 <udp_sendto_if_src+0xfc>
1000537e:	f1ba 0f00 	cmp.w	sl, #0
10005382:	d06c      	beq.n	1000545e <udp_sendto_if_src+0x102>
10005384:	f1bb 0f00 	cmp.w	fp, #0
10005388:	d06c      	beq.n	10005464 <udp_sendto_if_src+0x108>
1000538a:	8a42      	ldrh	r2, [r0, #18]
1000538c:	b1c2      	cbz	r2, 100053c0 <udp_sendto_if_src+0x64>
1000538e:	8922      	ldrh	r2, [r4, #8]
10005390:	f64f 73f7 	movw	r3, #65527	@ 0xfff7
10005394:	429a      	cmp	r2, r3
10005396:	d868      	bhi.n	1000546a <udp_sendto_if_src+0x10e>
10005398:	2108      	movs	r1, #8
1000539a:	4620      	mov	r0, r4
1000539c:	f7fc f944 	bl	10001628 <pbuf_add_header>
100053a0:	b1a8      	cbz	r0, 100053ce <udp_sendto_if_src+0x72>
100053a2:	f44f 7220 	mov.w	r2, #640	@ 0x280
100053a6:	2108      	movs	r1, #8
100053a8:	2022      	movs	r0, #34	@ 0x22
100053aa:	f7fc f9a4 	bl	100016f6 <pbuf_alloc>
100053ae:	4606      	mov	r6, r0
100053b0:	2800      	cmp	r0, #0
100053b2:	d05d      	beq.n	10005470 <udp_sendto_if_src+0x114>
100053b4:	8923      	ldrh	r3, [r4, #8]
100053b6:	b15b      	cbz	r3, 100053d0 <udp_sendto_if_src+0x74>
100053b8:	4621      	mov	r1, r4
100053ba:	f7fc fa76 	bl	100018aa <pbuf_chain>
100053be:	e007      	b.n	100053d0 <udp_sendto_if_src+0x74>
100053c0:	4601      	mov	r1, r0
100053c2:	f7ff ff7d 	bl	100052c0 <udp_bind>
100053c6:	4607      	mov	r7, r0
100053c8:	2800      	cmp	r0, #0
100053ca:	d0e0      	beq.n	1000538e <udp_sendto_if_src+0x32>
100053cc:	e02c      	b.n	10005428 <udp_sendto_if_src+0xcc>
100053ce:	4626      	mov	r6, r4
100053d0:	6877      	ldr	r7, [r6, #4]
100053d2:	8a68      	ldrh	r0, [r5, #18]
100053d4:	f7fb fbf0 	bl	10000bb8 <lwip_htons>
100053d8:	8038      	strh	r0, [r7, #0]
100053da:	4648      	mov	r0, r9
100053dc:	f7fb fbec 	bl	10000bb8 <lwip_htons>
100053e0:	8078      	strh	r0, [r7, #2]
100053e2:	2300      	movs	r3, #0
100053e4:	71bb      	strb	r3, [r7, #6]
100053e6:	71fb      	strb	r3, [r7, #7]
100053e8:	8930      	ldrh	r0, [r6, #8]
100053ea:	f7fb fbe5 	bl	10000bb8 <lwip_htons>
100053ee:	80b8      	strh	r0, [r7, #4]
100053f0:	7c2b      	ldrb	r3, [r5, #16]
100053f2:	f013 0f01 	tst.w	r3, #1
100053f6:	d01b      	beq.n	10005430 <udp_sendto_if_src+0xd4>
100053f8:	f8cd b008 	str.w	fp, [sp, #8]
100053fc:	2311      	movs	r3, #17
100053fe:	9301      	str	r3, [sp, #4]
10005400:	7aab      	ldrb	r3, [r5, #10]
10005402:	9300      	str	r3, [sp, #0]
10005404:	7aeb      	ldrb	r3, [r5, #11]
10005406:	4642      	mov	r2, r8
10005408:	4651      	mov	r1, sl
1000540a:	4630      	mov	r0, r6
1000540c:	f000 ff28 	bl	10006260 <ip4_output_if_src>
10005410:	4607      	mov	r7, r0
10005412:	42a6      	cmp	r6, r4
10005414:	d002      	beq.n	1000541c <udp_sendto_if_src+0xc0>
10005416:	4630      	mov	r0, r6
10005418:	f7fc f939 	bl	1000168e <pbuf_free>
1000541c:	4a16      	ldr	r2, [pc, #88]	@ (10005478 <udp_sendto_if_src+0x11c>)
1000541e:	f8b2 3078 	ldrh.w	r3, [r2, #120]	@ 0x78
10005422:	3301      	adds	r3, #1
10005424:	f8a2 3078 	strh.w	r3, [r2, #120]	@ 0x78
10005428:	4638      	mov	r0, r7
1000542a:	b005      	add	sp, #20
1000542c:	e8bd 8ff0 	ldmia.w	sp!, {r4, r5, r6, r7, r8, r9, sl, fp, pc}
10005430:	8932      	ldrh	r2, [r6, #8]
10005432:	f8cd 8000 	str.w	r8, [sp]
10005436:	4653      	mov	r3, sl
10005438:	2111      	movs	r1, #17
1000543a:	4630      	mov	r0, r6
1000543c:	f7fb fc70 	bl	10000d20 <ip_chksum_pseudo>
10005440:	4603      	mov	r3, r0
10005442:	b908      	cbnz	r0, 10005448 <udp_sendto_if_src+0xec>
10005444:	f64f 73ff 	movw	r3, #65535	@ 0xffff
10005448:	80fb      	strh	r3, [r7, #6]
1000544a:	e7d5      	b.n	100053f8 <udp_sendto_if_src+0x9c>
1000544c:	f06f 070f 	mvn.w	r7, #15
10005450:	e7ea      	b.n	10005428 <udp_sendto_if_src+0xcc>
10005452:	f06f 070f 	mvn.w	r7, #15
10005456:	e7e7      	b.n	10005428 <udp_sendto_if_src+0xcc>
10005458:	f06f 070f 	mvn.w	r7, #15
1000545c:	e7e4      	b.n	10005428 <udp_sendto_if_src+0xcc>
1000545e:	f06f 070f 	mvn.w	r7, #15
10005462:	e7e1      	b.n	10005428 <udp_sendto_if_src+0xcc>
10005464:	f06f 070f 	mvn.w	r7, #15
10005468:	e7de      	b.n	10005428 <udp_sendto_if_src+0xcc>
1000546a:	f04f 37ff 	mov.w	r7, #4294967295
1000546e:	e7db      	b.n	10005428 <udp_sendto_if_src+0xcc>
10005470:	f04f 37ff 	mov.w	r7, #4294967295
10005474:	e7d8      	b.n	10005428 <udp_sendto_if_src+0xcc>
10005476:	bf00      	nop
10005478:	20001db0 	.word	0x20001db0

1000547c <udp_sendto_if>:
1000547c:	b5f0      	push	{r4, r5, r6, r7, lr}
1000547e:	b083      	sub	sp, #12
10005480:	9d08      	ldr	r5, [sp, #32]
10005482:	b1c8      	cbz	r0, 100054b8 <udp_sendto_if+0x3c>
10005484:	4604      	mov	r4, r0
10005486:	b1d1      	cbz	r1, 100054be <udp_sendto_if+0x42>
10005488:	b1e2      	cbz	r2, 100054c4 <udp_sendto_if+0x48>
1000548a:	b1f5      	cbz	r5, 100054ca <udp_sendto_if+0x4e>
1000548c:	b160      	cbz	r0, 100054a8 <udp_sendto_if+0x2c>
1000548e:	6806      	ldr	r6, [r0, #0]
10005490:	b156      	cbz	r6, 100054a8 <udp_sendto_if+0x2c>
10005492:	f006 0cf0 	and.w	ip, r6, #240	@ 0xf0
10005496:	f1bc 0fe0 	cmp.w	ip, #224	@ 0xe0
1000549a:	d005      	beq.n	100054a8 <udp_sendto_if+0x2c>
1000549c:	682f      	ldr	r7, [r5, #0]
1000549e:	42be      	cmp	r6, r7
100054a0:	d003      	beq.n	100054aa <udp_sendto_if+0x2e>
100054a2:	f06f 0003 	mvn.w	r0, #3
100054a6:	e005      	b.n	100054b4 <udp_sendto_if+0x38>
100054a8:	4628      	mov	r0, r5
100054aa:	9001      	str	r0, [sp, #4]
100054ac:	9500      	str	r5, [sp, #0]
100054ae:	4620      	mov	r0, r4
100054b0:	f7ff ff54 	bl	1000535c <udp_sendto_if_src>
100054b4:	b003      	add	sp, #12
100054b6:	bdf0      	pop	{r4, r5, r6, r7, pc}
100054b8:	f06f 000f 	mvn.w	r0, #15
100054bc:	e7fa      	b.n	100054b4 <udp_sendto_if+0x38>
100054be:	f06f 000f 	mvn.w	r0, #15
100054c2:	e7f7      	b.n	100054b4 <udp_sendto_if+0x38>
100054c4:	f06f 000f 	mvn.w	r0, #15
100054c8:	e7f4      	b.n	100054b4 <udp_sendto_if+0x38>
100054ca:	f06f 000f 	mvn.w	r0, #15
100054ce:	e7f1      	b.n	100054b4 <udp_sendto_if+0x38>

100054d0 <udp_sendto>:
100054d0:	b310      	cbz	r0, 10005518 <udp_sendto+0x48>
100054d2:	b5f0      	push	{r4, r5, r6, r7, lr}
100054d4:	b083      	sub	sp, #12
100054d6:	460d      	mov	r5, r1
100054d8:	4614      	mov	r4, r2
100054da:	461e      	mov	r6, r3
100054dc:	4607      	mov	r7, r0
100054de:	b1f1      	cbz	r1, 1000551e <udp_sendto+0x4e>
100054e0:	b302      	cbz	r2, 10005524 <udp_sendto+0x54>
100054e2:	7a00      	ldrb	r0, [r0, #8]
100054e4:	b158      	cbz	r0, 100054fe <udp_sendto+0x2e>
100054e6:	f7fb ffe7 	bl	100014b8 <netif_get_by_index>
100054ea:	b160      	cbz	r0, 10005506 <udp_sendto+0x36>
100054ec:	9000      	str	r0, [sp, #0]
100054ee:	4633      	mov	r3, r6
100054f0:	4622      	mov	r2, r4
100054f2:	4629      	mov	r1, r5
100054f4:	4638      	mov	r0, r7
100054f6:	f7ff ffc1 	bl	1000547c <udp_sendto_if>
100054fa:	b003      	add	sp, #12
100054fc:	bdf0      	pop	{r4, r5, r6, r7, pc}
100054fe:	4610      	mov	r0, r2
10005500:	f000 fd84 	bl	1000600c <ip4_route>
10005504:	e7f1      	b.n	100054ea <udp_sendto+0x1a>
10005506:	4a09      	ldr	r2, [pc, #36]	@ (1000552c <udp_sendto+0x5c>)
10005508:	f8b2 3086 	ldrh.w	r3, [r2, #134]	@ 0x86
1000550c:	3301      	adds	r3, #1
1000550e:	f8a2 3086 	strh.w	r3, [r2, #134]	@ 0x86
10005512:	f06f 0003 	mvn.w	r0, #3
10005516:	e7f0      	b.n	100054fa <udp_sendto+0x2a>
10005518:	f06f 000f 	mvn.w	r0, #15
1000551c:	4770      	bx	lr
1000551e:	f06f 000f 	mvn.w	r0, #15
10005522:	e7ea      	b.n	100054fa <udp_sendto+0x2a>
10005524:	f06f 000f 	mvn.w	r0, #15
10005528:	e7e7      	b.n	100054fa <udp_sendto+0x2a>
1000552a:	bf00      	nop
1000552c:	20001db0 	.word	0x20001db0

10005530 <udp_recv>:
10005530:	b108      	cbz	r0, 10005536 <udp_recv+0x6>
10005532:	6181      	str	r1, [r0, #24]
10005534:	61c2      	str	r2, [r0, #28]
10005536:	4770      	bx	lr

10005538 <udp_remove>:
10005538:	b1c0      	cbz	r0, 1000556c <udp_remove+0x34>
1000553a:	b508      	push	{r3, lr}
1000553c:	4601      	mov	r1, r0
1000553e:	4b0c      	ldr	r3, [pc, #48]	@ (10005570 <udp_remove+0x38>)
10005540:	681a      	ldr	r2, [r3, #0]
10005542:	4282      	cmp	r2, r0
10005544:	d109      	bne.n	1000555a <udp_remove+0x22>
10005546:	68d2      	ldr	r2, [r2, #12]
10005548:	601a      	str	r2, [r3, #0]
1000554a:	2000      	movs	r0, #0
1000554c:	f7fb fee4 	bl	10001318 <memp_free>
10005550:	bd08      	pop	{r3, pc}
10005552:	68cb      	ldr	r3, [r1, #12]
10005554:	60d3      	str	r3, [r2, #12]
10005556:	e7f8      	b.n	1000554a <udp_remove+0x12>
10005558:	461a      	mov	r2, r3
1000555a:	2a00      	cmp	r2, #0
1000555c:	d0f5      	beq.n	1000554a <udp_remove+0x12>
1000555e:	68d3      	ldr	r3, [r2, #12]
10005560:	2b00      	cmp	r3, #0
10005562:	d0f9      	beq.n	10005558 <udp_remove+0x20>
10005564:	428b      	cmp	r3, r1
10005566:	d0f4      	beq.n	10005552 <udp_remove+0x1a>
10005568:	461a      	mov	r2, r3
1000556a:	e7f6      	b.n	1000555a <udp_remove+0x22>
1000556c:	4770      	bx	lr
1000556e:	bf00      	nop
10005570:	20005f48 	.word	0x20005f48

10005574 <udp_new>:
10005574:	b510      	push	{r4, lr}
10005576:	2000      	movs	r0, #0
10005578:	f7fb fec0 	bl	100012fc <memp_malloc>
1000557c:	4604      	mov	r4, r0
1000557e:	b128      	cbz	r0, 1000558c <udp_new+0x18>
10005580:	2220      	movs	r2, #32
10005582:	2100      	movs	r1, #0
10005584:	f007 f9b8 	bl	1000c8f8 <memset>
10005588:	23ff      	movs	r3, #255	@ 0xff
1000558a:	72e3      	strb	r3, [r4, #11]
1000558c:	4620      	mov	r0, r4
1000558e:	bd10      	pop	{r4, pc}

10005590 <udp_netif_ip_addr_changed>:
10005590:	b1b8      	cbz	r0, 100055c2 <udp_netif_ip_addr_changed+0x32>
10005592:	4602      	mov	r2, r0
10005594:	6803      	ldr	r3, [r0, #0]
10005596:	b1a3      	cbz	r3, 100055c2 <udp_netif_ip_addr_changed+0x32>
10005598:	b199      	cbz	r1, 100055c2 <udp_netif_ip_addr_changed+0x32>
1000559a:	680b      	ldr	r3, [r1, #0]
1000559c:	b18b      	cbz	r3, 100055c2 <udp_netif_ip_addr_changed+0x32>
1000559e:	4b09      	ldr	r3, [pc, #36]	@ (100055c4 <udp_netif_ip_addr_changed+0x34>)
100055a0:	681b      	ldr	r3, [r3, #0]
100055a2:	b16b      	cbz	r3, 100055c0 <udp_netif_ip_addr_changed+0x30>
100055a4:	b410      	push	{r4}
100055a6:	e001      	b.n	100055ac <udp_netif_ip_addr_changed+0x1c>
100055a8:	68db      	ldr	r3, [r3, #12]
100055aa:	b133      	cbz	r3, 100055ba <udp_netif_ip_addr_changed+0x2a>
100055ac:	6810      	ldr	r0, [r2, #0]
100055ae:	681c      	ldr	r4, [r3, #0]
100055b0:	4284      	cmp	r4, r0
100055b2:	d1f9      	bne.n	100055a8 <udp_netif_ip_addr_changed+0x18>
100055b4:	6808      	ldr	r0, [r1, #0]
100055b6:	6018      	str	r0, [r3, #0]
100055b8:	e7f6      	b.n	100055a8 <udp_netif_ip_addr_changed+0x18>
100055ba:	f85d 4b04 	ldr.w	r4, [sp], #4
100055be:	4770      	bx	lr
100055c0:	4770      	bx	lr
100055c2:	4770      	bx	lr
100055c4:	20005f48 	.word	0x20005f48

100055c8 <etharp_free_entry>:
100055c8:	b510      	push	{r4, lr}
100055ca:	4604      	mov	r4, r0
100055cc:	eb00 0240 	add.w	r2, r0, r0, lsl #1
100055d0:	4b09      	ldr	r3, [pc, #36]	@ (100055f8 <etharp_free_entry+0x30>)
100055d2:	f853 0032 	ldr.w	r0, [r3, r2, lsl #3]
100055d6:	b138      	cbz	r0, 100055e8 <etharp_free_entry+0x20>
100055d8:	f7fc f859 	bl	1000168e <pbuf_free>
100055dc:	eb04 0344 	add.w	r3, r4, r4, lsl #1
100055e0:	00db      	lsls	r3, r3, #3
100055e2:	4a05      	ldr	r2, [pc, #20]	@ (100055f8 <etharp_free_entry+0x30>)
100055e4:	2100      	movs	r1, #0
100055e6:	50d1      	str	r1, [r2, r3]
100055e8:	eb04 0444 	add.w	r4, r4, r4, lsl #1
100055ec:	4b02      	ldr	r3, [pc, #8]	@ (100055f8 <etharp_free_entry+0x30>)
100055ee:	eb03 03c4 	add.w	r3, r3, r4, lsl #3
100055f2:	2200      	movs	r2, #0
100055f4:	751a      	strb	r2, [r3, #20]
100055f6:	bd10      	pop	{r4, pc}
100055f8:	20001204 	.word	0x20001204

100055fc <etharp_find_entry>:
100055fc:	e92d 4ff0 	stmdb	sp!, {r4, r5, r6, r7, r8, r9, sl, fp, lr}
10005600:	b083      	sub	sp, #12
10005602:	4607      	mov	r7, r0
10005604:	f04f 0e00 	mov.w	lr, #0
10005608:	46f3      	mov	fp, lr
1000560a:	46f1      	mov	r9, lr
1000560c:	f04f 080a 	mov.w	r8, #10
10005610:	4673      	mov	r3, lr
10005612:	4645      	mov	r5, r8
10005614:	46c2      	mov	sl, r8
10005616:	f8cd 8004 	str.w	r8, [sp, #4]
1000561a:	e003      	b.n	10005624 <etharp_find_entry+0x28>
1000561c:	b978      	cbnz	r0, 1000563e <etharp_find_entry+0x42>
1000561e:	461d      	mov	r5, r3
10005620:	3301      	adds	r3, #1
10005622:	b21b      	sxth	r3, r3
10005624:	2b09      	cmp	r3, #9
10005626:	dc40      	bgt.n	100056aa <etharp_find_entry+0xae>
10005628:	461c      	mov	r4, r3
1000562a:	eb03 0043 	add.w	r0, r3, r3, lsl #1
1000562e:	4a3c      	ldr	r2, [pc, #240]	@ (10005720 <etharp_find_entry+0x124>)
10005630:	eb02 02c0 	add.w	r2, r2, r0, lsl #3
10005634:	7d10      	ldrb	r0, [r2, #20]
10005636:	2d0a      	cmp	r5, #10
10005638:	d0f0      	beq.n	1000561c <etharp_find_entry+0x20>
1000563a:	2800      	cmp	r0, #0
1000563c:	d0f0      	beq.n	10005620 <etharp_find_entry+0x24>
1000563e:	b147      	cbz	r7, 10005652 <etharp_find_entry+0x56>
10005640:	683a      	ldr	r2, [r7, #0]
10005642:	eb04 0c44 	add.w	ip, r4, r4, lsl #1
10005646:	4e36      	ldr	r6, [pc, #216]	@ (10005720 <etharp_find_entry+0x124>)
10005648:	eb06 06cc 	add.w	r6, r6, ip, lsl #3
1000564c:	6876      	ldr	r6, [r6, #4]
1000564e:	42b2      	cmp	r2, r6
10005650:	d05d      	beq.n	1000570e <etharp_find_entry+0x112>
10005652:	2801      	cmp	r0, #1
10005654:	d00e      	beq.n	10005674 <etharp_find_entry+0x78>
10005656:	2801      	cmp	r0, #1
10005658:	d9e2      	bls.n	10005620 <etharp_find_entry+0x24>
1000565a:	2804      	cmp	r0, #4
1000565c:	d8e0      	bhi.n	10005620 <etharp_find_entry+0x24>
1000565e:	eb04 0444 	add.w	r4, r4, r4, lsl #1
10005662:	4a2f      	ldr	r2, [pc, #188]	@ (10005720 <etharp_find_entry+0x124>)
10005664:	eb02 02c4 	add.w	r2, r2, r4, lsl #3
10005668:	8a52      	ldrh	r2, [r2, #18]
1000566a:	4572      	cmp	r2, lr
1000566c:	d3d8      	bcc.n	10005620 <etharp_find_entry+0x24>
1000566e:	4696      	mov	lr, r2
10005670:	469a      	mov	sl, r3
10005672:	e7d5      	b.n	10005620 <etharp_find_entry+0x24>
10005674:	eb04 0244 	add.w	r2, r4, r4, lsl #1
10005678:	4829      	ldr	r0, [pc, #164]	@ (10005720 <etharp_find_entry+0x124>)
1000567a:	f850 2032 	ldr.w	r2, [r0, r2, lsl #3]
1000567e:	b14a      	cbz	r2, 10005694 <etharp_find_entry+0x98>
10005680:	eb04 0444 	add.w	r4, r4, r4, lsl #1
10005684:	eb00 02c4 	add.w	r2, r0, r4, lsl #3
10005688:	8a52      	ldrh	r2, [r2, #18]
1000568a:	454a      	cmp	r2, r9
1000568c:	d3c8      	bcc.n	10005620 <etharp_find_entry+0x24>
1000568e:	4691      	mov	r9, r2
10005690:	4698      	mov	r8, r3
10005692:	e7c5      	b.n	10005620 <etharp_find_entry+0x24>
10005694:	eb04 0444 	add.w	r4, r4, r4, lsl #1
10005698:	4a21      	ldr	r2, [pc, #132]	@ (10005720 <etharp_find_entry+0x124>)
1000569a:	eb02 02c4 	add.w	r2, r2, r4, lsl #3
1000569e:	8a52      	ldrh	r2, [r2, #18]
100056a0:	455a      	cmp	r2, fp
100056a2:	d3bd      	bcc.n	10005620 <etharp_find_entry+0x24>
100056a4:	4693      	mov	fp, r2
100056a6:	9301      	str	r3, [sp, #4]
100056a8:	e7ba      	b.n	10005620 <etharp_find_entry+0x24>
100056aa:	f011 0f02 	tst.w	r1, #2
100056ae:	d130      	bne.n	10005712 <etharp_find_entry+0x116>
100056b0:	2d0a      	cmp	r5, #10
100056b2:	d00c      	beq.n	100056ce <etharp_find_entry+0xd2>
100056b4:	2d09      	cmp	r5, #9
100056b6:	dd16      	ble.n	100056e6 <etharp_find_entry+0xea>
100056b8:	f1ba 0f09 	cmp.w	sl, #9
100056bc:	dd0d      	ble.n	100056da <etharp_find_entry+0xde>
100056be:	9b01      	ldr	r3, [sp, #4]
100056c0:	2b09      	cmp	r3, #9
100056c2:	dd0c      	ble.n	100056de <etharp_find_entry+0xe2>
100056c4:	f1b8 0f09 	cmp.w	r8, #9
100056c8:	dc26      	bgt.n	10005718 <etharp_find_entry+0x11c>
100056ca:	4645      	mov	r5, r8
100056cc:	e008      	b.n	100056e0 <etharp_find_entry+0xe4>
100056ce:	f011 0f01 	tst.w	r1, #1
100056d2:	d1ef      	bne.n	100056b4 <etharp_find_entry+0xb8>
100056d4:	f04f 35ff 	mov.w	r5, #4294967295
100056d8:	e015      	b.n	10005706 <etharp_find_entry+0x10a>
100056da:	4655      	mov	r5, sl
100056dc:	e000      	b.n	100056e0 <etharp_find_entry+0xe4>
100056de:	9d01      	ldr	r5, [sp, #4]
100056e0:	4628      	mov	r0, r5
100056e2:	f7ff ff71 	bl	100055c8 <etharp_free_entry>
100056e6:	462b      	mov	r3, r5
100056e8:	b137      	cbz	r7, 100056f8 <etharp_find_entry+0xfc>
100056ea:	6838      	ldr	r0, [r7, #0]
100056ec:	eb05 0145 	add.w	r1, r5, r5, lsl #1
100056f0:	4a0b      	ldr	r2, [pc, #44]	@ (10005720 <etharp_find_entry+0x124>)
100056f2:	eb02 02c1 	add.w	r2, r2, r1, lsl #3
100056f6:	6050      	str	r0, [r2, #4]
100056f8:	eb03 0343 	add.w	r3, r3, r3, lsl #1
100056fc:	4a08      	ldr	r2, [pc, #32]	@ (10005720 <etharp_find_entry+0x124>)
100056fe:	eb02 03c3 	add.w	r3, r2, r3, lsl #3
10005702:	2200      	movs	r2, #0
10005704:	825a      	strh	r2, [r3, #18]
10005706:	4628      	mov	r0, r5
10005708:	b003      	add	sp, #12
1000570a:	e8bd 8ff0 	ldmia.w	sp!, {r4, r5, r6, r7, r8, r9, sl, fp, pc}
1000570e:	461d      	mov	r5, r3
10005710:	e7f9      	b.n	10005706 <etharp_find_entry+0x10a>
10005712:	f04f 35ff 	mov.w	r5, #4294967295
10005716:	e7f6      	b.n	10005706 <etharp_find_entry+0x10a>
10005718:	f04f 35ff 	mov.w	r5, #4294967295
1000571c:	e7f3      	b.n	10005706 <etharp_find_entry+0x10a>
1000571e:	bf00      	nop
10005720:	20001204 	.word	0x20001204

10005724 <etharp_update_arp_entry>:
10005724:	2900      	cmp	r1, #0
10005726:	d064      	beq.n	100057f2 <etharp_update_arp_entry+0xce>
10005728:	b5f0      	push	{r4, r5, r6, r7, lr}
1000572a:	b083      	sub	sp, #12
1000572c:	4604      	mov	r4, r0
1000572e:	4615      	mov	r5, r2
10005730:	461e      	mov	r6, r3
10005732:	460f      	mov	r7, r1
10005734:	6808      	ldr	r0, [r1, #0]
10005736:	2800      	cmp	r0, #0
10005738:	d042      	beq.n	100057c0 <etharp_update_arp_entry+0x9c>
1000573a:	4621      	mov	r1, r4
1000573c:	f000 fe3f 	bl	100063be <ip4_addr_isbroadcast_u32>
10005740:	2800      	cmp	r0, #0
10005742:	d13d      	bne.n	100057c0 <etharp_update_arp_entry+0x9c>
10005744:	683b      	ldr	r3, [r7, #0]
10005746:	f003 03f0 	and.w	r3, r3, #240	@ 0xf0
1000574a:	2be0      	cmp	r3, #224	@ 0xe0
1000574c:	d038      	beq.n	100057c0 <etharp_update_arp_entry+0x9c>
1000574e:	4622      	mov	r2, r4
10005750:	4631      	mov	r1, r6
10005752:	4638      	mov	r0, r7
10005754:	f7ff ff52 	bl	100055fc <etharp_find_entry>
10005758:	f1b0 0c00 	subs.w	ip, r0, #0
1000575c:	db33      	blt.n	100057c6 <etharp_update_arp_entry+0xa2>
1000575e:	f016 0f04 	tst.w	r6, #4
10005762:	d033      	beq.n	100057cc <etharp_update_arp_entry+0xa8>
10005764:	eb0c 024c 	add.w	r2, ip, ip, lsl #1
10005768:	4b23      	ldr	r3, [pc, #140]	@ (100057f8 <etharp_update_arp_entry+0xd4>)
1000576a:	eb03 03c2 	add.w	r3, r3, r2, lsl #3
1000576e:	2205      	movs	r2, #5
10005770:	751a      	strb	r2, [r3, #20]
10005772:	4b21      	ldr	r3, [pc, #132]	@ (100057f8 <etharp_update_arp_entry+0xd4>)
10005774:	eb0c 024c 	add.w	r2, ip, ip, lsl #1
10005778:	eb03 00c2 	add.w	r0, r3, r2, lsl #3
1000577c:	6084      	str	r4, [r0, #8]
1000577e:	00d1      	lsls	r1, r2, #3
10005780:	3108      	adds	r1, #8
10005782:	4419      	add	r1, r3
10005784:	682e      	ldr	r6, [r5, #0]
10005786:	604e      	str	r6, [r1, #4]
10005788:	88ae      	ldrh	r6, [r5, #4]
1000578a:	810e      	strh	r6, [r1, #8]
1000578c:	2100      	movs	r1, #0
1000578e:	8241      	strh	r1, [r0, #18]
10005790:	f853 7032 	ldr.w	r7, [r3, r2, lsl #3]
10005794:	b35f      	cbz	r7, 100057ee <etharp_update_arp_entry+0xca>
10005796:	ea4f 0cc2 	mov.w	ip, r2, lsl #3
1000579a:	460e      	mov	r6, r1
1000579c:	f843 100c 	str.w	r1, [r3, ip]
100057a0:	f44f 6300 	mov.w	r3, #2048	@ 0x800
100057a4:	9300      	str	r3, [sp, #0]
100057a6:	462b      	mov	r3, r5
100057a8:	f104 021e 	add.w	r2, r4, #30
100057ac:	4639      	mov	r1, r7
100057ae:	4620      	mov	r0, r4
100057b0:	f001 f9e8 	bl	10006b84 <ethernet_output>
100057b4:	4638      	mov	r0, r7
100057b6:	f7fb ff6a 	bl	1000168e <pbuf_free>
100057ba:	4630      	mov	r0, r6
100057bc:	b003      	add	sp, #12
100057be:	bdf0      	pop	{r4, r5, r6, r7, pc}
100057c0:	f06f 000f 	mvn.w	r0, #15
100057c4:	e7fa      	b.n	100057bc <etharp_update_arp_entry+0x98>
100057c6:	fa4f f08c 	sxtb.w	r0, ip
100057ca:	e7f7      	b.n	100057bc <etharp_update_arp_entry+0x98>
100057cc:	eb0c 024c 	add.w	r2, ip, ip, lsl #1
100057d0:	4b09      	ldr	r3, [pc, #36]	@ (100057f8 <etharp_update_arp_entry+0xd4>)
100057d2:	eb03 03c2 	add.w	r3, r3, r2, lsl #3
100057d6:	7d1b      	ldrb	r3, [r3, #20]
100057d8:	2b05      	cmp	r3, #5
100057da:	d005      	beq.n	100057e8 <etharp_update_arp_entry+0xc4>
100057dc:	4b06      	ldr	r3, [pc, #24]	@ (100057f8 <etharp_update_arp_entry+0xd4>)
100057de:	eb03 03c2 	add.w	r3, r3, r2, lsl #3
100057e2:	2202      	movs	r2, #2
100057e4:	751a      	strb	r2, [r3, #20]
100057e6:	e7c4      	b.n	10005772 <etharp_update_arp_entry+0x4e>
100057e8:	f06f 0005 	mvn.w	r0, #5
100057ec:	e7e6      	b.n	100057bc <etharp_update_arp_entry+0x98>
100057ee:	2000      	movs	r0, #0
100057f0:	e7e4      	b.n	100057bc <etharp_update_arp_entry+0x98>
100057f2:	f06f 000f 	mvn.w	r0, #15
100057f6:	4770      	bx	lr
100057f8:	20001204 	.word	0x20001204

100057fc <etharp_raw>:
100057fc:	e92d 47f0 	stmdb	sp!, {r4, r5, r6, r7, r8, r9, sl, lr}
10005800:	b082      	sub	sp, #8
10005802:	4606      	mov	r6, r0
10005804:	460f      	mov	r7, r1
10005806:	4690      	mov	r8, r2
10005808:	461d      	mov	r5, r3
1000580a:	f8dd a02c 	ldr.w	sl, [sp, #44]	@ 0x2c
1000580e:	f44f 7220 	mov.w	r2, #640	@ 0x280
10005812:	211c      	movs	r1, #28
10005814:	200e      	movs	r0, #14
10005816:	f7fb ff6e 	bl	100016f6 <pbuf_alloc>
1000581a:	b3b8      	cbz	r0, 1000588c <etharp_raw+0x90>
1000581c:	4681      	mov	r9, r0
1000581e:	6844      	ldr	r4, [r0, #4]
10005820:	f8bd 0034 	ldrh.w	r0, [sp, #52]	@ 0x34
10005824:	f7fb f9c8 	bl	10000bb8 <lwip_htons>
10005828:	80e0      	strh	r0, [r4, #6]
1000582a:	682b      	ldr	r3, [r5, #0]
1000582c:	60a3      	str	r3, [r4, #8]
1000582e:	88ab      	ldrh	r3, [r5, #4]
10005830:	81a3      	strh	r3, [r4, #12]
10005832:	f8da 3000 	ldr.w	r3, [sl]
10005836:	f8c4 3012 	str.w	r3, [r4, #18]
1000583a:	f8ba 3004 	ldrh.w	r3, [sl, #4]
1000583e:	82e3      	strh	r3, [r4, #22]
10005840:	9b0a      	ldr	r3, [sp, #40]	@ 0x28
10005842:	681b      	ldr	r3, [r3, #0]
10005844:	f8c4 300e 	str.w	r3, [r4, #14]
10005848:	9b0c      	ldr	r3, [sp, #48]	@ 0x30
1000584a:	681b      	ldr	r3, [r3, #0]
1000584c:	61a3      	str	r3, [r4, #24]
1000584e:	2500      	movs	r5, #0
10005850:	7025      	strb	r5, [r4, #0]
10005852:	2301      	movs	r3, #1
10005854:	7063      	strb	r3, [r4, #1]
10005856:	2308      	movs	r3, #8
10005858:	70a3      	strb	r3, [r4, #2]
1000585a:	70e5      	strb	r5, [r4, #3]
1000585c:	2306      	movs	r3, #6
1000585e:	7123      	strb	r3, [r4, #4]
10005860:	2304      	movs	r3, #4
10005862:	7163      	strb	r3, [r4, #5]
10005864:	f640 0306 	movw	r3, #2054	@ 0x806
10005868:	9300      	str	r3, [sp, #0]
1000586a:	4643      	mov	r3, r8
1000586c:	463a      	mov	r2, r7
1000586e:	4649      	mov	r1, r9
10005870:	4630      	mov	r0, r6
10005872:	f001 f987 	bl	10006b84 <ethernet_output>
10005876:	4a09      	ldr	r2, [pc, #36]	@ (1000589c <etharp_raw+0xa0>)
10005878:	8b13      	ldrh	r3, [r2, #24]
1000587a:	3301      	adds	r3, #1
1000587c:	8313      	strh	r3, [r2, #24]
1000587e:	4648      	mov	r0, r9
10005880:	f7fb ff05 	bl	1000168e <pbuf_free>
10005884:	4628      	mov	r0, r5
10005886:	b002      	add	sp, #8
10005888:	e8bd 87f0 	ldmia.w	sp!, {r4, r5, r6, r7, r8, r9, sl, pc}
1000588c:	4a03      	ldr	r2, [pc, #12]	@ (1000589c <etharp_raw+0xa0>)
1000588e:	8c93      	ldrh	r3, [r2, #36]	@ 0x24
10005890:	3301      	adds	r3, #1
10005892:	8493      	strh	r3, [r2, #36]	@ 0x24
10005894:	f04f 30ff 	mov.w	r0, #4294967295
10005898:	e7f5      	b.n	10005886 <etharp_raw+0x8a>
1000589a:	bf00      	nop
1000589c:	20001db0 	.word	0x20001db0

100058a0 <etharp_request_dst>:
100058a0:	b530      	push	{r4, r5, lr}
100058a2:	b085      	sub	sp, #20
100058a4:	f100 031e 	add.w	r3, r0, #30
100058a8:	2501      	movs	r5, #1
100058aa:	9503      	str	r5, [sp, #12]
100058ac:	9102      	str	r1, [sp, #8]
100058ae:	4904      	ldr	r1, [pc, #16]	@ (100058c0 <etharp_request_dst+0x20>)
100058b0:	9101      	str	r1, [sp, #4]
100058b2:	9000      	str	r0, [sp, #0]
100058b4:	4619      	mov	r1, r3
100058b6:	f7ff ffa1 	bl	100057fc <etharp_raw>
100058ba:	b005      	add	sp, #20
100058bc:	bd30      	pop	{r4, r5, pc}
100058be:	bf00      	nop
100058c0:	1000d920 	.word	0x1000d920

100058c4 <etharp_input>:
100058c4:	2900      	cmp	r1, #0
100058c6:	d06a      	beq.n	1000599e <etharp_input+0xda>
100058c8:	e92d 43f0 	stmdb	sp!, {r4, r5, r6, r7, r8, r9, lr}
100058cc:	b087      	sub	sp, #28
100058ce:	4604      	mov	r4, r0
100058d0:	460e      	mov	r6, r1
100058d2:	6845      	ldr	r5, [r0, #4]
100058d4:	882b      	ldrh	r3, [r5, #0]
100058d6:	f5b3 7f80 	cmp.w	r3, #256	@ 0x100
100058da:	d108      	bne.n	100058ee <etharp_input+0x2a>
100058dc:	792b      	ldrb	r3, [r5, #4]
100058de:	2b06      	cmp	r3, #6
100058e0:	d105      	bne.n	100058ee <etharp_input+0x2a>
100058e2:	796b      	ldrb	r3, [r5, #5]
100058e4:	2b04      	cmp	r3, #4
100058e6:	d102      	bne.n	100058ee <etharp_input+0x2a>
100058e8:	886b      	ldrh	r3, [r5, #2]
100058ea:	2b08      	cmp	r3, #8
100058ec:	d00c      	beq.n	10005908 <etharp_input+0x44>
100058ee:	4b2c      	ldr	r3, [pc, #176]	@ (100059a0 <etharp_input+0xdc>)
100058f0:	8d1a      	ldrh	r2, [r3, #40]	@ 0x28
100058f2:	3201      	adds	r2, #1
100058f4:	851a      	strh	r2, [r3, #40]	@ 0x28
100058f6:	8bda      	ldrh	r2, [r3, #30]
100058f8:	3201      	adds	r2, #1
100058fa:	83da      	strh	r2, [r3, #30]
100058fc:	4620      	mov	r0, r4
100058fe:	f7fb fec6 	bl	1000168e <pbuf_free>
10005902:	b007      	add	sp, #28
10005904:	e8bd 83f0 	ldmia.w	sp!, {r4, r5, r6, r7, r8, r9, pc}
10005908:	4a25      	ldr	r2, [pc, #148]	@ (100059a0 <etharp_input+0xdc>)
1000590a:	8b53      	ldrh	r3, [r2, #26]
1000590c:	3301      	adds	r3, #1
1000590e:	8353      	strh	r3, [r2, #26]
10005910:	f8d5 700e 	ldr.w	r7, [r5, #14]
10005914:	9705      	str	r7, [sp, #20]
10005916:	f8d5 8018 	ldr.w	r8, [r5, #24]
1000591a:	680b      	ldr	r3, [r1, #0]
1000591c:	b9c3      	cbnz	r3, 10005950 <etharp_input+0x8c>
1000591e:	f105 0908 	add.w	r9, r5, #8
10005922:	2700      	movs	r7, #0
10005924:	46b8      	mov	r8, r7
10005926:	2302      	movs	r3, #2
10005928:	464a      	mov	r2, r9
1000592a:	a905      	add	r1, sp, #20
1000592c:	4630      	mov	r0, r6
1000592e:	f7ff fef9 	bl	10005724 <etharp_update_arp_entry>
10005932:	88eb      	ldrh	r3, [r5, #6]
10005934:	f5b3 7f80 	cmp.w	r3, #256	@ 0x100
10005938:	d01d      	beq.n	10005976 <etharp_input+0xb2>
1000593a:	f5b3 7f00 	cmp.w	r3, #512	@ 0x200
1000593e:	d003      	beq.n	10005948 <etharp_input+0x84>
10005940:	4a17      	ldr	r2, [pc, #92]	@ (100059a0 <etharp_input+0xdc>)
10005942:	8d93      	ldrh	r3, [r2, #44]	@ 0x2c
10005944:	3301      	adds	r3, #1
10005946:	8593      	strh	r3, [r2, #44]	@ 0x2c
10005948:	4620      	mov	r0, r4
1000594a:	f7fb fea0 	bl	1000168e <pbuf_free>
1000594e:	e7d8      	b.n	10005902 <etharp_input+0x3e>
10005950:	4543      	cmp	r3, r8
10005952:	bf14      	ite	ne
10005954:	f04f 0800 	movne.w	r8, #0
10005958:	f04f 0801 	moveq.w	r8, #1
1000595c:	42bb      	cmp	r3, r7
1000595e:	bf14      	ite	ne
10005960:	2700      	movne	r7, #0
10005962:	2701      	moveq	r7, #1
10005964:	f105 0908 	add.w	r9, r5, #8
10005968:	f1b8 0f00 	cmp.w	r8, #0
1000596c:	d001      	beq.n	10005972 <etharp_input+0xae>
1000596e:	2301      	movs	r3, #1
10005970:	e7da      	b.n	10005928 <etharp_input+0x64>
10005972:	2302      	movs	r3, #2
10005974:	e7d8      	b.n	10005928 <etharp_input+0x64>
10005976:	f1b8 0f00 	cmp.w	r8, #0
1000597a:	d0e5      	beq.n	10005948 <etharp_input+0x84>
1000597c:	2f00      	cmp	r7, #0
1000597e:	d1e3      	bne.n	10005948 <etharp_input+0x84>
10005980:	f106 011e 	add.w	r1, r6, #30
10005984:	2302      	movs	r3, #2
10005986:	9303      	str	r3, [sp, #12]
10005988:	ab05      	add	r3, sp, #20
1000598a:	9302      	str	r3, [sp, #8]
1000598c:	f8cd 9004 	str.w	r9, [sp, #4]
10005990:	9600      	str	r6, [sp, #0]
10005992:	460b      	mov	r3, r1
10005994:	464a      	mov	r2, r9
10005996:	4630      	mov	r0, r6
10005998:	f7ff ff30 	bl	100057fc <etharp_raw>
1000599c:	e7d4      	b.n	10005948 <etharp_input+0x84>
1000599e:	4770      	bx	lr
100059a0:	20001db0 	.word	0x20001db0

100059a4 <etharp_request>:
100059a4:	b508      	push	{r3, lr}
100059a6:	4a02      	ldr	r2, [pc, #8]	@ (100059b0 <etharp_request+0xc>)
100059a8:	f7ff ff7a 	bl	100058a0 <etharp_request_dst>
100059ac:	bd08      	pop	{r3, pc}
100059ae:	bf00      	nop
100059b0:	1000d928 	.word	0x1000d928

100059b4 <etharp_tmr>:
100059b4:	b510      	push	{r4, lr}
100059b6:	2400      	movs	r4, #0
100059b8:	e005      	b.n	100059c6 <etharp_tmr+0x12>
100059ba:	2a04      	cmp	r2, #4
100059bc:	d91a      	bls.n	100059f4 <etharp_tmr+0x40>
100059be:	4620      	mov	r0, r4
100059c0:	f7ff fe02 	bl	100055c8 <etharp_free_entry>
100059c4:	3401      	adds	r4, #1
100059c6:	2c09      	cmp	r4, #9
100059c8:	dc34      	bgt.n	10005a34 <etharp_tmr+0x80>
100059ca:	eb04 0344 	add.w	r3, r4, r4, lsl #1
100059ce:	00da      	lsls	r2, r3, #3
100059d0:	4b19      	ldr	r3, [pc, #100]	@ (10005a38 <etharp_tmr+0x84>)
100059d2:	4413      	add	r3, r2
100059d4:	7d1b      	ldrb	r3, [r3, #20]
100059d6:	2b00      	cmp	r3, #0
100059d8:	d0f4      	beq.n	100059c4 <etharp_tmr+0x10>
100059da:	2b05      	cmp	r3, #5
100059dc:	d0f2      	beq.n	100059c4 <etharp_tmr+0x10>
100059de:	4916      	ldr	r1, [pc, #88]	@ (10005a38 <etharp_tmr+0x84>)
100059e0:	4411      	add	r1, r2
100059e2:	8a4a      	ldrh	r2, [r1, #18]
100059e4:	3201      	adds	r2, #1
100059e6:	b292      	uxth	r2, r2
100059e8:	824a      	strh	r2, [r1, #18]
100059ea:	f5b2 7f96 	cmp.w	r2, #300	@ 0x12c
100059ee:	d2e6      	bcs.n	100059be <etharp_tmr+0xa>
100059f0:	2b01      	cmp	r3, #1
100059f2:	d0e2      	beq.n	100059ba <etharp_tmr+0x6>
100059f4:	2b03      	cmp	r3, #3
100059f6:	d00d      	beq.n	10005a14 <etharp_tmr+0x60>
100059f8:	2b04      	cmp	r3, #4
100059fa:	d013      	beq.n	10005a24 <etharp_tmr+0x70>
100059fc:	2b01      	cmp	r3, #1
100059fe:	d1e1      	bne.n	100059c4 <etharp_tmr+0x10>
10005a00:	eb04 0244 	add.w	r2, r4, r4, lsl #1
10005a04:	00d3      	lsls	r3, r2, #3
10005a06:	4a0c      	ldr	r2, [pc, #48]	@ (10005a38 <etharp_tmr+0x84>)
10005a08:	4413      	add	r3, r2
10005a0a:	1d19      	adds	r1, r3, #4
10005a0c:	6898      	ldr	r0, [r3, #8]
10005a0e:	f7ff ffc9 	bl	100059a4 <etharp_request>
10005a12:	e7d7      	b.n	100059c4 <etharp_tmr+0x10>
10005a14:	eb04 0344 	add.w	r3, r4, r4, lsl #1
10005a18:	00da      	lsls	r2, r3, #3
10005a1a:	4b07      	ldr	r3, [pc, #28]	@ (10005a38 <etharp_tmr+0x84>)
10005a1c:	4413      	add	r3, r2
10005a1e:	2204      	movs	r2, #4
10005a20:	751a      	strb	r2, [r3, #20]
10005a22:	e7cf      	b.n	100059c4 <etharp_tmr+0x10>
10005a24:	eb04 0344 	add.w	r3, r4, r4, lsl #1
10005a28:	00da      	lsls	r2, r3, #3
10005a2a:	4b03      	ldr	r3, [pc, #12]	@ (10005a38 <etharp_tmr+0x84>)
10005a2c:	4413      	add	r3, r2
10005a2e:	2202      	movs	r2, #2
10005a30:	751a      	strb	r2, [r3, #20]
10005a32:	e7c7      	b.n	100059c4 <etharp_tmr+0x10>
10005a34:	bd10      	pop	{r4, pc}
10005a36:	bf00      	nop
10005a38:	20001204 	.word	0x20001204

10005a3c <etharp_output_to_arp_index>:
10005a3c:	b570      	push	{r4, r5, r6, lr}
10005a3e:	b082      	sub	sp, #8
10005a40:	4605      	mov	r5, r0
10005a42:	460e      	mov	r6, r1
10005a44:	4614      	mov	r4, r2
10005a46:	eb02 0242 	add.w	r2, r2, r2, lsl #1
10005a4a:	4b25      	ldr	r3, [pc, #148]	@ (10005ae0 <etharp_output_to_arp_index+0xa4>)
10005a4c:	eb03 03c2 	add.w	r3, r3, r2, lsl #3
10005a50:	7d1b      	ldrb	r3, [r3, #20]
10005a52:	2b02      	cmp	r3, #2
10005a54:	d011      	beq.n	10005a7a <etharp_output_to_arp_index+0x3e>
10005a56:	eb04 0344 	add.w	r3, r4, r4, lsl #1
10005a5a:	00db      	lsls	r3, r3, #3
10005a5c:	3308      	adds	r3, #8
10005a5e:	4a20      	ldr	r2, [pc, #128]	@ (10005ae0 <etharp_output_to_arp_index+0xa4>)
10005a60:	4413      	add	r3, r2
10005a62:	f44f 6200 	mov.w	r2, #2048	@ 0x800
10005a66:	9200      	str	r2, [sp, #0]
10005a68:	3304      	adds	r3, #4
10005a6a:	f105 021e 	add.w	r2, r5, #30
10005a6e:	4631      	mov	r1, r6
10005a70:	4628      	mov	r0, r5
10005a72:	f001 f887 	bl	10006b84 <ethernet_output>
10005a76:	b002      	add	sp, #8
10005a78:	bd70      	pop	{r4, r5, r6, pc}
10005a7a:	4b19      	ldr	r3, [pc, #100]	@ (10005ae0 <etharp_output_to_arp_index+0xa4>)
10005a7c:	eb03 03c2 	add.w	r3, r3, r2, lsl #3
10005a80:	8a5b      	ldrh	r3, [r3, #18]
10005a82:	f5b3 7f8e 	cmp.w	r3, #284	@ 0x11c
10005a86:	d81a      	bhi.n	10005abe <etharp_output_to_arp_index+0x82>
10005a88:	f5b3 7f87 	cmp.w	r3, #270	@ 0x10e
10005a8c:	d3e3      	bcc.n	10005a56 <etharp_output_to_arp_index+0x1a>
10005a8e:	eb04 0144 	add.w	r1, r4, r4, lsl #1
10005a92:	4b13      	ldr	r3, [pc, #76]	@ (10005ae0 <etharp_output_to_arp_index+0xa4>)
10005a94:	eb03 01c1 	add.w	r1, r3, r1, lsl #3
10005a98:	eb04 0244 	add.w	r2, r4, r4, lsl #1
10005a9c:	00d2      	lsls	r2, r2, #3
10005a9e:	3208      	adds	r2, #8
10005aa0:	441a      	add	r2, r3
10005aa2:	3204      	adds	r2, #4
10005aa4:	3104      	adds	r1, #4
10005aa6:	f7ff fefb 	bl	100058a0 <etharp_request_dst>
10005aaa:	2800      	cmp	r0, #0
10005aac:	d1d3      	bne.n	10005a56 <etharp_output_to_arp_index+0x1a>
10005aae:	eb04 0244 	add.w	r2, r4, r4, lsl #1
10005ab2:	4b0b      	ldr	r3, [pc, #44]	@ (10005ae0 <etharp_output_to_arp_index+0xa4>)
10005ab4:	eb03 03c2 	add.w	r3, r3, r2, lsl #3
10005ab8:	2203      	movs	r2, #3
10005aba:	751a      	strb	r2, [r3, #20]
10005abc:	e7cb      	b.n	10005a56 <etharp_output_to_arp_index+0x1a>
10005abe:	4908      	ldr	r1, [pc, #32]	@ (10005ae0 <etharp_output_to_arp_index+0xa4>)
10005ac0:	eb01 01c2 	add.w	r1, r1, r2, lsl #3
10005ac4:	3104      	adds	r1, #4
10005ac6:	f7ff ff6d 	bl	100059a4 <etharp_request>
10005aca:	2800      	cmp	r0, #0
10005acc:	d1c3      	bne.n	10005a56 <etharp_output_to_arp_index+0x1a>
10005ace:	eb04 0244 	add.w	r2, r4, r4, lsl #1
10005ad2:	4b03      	ldr	r3, [pc, #12]	@ (10005ae0 <etharp_output_to_arp_index+0xa4>)
10005ad4:	eb03 03c2 	add.w	r3, r3, r2, lsl #3
10005ad8:	2203      	movs	r2, #3
10005ada:	751a      	strb	r2, [r3, #20]
10005adc:	e7bb      	b.n	10005a56 <etharp_output_to_arp_index+0x1a>
10005ade:	bf00      	nop
10005ae0:	20001204 	.word	0x20001204

10005ae4 <etharp_query>:
10005ae4:	e92d 43f0 	stmdb	sp!, {r4, r5, r6, r7, r8, r9, lr}
10005ae8:	b083      	sub	sp, #12
10005aea:	4605      	mov	r5, r0
10005aec:	460e      	mov	r6, r1
10005aee:	4617      	mov	r7, r2
10005af0:	f100 081e 	add.w	r8, r0, #30
10005af4:	4601      	mov	r1, r0
10005af6:	6830      	ldr	r0, [r6, #0]
10005af8:	f000 fc61 	bl	100063be <ip4_addr_isbroadcast_u32>
10005afc:	2800      	cmp	r0, #0
10005afe:	f040 808d 	bne.w	10005c1c <etharp_query+0x138>
10005b02:	6833      	ldr	r3, [r6, #0]
10005b04:	f003 02f0 	and.w	r2, r3, #240	@ 0xf0
10005b08:	2ae0      	cmp	r2, #224	@ 0xe0
10005b0a:	f000 808a 	beq.w	10005c22 <etharp_query+0x13e>
10005b0e:	2b00      	cmp	r3, #0
10005b10:	f000 808a 	beq.w	10005c28 <etharp_query+0x144>
10005b14:	462a      	mov	r2, r5
10005b16:	2101      	movs	r1, #1
10005b18:	4630      	mov	r0, r6
10005b1a:	f7ff fd6f 	bl	100055fc <etharp_find_entry>
10005b1e:	1e03      	subs	r3, r0, #0
10005b20:	db2f      	blt.n	10005b82 <etharp_query+0x9e>
10005b22:	b2dc      	uxtb	r4, r3
10005b24:	eb04 0244 	add.w	r2, r4, r4, lsl #1
10005b28:	4b41      	ldr	r3, [pc, #260]	@ (10005c30 <etharp_query+0x14c>)
10005b2a:	eb03 03c2 	add.w	r3, r3, r2, lsl #3
10005b2e:	7d1b      	ldrb	r3, [r3, #20]
10005b30:	bb73      	cbnz	r3, 10005b90 <etharp_query+0xac>
10005b32:	4b3f      	ldr	r3, [pc, #252]	@ (10005c30 <etharp_query+0x14c>)
10005b34:	eb03 03c2 	add.w	r3, r3, r2, lsl #3
10005b38:	2201      	movs	r2, #1
10005b3a:	751a      	strb	r2, [r3, #20]
10005b3c:	609d      	str	r5, [r3, #8]
10005b3e:	4691      	mov	r9, r2
10005b40:	4631      	mov	r1, r6
10005b42:	4628      	mov	r0, r5
10005b44:	f7ff ff2e 	bl	100059a4 <etharp_request>
10005b48:	b938      	cbnz	r0, 10005b5a <etharp_query+0x76>
10005b4a:	eb04 0244 	add.w	r2, r4, r4, lsl #1
10005b4e:	4b38      	ldr	r3, [pc, #224]	@ (10005c30 <etharp_query+0x14c>)
10005b50:	eb03 03c2 	add.w	r3, r3, r2, lsl #3
10005b54:	7d1b      	ldrb	r3, [r3, #20]
10005b56:	2b01      	cmp	r3, #1
10005b58:	d021      	beq.n	10005b9e <etharp_query+0xba>
10005b5a:	2f00      	cmp	r7, #0
10005b5c:	d037      	beq.n	10005bce <etharp_query+0xea>
10005b5e:	eb04 0244 	add.w	r2, r4, r4, lsl #1
10005b62:	4b33      	ldr	r3, [pc, #204]	@ (10005c30 <etharp_query+0x14c>)
10005b64:	eb03 03c2 	add.w	r3, r3, r2, lsl #3
10005b68:	7d1b      	ldrb	r3, [r3, #20]
10005b6a:	2b01      	cmp	r3, #1
10005b6c:	d820      	bhi.n	10005bb0 <etharp_query+0xcc>
10005b6e:	2b01      	cmp	r3, #1
10005b70:	d12d      	bne.n	10005bce <etharp_query+0xea>
10005b72:	463b      	mov	r3, r7
10005b74:	b37b      	cbz	r3, 10005bd6 <etharp_query+0xf2>
10005b76:	7b1a      	ldrb	r2, [r3, #12]
10005b78:	f012 0f40 	tst.w	r2, #64	@ 0x40
10005b7c:	d12a      	bne.n	10005bd4 <etharp_query+0xf0>
10005b7e:	681b      	ldr	r3, [r3, #0]
10005b80:	e7f8      	b.n	10005b74 <etharp_query+0x90>
10005b82:	b11f      	cbz	r7, 10005b8c <etharp_query+0xa8>
10005b84:	492b      	ldr	r1, [pc, #172]	@ (10005c34 <etharp_query+0x150>)
10005b86:	8c8a      	ldrh	r2, [r1, #36]	@ 0x24
10005b88:	3201      	adds	r2, #1
10005b8a:	848a      	strh	r2, [r1, #36]	@ 0x24
10005b8c:	b258      	sxtb	r0, r3
10005b8e:	e01e      	b.n	10005bce <etharp_query+0xea>
10005b90:	b117      	cbz	r7, 10005b98 <etharp_query+0xb4>
10005b92:	f04f 30ff 	mov.w	r0, #4294967295
10005b96:	e7e2      	b.n	10005b5e <etharp_query+0x7a>
10005b98:	f04f 0900 	mov.w	r9, #0
10005b9c:	e7d0      	b.n	10005b40 <etharp_query+0x5c>
10005b9e:	f1b9 0f00 	cmp.w	r9, #0
10005ba2:	d1da      	bne.n	10005b5a <etharp_query+0x76>
10005ba4:	4b22      	ldr	r3, [pc, #136]	@ (10005c30 <etharp_query+0x14c>)
10005ba6:	eb03 03c2 	add.w	r3, r3, r2, lsl #3
10005baa:	2200      	movs	r2, #0
10005bac:	825a      	strh	r2, [r3, #18]
10005bae:	e7d4      	b.n	10005b5a <etharp_query+0x76>
10005bb0:	4b21      	ldr	r3, [pc, #132]	@ (10005c38 <etharp_query+0x154>)
10005bb2:	701c      	strb	r4, [r3, #0]
10005bb4:	00d3      	lsls	r3, r2, #3
10005bb6:	3308      	adds	r3, #8
10005bb8:	4a1d      	ldr	r2, [pc, #116]	@ (10005c30 <etharp_query+0x14c>)
10005bba:	4413      	add	r3, r2
10005bbc:	f44f 6200 	mov.w	r2, #2048	@ 0x800
10005bc0:	9200      	str	r2, [sp, #0]
10005bc2:	3304      	adds	r3, #4
10005bc4:	4642      	mov	r2, r8
10005bc6:	4639      	mov	r1, r7
10005bc8:	4628      	mov	r0, r5
10005bca:	f000 ffdb 	bl	10006b84 <ethernet_output>
10005bce:	b003      	add	sp, #12
10005bd0:	e8bd 83f0 	ldmia.w	sp!, {r4, r5, r6, r7, r8, r9, pc}
10005bd4:	2301      	movs	r3, #1
10005bd6:	b1b3      	cbz	r3, 10005c06 <etharp_query+0x122>
10005bd8:	463a      	mov	r2, r7
10005bda:	f44f 7120 	mov.w	r1, #640	@ 0x280
10005bde:	200e      	movs	r0, #14
10005be0:	f7fb ff1c 	bl	10001a1c <pbuf_clone>
10005be4:	4607      	mov	r7, r0
10005be6:	b197      	cbz	r7, 10005c0e <etharp_query+0x12a>
10005be8:	eb04 0344 	add.w	r3, r4, r4, lsl #1
10005bec:	4a10      	ldr	r2, [pc, #64]	@ (10005c30 <etharp_query+0x14c>)
10005bee:	f852 0033 	ldr.w	r0, [r2, r3, lsl #3]
10005bf2:	b108      	cbz	r0, 10005bf8 <etharp_query+0x114>
10005bf4:	f7fb fd4b 	bl	1000168e <pbuf_free>
10005bf8:	eb04 0444 	add.w	r4, r4, r4, lsl #1
10005bfc:	4b0c      	ldr	r3, [pc, #48]	@ (10005c30 <etharp_query+0x14c>)
10005bfe:	f843 7034 	str.w	r7, [r3, r4, lsl #3]
10005c02:	2000      	movs	r0, #0
10005c04:	e7e3      	b.n	10005bce <etharp_query+0xea>
10005c06:	4638      	mov	r0, r7
10005c08:	f7fb fe30 	bl	1000186c <pbuf_ref>
10005c0c:	e7eb      	b.n	10005be6 <etharp_query+0x102>
10005c0e:	4a09      	ldr	r2, [pc, #36]	@ (10005c34 <etharp_query+0x150>)
10005c10:	8c93      	ldrh	r3, [r2, #36]	@ 0x24
10005c12:	3301      	adds	r3, #1
10005c14:	8493      	strh	r3, [r2, #36]	@ 0x24
10005c16:	f04f 30ff 	mov.w	r0, #4294967295
10005c1a:	e7d8      	b.n	10005bce <etharp_query+0xea>
10005c1c:	f06f 000f 	mvn.w	r0, #15
10005c20:	e7d5      	b.n	10005bce <etharp_query+0xea>
10005c22:	f06f 000f 	mvn.w	r0, #15
10005c26:	e7d2      	b.n	10005bce <etharp_query+0xea>
10005c28:	f06f 000f 	mvn.w	r0, #15
10005c2c:	e7cf      	b.n	10005bce <etharp_query+0xea>
10005c2e:	bf00      	nop
10005c30:	20001204 	.word	0x20001204
10005c34:	20001db0 	.word	0x20001db0
10005c38:	20005f5d 	.word	0x20005f5d

10005c3c <etharp_output>:
10005c3c:	b5f0      	push	{r4, r5, r6, r7, lr}
10005c3e:	b085      	sub	sp, #20
10005c40:	4606      	mov	r6, r0
10005c42:	460f      	mov	r7, r1
10005c44:	4615      	mov	r5, r2
10005c46:	4601      	mov	r1, r0
10005c48:	6810      	ldr	r0, [r2, #0]
10005c4a:	f000 fbb8 	bl	100063be <ip4_addr_isbroadcast_u32>
10005c4e:	2800      	cmp	r0, #0
10005c50:	d166      	bne.n	10005d20 <etharp_output+0xe4>
10005c52:	4603      	mov	r3, r0
10005c54:	682a      	ldr	r2, [r5, #0]
10005c56:	f002 01f0 	and.w	r1, r2, #240	@ 0xf0
10005c5a:	29e0      	cmp	r1, #224	@ 0xe0
10005c5c:	d02a      	beq.n	10005cb4 <etharp_output+0x78>
10005c5e:	6831      	ldr	r1, [r6, #0]
10005c60:	6870      	ldr	r0, [r6, #4]
10005c62:	4051      	eors	r1, r2
10005c64:	4201      	tst	r1, r0
10005c66:	d009      	beq.n	10005c7c <etharp_output+0x40>
10005c68:	b292      	uxth	r2, r2
10005c6a:	f64f 61a9 	movw	r1, #65193	@ 0xfea9
10005c6e:	428a      	cmp	r2, r1
10005c70:	d004      	beq.n	10005c7c <etharp_output+0x40>
10005c72:	68b2      	ldr	r2, [r6, #8]
10005c74:	2a00      	cmp	r2, #0
10005c76:	d05f      	beq.n	10005d38 <etharp_output+0xfc>
10005c78:	f106 0508 	add.w	r5, r6, #8
10005c7c:	4a30      	ldr	r2, [pc, #192]	@ (10005d40 <etharp_output+0x104>)
10005c7e:	7812      	ldrb	r2, [r2, #0]
10005c80:	eb02 0042 	add.w	r0, r2, r2, lsl #1
10005c84:	492f      	ldr	r1, [pc, #188]	@ (10005d44 <etharp_output+0x108>)
10005c86:	eb01 01c0 	add.w	r1, r1, r0, lsl #3
10005c8a:	7d09      	ldrb	r1, [r1, #20]
10005c8c:	2901      	cmp	r1, #1
10005c8e:	d929      	bls.n	10005ce4 <etharp_output+0xa8>
10005c90:	6828      	ldr	r0, [r5, #0]
10005c92:	eb02 0442 	add.w	r4, r2, r2, lsl #1
10005c96:	492b      	ldr	r1, [pc, #172]	@ (10005d44 <etharp_output+0x108>)
10005c98:	eb01 01c4 	add.w	r1, r1, r4, lsl #3
10005c9c:	6849      	ldr	r1, [r1, #4]
10005c9e:	4288      	cmp	r0, r1
10005ca0:	d120      	bne.n	10005ce4 <etharp_output+0xa8>
10005ca2:	4929      	ldr	r1, [pc, #164]	@ (10005d48 <etharp_output+0x10c>)
10005ca4:	8dcb      	ldrh	r3, [r1, #46]	@ 0x2e
10005ca6:	3301      	adds	r3, #1
10005ca8:	85cb      	strh	r3, [r1, #46]	@ 0x2e
10005caa:	4639      	mov	r1, r7
10005cac:	4630      	mov	r0, r6
10005cae:	f7ff fec5 	bl	10005a3c <etharp_output_to_arp_index>
10005cb2:	e03f      	b.n	10005d34 <etharp_output+0xf8>
10005cb4:	2301      	movs	r3, #1
10005cb6:	f88d 3008 	strb.w	r3, [sp, #8]
10005cba:	2300      	movs	r3, #0
10005cbc:	f88d 3009 	strb.w	r3, [sp, #9]
10005cc0:	235e      	movs	r3, #94	@ 0x5e
10005cc2:	f88d 300a 	strb.w	r3, [sp, #10]
10005cc6:	786b      	ldrb	r3, [r5, #1]
10005cc8:	f003 037f 	and.w	r3, r3, #127	@ 0x7f
10005ccc:	f88d 300b 	strb.w	r3, [sp, #11]
10005cd0:	78ab      	ldrb	r3, [r5, #2]
10005cd2:	f88d 300c 	strb.w	r3, [sp, #12]
10005cd6:	78eb      	ldrb	r3, [r5, #3]
10005cd8:	f88d 300d 	strb.w	r3, [sp, #13]
10005cdc:	ab02      	add	r3, sp, #8
10005cde:	e020      	b.n	10005d22 <etharp_output+0xe6>
10005ce0:	3301      	adds	r3, #1
10005ce2:	b2db      	uxtb	r3, r3
10005ce4:	2b09      	cmp	r3, #9
10005ce6:	d815      	bhi.n	10005d14 <etharp_output+0xd8>
10005ce8:	eb03 0c43 	add.w	ip, r3, r3, lsl #1
10005cec:	4c15      	ldr	r4, [pc, #84]	@ (10005d44 <etharp_output+0x108>)
10005cee:	eb04 0ccc 	add.w	ip, r4, ip, lsl #3
10005cf2:	f89c 2014 	ldrb.w	r2, [ip, #20]
10005cf6:	2a01      	cmp	r2, #1
10005cf8:	d9f2      	bls.n	10005ce0 <etharp_output+0xa4>
10005cfa:	6828      	ldr	r0, [r5, #0]
10005cfc:	f8dc 2004 	ldr.w	r2, [ip, #4]
10005d00:	4290      	cmp	r0, r2
10005d02:	d1ed      	bne.n	10005ce0 <etharp_output+0xa4>
10005d04:	4a0e      	ldr	r2, [pc, #56]	@ (10005d40 <etharp_output+0x104>)
10005d06:	7013      	strb	r3, [r2, #0]
10005d08:	461a      	mov	r2, r3
10005d0a:	4639      	mov	r1, r7
10005d0c:	4630      	mov	r0, r6
10005d0e:	f7ff fe95 	bl	10005a3c <etharp_output_to_arp_index>
10005d12:	e00f      	b.n	10005d34 <etharp_output+0xf8>
10005d14:	463a      	mov	r2, r7
10005d16:	4629      	mov	r1, r5
10005d18:	4630      	mov	r0, r6
10005d1a:	f7ff fee3 	bl	10005ae4 <etharp_query>
10005d1e:	e009      	b.n	10005d34 <etharp_output+0xf8>
10005d20:	4b0a      	ldr	r3, [pc, #40]	@ (10005d4c <etharp_output+0x110>)
10005d22:	f44f 6200 	mov.w	r2, #2048	@ 0x800
10005d26:	9200      	str	r2, [sp, #0]
10005d28:	f106 021e 	add.w	r2, r6, #30
10005d2c:	4639      	mov	r1, r7
10005d2e:	4630      	mov	r0, r6
10005d30:	f000 ff28 	bl	10006b84 <ethernet_output>
10005d34:	b005      	add	sp, #20
10005d36:	bdf0      	pop	{r4, r5, r6, r7, pc}
10005d38:	f06f 0003 	mvn.w	r0, #3
10005d3c:	e7fa      	b.n	10005d34 <etharp_output+0xf8>
10005d3e:	bf00      	nop
10005d40:	20005f5d 	.word	0x20005f5d
10005d44:	20001204 	.word	0x20001204
10005d48:	20001db0 	.word	0x20001db0
10005d4c:	1000d928 	.word	0x1000d928

10005d50 <icmp_send_response>:
10005d50:	e92d 47f0 	stmdb	sp!, {r4, r5, r6, r7, r8, r9, sl, lr}
10005d54:	b086      	sub	sp, #24
10005d56:	4605      	mov	r5, r0
10005d58:	4689      	mov	r9, r1
10005d5a:	4690      	mov	r8, r2
10005d5c:	8906      	ldrh	r6, [r0, #8]
10005d5e:	2e1b      	cmp	r6, #27
10005d60:	d900      	bls.n	10005d64 <icmp_send_response+0x14>
10005d62:	261c      	movs	r6, #28
10005d64:	f106 0308 	add.w	r3, r6, #8
10005d68:	f44f 7220 	mov.w	r2, #640	@ 0x280
10005d6c:	b299      	uxth	r1, r3
10005d6e:	2022      	movs	r0, #34	@ 0x22
10005d70:	f7fb fcc1 	bl	100016f6 <pbuf_alloc>
10005d74:	4607      	mov	r7, r0
10005d76:	b398      	cbz	r0, 10005de0 <icmp_send_response+0x90>
10005d78:	f8d5 a004 	ldr.w	sl, [r5, #4]
10005d7c:	6844      	ldr	r4, [r0, #4]
10005d7e:	f884 9000 	strb.w	r9, [r4]
10005d82:	f884 8001 	strb.w	r8, [r4, #1]
10005d86:	2300      	movs	r3, #0
10005d88:	7123      	strb	r3, [r4, #4]
10005d8a:	7163      	strb	r3, [r4, #5]
10005d8c:	71a3      	strb	r3, [r4, #6]
10005d8e:	71e3      	strb	r3, [r4, #7]
10005d90:	2308      	movs	r3, #8
10005d92:	4632      	mov	r2, r6
10005d94:	4629      	mov	r1, r5
10005d96:	f7fb fd90 	bl	100018ba <pbuf_copy_partial_pbuf>
10005d9a:	f8da 300c 	ldr.w	r3, [sl, #12]
10005d9e:	9305      	str	r3, [sp, #20]
10005da0:	a805      	add	r0, sp, #20
10005da2:	f000 f933 	bl	1000600c <ip4_route>
10005da6:	4606      	mov	r6, r0
10005da8:	b1b8      	cbz	r0, 10005dda <icmp_send_response+0x8a>
10005daa:	2500      	movs	r5, #0
10005dac:	70a5      	strb	r5, [r4, #2]
10005dae:	70e5      	strb	r5, [r4, #3]
10005db0:	8979      	ldrh	r1, [r7, #10]
10005db2:	4620      	mov	r0, r4
10005db4:	f7fa ffbc 	bl	10000d30 <inet_chksum>
10005db8:	8060      	strh	r0, [r4, #2]
10005dba:	4a0b      	ldr	r2, [pc, #44]	@ (10005de8 <icmp_send_response+0x98>)
10005dbc:	f8b2 3060 	ldrh.w	r3, [r2, #96]	@ 0x60
10005dc0:	3301      	adds	r3, #1
10005dc2:	f8a2 3060 	strh.w	r3, [r2, #96]	@ 0x60
10005dc6:	9602      	str	r6, [sp, #8]
10005dc8:	2301      	movs	r3, #1
10005dca:	9301      	str	r3, [sp, #4]
10005dcc:	9500      	str	r5, [sp, #0]
10005dce:	23ff      	movs	r3, #255	@ 0xff
10005dd0:	aa05      	add	r2, sp, #20
10005dd2:	4629      	mov	r1, r5
10005dd4:	4638      	mov	r0, r7
10005dd6:	f000 fadd 	bl	10006394 <ip4_output_if>
10005dda:	4638      	mov	r0, r7
10005ddc:	f7fb fc57 	bl	1000168e <pbuf_free>
10005de0:	b006      	add	sp, #24
10005de2:	e8bd 87f0 	ldmia.w	sp!, {r4, r5, r6, r7, r8, r9, sl, pc}
10005de6:	bf00      	nop
10005de8:	20001db0 	.word	0x20001db0

10005dec <icmp_input>:
10005dec:	e92d 47f0 	stmdb	sp!, {r4, r5, r6, r7, r8, r9, sl, lr}
10005df0:	b084      	sub	sp, #16
10005df2:	4605      	mov	r5, r0
10005df4:	4a6f      	ldr	r2, [pc, #444]	@ (10005fb4 <icmp_input+0x1c8>)
10005df6:	f8b2 3062 	ldrh.w	r3, [r2, #98]	@ 0x62
10005dfa:	3301      	adds	r3, #1
10005dfc:	f8a2 3062 	strh.w	r3, [r2, #98]	@ 0x62
10005e00:	4b6d      	ldr	r3, [pc, #436]	@ (10005fb8 <icmp_input+0x1cc>)
10005e02:	689f      	ldr	r7, [r3, #8]
10005e04:	783c      	ldrb	r4, [r7, #0]
10005e06:	f004 040f 	and.w	r4, r4, #15
10005e0a:	00a4      	lsls	r4, r4, #2
10005e0c:	2c13      	cmp	r4, #19
10005e0e:	d91c      	bls.n	10005e4a <icmp_input+0x5e>
10005e10:	460e      	mov	r6, r1
10005e12:	8943      	ldrh	r3, [r0, #10]
10005e14:	2b03      	cmp	r3, #3
10005e16:	d918      	bls.n	10005e4a <icmp_input+0x5e>
10005e18:	6843      	ldr	r3, [r0, #4]
10005e1a:	781b      	ldrb	r3, [r3, #0]
10005e1c:	2b00      	cmp	r3, #0
10005e1e:	f000 80c4 	beq.w	10005faa <icmp_input+0x1be>
10005e22:	2b08      	cmp	r3, #8
10005e24:	f040 80b6 	bne.w	10005f94 <icmp_input+0x1a8>
10005e28:	4b63      	ldr	r3, [pc, #396]	@ (10005fb8 <icmp_input+0x1cc>)
10005e2a:	6958      	ldr	r0, [r3, #20]
10005e2c:	f000 03f0 	and.w	r3, r0, #240	@ 0xf0
10005e30:	2be0      	cmp	r3, #224	@ 0xe0
10005e32:	d016      	beq.n	10005e62 <icmp_input+0x76>
10005e34:	f8df 8184 	ldr.w	r8, [pc, #388]	@ 10005fbc <icmp_input+0x1d0>
10005e38:	4b5f      	ldr	r3, [pc, #380]	@ (10005fb8 <icmp_input+0x1cc>)
10005e3a:	6819      	ldr	r1, [r3, #0]
10005e3c:	f000 fabf 	bl	100063be <ip4_addr_isbroadcast_u32>
10005e40:	b100      	cbz	r0, 10005e44 <icmp_input+0x58>
10005e42:	46b0      	mov	r8, r6
10005e44:	892b      	ldrh	r3, [r5, #8]
10005e46:	2b07      	cmp	r3, #7
10005e48:	d80d      	bhi.n	10005e66 <icmp_input+0x7a>
10005e4a:	4628      	mov	r0, r5
10005e4c:	f7fb fc1f 	bl	1000168e <pbuf_free>
10005e50:	4a58      	ldr	r2, [pc, #352]	@ (10005fb4 <icmp_input+0x1c8>)
10005e52:	f8b2 306a 	ldrh.w	r3, [r2, #106]	@ 0x6a
10005e56:	3301      	adds	r3, #1
10005e58:	f8a2 306a 	strh.w	r3, [r2, #106]	@ 0x6a
10005e5c:	b004      	add	sp, #16
10005e5e:	e8bd 87f0 	ldmia.w	sp!, {r4, r5, r6, r7, r8, r9, sl, pc}
10005e62:	4688      	mov	r8, r1
10005e64:	e7e8      	b.n	10005e38 <icmp_input+0x4c>
10005e66:	4628      	mov	r0, r5
10005e68:	f7fa ff68 	bl	10000d3c <inet_chksum_pbuf>
10005e6c:	b9b0      	cbnz	r0, 10005e9c <icmp_input+0xb0>
10005e6e:	f104 090e 	add.w	r9, r4, #14
10005e72:	4649      	mov	r1, r9
10005e74:	4628      	mov	r0, r5
10005e76:	f7fb fbd7 	bl	10001628 <pbuf_add_header>
10005e7a:	2800      	cmp	r0, #0
10005e7c:	d044      	beq.n	10005f08 <icmp_input+0x11c>
10005e7e:	892b      	ldrh	r3, [r5, #8]
10005e80:	1919      	adds	r1, r3, r4
10005e82:	b289      	uxth	r1, r1
10005e84:	428b      	cmp	r3, r1
10005e86:	d913      	bls.n	10005eb0 <icmp_input+0xc4>
10005e88:	4628      	mov	r0, r5
10005e8a:	f7fb fc00 	bl	1000168e <pbuf_free>
10005e8e:	4a49      	ldr	r2, [pc, #292]	@ (10005fb4 <icmp_input+0x1c8>)
10005e90:	f8b2 3074 	ldrh.w	r3, [r2, #116]	@ 0x74
10005e94:	3301      	adds	r3, #1
10005e96:	f8a2 3074 	strh.w	r3, [r2, #116]	@ 0x74
10005e9a:	e7df      	b.n	10005e5c <icmp_input+0x70>
10005e9c:	4628      	mov	r0, r5
10005e9e:	f7fb fbf6 	bl	1000168e <pbuf_free>
10005ea2:	4a44      	ldr	r2, [pc, #272]	@ (10005fb4 <icmp_input+0x1c8>)
10005ea4:	f8b2 3068 	ldrh.w	r3, [r2, #104]	@ 0x68
10005ea8:	3301      	adds	r3, #1
10005eaa:	f8a2 3068 	strh.w	r3, [r2, #104]	@ 0x68
10005eae:	e7d5      	b.n	10005e5c <icmp_input+0x70>
10005eb0:	f44f 7220 	mov.w	r2, #640	@ 0x280
10005eb4:	200e      	movs	r0, #14
10005eb6:	f7fb fc1e 	bl	100016f6 <pbuf_alloc>
10005eba:	4681      	mov	r9, r0
10005ebc:	2800      	cmp	r0, #0
10005ebe:	d0e3      	beq.n	10005e88 <icmp_input+0x9c>
10005ec0:	8942      	ldrh	r2, [r0, #10]
10005ec2:	f104 0308 	add.w	r3, r4, #8
10005ec6:	429a      	cmp	r2, r3
10005ec8:	d313      	bcc.n	10005ef2 <icmp_input+0x106>
10005eca:	4622      	mov	r2, r4
10005ecc:	4639      	mov	r1, r7
10005ece:	6840      	ldr	r0, [r0, #4]
10005ed0:	f006 feea 	bl	1000cca8 <memcpy>
10005ed4:	4621      	mov	r1, r4
10005ed6:	4648      	mov	r0, r9
10005ed8:	f7fb fbab 	bl	10001632 <pbuf_remove_header>
10005edc:	b960      	cbnz	r0, 10005ef8 <icmp_input+0x10c>
10005ede:	4629      	mov	r1, r5
10005ee0:	4648      	mov	r0, r9
10005ee2:	f7fb fd5e 	bl	100019a2 <pbuf_copy>
10005ee6:	b958      	cbnz	r0, 10005f00 <icmp_input+0x114>
10005ee8:	4628      	mov	r0, r5
10005eea:	f7fb fbd0 	bl	1000168e <pbuf_free>
10005eee:	464d      	mov	r5, r9
10005ef0:	e010      	b.n	10005f14 <icmp_input+0x128>
10005ef2:	f7fb fbcc 	bl	1000168e <pbuf_free>
10005ef6:	e7c7      	b.n	10005e88 <icmp_input+0x9c>
10005ef8:	4648      	mov	r0, r9
10005efa:	f7fb fbc8 	bl	1000168e <pbuf_free>
10005efe:	e7c3      	b.n	10005e88 <icmp_input+0x9c>
10005f00:	4648      	mov	r0, r9
10005f02:	f7fb fbc4 	bl	1000168e <pbuf_free>
10005f06:	e7bf      	b.n	10005e88 <icmp_input+0x9c>
10005f08:	4649      	mov	r1, r9
10005f0a:	4628      	mov	r0, r5
10005f0c:	f7fb fb91 	bl	10001632 <pbuf_remove_header>
10005f10:	2800      	cmp	r0, #0
10005f12:	d1b9      	bne.n	10005e88 <icmp_input+0x9c>
10005f14:	f8d5 9004 	ldr.w	r9, [r5, #4]
10005f18:	4621      	mov	r1, r4
10005f1a:	4628      	mov	r0, r5
10005f1c:	f7fb fb84 	bl	10001628 <pbuf_add_header>
10005f20:	2800      	cmp	r0, #0
10005f22:	d142      	bne.n	10005faa <icmp_input+0x1be>
10005f24:	686f      	ldr	r7, [r5, #4]
10005f26:	f8d8 3000 	ldr.w	r3, [r8]
10005f2a:	60fb      	str	r3, [r7, #12]
10005f2c:	4b22      	ldr	r3, [pc, #136]	@ (10005fb8 <icmp_input+0x1cc>)
10005f2e:	691b      	ldr	r3, [r3, #16]
10005f30:	613b      	str	r3, [r7, #16]
10005f32:	2300      	movs	r3, #0
10005f34:	f889 3000 	strb.w	r3, [r9]
10005f38:	f8b9 3002 	ldrh.w	r3, [r9, #2]
10005f3c:	f64f 72f7 	movw	r2, #65527	@ 0xfff7
10005f40:	4293      	cmp	r3, r2
10005f42:	d923      	bls.n	10005f8c <icmp_input+0x1a0>
10005f44:	3309      	adds	r3, #9
10005f46:	f8a9 3002 	strh.w	r3, [r9, #2]
10005f4a:	f04f 0aff 	mov.w	sl, #255	@ 0xff
10005f4e:	f887 a008 	strb.w	sl, [r7, #8]
10005f52:	f04f 0900 	mov.w	r9, #0
10005f56:	f887 900a 	strb.w	r9, [r7, #10]
10005f5a:	f887 900b 	strb.w	r9, [r7, #11]
10005f5e:	4621      	mov	r1, r4
10005f60:	4638      	mov	r0, r7
10005f62:	f7fa fee5 	bl	10000d30 <inet_chksum>
10005f66:	8178      	strh	r0, [r7, #10]
10005f68:	4a12      	ldr	r2, [pc, #72]	@ (10005fb4 <icmp_input+0x1c8>)
10005f6a:	f8b2 3060 	ldrh.w	r3, [r2, #96]	@ 0x60
10005f6e:	3301      	adds	r3, #1
10005f70:	f8a2 3060 	strh.w	r3, [r2, #96]	@ 0x60
10005f74:	9602      	str	r6, [sp, #8]
10005f76:	2301      	movs	r3, #1
10005f78:	9301      	str	r3, [sp, #4]
10005f7a:	f8cd 9000 	str.w	r9, [sp]
10005f7e:	4653      	mov	r3, sl
10005f80:	464a      	mov	r2, r9
10005f82:	4641      	mov	r1, r8
10005f84:	4628      	mov	r0, r5
10005f86:	f000 fa05 	bl	10006394 <ip4_output_if>
10005f8a:	e00e      	b.n	10005faa <icmp_input+0x1be>
10005f8c:	3308      	adds	r3, #8
10005f8e:	f8a9 3002 	strh.w	r3, [r9, #2]
10005f92:	e7da      	b.n	10005f4a <icmp_input+0x15e>
10005f94:	4b07      	ldr	r3, [pc, #28]	@ (10005fb4 <icmp_input+0x1c8>)
10005f96:	f8b3 2070 	ldrh.w	r2, [r3, #112]	@ 0x70
10005f9a:	3201      	adds	r2, #1
10005f9c:	f8a3 2070 	strh.w	r2, [r3, #112]	@ 0x70
10005fa0:	f8b3 2066 	ldrh.w	r2, [r3, #102]	@ 0x66
10005fa4:	3201      	adds	r2, #1
10005fa6:	f8a3 2066 	strh.w	r2, [r3, #102]	@ 0x66
10005faa:	4628      	mov	r0, r5
10005fac:	f7fb fb6f 	bl	1000168e <pbuf_free>
10005fb0:	e754      	b.n	10005e5c <icmp_input+0x70>
10005fb2:	bf00      	nop
10005fb4:	20001db0 	.word	0x20001db0
10005fb8:	20001d94 	.word	0x20001d94
10005fbc:	20001da8 	.word	0x20001da8

10005fc0 <icmp_dest_unreach>:
10005fc0:	b508      	push	{r3, lr}
10005fc2:	460a      	mov	r2, r1
10005fc4:	2103      	movs	r1, #3
10005fc6:	f7ff fec3 	bl	10005d50 <icmp_send_response>
10005fca:	bd08      	pop	{r3, pc}

10005fcc <icmp_time_exceeded>:
10005fcc:	b508      	push	{r3, lr}
10005fce:	460a      	mov	r2, r1
10005fd0:	210b      	movs	r1, #11
10005fd2:	f7ff febd 	bl	10005d50 <icmp_send_response>
10005fd6:	bd08      	pop	{r3, pc}

10005fd8 <ip4_input_accept>:
10005fd8:	b508      	push	{r3, lr}
10005fda:	f890 3025 	ldrb.w	r3, [r0, #37]	@ 0x25
10005fde:	f013 0f01 	tst.w	r3, #1
10005fe2:	d00d      	beq.n	10006000 <ip4_input_accept+0x28>
10005fe4:	4601      	mov	r1, r0
10005fe6:	6803      	ldr	r3, [r0, #0]
10005fe8:	b163      	cbz	r3, 10006004 <ip4_input_accept+0x2c>
10005fea:	4a07      	ldr	r2, [pc, #28]	@ (10006008 <ip4_input_accept+0x30>)
10005fec:	6950      	ldr	r0, [r2, #20]
10005fee:	4283      	cmp	r3, r0
10005ff0:	d004      	beq.n	10005ffc <ip4_input_accept+0x24>
10005ff2:	f000 f9e4 	bl	100063be <ip4_addr_isbroadcast_u32>
10005ff6:	b908      	cbnz	r0, 10005ffc <ip4_input_accept+0x24>
10005ff8:	2000      	movs	r0, #0
10005ffa:	e002      	b.n	10006002 <ip4_input_accept+0x2a>
10005ffc:	2001      	movs	r0, #1
10005ffe:	e000      	b.n	10006002 <ip4_input_accept+0x2a>
10006000:	2000      	movs	r0, #0
10006002:	bd08      	pop	{r3, pc}
10006004:	2000      	movs	r0, #0
10006006:	e7fc      	b.n	10006002 <ip4_input_accept+0x2a>
10006008:	20001d94 	.word	0x20001d94

1000600c <ip4_route>:
1000600c:	4602      	mov	r2, r0
1000600e:	4b0b      	ldr	r3, [pc, #44]	@ (1000603c <ip4_route+0x30>)
10006010:	6818      	ldr	r0, [r3, #0]
10006012:	b150      	cbz	r0, 1000602a <ip4_route+0x1e>
10006014:	f890 3025 	ldrb.w	r3, [r0, #37]	@ 0x25
10006018:	f003 0305 	and.w	r3, r3, #5
1000601c:	2b05      	cmp	r3, #5
1000601e:	d104      	bne.n	1000602a <ip4_route+0x1e>
10006020:	6803      	ldr	r3, [r0, #0]
10006022:	b113      	cbz	r3, 1000602a <ip4_route+0x1e>
10006024:	7813      	ldrb	r3, [r2, #0]
10006026:	2b7f      	cmp	r3, #127	@ 0x7f
10006028:	d106      	bne.n	10006038 <ip4_route+0x2c>
1000602a:	4a05      	ldr	r2, [pc, #20]	@ (10006040 <ip4_route+0x34>)
1000602c:	f8b2 3056 	ldrh.w	r3, [r2, #86]	@ 0x56
10006030:	3301      	adds	r3, #1
10006032:	f8a2 3056 	strh.w	r3, [r2, #86]	@ 0x56
10006036:	2000      	movs	r0, #0
10006038:	4770      	bx	lr
1000603a:	bf00      	nop
1000603c:	200057cc 	.word	0x200057cc
10006040:	20001db0 	.word	0x20001db0

10006044 <ip4_input>:
10006044:	e92d 41f0 	stmdb	sp!, {r4, r5, r6, r7, r8, lr}
10006048:	4604      	mov	r4, r0
1000604a:	4a83      	ldr	r2, [pc, #524]	@ (10006258 <ip4_input+0x214>)
1000604c:	f8b2 304a 	ldrh.w	r3, [r2, #74]	@ 0x4a
10006050:	3301      	adds	r3, #1
10006052:	f8a2 304a 	strh.w	r3, [r2, #74]	@ 0x4a
10006056:	6847      	ldr	r7, [r0, #4]
10006058:	783b      	ldrb	r3, [r7, #0]
1000605a:	091a      	lsrs	r2, r3, #4
1000605c:	2a04      	cmp	r2, #4
1000605e:	d00f      	beq.n	10006080 <ip4_input+0x3c>
10006060:	f7fb fb15 	bl	1000168e <pbuf_free>
10006064:	4b7c      	ldr	r3, [pc, #496]	@ (10006258 <ip4_input+0x214>)
10006066:	f8b3 205c 	ldrh.w	r2, [r3, #92]	@ 0x5c
1000606a:	3201      	adds	r2, #1
1000606c:	f8a3 205c 	strh.w	r2, [r3, #92]	@ 0x5c
10006070:	f8b3 204e 	ldrh.w	r2, [r3, #78]	@ 0x4e
10006074:	3201      	adds	r2, #1
10006076:	f8a3 204e 	strh.w	r2, [r3, #78]	@ 0x4e
1000607a:	2000      	movs	r0, #0
1000607c:	e8bd 81f0 	ldmia.w	sp!, {r4, r5, r6, r7, r8, pc}
10006080:	460e      	mov	r6, r1
10006082:	f003 030f 	and.w	r3, r3, #15
10006086:	009d      	lsls	r5, r3, #2
10006088:	8878      	ldrh	r0, [r7, #2]
1000608a:	f7fa fd95 	bl	10000bb8 <lwip_htons>
1000608e:	4680      	mov	r8, r0
10006090:	8923      	ldrh	r3, [r4, #8]
10006092:	4283      	cmp	r3, r0
10006094:	d816      	bhi.n	100060c4 <ip4_input+0x80>
10006096:	8963      	ldrh	r3, [r4, #10]
10006098:	42ab      	cmp	r3, r5
1000609a:	d304      	bcc.n	100060a6 <ip4_input+0x62>
1000609c:	8923      	ldrh	r3, [r4, #8]
1000609e:	4543      	cmp	r3, r8
100060a0:	d301      	bcc.n	100060a6 <ip4_input+0x62>
100060a2:	2d13      	cmp	r5, #19
100060a4:	d813      	bhi.n	100060ce <ip4_input+0x8a>
100060a6:	4620      	mov	r0, r4
100060a8:	f7fb faf1 	bl	1000168e <pbuf_free>
100060ac:	4b6a      	ldr	r3, [pc, #424]	@ (10006258 <ip4_input+0x214>)
100060ae:	f8b3 2052 	ldrh.w	r2, [r3, #82]	@ 0x52
100060b2:	3201      	adds	r2, #1
100060b4:	f8a3 2052 	strh.w	r2, [r3, #82]	@ 0x52
100060b8:	f8b3 204e 	ldrh.w	r2, [r3, #78]	@ 0x4e
100060bc:	3201      	adds	r2, #1
100060be:	f8a3 204e 	strh.w	r2, [r3, #78]	@ 0x4e
100060c2:	e7da      	b.n	1000607a <ip4_input+0x36>
100060c4:	4601      	mov	r1, r0
100060c6:	4620      	mov	r0, r4
100060c8:	f7fb fb9b 	bl	10001802 <pbuf_realloc>
100060cc:	e7e3      	b.n	10006096 <ip4_input+0x52>
100060ce:	4629      	mov	r1, r5
100060d0:	4638      	mov	r0, r7
100060d2:	f7fa fe2d 	bl	10000d30 <inet_chksum>
100060d6:	b998      	cbnz	r0, 10006100 <ip4_input+0xbc>
100060d8:	693b      	ldr	r3, [r7, #16]
100060da:	4a60      	ldr	r2, [pc, #384]	@ (1000625c <ip4_input+0x218>)
100060dc:	6153      	str	r3, [r2, #20]
100060de:	68f9      	ldr	r1, [r7, #12]
100060e0:	6111      	str	r1, [r2, #16]
100060e2:	f003 03f0 	and.w	r3, r3, #240	@ 0xf0
100060e6:	2be0      	cmp	r3, #224	@ 0xe0
100060e8:	d119      	bne.n	1000611e <ip4_input+0xda>
100060ea:	f896 3025 	ldrb.w	r3, [r6, #37]	@ 0x25
100060ee:	f013 0f01 	tst.w	r3, #1
100060f2:	d01e      	beq.n	10006132 <ip4_input+0xee>
100060f4:	6833      	ldr	r3, [r6, #0]
100060f6:	2b00      	cmp	r3, #0
100060f8:	d16d      	bne.n	100061d6 <ip4_input+0x192>
100060fa:	f04f 0800 	mov.w	r8, #0
100060fe:	e01a      	b.n	10006136 <ip4_input+0xf2>
10006100:	4620      	mov	r0, r4
10006102:	f7fb fac4 	bl	1000168e <pbuf_free>
10006106:	4b54      	ldr	r3, [pc, #336]	@ (10006258 <ip4_input+0x214>)
10006108:	f8b3 2050 	ldrh.w	r2, [r3, #80]	@ 0x50
1000610c:	3201      	adds	r2, #1
1000610e:	f8a3 2050 	strh.w	r2, [r3, #80]	@ 0x50
10006112:	f8b3 204e 	ldrh.w	r2, [r3, #78]	@ 0x4e
10006116:	3201      	adds	r2, #1
10006118:	f8a3 204e 	strh.w	r2, [r3, #78]	@ 0x4e
1000611c:	e7ad      	b.n	1000607a <ip4_input+0x36>
1000611e:	4630      	mov	r0, r6
10006120:	f7ff ff5a 	bl	10005fd8 <ip4_input_accept>
10006124:	2800      	cmp	r0, #0
10006126:	d04c      	beq.n	100061c2 <ip4_input+0x17e>
10006128:	b10e      	cbz	r6, 1000612e <ip4_input+0xea>
1000612a:	46b0      	mov	r8, r6
1000612c:	e006      	b.n	1000613c <ip4_input+0xf8>
1000612e:	46b0      	mov	r8, r6
10006130:	e001      	b.n	10006136 <ip4_input+0xf2>
10006132:	f04f 0800 	mov.w	r8, #0
10006136:	7a7b      	ldrb	r3, [r7, #9]
10006138:	2b11      	cmp	r3, #17
1000613a:	d045      	beq.n	100061c8 <ip4_input+0x184>
1000613c:	4b47      	ldr	r3, [pc, #284]	@ (1000625c <ip4_input+0x218>)
1000613e:	6918      	ldr	r0, [r3, #16]
10006140:	2800      	cmp	r0, #0
10006142:	d14a      	bne.n	100061da <ip4_input+0x196>
10006144:	f1b8 0f00 	cmp.w	r8, #0
10006148:	d05b      	beq.n	10006202 <ip4_input+0x1be>
1000614a:	88fb      	ldrh	r3, [r7, #6]
1000614c:	f023 03c0 	bic.w	r3, r3, #192	@ 0xc0
10006150:	b29b      	uxth	r3, r3
10006152:	b133      	cbz	r3, 10006162 <ip4_input+0x11e>
10006154:	4620      	mov	r0, r4
10006156:	f000 fad5 	bl	10006704 <ip4_reass>
1000615a:	4604      	mov	r4, r0
1000615c:	2800      	cmp	r0, #0
1000615e:	d08c      	beq.n	1000607a <ip4_input+0x36>
10006160:	6847      	ldr	r7, [r0, #4]
10006162:	4a3e      	ldr	r2, [pc, #248]	@ (1000625c <ip4_input+0x218>)
10006164:	f8c2 8000 	str.w	r8, [r2]
10006168:	6056      	str	r6, [r2, #4]
1000616a:	6097      	str	r7, [r2, #8]
1000616c:	783b      	ldrb	r3, [r7, #0]
1000616e:	f003 030f 	and.w	r3, r3, #15
10006172:	009b      	lsls	r3, r3, #2
10006174:	8193      	strh	r3, [r2, #12]
10006176:	4629      	mov	r1, r5
10006178:	4620      	mov	r0, r4
1000617a:	f7fb fa5a 	bl	10001632 <pbuf_remove_header>
1000617e:	7a7b      	ldrb	r3, [r7, #9]
10006180:	2b06      	cmp	r3, #6
10006182:	d055      	beq.n	10006230 <ip4_input+0x1ec>
10006184:	2b11      	cmp	r3, #17
10006186:	d046      	beq.n	10006216 <ip4_input+0x1d2>
10006188:	2b01      	cmp	r3, #1
1000618a:	d056      	beq.n	1000623a <ip4_input+0x1f6>
1000618c:	4641      	mov	r1, r8
1000618e:	4b33      	ldr	r3, [pc, #204]	@ (1000625c <ip4_input+0x218>)
10006190:	6958      	ldr	r0, [r3, #20]
10006192:	f000 f914 	bl	100063be <ip4_addr_isbroadcast_u32>
10006196:	b928      	cbnz	r0, 100061a4 <ip4_input+0x160>
10006198:	4b30      	ldr	r3, [pc, #192]	@ (1000625c <ip4_input+0x218>)
1000619a:	695b      	ldr	r3, [r3, #20]
1000619c:	f003 03f0 	and.w	r3, r3, #240	@ 0xf0
100061a0:	2be0      	cmp	r3, #224	@ 0xe0
100061a2:	d14f      	bne.n	10006244 <ip4_input+0x200>
100061a4:	4b2c      	ldr	r3, [pc, #176]	@ (10006258 <ip4_input+0x214>)
100061a6:	f8b3 2058 	ldrh.w	r2, [r3, #88]	@ 0x58
100061aa:	3201      	adds	r2, #1
100061ac:	f8a3 2058 	strh.w	r2, [r3, #88]	@ 0x58
100061b0:	f8b3 204e 	ldrh.w	r2, [r3, #78]	@ 0x4e
100061b4:	3201      	adds	r2, #1
100061b6:	f8a3 204e 	strh.w	r2, [r3, #78]	@ 0x4e
100061ba:	4620      	mov	r0, r4
100061bc:	f7fb fa67 	bl	1000168e <pbuf_free>
100061c0:	e02d      	b.n	1000621e <ip4_input+0x1da>
100061c2:	f04f 0800 	mov.w	r8, #0
100061c6:	e7b6      	b.n	10006136 <ip4_input+0xf2>
100061c8:	197b      	adds	r3, r7, r5
100061ca:	885b      	ldrh	r3, [r3, #2]
100061cc:	f5b3 4f86 	cmp.w	r3, #17152	@ 0x4300
100061d0:	d1b4      	bne.n	1000613c <ip4_input+0xf8>
100061d2:	46b0      	mov	r8, r6
100061d4:	e7b6      	b.n	10006144 <ip4_input+0x100>
100061d6:	46b0      	mov	r8, r6
100061d8:	e7b0      	b.n	1000613c <ip4_input+0xf8>
100061da:	4631      	mov	r1, r6
100061dc:	f000 f8ef 	bl	100063be <ip4_addr_isbroadcast_u32>
100061e0:	b928      	cbnz	r0, 100061ee <ip4_input+0x1aa>
100061e2:	4b1e      	ldr	r3, [pc, #120]	@ (1000625c <ip4_input+0x218>)
100061e4:	691b      	ldr	r3, [r3, #16]
100061e6:	f003 03f0 	and.w	r3, r3, #240	@ 0xf0
100061ea:	2be0      	cmp	r3, #224	@ 0xe0
100061ec:	d1aa      	bne.n	10006144 <ip4_input+0x100>
100061ee:	4620      	mov	r0, r4
100061f0:	f7fb fa4d 	bl	1000168e <pbuf_free>
100061f4:	4a18      	ldr	r2, [pc, #96]	@ (10006258 <ip4_input+0x214>)
100061f6:	f8b2 304e 	ldrh.w	r3, [r2, #78]	@ 0x4e
100061fa:	3301      	adds	r3, #1
100061fc:	f8a2 304e 	strh.w	r3, [r2, #78]	@ 0x4e
10006200:	e73b      	b.n	1000607a <ip4_input+0x36>
10006202:	4a15      	ldr	r2, [pc, #84]	@ (10006258 <ip4_input+0x214>)
10006204:	f8b2 304e 	ldrh.w	r3, [r2, #78]	@ 0x4e
10006208:	3301      	adds	r3, #1
1000620a:	f8a2 304e 	strh.w	r3, [r2, #78]	@ 0x4e
1000620e:	4620      	mov	r0, r4
10006210:	f7fb fa3d 	bl	1000168e <pbuf_free>
10006214:	e731      	b.n	1000607a <ip4_input+0x36>
10006216:	4631      	mov	r1, r6
10006218:	4620      	mov	r0, r4
1000621a:	f7fe ff67 	bl	100050ec <udp_input>
1000621e:	4b0f      	ldr	r3, [pc, #60]	@ (1000625c <ip4_input+0x218>)
10006220:	2200      	movs	r2, #0
10006222:	601a      	str	r2, [r3, #0]
10006224:	605a      	str	r2, [r3, #4]
10006226:	609a      	str	r2, [r3, #8]
10006228:	819a      	strh	r2, [r3, #12]
1000622a:	611a      	str	r2, [r3, #16]
1000622c:	615a      	str	r2, [r3, #20]
1000622e:	e724      	b.n	1000607a <ip4_input+0x36>
10006230:	4631      	mov	r1, r6
10006232:	4620      	mov	r0, r4
10006234:	f7fd fc0e 	bl	10003a54 <tcp_input>
10006238:	e7f1      	b.n	1000621e <ip4_input+0x1da>
1000623a:	4631      	mov	r1, r6
1000623c:	4620      	mov	r0, r4
1000623e:	f7ff fdd5 	bl	10005dec <icmp_input>
10006242:	e7ec      	b.n	1000621e <ip4_input+0x1da>
10006244:	4629      	mov	r1, r5
10006246:	4620      	mov	r0, r4
10006248:	f7fb fa1c 	bl	10001684 <pbuf_header_force>
1000624c:	2102      	movs	r1, #2
1000624e:	4620      	mov	r0, r4
10006250:	f7ff feb6 	bl	10005fc0 <icmp_dest_unreach>
10006254:	e7a6      	b.n	100061a4 <ip4_input+0x160>
10006256:	bf00      	nop
10006258:	20001db0 	.word	0x20001db0
1000625c:	20001d94 	.word	0x20001d94

10006260 <ip4_output_if_src>:
10006260:	e92d 4ff0 	stmdb	sp!, {r4, r5, r6, r7, r8, r9, sl, fp, lr}
10006264:	b083      	sub	sp, #12
10006266:	4604      	mov	r4, r0
10006268:	f89d 9030 	ldrb.w	r9, [sp, #48]	@ 0x30
1000626c:	f89d b034 	ldrb.w	fp, [sp, #52]	@ 0x34
10006270:	9e0e      	ldr	r6, [sp, #56]	@ 0x38
10006272:	2a00      	cmp	r2, #0
10006274:	d071      	beq.n	1000635a <ip4_output_if_src+0xfa>
10006276:	4688      	mov	r8, r1
10006278:	469a      	mov	sl, r3
1000627a:	4617      	mov	r7, r2
1000627c:	2114      	movs	r1, #20
1000627e:	f7fb f9d3 	bl	10001628 <pbuf_add_header>
10006282:	2800      	cmp	r0, #0
10006284:	d15c      	bne.n	10006340 <ip4_output_if_src+0xe0>
10006286:	6865      	ldr	r5, [r4, #4]
10006288:	f885 a008 	strb.w	sl, [r5, #8]
1000628c:	f885 b009 	strb.w	fp, [r5, #9]
10006290:	ea4b 2b0a 	orr.w	fp, fp, sl, lsl #8
10006294:	ea4f 231b 	mov.w	r3, fp, lsr #8
10006298:	ea43 230b 	orr.w	r3, r3, fp, lsl #8
1000629c:	683a      	ldr	r2, [r7, #0]
1000629e:	612a      	str	r2, [r5, #16]
100062a0:	b291      	uxth	r1, r2
100062a2:	fa11 f383 	uxtah	r3, r1, r3
100062a6:	eb03 4312 	add.w	r3, r3, r2, lsr #16
100062aa:	2245      	movs	r2, #69	@ 0x45
100062ac:	702a      	strb	r2, [r5, #0]
100062ae:	f885 9001 	strb.w	r9, [r5, #1]
100062b2:	f449 428a 	orr.w	r2, r9, #17664	@ 0x4500
100062b6:	f04f 0945 	mov.w	r9, #69	@ 0x45
100062ba:	ea49 2902 	orr.w	r9, r9, r2, lsl #8
100062be:	fa0f f989 	sxth.w	r9, r9
100062c2:	fa1f f989 	uxth.w	r9, r9
100062c6:	4499      	add	r9, r3
100062c8:	8920      	ldrh	r0, [r4, #8]
100062ca:	f7fa fc75 	bl	10000bb8 <lwip_htons>
100062ce:	8068      	strh	r0, [r5, #2]
100062d0:	eb00 0a09 	add.w	sl, r0, r9
100062d4:	2300      	movs	r3, #0
100062d6:	71ab      	strb	r3, [r5, #6]
100062d8:	71eb      	strb	r3, [r5, #7]
100062da:	f8df 90b4 	ldr.w	r9, [pc, #180]	@ 10006390 <ip4_output_if_src+0x130>
100062de:	f8b9 0000 	ldrh.w	r0, [r9]
100062e2:	f7fa fc69 	bl	10000bb8 <lwip_htons>
100062e6:	80a8      	strh	r0, [r5, #4]
100062e8:	eb00 030a 	add.w	r3, r0, sl
100062ec:	f8b9 2000 	ldrh.w	r2, [r9]
100062f0:	3201      	adds	r2, #1
100062f2:	f8a9 2000 	strh.w	r2, [r9]
100062f6:	f1b8 0f00 	cmp.w	r8, #0
100062fa:	d02a      	beq.n	10006352 <ip4_output_if_src+0xf2>
100062fc:	f8d8 2000 	ldr.w	r2, [r8]
10006300:	60ea      	str	r2, [r5, #12]
10006302:	68ea      	ldr	r2, [r5, #12]
10006304:	fa13 f382 	uxtah	r3, r3, r2
10006308:	eb03 4312 	add.w	r3, r3, r2, lsr #16
1000630c:	b29a      	uxth	r2, r3
1000630e:	eb02 4313 	add.w	r3, r2, r3, lsr #16
10006312:	eb03 4313 	add.w	r3, r3, r3, lsr #16
10006316:	43db      	mvns	r3, r3
10006318:	816b      	strh	r3, [r5, #10]
1000631a:	4a1b      	ldr	r2, [pc, #108]	@ (10006388 <ip4_output_if_src+0x128>)
1000631c:	f8b2 3048 	ldrh.w	r3, [r2, #72]	@ 0x48
10006320:	3301      	adds	r3, #1
10006322:	f8a2 3048 	strh.w	r3, [r2, #72]	@ 0x48
10006326:	8bb3      	ldrh	r3, [r6, #28]
10006328:	b113      	cbz	r3, 10006330 <ip4_output_if_src+0xd0>
1000632a:	8922      	ldrh	r2, [r4, #8]
1000632c:	4293      	cmp	r3, r2
1000632e:	d325      	bcc.n	1000637c <ip4_output_if_src+0x11c>
10006330:	6933      	ldr	r3, [r6, #16]
10006332:	463a      	mov	r2, r7
10006334:	4621      	mov	r1, r4
10006336:	4630      	mov	r0, r6
10006338:	4798      	blx	r3
1000633a:	b003      	add	sp, #12
1000633c:	e8bd 8ff0 	ldmia.w	sp!, {r4, r5, r6, r7, r8, r9, sl, fp, pc}
10006340:	4a11      	ldr	r2, [pc, #68]	@ (10006388 <ip4_output_if_src+0x128>)
10006342:	f8b2 305c 	ldrh.w	r3, [r2, #92]	@ 0x5c
10006346:	3301      	adds	r3, #1
10006348:	f8a2 305c 	strh.w	r3, [r2, #92]	@ 0x5c
1000634c:	f06f 0001 	mvn.w	r0, #1
10006350:	e7f3      	b.n	1000633a <ip4_output_if_src+0xda>
10006352:	4a0e      	ldr	r2, [pc, #56]	@ (1000638c <ip4_output_if_src+0x12c>)
10006354:	6812      	ldr	r2, [r2, #0]
10006356:	60ea      	str	r2, [r5, #12]
10006358:	e7d3      	b.n	10006302 <ip4_output_if_src+0xa2>
1000635a:	8943      	ldrh	r3, [r0, #10]
1000635c:	2b13      	cmp	r3, #19
1000635e:	d904      	bls.n	1000636a <ip4_output_if_src+0x10a>
10006360:	6843      	ldr	r3, [r0, #4]
10006362:	691b      	ldr	r3, [r3, #16]
10006364:	9301      	str	r3, [sp, #4]
10006366:	af01      	add	r7, sp, #4
10006368:	e7d7      	b.n	1000631a <ip4_output_if_src+0xba>
1000636a:	4a07      	ldr	r2, [pc, #28]	@ (10006388 <ip4_output_if_src+0x128>)
1000636c:	f8b2 305c 	ldrh.w	r3, [r2, #92]	@ 0x5c
10006370:	3301      	adds	r3, #1
10006372:	f8a2 305c 	strh.w	r3, [r2, #92]	@ 0x5c
10006376:	f06f 0001 	mvn.w	r0, #1
1000637a:	e7de      	b.n	1000633a <ip4_output_if_src+0xda>
1000637c:	463a      	mov	r2, r7
1000637e:	4631      	mov	r1, r6
10006380:	4620      	mov	r0, r4
10006382:	f000 fab9 	bl	100068f8 <ip4_frag>
10006386:	e7d8      	b.n	1000633a <ip4_output_if_src+0xda>
10006388:	20001db0 	.word	0x20001db0
1000638c:	1000d91c 	.word	0x1000d91c
10006390:	20005f4c 	.word	0x20005f4c

10006394 <ip4_output_if>:
10006394:	b510      	push	{r4, lr}
10006396:	b084      	sub	sp, #16
10006398:	9c08      	ldr	r4, [sp, #32]
1000639a:	4694      	mov	ip, r2
1000639c:	b11a      	cbz	r2, 100063a6 <ip4_output_if+0x12>
1000639e:	b109      	cbz	r1, 100063a4 <ip4_output_if+0x10>
100063a0:	680a      	ldr	r2, [r1, #0]
100063a2:	b902      	cbnz	r2, 100063a6 <ip4_output_if+0x12>
100063a4:	4621      	mov	r1, r4
100063a6:	9402      	str	r4, [sp, #8]
100063a8:	f89d 201c 	ldrb.w	r2, [sp, #28]
100063ac:	9201      	str	r2, [sp, #4]
100063ae:	f89d 2018 	ldrb.w	r2, [sp, #24]
100063b2:	9200      	str	r2, [sp, #0]
100063b4:	4662      	mov	r2, ip
100063b6:	f7ff ff53 	bl	10006260 <ip4_output_if_src>
100063ba:	b004      	add	sp, #16
100063bc:	bd10      	pop	{r4, pc}

100063be <ip4_addr_isbroadcast_u32>:
100063be:	4603      	mov	r3, r0
100063c0:	1e42      	subs	r2, r0, #1
100063c2:	f112 0f03 	cmn.w	r2, #3
100063c6:	d812      	bhi.n	100063ee <ip4_addr_isbroadcast_u32+0x30>
100063c8:	f891 0025 	ldrb.w	r0, [r1, #37]	@ 0x25
100063cc:	f010 0002 	ands.w	r0, r0, #2
100063d0:	d014      	beq.n	100063fc <ip4_addr_isbroadcast_u32+0x3e>
100063d2:	680a      	ldr	r2, [r1, #0]
100063d4:	429a      	cmp	r2, r3
100063d6:	d00c      	beq.n	100063f2 <ip4_addr_isbroadcast_u32+0x34>
100063d8:	6849      	ldr	r1, [r1, #4]
100063da:	405a      	eors	r2, r3
100063dc:	420a      	tst	r2, r1
100063de:	d10a      	bne.n	100063f6 <ip4_addr_isbroadcast_u32+0x38>
100063e0:	43ca      	mvns	r2, r1
100063e2:	ea23 0301 	bic.w	r3, r3, r1
100063e6:	429a      	cmp	r2, r3
100063e8:	d007      	beq.n	100063fa <ip4_addr_isbroadcast_u32+0x3c>
100063ea:	2000      	movs	r0, #0
100063ec:	4770      	bx	lr
100063ee:	2001      	movs	r0, #1
100063f0:	4770      	bx	lr
100063f2:	2000      	movs	r0, #0
100063f4:	4770      	bx	lr
100063f6:	2000      	movs	r0, #0
100063f8:	4770      	bx	lr
100063fa:	2001      	movs	r0, #1
100063fc:	4770      	bx	lr
	...

10006400 <ip_reass_dequeue_datagram>:
10006400:	b508      	push	{r3, lr}
10006402:	4b07      	ldr	r3, [pc, #28]	@ (10006420 <ip_reass_dequeue_datagram+0x20>)
10006404:	681b      	ldr	r3, [r3, #0]
10006406:	4283      	cmp	r3, r0
10006408:	d006      	beq.n	10006418 <ip_reass_dequeue_datagram+0x18>
1000640a:	6803      	ldr	r3, [r0, #0]
1000640c:	600b      	str	r3, [r1, #0]
1000640e:	4601      	mov	r1, r0
10006410:	2004      	movs	r0, #4
10006412:	f7fa ff81 	bl	10001318 <memp_free>
10006416:	bd08      	pop	{r3, pc}
10006418:	6802      	ldr	r2, [r0, #0]
1000641a:	4b01      	ldr	r3, [pc, #4]	@ (10006420 <ip_reass_dequeue_datagram+0x20>)
1000641c:	601a      	str	r2, [r3, #0]
1000641e:	e7f6      	b.n	1000640e <ip_reass_dequeue_datagram+0xe>
10006420:	20005efc 	.word	0x20005efc

10006424 <ip_reass_free_complete_datagram>:
10006424:	e92d 41f0 	stmdb	sp!, {r4, r5, r6, r7, r8, lr}
10006428:	4607      	mov	r7, r0
1000642a:	4688      	mov	r8, r1
1000642c:	6844      	ldr	r4, [r0, #4]
1000642e:	6863      	ldr	r3, [r4, #4]
10006430:	889a      	ldrh	r2, [r3, #4]
10006432:	b112      	cbz	r2, 1000643a <ip_reass_free_complete_datagram+0x16>
10006434:	2500      	movs	r5, #0
10006436:	687c      	ldr	r4, [r7, #4]
10006438:	e023      	b.n	10006482 <ip_reass_free_complete_datagram+0x5e>
1000643a:	681b      	ldr	r3, [r3, #0]
1000643c:	6043      	str	r3, [r0, #4]
1000643e:	6863      	ldr	r3, [r4, #4]
10006440:	6882      	ldr	r2, [r0, #8]
10006442:	68c5      	ldr	r5, [r0, #12]
10006444:	6900      	ldr	r0, [r0, #16]
10006446:	6979      	ldr	r1, [r7, #20]
10006448:	601a      	str	r2, [r3, #0]
1000644a:	605d      	str	r5, [r3, #4]
1000644c:	6098      	str	r0, [r3, #8]
1000644e:	60d9      	str	r1, [r3, #12]
10006450:	69ba      	ldr	r2, [r7, #24]
10006452:	611a      	str	r2, [r3, #16]
10006454:	2101      	movs	r1, #1
10006456:	4620      	mov	r0, r4
10006458:	f7ff fdb8 	bl	10005fcc <icmp_time_exceeded>
1000645c:	4620      	mov	r0, r4
1000645e:	f7fb f9fc 	bl	1000185a <pbuf_clen>
10006462:	4605      	mov	r5, r0
10006464:	4620      	mov	r0, r4
10006466:	f7fb f912 	bl	1000168e <pbuf_free>
1000646a:	e7e4      	b.n	10006436 <ip_reass_free_complete_datagram+0x12>
1000646c:	6863      	ldr	r3, [r4, #4]
1000646e:	681e      	ldr	r6, [r3, #0]
10006470:	4620      	mov	r0, r4
10006472:	f7fb f9f2 	bl	1000185a <pbuf_clen>
10006476:	4428      	add	r0, r5
10006478:	b285      	uxth	r5, r0
1000647a:	4620      	mov	r0, r4
1000647c:	f7fb f907 	bl	1000168e <pbuf_free>
10006480:	4634      	mov	r4, r6
10006482:	2c00      	cmp	r4, #0
10006484:	d1f2      	bne.n	1000646c <ip_reass_free_complete_datagram+0x48>
10006486:	4641      	mov	r1, r8
10006488:	4638      	mov	r0, r7
1000648a:	f7ff ffb9 	bl	10006400 <ip_reass_dequeue_datagram>
1000648e:	4a03      	ldr	r2, [pc, #12]	@ (1000649c <ip_reass_free_complete_datagram+0x78>)
10006490:	8813      	ldrh	r3, [r2, #0]
10006492:	1b5b      	subs	r3, r3, r5
10006494:	8013      	strh	r3, [r2, #0]
10006496:	4628      	mov	r0, r5
10006498:	e8bd 81f0 	ldmia.w	sp!, {r4, r5, r6, r7, r8, pc}
1000649c:	20005f4e 	.word	0x20005f4e

100064a0 <ip_reass_remove_oldest_datagram>:
100064a0:	b5f8      	push	{r3, r4, r5, r6, r7, lr}
100064a2:	4605      	mov	r5, r0
100064a4:	460f      	mov	r7, r1
100064a6:	2600      	movs	r6, #0
100064a8:	e02b      	b.n	10006502 <ip_reass_remove_oldest_datagram+0x62>
100064aa:	699a      	ldr	r2, [r3, #24]
100064ac:	f8d5 e010 	ldr.w	lr, [r5, #16]
100064b0:	4572      	cmp	r2, lr
100064b2:	d111      	bne.n	100064d8 <ip_reass_remove_oldest_datagram+0x38>
100064b4:	f8b3 e00c 	ldrh.w	lr, [r3, #12]
100064b8:	88aa      	ldrh	r2, [r5, #4]
100064ba:	4596      	cmp	lr, r2
100064bc:	d10c      	bne.n	100064d8 <ip_reass_remove_oldest_datagram+0x38>
100064be:	e001      	b.n	100064c4 <ip_reass_remove_oldest_datagram+0x24>
100064c0:	4661      	mov	r1, ip
100064c2:	4618      	mov	r0, r3
100064c4:	681a      	ldr	r2, [r3, #0]
100064c6:	b192      	cbz	r2, 100064ee <ip_reass_remove_oldest_datagram+0x4e>
100064c8:	469c      	mov	ip, r3
100064ca:	4613      	mov	r3, r2
100064cc:	b18b      	cbz	r3, 100064f2 <ip_reass_remove_oldest_datagram+0x52>
100064ce:	695a      	ldr	r2, [r3, #20]
100064d0:	f8d5 e00c 	ldr.w	lr, [r5, #12]
100064d4:	4572      	cmp	r2, lr
100064d6:	d0e8      	beq.n	100064aa <ip_reass_remove_oldest_datagram+0xa>
100064d8:	3401      	adds	r4, #1
100064da:	2800      	cmp	r0, #0
100064dc:	d0f0      	beq.n	100064c0 <ip_reass_remove_oldest_datagram+0x20>
100064de:	f893 e01f 	ldrb.w	lr, [r3, #31]
100064e2:	7fc2      	ldrb	r2, [r0, #31]
100064e4:	4596      	cmp	lr, r2
100064e6:	d8ed      	bhi.n	100064c4 <ip_reass_remove_oldest_datagram+0x24>
100064e8:	4661      	mov	r1, ip
100064ea:	4618      	mov	r0, r3
100064ec:	e7ea      	b.n	100064c4 <ip_reass_remove_oldest_datagram+0x24>
100064ee:	4663      	mov	r3, ip
100064f0:	e7ea      	b.n	100064c8 <ip_reass_remove_oldest_datagram+0x28>
100064f2:	b110      	cbz	r0, 100064fa <ip_reass_remove_oldest_datagram+0x5a>
100064f4:	f7ff ff96 	bl	10006424 <ip_reass_free_complete_datagram>
100064f8:	4406      	add	r6, r0
100064fa:	42be      	cmp	r6, r7
100064fc:	da08      	bge.n	10006510 <ip_reass_remove_oldest_datagram+0x70>
100064fe:	2c01      	cmp	r4, #1
10006500:	dd06      	ble.n	10006510 <ip_reass_remove_oldest_datagram+0x70>
10006502:	4b04      	ldr	r3, [pc, #16]	@ (10006514 <ip_reass_remove_oldest_datagram+0x74>)
10006504:	681b      	ldr	r3, [r3, #0]
10006506:	2400      	movs	r4, #0
10006508:	4621      	mov	r1, r4
1000650a:	46a4      	mov	ip, r4
1000650c:	4620      	mov	r0, r4
1000650e:	e7dd      	b.n	100064cc <ip_reass_remove_oldest_datagram+0x2c>
10006510:	4630      	mov	r0, r6
10006512:	bdf8      	pop	{r3, r4, r5, r6, r7, pc}
10006514:	20005efc 	.word	0x20005efc

10006518 <ip_frag_free_pbuf_custom_ref>:
10006518:	b508      	push	{r3, lr}
1000651a:	4601      	mov	r1, r0
1000651c:	2005      	movs	r0, #5
1000651e:	f7fa fefb 	bl	10001318 <memp_free>
10006522:	bd08      	pop	{r3, pc}

10006524 <ipfrag_free_pbuf_custom>:
10006524:	b510      	push	{r4, lr}
10006526:	4604      	mov	r4, r0
10006528:	6940      	ldr	r0, [r0, #20]
1000652a:	b108      	cbz	r0, 10006530 <ipfrag_free_pbuf_custom+0xc>
1000652c:	f7fb f8af 	bl	1000168e <pbuf_free>
10006530:	4620      	mov	r0, r4
10006532:	f7ff fff1 	bl	10006518 <ip_frag_free_pbuf_custom_ref>
10006536:	bd10      	pop	{r4, pc}

10006538 <ip_reass_chain_frag_into_datagram_and_validate>:
10006538:	e92d 43f8 	stmdb	sp!, {r3, r4, r5, r6, r7, r8, r9, lr}
1000653c:	4607      	mov	r7, r0
1000653e:	460e      	mov	r6, r1
10006540:	4690      	mov	r8, r2
10006542:	684c      	ldr	r4, [r1, #4]
10006544:	8860      	ldrh	r0, [r4, #2]
10006546:	f7fa fb37 	bl	10000bb8 <lwip_htons>
1000654a:	7823      	ldrb	r3, [r4, #0]
1000654c:	f003 030f 	and.w	r3, r3, #15
10006550:	ebb0 0f83 	cmp.w	r0, r3, lsl #2
10006554:	d203      	bcs.n	1000655e <ip_reass_chain_frag_into_datagram_and_validate+0x26>
10006556:	f04f 30ff 	mov.w	r0, #4294967295
1000655a:	e8bd 83f8 	ldmia.w	sp!, {r3, r4, r5, r6, r7, r8, r9, pc}
1000655e:	009a      	lsls	r2, r3, #2
10006560:	1a80      	subs	r0, r0, r2
10006562:	b285      	uxth	r5, r0
10006564:	88e0      	ldrh	r0, [r4, #6]
10006566:	f7fa fb27 	bl	10000bb8 <lwip_htons>
1000656a:	f3c0 0c0c 	ubfx	ip, r0, #0, #13
1000656e:	ea4f 0ccc 	mov.w	ip, ip, lsl #3
10006572:	6871      	ldr	r1, [r6, #4]
10006574:	2300      	movs	r3, #0
10006576:	700b      	strb	r3, [r1, #0]
10006578:	704b      	strb	r3, [r1, #1]
1000657a:	708b      	strb	r3, [r1, #2]
1000657c:	70cb      	strb	r3, [r1, #3]
1000657e:	f8a1 c004 	strh.w	ip, [r1, #4]
10006582:	eb05 000c 	add.w	r0, r5, ip
10006586:	fa1f f980 	uxth.w	r9, r0
1000658a:	80c8      	strh	r0, [r1, #6]
1000658c:	45e1      	cmp	r9, ip
1000658e:	d356      	bcc.n	1000663e <ip_reass_chain_frag_into_datagram_and_validate+0x106>
10006590:	687c      	ldr	r4, [r7, #4]
10006592:	2001      	movs	r0, #1
10006594:	461d      	mov	r5, r3
10006596:	e01d      	b.n	100065d4 <ip_reass_chain_frag_into_datagram_and_validate+0x9c>
10006598:	600c      	str	r4, [r1, #0]
1000659a:	b1a5      	cbz	r5, 100065c6 <ip_reass_chain_frag_into_datagram_and_validate+0x8e>
1000659c:	88ea      	ldrh	r2, [r5, #6]
1000659e:	4562      	cmp	r2, ip
100065a0:	d850      	bhi.n	10006644 <ip_reass_chain_frag_into_datagram_and_validate+0x10c>
100065a2:	889b      	ldrh	r3, [r3, #4]
100065a4:	4599      	cmp	r9, r3
100065a6:	d850      	bhi.n	1000664a <ip_reass_chain_frag_into_datagram_and_validate+0x112>
100065a8:	602e      	str	r6, [r5, #0]
100065aa:	888b      	ldrh	r3, [r1, #4]
100065ac:	429a      	cmp	r2, r3
100065ae:	d000      	beq.n	100065b2 <ip_reass_chain_frag_into_datagram_and_validate+0x7a>
100065b0:	2000      	movs	r0, #0
100065b2:	b314      	cbz	r4, 100065fa <ip_reass_chain_frag_into_datagram_and_validate+0xc2>
100065b4:	f1b8 0f00 	cmp.w	r8, #0
100065b8:	d129      	bne.n	1000660e <ip_reass_chain_frag_into_datagram_and_validate+0xd6>
100065ba:	7fbb      	ldrb	r3, [r7, #30]
100065bc:	f013 0f01 	tst.w	r3, #1
100065c0:	d125      	bne.n	1000660e <ip_reass_chain_frag_into_datagram_and_validate+0xd6>
100065c2:	4640      	mov	r0, r8
100065c4:	e7c9      	b.n	1000655a <ip_reass_chain_frag_into_datagram_and_validate+0x22>
100065c6:	889b      	ldrh	r3, [r3, #4]
100065c8:	4599      	cmp	r9, r3
100065ca:	d841      	bhi.n	10006650 <ip_reass_chain_frag_into_datagram_and_validate+0x118>
100065cc:	607e      	str	r6, [r7, #4]
100065ce:	e7f0      	b.n	100065b2 <ip_reass_chain_frag_into_datagram_and_validate+0x7a>
100065d0:	681c      	ldr	r4, [r3, #0]
100065d2:	461d      	mov	r5, r3
100065d4:	2c00      	cmp	r4, #0
100065d6:	d0ec      	beq.n	100065b2 <ip_reass_chain_frag_into_datagram_and_validate+0x7a>
100065d8:	6863      	ldr	r3, [r4, #4]
100065da:	f8b3 e004 	ldrh.w	lr, [r3, #4]
100065de:	45e6      	cmp	lr, ip
100065e0:	d8da      	bhi.n	10006598 <ip_reass_chain_frag_into_datagram_and_validate+0x60>
100065e2:	45e6      	cmp	lr, ip
100065e4:	d037      	beq.n	10006656 <ip_reass_chain_frag_into_datagram_and_validate+0x11e>
100065e6:	88da      	ldrh	r2, [r3, #6]
100065e8:	4562      	cmp	r2, ip
100065ea:	d837      	bhi.n	1000665c <ip_reass_chain_frag_into_datagram_and_validate+0x124>
100065ec:	2d00      	cmp	r5, #0
100065ee:	d0ef      	beq.n	100065d0 <ip_reass_chain_frag_into_datagram_and_validate+0x98>
100065f0:	88ea      	ldrh	r2, [r5, #6]
100065f2:	4596      	cmp	lr, r2
100065f4:	d0ec      	beq.n	100065d0 <ip_reass_chain_frag_into_datagram_and_validate+0x98>
100065f6:	2000      	movs	r0, #0
100065f8:	e7ea      	b.n	100065d0 <ip_reass_chain_frag_into_datagram_and_validate+0x98>
100065fa:	b135      	cbz	r5, 1000660a <ip_reass_chain_frag_into_datagram_and_validate+0xd2>
100065fc:	602e      	str	r6, [r5, #0]
100065fe:	88ea      	ldrh	r2, [r5, #6]
10006600:	888b      	ldrh	r3, [r1, #4]
10006602:	429a      	cmp	r2, r3
10006604:	d0d6      	beq.n	100065b4 <ip_reass_chain_frag_into_datagram_and_validate+0x7c>
10006606:	2000      	movs	r0, #0
10006608:	e7d4      	b.n	100065b4 <ip_reass_chain_frag_into_datagram_and_validate+0x7c>
1000660a:	607e      	str	r6, [r7, #4]
1000660c:	e7d2      	b.n	100065b4 <ip_reass_chain_frag_into_datagram_and_validate+0x7c>
1000660e:	2800      	cmp	r0, #0
10006610:	d0a3      	beq.n	1000655a <ip_reass_chain_frag_into_datagram_and_validate+0x22>
10006612:	687b      	ldr	r3, [r7, #4]
10006614:	b17b      	cbz	r3, 10006636 <ip_reass_chain_frag_into_datagram_and_validate+0xfe>
10006616:	685b      	ldr	r3, [r3, #4]
10006618:	889b      	ldrh	r3, [r3, #4]
1000661a:	b973      	cbnz	r3, 1000663a <ip_reass_chain_frag_into_datagram_and_validate+0x102>
1000661c:	680a      	ldr	r2, [r1, #0]
1000661e:	2a00      	cmp	r2, #0
10006620:	d09b      	beq.n	1000655a <ip_reass_chain_frag_into_datagram_and_validate+0x22>
10006622:	6853      	ldr	r3, [r2, #4]
10006624:	88c9      	ldrh	r1, [r1, #6]
10006626:	889a      	ldrh	r2, [r3, #4]
10006628:	4291      	cmp	r1, r2
1000662a:	d102      	bne.n	10006632 <ip_reass_chain_frag_into_datagram_and_validate+0xfa>
1000662c:	681a      	ldr	r2, [r3, #0]
1000662e:	4619      	mov	r1, r3
10006630:	e7f5      	b.n	1000661e <ip_reass_chain_frag_into_datagram_and_validate+0xe6>
10006632:	2000      	movs	r0, #0
10006634:	e791      	b.n	1000655a <ip_reass_chain_frag_into_datagram_and_validate+0x22>
10006636:	2000      	movs	r0, #0
10006638:	e78f      	b.n	1000655a <ip_reass_chain_frag_into_datagram_and_validate+0x22>
1000663a:	2000      	movs	r0, #0
1000663c:	e78d      	b.n	1000655a <ip_reass_chain_frag_into_datagram_and_validate+0x22>
1000663e:	f04f 30ff 	mov.w	r0, #4294967295
10006642:	e78a      	b.n	1000655a <ip_reass_chain_frag_into_datagram_and_validate+0x22>
10006644:	f04f 30ff 	mov.w	r0, #4294967295
10006648:	e787      	b.n	1000655a <ip_reass_chain_frag_into_datagram_and_validate+0x22>
1000664a:	f04f 30ff 	mov.w	r0, #4294967295
1000664e:	e784      	b.n	1000655a <ip_reass_chain_frag_into_datagram_and_validate+0x22>
10006650:	f04f 30ff 	mov.w	r0, #4294967295
10006654:	e781      	b.n	1000655a <ip_reass_chain_frag_into_datagram_and_validate+0x22>
10006656:	f04f 30ff 	mov.w	r0, #4294967295
1000665a:	e77e      	b.n	1000655a <ip_reass_chain_frag_into_datagram_and_validate+0x22>
1000665c:	f04f 30ff 	mov.w	r0, #4294967295
10006660:	e77b      	b.n	1000655a <ip_reass_chain_frag_into_datagram_and_validate+0x22>

10006662 <ip_frag_alloc_pbuf_custom_ref>:
10006662:	b508      	push	{r3, lr}
10006664:	2005      	movs	r0, #5
10006666:	f7fa fe49 	bl	100012fc <memp_malloc>
1000666a:	bd08      	pop	{r3, pc}

1000666c <ip_reass_enqueue_new_datagram>:
1000666c:	b570      	push	{r4, r5, r6, lr}
1000666e:	4605      	mov	r5, r0
10006670:	460e      	mov	r6, r1
10006672:	2004      	movs	r0, #4
10006674:	f7fa fe42 	bl	100012fc <memp_malloc>
10006678:	4604      	mov	r4, r0
1000667a:	b1b0      	cbz	r0, 100066aa <ip_reass_enqueue_new_datagram+0x3e>
1000667c:	2220      	movs	r2, #32
1000667e:	2100      	movs	r1, #0
10006680:	4620      	mov	r0, r4
10006682:	f006 f939 	bl	1000c8f8 <memset>
10006686:	230f      	movs	r3, #15
10006688:	77e3      	strb	r3, [r4, #31]
1000668a:	4b11      	ldr	r3, [pc, #68]	@ (100066d0 <ip_reass_enqueue_new_datagram+0x64>)
1000668c:	681a      	ldr	r2, [r3, #0]
1000668e:	6022      	str	r2, [r4, #0]
10006690:	601c      	str	r4, [r3, #0]
10006692:	682b      	ldr	r3, [r5, #0]
10006694:	6868      	ldr	r0, [r5, #4]
10006696:	68a9      	ldr	r1, [r5, #8]
10006698:	68ea      	ldr	r2, [r5, #12]
1000669a:	60a3      	str	r3, [r4, #8]
1000669c:	60e0      	str	r0, [r4, #12]
1000669e:	6121      	str	r1, [r4, #16]
100066a0:	6162      	str	r2, [r4, #20]
100066a2:	692b      	ldr	r3, [r5, #16]
100066a4:	61a3      	str	r3, [r4, #24]
100066a6:	4620      	mov	r0, r4
100066a8:	bd70      	pop	{r4, r5, r6, pc}
100066aa:	4631      	mov	r1, r6
100066ac:	4628      	mov	r0, r5
100066ae:	f7ff fef7 	bl	100064a0 <ip_reass_remove_oldest_datagram>
100066b2:	42b0      	cmp	r0, r6
100066b4:	da06      	bge.n	100066c4 <ip_reass_enqueue_new_datagram+0x58>
100066b6:	2c00      	cmp	r4, #0
100066b8:	d1e0      	bne.n	1000667c <ip_reass_enqueue_new_datagram+0x10>
100066ba:	4a06      	ldr	r2, [pc, #24]	@ (100066d4 <ip_reass_enqueue_new_datagram+0x68>)
100066bc:	8f93      	ldrh	r3, [r2, #60]	@ 0x3c
100066be:	3301      	adds	r3, #1
100066c0:	8793      	strh	r3, [r2, #60]	@ 0x3c
100066c2:	e7f0      	b.n	100066a6 <ip_reass_enqueue_new_datagram+0x3a>
100066c4:	2004      	movs	r0, #4
100066c6:	f7fa fe19 	bl	100012fc <memp_malloc>
100066ca:	4604      	mov	r4, r0
100066cc:	e7f3      	b.n	100066b6 <ip_reass_enqueue_new_datagram+0x4a>
100066ce:	bf00      	nop
100066d0:	20005efc 	.word	0x20005efc
100066d4:	20001db0 	.word	0x20001db0

100066d8 <ip_reass_tmr>:
100066d8:	b538      	push	{r3, r4, r5, lr}
100066da:	4b09      	ldr	r3, [pc, #36]	@ (10006700 <ip_reass_tmr+0x28>)
100066dc:	6818      	ldr	r0, [r3, #0]
100066de:	2400      	movs	r4, #0
100066e0:	e003      	b.n	100066ea <ip_reass_tmr+0x12>
100066e2:	3b01      	subs	r3, #1
100066e4:	77c3      	strb	r3, [r0, #31]
100066e6:	4604      	mov	r4, r0
100066e8:	6800      	ldr	r0, [r0, #0]
100066ea:	b140      	cbz	r0, 100066fe <ip_reass_tmr+0x26>
100066ec:	7fc3      	ldrb	r3, [r0, #31]
100066ee:	2b00      	cmp	r3, #0
100066f0:	d1f7      	bne.n	100066e2 <ip_reass_tmr+0xa>
100066f2:	6805      	ldr	r5, [r0, #0]
100066f4:	4621      	mov	r1, r4
100066f6:	f7ff fe95 	bl	10006424 <ip_reass_free_complete_datagram>
100066fa:	4628      	mov	r0, r5
100066fc:	e7f5      	b.n	100066ea <ip_reass_tmr+0x12>
100066fe:	bd38      	pop	{r3, r4, r5, pc}
10006700:	20005efc 	.word	0x20005efc

10006704 <ip4_reass>:
10006704:	e92d 43f8 	stmdb	sp!, {r3, r4, r5, r6, r7, r8, r9, lr}
10006708:	4606      	mov	r6, r0
1000670a:	4a78      	ldr	r2, [pc, #480]	@ (100068ec <ip4_reass+0x1e8>)
1000670c:	8e53      	ldrh	r3, [r2, #50]	@ 0x32
1000670e:	3301      	adds	r3, #1
10006710:	8653      	strh	r3, [r2, #50]	@ 0x32
10006712:	6845      	ldr	r5, [r0, #4]
10006714:	782b      	ldrb	r3, [r5, #0]
10006716:	f003 030f 	and.w	r3, r3, #15
1000671a:	2b05      	cmp	r3, #5
1000671c:	d11e      	bne.n	1000675c <ip4_reass+0x58>
1000671e:	88e8      	ldrh	r0, [r5, #6]
10006720:	f7fa fa4a 	bl	10000bb8 <lwip_htons>
10006724:	f3c0 080c 	ubfx	r8, r0, #0, #13
10006728:	ea4f 08c8 	mov.w	r8, r8, lsl #3
1000672c:	8868      	ldrh	r0, [r5, #2]
1000672e:	f7fa fa43 	bl	10000bb8 <lwip_htons>
10006732:	782b      	ldrb	r3, [r5, #0]
10006734:	f003 030f 	and.w	r3, r3, #15
10006738:	009a      	lsls	r2, r3, #2
1000673a:	ebb0 0f83 	cmp.w	r0, r3, lsl #2
1000673e:	d312      	bcc.n	10006766 <ip4_reass+0x62>
10006740:	1a80      	subs	r0, r0, r2
10006742:	b287      	uxth	r7, r0
10006744:	4630      	mov	r0, r6
10006746:	f7fb f888 	bl	1000185a <pbuf_clen>
1000674a:	4681      	mov	r9, r0
1000674c:	4b68      	ldr	r3, [pc, #416]	@ (100068f0 <ip4_reass+0x1ec>)
1000674e:	881b      	ldrh	r3, [r3, #0]
10006750:	4403      	add	r3, r0
10006752:	2b0a      	cmp	r3, #10
10006754:	dc12      	bgt.n	1000677c <ip4_reass+0x78>
10006756:	4b67      	ldr	r3, [pc, #412]	@ (100068f4 <ip4_reass+0x1f0>)
10006758:	681c      	ldr	r4, [r3, #0]
1000675a:	e01f      	b.n	1000679c <ip4_reass+0x98>
1000675c:	f8b2 3044 	ldrh.w	r3, [r2, #68]	@ 0x44
10006760:	3301      	adds	r3, #1
10006762:	f8a2 3044 	strh.w	r3, [r2, #68]	@ 0x44
10006766:	4a61      	ldr	r2, [pc, #388]	@ (100068ec <ip4_reass+0x1e8>)
10006768:	8ed3      	ldrh	r3, [r2, #54]	@ 0x36
1000676a:	3301      	adds	r3, #1
1000676c:	86d3      	strh	r3, [r2, #54]	@ 0x36
1000676e:	4630      	mov	r0, r6
10006770:	f7fa ff8d 	bl	1000168e <pbuf_free>
10006774:	2500      	movs	r5, #0
10006776:	4628      	mov	r0, r5
10006778:	e8bd 83f8 	ldmia.w	sp!, {r3, r4, r5, r6, r7, r8, r9, pc}
1000677c:	4601      	mov	r1, r0
1000677e:	4628      	mov	r0, r5
10006780:	f7ff fe8e 	bl	100064a0 <ip_reass_remove_oldest_datagram>
10006784:	b120      	cbz	r0, 10006790 <ip4_reass+0x8c>
10006786:	4b5a      	ldr	r3, [pc, #360]	@ (100068f0 <ip4_reass+0x1ec>)
10006788:	881b      	ldrh	r3, [r3, #0]
1000678a:	444b      	add	r3, r9
1000678c:	2b0a      	cmp	r3, #10
1000678e:	dde2      	ble.n	10006756 <ip4_reass+0x52>
10006790:	4a56      	ldr	r2, [pc, #344]	@ (100068ec <ip4_reass+0x1e8>)
10006792:	8f93      	ldrh	r3, [r2, #60]	@ 0x3c
10006794:	3301      	adds	r3, #1
10006796:	8793      	strh	r3, [r2, #60]	@ 0x3c
10006798:	e7e5      	b.n	10006766 <ip4_reass+0x62>
1000679a:	6824      	ldr	r4, [r4, #0]
1000679c:	b18c      	cbz	r4, 100067c2 <ip4_reass+0xbe>
1000679e:	6962      	ldr	r2, [r4, #20]
100067a0:	68eb      	ldr	r3, [r5, #12]
100067a2:	429a      	cmp	r2, r3
100067a4:	d1f9      	bne.n	1000679a <ip4_reass+0x96>
100067a6:	69a2      	ldr	r2, [r4, #24]
100067a8:	692b      	ldr	r3, [r5, #16]
100067aa:	429a      	cmp	r2, r3
100067ac:	d1f5      	bne.n	1000679a <ip4_reass+0x96>
100067ae:	89a2      	ldrh	r2, [r4, #12]
100067b0:	88ab      	ldrh	r3, [r5, #4]
100067b2:	429a      	cmp	r2, r3
100067b4:	d1f1      	bne.n	1000679a <ip4_reass+0x96>
100067b6:	4a4d      	ldr	r2, [pc, #308]	@ (100068ec <ip4_reass+0x1e8>)
100067b8:	f8b2 3046 	ldrh.w	r3, [r2, #70]	@ 0x46
100067bc:	3301      	adds	r3, #1
100067be:	f8a2 3046 	strh.w	r3, [r2, #70]	@ 0x46
100067c2:	b374      	cbz	r4, 10006822 <ip4_reass+0x11e>
100067c4:	88e8      	ldrh	r0, [r5, #6]
100067c6:	f7fa f9f7 	bl	10000bb8 <lwip_htons>
100067ca:	f3c0 000c 	ubfx	r0, r0, #0, #13
100067ce:	b380      	cbz	r0, 10006832 <ip4_reass+0x12e>
100067d0:	88ed      	ldrh	r5, [r5, #6]
100067d2:	f005 0520 	and.w	r5, r5, #32
100067d6:	2d00      	cmp	r5, #0
100067d8:	bf0c      	ite	eq
100067da:	2201      	moveq	r2, #1
100067dc:	2200      	movne	r2, #0
100067de:	d108      	bne.n	100067f2 <ip4_reass+0xee>
100067e0:	eb08 0307 	add.w	r3, r8, r7
100067e4:	b29b      	uxth	r3, r3
100067e6:	4598      	cmp	r8, r3
100067e8:	d876      	bhi.n	100068d8 <ip4_reass+0x1d4>
100067ea:	f64f 71eb 	movw	r1, #65515	@ 0xffeb
100067ee:	428b      	cmp	r3, r1
100067f0:	d872      	bhi.n	100068d8 <ip4_reass+0x1d4>
100067f2:	4631      	mov	r1, r6
100067f4:	4620      	mov	r0, r4
100067f6:	f7ff fe9f 	bl	10006538 <ip_reass_chain_frag_into_datagram_and_validate>
100067fa:	f1b0 3fff 	cmp.w	r0, #4294967295
100067fe:	d06b      	beq.n	100068d8 <ip4_reass+0x1d4>
10006800:	4b3b      	ldr	r3, [pc, #236]	@ (100068f0 <ip4_reass+0x1ec>)
10006802:	881a      	ldrh	r2, [r3, #0]
10006804:	4491      	add	r9, r2
10006806:	f8a3 9000 	strh.w	r9, [r3]
1000680a:	b935      	cbnz	r5, 1000681a <ip4_reass+0x116>
1000680c:	44b8      	add	r8, r7
1000680e:	f8a4 801c 	strh.w	r8, [r4, #28]
10006812:	7fa3      	ldrb	r3, [r4, #30]
10006814:	f043 0301 	orr.w	r3, r3, #1
10006818:	77a3      	strb	r3, [r4, #30]
1000681a:	2801      	cmp	r0, #1
1000681c:	d01b      	beq.n	10006856 <ip4_reass+0x152>
1000681e:	2500      	movs	r5, #0
10006820:	e7a9      	b.n	10006776 <ip4_reass+0x72>
10006822:	4649      	mov	r1, r9
10006824:	4628      	mov	r0, r5
10006826:	f7ff ff21 	bl	1000666c <ip_reass_enqueue_new_datagram>
1000682a:	4604      	mov	r4, r0
1000682c:	2800      	cmp	r0, #0
1000682e:	d1cf      	bne.n	100067d0 <ip4_reass+0xcc>
10006830:	e799      	b.n	10006766 <ip4_reass+0x62>
10006832:	89e0      	ldrh	r0, [r4, #14]
10006834:	f7fa f9c0 	bl	10000bb8 <lwip_htons>
10006838:	f3c0 000c 	ubfx	r0, r0, #0, #13
1000683c:	2800      	cmp	r0, #0
1000683e:	d0c7      	beq.n	100067d0 <ip4_reass+0xcc>
10006840:	682b      	ldr	r3, [r5, #0]
10006842:	6868      	ldr	r0, [r5, #4]
10006844:	68a9      	ldr	r1, [r5, #8]
10006846:	68ea      	ldr	r2, [r5, #12]
10006848:	60a3      	str	r3, [r4, #8]
1000684a:	60e0      	str	r0, [r4, #12]
1000684c:	6121      	str	r1, [r4, #16]
1000684e:	6162      	str	r2, [r4, #20]
10006850:	692b      	ldr	r3, [r5, #16]
10006852:	61a3      	str	r3, [r4, #24]
10006854:	e7bc      	b.n	100067d0 <ip4_reass+0xcc>
10006856:	8ba0      	ldrh	r0, [r4, #28]
10006858:	3014      	adds	r0, #20
1000685a:	6863      	ldr	r3, [r4, #4]
1000685c:	685d      	ldr	r5, [r3, #4]
1000685e:	682e      	ldr	r6, [r5, #0]
10006860:	68a3      	ldr	r3, [r4, #8]
10006862:	68e7      	ldr	r7, [r4, #12]
10006864:	6921      	ldr	r1, [r4, #16]
10006866:	6962      	ldr	r2, [r4, #20]
10006868:	602b      	str	r3, [r5, #0]
1000686a:	606f      	str	r7, [r5, #4]
1000686c:	60a9      	str	r1, [r5, #8]
1000686e:	60ea      	str	r2, [r5, #12]
10006870:	69a3      	ldr	r3, [r4, #24]
10006872:	612b      	str	r3, [r5, #16]
10006874:	b280      	uxth	r0, r0
10006876:	f7fa f99f 	bl	10000bb8 <lwip_htons>
1000687a:	8068      	strh	r0, [r5, #2]
1000687c:	2300      	movs	r3, #0
1000687e:	71ab      	strb	r3, [r5, #6]
10006880:	71eb      	strb	r3, [r5, #7]
10006882:	72ab      	strb	r3, [r5, #10]
10006884:	72eb      	strb	r3, [r5, #11]
10006886:	2114      	movs	r1, #20
10006888:	4628      	mov	r0, r5
1000688a:	f7fa fa51 	bl	10000d30 <inet_chksum>
1000688e:	8168      	strh	r0, [r5, #10]
10006890:	6865      	ldr	r5, [r4, #4]
10006892:	e009      	b.n	100068a8 <ip4_reass+0x1a4>
10006894:	6877      	ldr	r7, [r6, #4]
10006896:	2114      	movs	r1, #20
10006898:	4630      	mov	r0, r6
1000689a:	f7fa feca 	bl	10001632 <pbuf_remove_header>
1000689e:	4631      	mov	r1, r6
100068a0:	4628      	mov	r0, r5
100068a2:	f7fa ffef 	bl	10001884 <pbuf_cat>
100068a6:	683e      	ldr	r6, [r7, #0]
100068a8:	2e00      	cmp	r6, #0
100068aa:	d1f3      	bne.n	10006894 <ip4_reass+0x190>
100068ac:	4b11      	ldr	r3, [pc, #68]	@ (100068f4 <ip4_reass+0x1f0>)
100068ae:	6819      	ldr	r1, [r3, #0]
100068b0:	42a1      	cmp	r1, r4
100068b2:	d005      	beq.n	100068c0 <ip4_reass+0x1bc>
100068b4:	b129      	cbz	r1, 100068c2 <ip4_reass+0x1be>
100068b6:	680b      	ldr	r3, [r1, #0]
100068b8:	42a3      	cmp	r3, r4
100068ba:	d002      	beq.n	100068c2 <ip4_reass+0x1be>
100068bc:	4619      	mov	r1, r3
100068be:	e7f9      	b.n	100068b4 <ip4_reass+0x1b0>
100068c0:	4631      	mov	r1, r6
100068c2:	4620      	mov	r0, r4
100068c4:	f7ff fd9c 	bl	10006400 <ip_reass_dequeue_datagram>
100068c8:	4628      	mov	r0, r5
100068ca:	f7fa ffc6 	bl	1000185a <pbuf_clen>
100068ce:	4a08      	ldr	r2, [pc, #32]	@ (100068f0 <ip4_reass+0x1ec>)
100068d0:	8813      	ldrh	r3, [r2, #0]
100068d2:	1a1b      	subs	r3, r3, r0
100068d4:	8013      	strh	r3, [r2, #0]
100068d6:	e74e      	b.n	10006776 <ip4_reass+0x72>
100068d8:	6863      	ldr	r3, [r4, #4]
100068da:	2b00      	cmp	r3, #0
100068dc:	f47f af43 	bne.w	10006766 <ip4_reass+0x62>
100068e0:	2100      	movs	r1, #0
100068e2:	4620      	mov	r0, r4
100068e4:	f7ff fd8c 	bl	10006400 <ip_reass_dequeue_datagram>
100068e8:	e73d      	b.n	10006766 <ip4_reass+0x62>
100068ea:	bf00      	nop
100068ec:	20001db0 	.word	0x20001db0
100068f0:	20005f4e 	.word	0x20005f4e
100068f4:	20005efc 	.word	0x20005efc

100068f8 <ip4_frag>:
100068f8:	e92d 4ff0 	stmdb	sp!, {r4, r5, r6, r7, r8, r9, sl, fp, lr}
100068fc:	b08b      	sub	sp, #44	@ 0x2c
100068fe:	4606      	mov	r6, r0
10006900:	9106      	str	r1, [sp, #24]
10006902:	9208      	str	r2, [sp, #32]
10006904:	8b8b      	ldrh	r3, [r1, #28]
10006906:	3b14      	subs	r3, #20
10006908:	d449      	bmi.n	1000699e <ip4_frag+0xa6>
1000690a:	f3c3 03cf 	ubfx	r3, r3, #3, #16
1000690e:	9304      	str	r3, [sp, #16]
10006910:	f8d6 b004 	ldr.w	fp, [r6, #4]
10006914:	f89b 3000 	ldrb.w	r3, [fp]
10006918:	f003 030f 	and.w	r3, r3, #15
1000691c:	2b05      	cmp	r3, #5
1000691e:	f040 80b8 	bne.w	10006a92 <ip4_frag+0x19a>
10006922:	8973      	ldrh	r3, [r6, #10]
10006924:	2b13      	cmp	r3, #19
10006926:	f240 80b7 	bls.w	10006a98 <ip4_frag+0x1a0>
1000692a:	f8bb 0006 	ldrh.w	r0, [fp, #6]
1000692e:	f7fa f943 	bl	10000bb8 <lwip_htons>
10006932:	f3c0 030c 	ubfx	r3, r0, #0, #13
10006936:	9305      	str	r3, [sp, #20]
10006938:	f400 5300 	and.w	r3, r0, #8192	@ 0x2000
1000693c:	9309      	str	r3, [sp, #36]	@ 0x24
1000693e:	8933      	ldrh	r3, [r6, #8]
10006940:	3b14      	subs	r3, #20
10006942:	fa1f f883 	uxth.w	r8, r3
10006946:	2714      	movs	r7, #20
10006948:	2400      	movs	r4, #0
1000694a:	f1b8 0f00 	cmp.w	r8, #0
1000694e:	f000 809e 	beq.w	10006a8e <ip4_frag+0x196>
10006952:	9b04      	ldr	r3, [sp, #16]
10006954:	00db      	lsls	r3, r3, #3
10006956:	b29b      	uxth	r3, r3
10006958:	4543      	cmp	r3, r8
1000695a:	bf28      	it	cs
1000695c:	4643      	movcs	r3, r8
1000695e:	9303      	str	r3, [sp, #12]
10006960:	f44f 7220 	mov.w	r2, #640	@ 0x280
10006964:	2114      	movs	r1, #20
10006966:	200e      	movs	r0, #14
10006968:	f7fa fec5 	bl	100016f6 <pbuf_alloc>
1000696c:	4681      	mov	r9, r0
1000696e:	2800      	cmp	r0, #0
10006970:	f000 8095 	beq.w	10006a9e <ip4_frag+0x1a6>
10006974:	6843      	ldr	r3, [r0, #4]
10006976:	f8db 2000 	ldr.w	r2, [fp]
1000697a:	f8db 5004 	ldr.w	r5, [fp, #4]
1000697e:	f8db 0008 	ldr.w	r0, [fp, #8]
10006982:	f8db 100c 	ldr.w	r1, [fp, #12]
10006986:	601a      	str	r2, [r3, #0]
10006988:	605d      	str	r5, [r3, #4]
1000698a:	6098      	str	r0, [r3, #8]
1000698c:	60d9      	str	r1, [r3, #12]
1000698e:	f8db 2010 	ldr.w	r2, [fp, #16]
10006992:	611a      	str	r2, [r3, #16]
10006994:	f8d9 2004 	ldr.w	r2, [r9, #4]
10006998:	9207      	str	r2, [sp, #28]
1000699a:	9d03      	ldr	r5, [sp, #12]
1000699c:	e022      	b.n	100069e4 <ip4_frag+0xec>
1000699e:	3307      	adds	r3, #7
100069a0:	e7b3      	b.n	1000690a <ip4_frag+0x12>
100069a2:	f7ff fe5e 	bl	10006662 <ip_frag_alloc_pbuf_custom_ref>
100069a6:	4682      	mov	sl, r0
100069a8:	b340      	cbz	r0, 100069fc <ip4_frag+0x104>
100069aa:	6873      	ldr	r3, [r6, #4]
100069ac:	9401      	str	r4, [sp, #4]
100069ae:	443b      	add	r3, r7
100069b0:	9300      	str	r3, [sp, #0]
100069b2:	4603      	mov	r3, r0
100069b4:	2241      	movs	r2, #65	@ 0x41
100069b6:	4621      	mov	r1, r4
100069b8:	2000      	movs	r0, #0
100069ba:	f7fa fe16 	bl	100015ea <pbuf_alloced_custom>
100069be:	9002      	str	r0, [sp, #8]
100069c0:	b320      	cbz	r0, 10006a0c <ip4_frag+0x114>
100069c2:	4630      	mov	r0, r6
100069c4:	f7fa ff52 	bl	1000186c <pbuf_ref>
100069c8:	f8ca 6014 	str.w	r6, [sl, #20]
100069cc:	4b35      	ldr	r3, [pc, #212]	@ (10006aa4 <ip4_frag+0x1ac>)
100069ce:	f8ca 3010 	str.w	r3, [sl, #16]
100069d2:	9902      	ldr	r1, [sp, #8]
100069d4:	4648      	mov	r0, r9
100069d6:	f7fa ff55 	bl	10001884 <pbuf_cat>
100069da:	1b2d      	subs	r5, r5, r4
100069dc:	b2ad      	uxth	r5, r5
100069de:	b10d      	cbz	r5, 100069e4 <ip4_frag+0xec>
100069e0:	6836      	ldr	r6, [r6, #0]
100069e2:	2700      	movs	r7, #0
100069e4:	b1dd      	cbz	r5, 10006a1e <ip4_frag+0x126>
100069e6:	8974      	ldrh	r4, [r6, #10]
100069e8:	1be4      	subs	r4, r4, r7
100069ea:	b2a4      	uxth	r4, r4
100069ec:	42ac      	cmp	r4, r5
100069ee:	bf28      	it	cs
100069f0:	462c      	movcs	r4, r5
100069f2:	2c00      	cmp	r4, #0
100069f4:	d1d5      	bne.n	100069a2 <ip4_frag+0xaa>
100069f6:	6836      	ldr	r6, [r6, #0]
100069f8:	4627      	mov	r7, r4
100069fa:	e7f3      	b.n	100069e4 <ip4_frag+0xec>
100069fc:	4648      	mov	r0, r9
100069fe:	f7fa fe46 	bl	1000168e <pbuf_free>
10006a02:	f04f 30ff 	mov.w	r0, #4294967295
10006a06:	b00b      	add	sp, #44	@ 0x2c
10006a08:	e8bd 8ff0 	ldmia.w	sp!, {r4, r5, r6, r7, r8, r9, sl, fp, pc}
10006a0c:	4650      	mov	r0, sl
10006a0e:	f7ff fd83 	bl	10006518 <ip_frag_free_pbuf_custom_ref>
10006a12:	4648      	mov	r0, r9
10006a14:	f7fa fe3b 	bl	1000168e <pbuf_free>
10006a18:	f04f 30ff 	mov.w	r0, #4294967295
10006a1c:	e7f3      	b.n	10006a06 <ip4_frag+0x10e>
10006a1e:	4427      	add	r7, r4
10006a20:	b2bf      	uxth	r7, r7
10006a22:	9b06      	ldr	r3, [sp, #24]
10006a24:	8b9b      	ldrh	r3, [r3, #28]
10006a26:	3b13      	subs	r3, #19
10006a28:	9a05      	ldr	r2, [sp, #20]
10006a2a:	f3c2 000c 	ubfx	r0, r2, #0, #13
10006a2e:	4543      	cmp	r3, r8
10006a30:	dd01      	ble.n	10006a36 <ip4_frag+0x13e>
10006a32:	9b09      	ldr	r3, [sp, #36]	@ 0x24
10006a34:	b10b      	cbz	r3, 10006a3a <ip4_frag+0x142>
10006a36:	f440 5000 	orr.w	r0, r0, #8192	@ 0x2000
10006a3a:	f7fa f8bd 	bl	10000bb8 <lwip_htons>
10006a3e:	9d07      	ldr	r5, [sp, #28]
10006a40:	80e8      	strh	r0, [r5, #6]
10006a42:	9b03      	ldr	r3, [sp, #12]
10006a44:	f103 0014 	add.w	r0, r3, #20
10006a48:	b280      	uxth	r0, r0
10006a4a:	f7fa f8b5 	bl	10000bb8 <lwip_htons>
10006a4e:	8068      	strh	r0, [r5, #2]
10006a50:	2300      	movs	r3, #0
10006a52:	72ab      	strb	r3, [r5, #10]
10006a54:	72eb      	strb	r3, [r5, #11]
10006a56:	2114      	movs	r1, #20
10006a58:	4628      	mov	r0, r5
10006a5a:	f7fa f969 	bl	10000d30 <inet_chksum>
10006a5e:	8168      	strh	r0, [r5, #10]
10006a60:	9806      	ldr	r0, [sp, #24]
10006a62:	6903      	ldr	r3, [r0, #16]
10006a64:	9a08      	ldr	r2, [sp, #32]
10006a66:	4649      	mov	r1, r9
10006a68:	4798      	blx	r3
10006a6a:	4a0f      	ldr	r2, [pc, #60]	@ (10006aa8 <ip4_frag+0x1b0>)
10006a6c:	8e13      	ldrh	r3, [r2, #48]	@ 0x30
10006a6e:	3301      	adds	r3, #1
10006a70:	8613      	strh	r3, [r2, #48]	@ 0x30
10006a72:	4648      	mov	r0, r9
10006a74:	f7fa fe0b 	bl	1000168e <pbuf_free>
10006a78:	9b03      	ldr	r3, [sp, #12]
10006a7a:	eba8 0303 	sub.w	r3, r8, r3
10006a7e:	fa1f f883 	uxth.w	r8, r3
10006a82:	9b05      	ldr	r3, [sp, #20]
10006a84:	9a04      	ldr	r2, [sp, #16]
10006a86:	4413      	add	r3, r2
10006a88:	b29b      	uxth	r3, r3
10006a8a:	9305      	str	r3, [sp, #20]
10006a8c:	e75d      	b.n	1000694a <ip4_frag+0x52>
10006a8e:	2000      	movs	r0, #0
10006a90:	e7b9      	b.n	10006a06 <ip4_frag+0x10e>
10006a92:	f06f 0005 	mvn.w	r0, #5
10006a96:	e7b6      	b.n	10006a06 <ip4_frag+0x10e>
10006a98:	f06f 0005 	mvn.w	r0, #5
10006a9c:	e7b3      	b.n	10006a06 <ip4_frag+0x10e>
10006a9e:	f04f 30ff 	mov.w	r0, #4294967295
10006aa2:	e7b0      	b.n	10006a06 <ip4_frag+0x10e>
10006aa4:	10006525 	.word	0x10006525
10006aa8:	20001db0 	.word	0x20001db0

10006aac <ethernet_input>:
10006aac:	b570      	push	{r4, r5, r6, lr}
10006aae:	4604      	mov	r4, r0
10006ab0:	8943      	ldrh	r3, [r0, #10]
10006ab2:	2b0e      	cmp	r3, #14
10006ab4:	d924      	bls.n	10006b00 <ethernet_input+0x54>
10006ab6:	460d      	mov	r5, r1
10006ab8:	6840      	ldr	r0, [r0, #4]
10006aba:	8986      	ldrh	r6, [r0, #12]
10006abc:	7be3      	ldrb	r3, [r4, #15]
10006abe:	b91b      	cbnz	r3, 10006ac8 <ethernet_input+0x1c>
10006ac0:	f891 3028 	ldrb.w	r3, [r1, #40]	@ 0x28
10006ac4:	3301      	adds	r3, #1
10006ac6:	73e3      	strb	r3, [r4, #15]
10006ac8:	7803      	ldrb	r3, [r0, #0]
10006aca:	f013 0f01 	tst.w	r3, #1
10006ace:	d00a      	beq.n	10006ae6 <ethernet_input+0x3a>
10006ad0:	2b01      	cmp	r3, #1
10006ad2:	d021      	beq.n	10006b18 <ethernet_input+0x6c>
10006ad4:	2206      	movs	r2, #6
10006ad6:	4929      	ldr	r1, [pc, #164]	@ (10006b7c <ethernet_input+0xd0>)
10006ad8:	f005 fee0 	bl	1000c89c <memcmp>
10006adc:	b918      	cbnz	r0, 10006ae6 <ethernet_input+0x3a>
10006ade:	7b63      	ldrb	r3, [r4, #13]
10006ae0:	f043 0308 	orr.w	r3, r3, #8
10006ae4:	7363      	strb	r3, [r4, #13]
10006ae6:	2e08      	cmp	r6, #8
10006ae8:	d021      	beq.n	10006b2e <ethernet_input+0x82>
10006aea:	f5b6 6fc1 	cmp.w	r6, #1544	@ 0x608
10006aee:	d02e      	beq.n	10006b4e <ethernet_input+0xa2>
10006af0:	4b23      	ldr	r3, [pc, #140]	@ (10006b80 <ethernet_input+0xd4>)
10006af2:	8d1a      	ldrh	r2, [r3, #40]	@ 0x28
10006af4:	3201      	adds	r2, #1
10006af6:	851a      	strh	r2, [r3, #40]	@ 0x28
10006af8:	8bda      	ldrh	r2, [r3, #30]
10006afa:	3201      	adds	r2, #1
10006afc:	83da      	strh	r2, [r3, #30]
10006afe:	e006      	b.n	10006b0e <ethernet_input+0x62>
10006b00:	4b1f      	ldr	r3, [pc, #124]	@ (10006b80 <ethernet_input+0xd4>)
10006b02:	8d1a      	ldrh	r2, [r3, #40]	@ 0x28
10006b04:	3201      	adds	r2, #1
10006b06:	851a      	strh	r2, [r3, #40]	@ 0x28
10006b08:	8bda      	ldrh	r2, [r3, #30]
10006b0a:	3201      	adds	r2, #1
10006b0c:	83da      	strh	r2, [r3, #30]
10006b0e:	4620      	mov	r0, r4
10006b10:	f7fa fdbd 	bl	1000168e <pbuf_free>
10006b14:	2000      	movs	r0, #0
10006b16:	bd70      	pop	{r4, r5, r6, pc}
10006b18:	7843      	ldrb	r3, [r0, #1]
10006b1a:	2b00      	cmp	r3, #0
10006b1c:	d1e3      	bne.n	10006ae6 <ethernet_input+0x3a>
10006b1e:	7883      	ldrb	r3, [r0, #2]
10006b20:	2b5e      	cmp	r3, #94	@ 0x5e
10006b22:	d1e0      	bne.n	10006ae6 <ethernet_input+0x3a>
10006b24:	7b63      	ldrb	r3, [r4, #13]
10006b26:	f043 0310 	orr.w	r3, r3, #16
10006b2a:	7363      	strb	r3, [r4, #13]
10006b2c:	e7db      	b.n	10006ae6 <ethernet_input+0x3a>
10006b2e:	f895 3025 	ldrb.w	r3, [r5, #37]	@ 0x25
10006b32:	f013 0f08 	tst.w	r3, #8
10006b36:	d0ea      	beq.n	10006b0e <ethernet_input+0x62>
10006b38:	210e      	movs	r1, #14
10006b3a:	4620      	mov	r0, r4
10006b3c:	f7fa fd79 	bl	10001632 <pbuf_remove_header>
10006b40:	2800      	cmp	r0, #0
10006b42:	d1e4      	bne.n	10006b0e <ethernet_input+0x62>
10006b44:	4629      	mov	r1, r5
10006b46:	4620      	mov	r0, r4
10006b48:	f7ff fa7c 	bl	10006044 <ip4_input>
10006b4c:	e7e2      	b.n	10006b14 <ethernet_input+0x68>
10006b4e:	f895 3025 	ldrb.w	r3, [r5, #37]	@ 0x25
10006b52:	f013 0f08 	tst.w	r3, #8
10006b56:	d0da      	beq.n	10006b0e <ethernet_input+0x62>
10006b58:	210e      	movs	r1, #14
10006b5a:	4620      	mov	r0, r4
10006b5c:	f7fa fd69 	bl	10001632 <pbuf_remove_header>
10006b60:	b138      	cbz	r0, 10006b72 <ethernet_input+0xc6>
10006b62:	4b07      	ldr	r3, [pc, #28]	@ (10006b80 <ethernet_input+0xd4>)
10006b64:	8c5a      	ldrh	r2, [r3, #34]	@ 0x22
10006b66:	3201      	adds	r2, #1
10006b68:	845a      	strh	r2, [r3, #34]	@ 0x22
10006b6a:	8bda      	ldrh	r2, [r3, #30]
10006b6c:	3201      	adds	r2, #1
10006b6e:	83da      	strh	r2, [r3, #30]
10006b70:	e7cd      	b.n	10006b0e <ethernet_input+0x62>
10006b72:	4629      	mov	r1, r5
10006b74:	4620      	mov	r0, r4
10006b76:	f7fe fea5 	bl	100058c4 <etharp_input>
10006b7a:	e7cb      	b.n	10006b14 <ethernet_input+0x68>
10006b7c:	1000d928 	.word	0x1000d928
10006b80:	20001db0 	.word	0x20001db0

10006b84 <ethernet_output>:
10006b84:	e92d 41f0 	stmdb	sp!, {r4, r5, r6, r7, r8, lr}
10006b88:	4605      	mov	r5, r0
10006b8a:	460c      	mov	r4, r1
10006b8c:	4616      	mov	r6, r2
10006b8e:	461f      	mov	r7, r3
10006b90:	f8bd 0018 	ldrh.w	r0, [sp, #24]
10006b94:	f7fa f810 	bl	10000bb8 <lwip_htons>
10006b98:	4680      	mov	r8, r0
10006b9a:	210e      	movs	r1, #14
10006b9c:	4620      	mov	r0, r4
10006b9e:	f7fa fd43 	bl	10001628 <pbuf_add_header>
10006ba2:	b988      	cbnz	r0, 10006bc8 <ethernet_output+0x44>
10006ba4:	6861      	ldr	r1, [r4, #4]
10006ba6:	f8a1 800c 	strh.w	r8, [r1, #12]
10006baa:	683b      	ldr	r3, [r7, #0]
10006bac:	600b      	str	r3, [r1, #0]
10006bae:	88bb      	ldrh	r3, [r7, #4]
10006bb0:	808b      	strh	r3, [r1, #4]
10006bb2:	6833      	ldr	r3, [r6, #0]
10006bb4:	f8c1 3006 	str.w	r3, [r1, #6]
10006bb8:	88b3      	ldrh	r3, [r6, #4]
10006bba:	814b      	strh	r3, [r1, #10]
10006bbc:	696b      	ldr	r3, [r5, #20]
10006bbe:	4621      	mov	r1, r4
10006bc0:	4628      	mov	r0, r5
10006bc2:	4798      	blx	r3
10006bc4:	e8bd 81f0 	ldmia.w	sp!, {r4, r5, r6, r7, r8, pc}
10006bc8:	4a03      	ldr	r2, [pc, #12]	@ (10006bd8 <ethernet_output+0x54>)
10006bca:	8953      	ldrh	r3, [r2, #10]
10006bcc:	3301      	adds	r3, #1
10006bce:	8153      	strh	r3, [r2, #10]
10006bd0:	f06f 0001 	mvn.w	r0, #1
10006bd4:	e7f6      	b.n	10006bc4 <ethernet_output+0x40>
10006bd6:	bf00      	nop
10006bd8:	20001db0 	.word	0x20001db0

10006bdc <httpd_init_pcb>:
10006bdc:	b190      	cbz	r0, 10006c04 <httpd_init_pcb+0x28>
10006bde:	b538      	push	{r3, r4, r5, lr}
10006be0:	460c      	mov	r4, r1
10006be2:	4605      	mov	r5, r0
10006be4:	2101      	movs	r1, #1
10006be6:	f7fb f91d 	bl	10001e24 <tcp_setprio>
10006bea:	4622      	mov	r2, r4
10006bec:	4906      	ldr	r1, [pc, #24]	@ (10006c08 <httpd_init_pcb+0x2c>)
10006bee:	4628      	mov	r0, r5
10006bf0:	f7fb f814 	bl	10001c1c <tcp_bind>
10006bf4:	21ff      	movs	r1, #255	@ 0xff
10006bf6:	4628      	mov	r0, r5
10006bf8:	f7fb f8b8 	bl	10001d6c <tcp_listen_with_backlog>
10006bfc:	4903      	ldr	r1, [pc, #12]	@ (10006c0c <httpd_init_pcb+0x30>)
10006bfe:	f7fb f937 	bl	10001e70 <tcp_accept>
10006c02:	bd38      	pop	{r3, r4, r5, pc}
10006c04:	4770      	bx	lr
10006c06:	bf00      	nop
10006c08:	1000d91c 	.word	0x1000d91c
10006c0c:	100071b1 	.word	0x100071b1

10006c10 <http_write>:
10006c10:	e92d 43f8 	stmdb	sp!, {r3, r4, r5, r6, r7, r8, r9, lr}
10006c14:	4698      	mov	r8, r3
10006c16:	8813      	ldrh	r3, [r2, #0]
10006c18:	b37b      	cbz	r3, 10006c7a <http_write+0x6a>
10006c1a:	4605      	mov	r5, r0
10006c1c:	460f      	mov	r7, r1
10006c1e:	4691      	mov	r9, r2
10006c20:	f8b0 2064 	ldrh.w	r2, [r0, #100]	@ 0x64
10006c24:	4293      	cmp	r3, r2
10006c26:	d800      	bhi.n	10006c2a <http_write+0x1a>
10006c28:	461a      	mov	r2, r3
10006c2a:	8e6c      	ldrh	r4, [r5, #50]	@ 0x32
10006c2c:	0064      	lsls	r4, r4, #1
10006c2e:	b2a4      	uxth	r4, r4
10006c30:	42a2      	cmp	r2, r4
10006c32:	d804      	bhi.n	10006c3e <http_write+0x2e>
10006c34:	4614      	mov	r4, r2
10006c36:	e002      	b.n	10006c3e <http_write+0x2e>
10006c38:	2401      	movs	r4, #1
10006c3a:	2c01      	cmp	r4, #1
10006c3c:	d915      	bls.n	10006c6a <http_write+0x5a>
10006c3e:	4643      	mov	r3, r8
10006c40:	4622      	mov	r2, r4
10006c42:	4639      	mov	r1, r7
10006c44:	4628      	mov	r0, r5
10006c46:	f7fd fb87 	bl	10004358 <tcp_write>
10006c4a:	f1b0 3fff 	cmp.w	r0, #4294967295
10006c4e:	d10c      	bne.n	10006c6a <http_write+0x5a>
10006c50:	f8b5 6064 	ldrh.w	r6, [r5, #100]	@ 0x64
10006c54:	2e00      	cmp	r6, #0
10006c56:	d0ef      	beq.n	10006c38 <http_write+0x28>
10006c58:	f8b5 3066 	ldrh.w	r3, [r5, #102]	@ 0x66
10006c5c:	2b0f      	cmp	r3, #15
10006c5e:	d802      	bhi.n	10006c66 <http_write+0x56>
10006c60:	f3c4 044f 	ubfx	r4, r4, #1, #16
10006c64:	e7e9      	b.n	10006c3a <http_write+0x2a>
10006c66:	2401      	movs	r4, #1
10006c68:	e7e7      	b.n	10006c3a <http_write+0x2a>
10006c6a:	b910      	cbnz	r0, 10006c72 <http_write+0x62>
10006c6c:	f8a9 4000 	strh.w	r4, [r9]
10006c70:	e004      	b.n	10006c7c <http_write+0x6c>
10006c72:	2300      	movs	r3, #0
10006c74:	f8a9 3000 	strh.w	r3, [r9]
10006c78:	e000      	b.n	10006c7c <http_write+0x6c>
10006c7a:	2000      	movs	r0, #0
10006c7c:	e8bd 83f8 	ldmia.w	sp!, {r3, r4, r5, r6, r7, r8, r9, pc}

10006c80 <http_send_data_nonssi>:
10006c80:	b510      	push	{r4, lr}
10006c82:	b082      	sub	sp, #8
10006c84:	460c      	mov	r4, r1
10006c86:	6a0b      	ldr	r3, [r1, #32]
10006c88:	f64f 72fe 	movw	r2, #65534	@ 0xfffe
10006c8c:	4293      	cmp	r3, r2
10006c8e:	d814      	bhi.n	10006cba <http_send_data_nonssi+0x3a>
10006c90:	b29b      	uxth	r3, r3
10006c92:	f8ad 3006 	strh.w	r3, [sp, #6]
10006c96:	2300      	movs	r3, #0
10006c98:	f10d 0206 	add.w	r2, sp, #6
10006c9c:	6961      	ldr	r1, [r4, #20]
10006c9e:	f7ff ffb7 	bl	10006c10 <http_write>
10006ca2:	b968      	cbnz	r0, 10006cc0 <http_send_data_nonssi+0x40>
10006ca4:	6963      	ldr	r3, [r4, #20]
10006ca6:	f8bd 2006 	ldrh.w	r2, [sp, #6]
10006caa:	4413      	add	r3, r2
10006cac:	6163      	str	r3, [r4, #20]
10006cae:	6a23      	ldr	r3, [r4, #32]
10006cb0:	1a9b      	subs	r3, r3, r2
10006cb2:	6223      	str	r3, [r4, #32]
10006cb4:	2001      	movs	r0, #1
10006cb6:	b002      	add	sp, #8
10006cb8:	bd10      	pop	{r4, pc}
10006cba:	f64f 73ff 	movw	r3, #65535	@ 0xffff
10006cbe:	e7e8      	b.n	10006c92 <http_send_data_nonssi+0x12>
10006cc0:	2000      	movs	r0, #0
10006cc2:	e7f8      	b.n	10006cb6 <http_send_data_nonssi+0x36>

10006cc4 <http_state_eof>:
10006cc4:	b510      	push	{r4, lr}
10006cc6:	4604      	mov	r4, r0
10006cc8:	6900      	ldr	r0, [r0, #16]
10006cca:	b118      	cbz	r0, 10006cd4 <http_state_eof+0x10>
10006ccc:	f000 fad0 	bl	10007270 <fs_close>
10006cd0:	2300      	movs	r3, #0
10006cd2:	6123      	str	r3, [r4, #16]
10006cd4:	69e0      	ldr	r0, [r4, #28]
10006cd6:	b118      	cbz	r0, 10006ce0 <http_state_eof+0x1c>
10006cd8:	f7fa fcd9 	bl	1000168e <pbuf_free>
10006cdc:	2300      	movs	r3, #0
10006cde:	61e3      	str	r3, [r4, #28]
10006ce0:	bd10      	pop	{r4, pc}

10006ce2 <http_state_free>:
10006ce2:	b138      	cbz	r0, 10006cf4 <http_state_free+0x12>
10006ce4:	b510      	push	{r4, lr}
10006ce6:	4604      	mov	r4, r0
10006ce8:	f7ff ffec 	bl	10006cc4 <http_state_eof>
10006cec:	4620      	mov	r0, r4
10006cee:	f7fa f8fb 	bl	10000ee8 <mem_free>
10006cf2:	bd10      	pop	{r4, pc}
10006cf4:	4770      	bx	lr
	...

10006cf8 <http_close_or_abort_conn>:
10006cf8:	b570      	push	{r4, r5, r6, lr}
10006cfa:	4604      	mov	r4, r0
10006cfc:	460d      	mov	r5, r1
10006cfe:	4616      	mov	r6, r2
10006d00:	2100      	movs	r1, #0
10006d02:	f7fb f8a6 	bl	10001e52 <tcp_arg>
10006d06:	2100      	movs	r1, #0
10006d08:	4620      	mov	r0, r4
10006d0a:	f7fb f8a5 	bl	10001e58 <tcp_recv>
10006d0e:	2100      	movs	r1, #0
10006d10:	4620      	mov	r0, r4
10006d12:	f7fb f8a9 	bl	10001e68 <tcp_err>
10006d16:	2200      	movs	r2, #0
10006d18:	4611      	mov	r1, r2
10006d1a:	4620      	mov	r0, r4
10006d1c:	f7fb f8af 	bl	10001e7e <tcp_poll>
10006d20:	2100      	movs	r1, #0
10006d22:	4620      	mov	r0, r4
10006d24:	f7fb f89c 	bl	10001e60 <tcp_sent>
10006d28:	b115      	cbz	r5, 10006d30 <http_close_or_abort_conn+0x38>
10006d2a:	4628      	mov	r0, r5
10006d2c:	f7ff ffd9 	bl	10006ce2 <http_state_free>
10006d30:	b936      	cbnz	r6, 10006d40 <http_close_or_abort_conn+0x48>
10006d32:	4620      	mov	r0, r4
10006d34:	f7fb fbc4 	bl	100024c0 <tcp_close>
10006d38:	4605      	mov	r5, r0
10006d3a:	b930      	cbnz	r0, 10006d4a <http_close_or_abort_conn+0x52>
10006d3c:	4628      	mov	r0, r5
10006d3e:	bd70      	pop	{r4, r5, r6, pc}
10006d40:	4620      	mov	r0, r4
10006d42:	f7fb fa01 	bl	10002148 <tcp_abort>
10006d46:	2500      	movs	r5, #0
10006d48:	e7f8      	b.n	10006d3c <http_close_or_abort_conn+0x44>
10006d4a:	2204      	movs	r2, #4
10006d4c:	4902      	ldr	r1, [pc, #8]	@ (10006d58 <http_close_or_abort_conn+0x60>)
10006d4e:	4620      	mov	r0, r4
10006d50:	f7fb f895 	bl	10001e7e <tcp_poll>
10006d54:	e7f2      	b.n	10006d3c <http_close_or_abort_conn+0x44>
10006d56:	bf00      	nop
10006d58:	10006e03 	.word	0x10006e03

10006d5c <http_close_conn>:
10006d5c:	b508      	push	{r3, lr}
10006d5e:	2200      	movs	r2, #0
10006d60:	f7ff ffca 	bl	10006cf8 <http_close_or_abort_conn>
10006d64:	bd08      	pop	{r3, pc}

10006d66 <http_eof>:
10006d66:	b508      	push	{r3, lr}
10006d68:	f7ff fff8 	bl	10006d5c <http_close_conn>
10006d6c:	bd08      	pop	{r3, pc}

10006d6e <http_check_eof>:
10006d6e:	b538      	push	{r3, r4, r5, lr}
10006d70:	4605      	mov	r5, r0
10006d72:	460c      	mov	r4, r1
10006d74:	6908      	ldr	r0, [r1, #16]
10006d76:	b128      	cbz	r0, 10006d84 <http_check_eof+0x16>
10006d78:	f000 fa7b 	bl	10007272 <fs_bytes_left>
10006d7c:	2800      	cmp	r0, #0
10006d7e:	dd06      	ble.n	10006d8e <http_check_eof+0x20>
10006d80:	2001      	movs	r0, #1
10006d82:	bd38      	pop	{r3, r4, r5, pc}
10006d84:	4628      	mov	r0, r5
10006d86:	f7ff ffee 	bl	10006d66 <http_eof>
10006d8a:	2000      	movs	r0, #0
10006d8c:	e7f9      	b.n	10006d82 <http_check_eof+0x14>
10006d8e:	4621      	mov	r1, r4
10006d90:	4628      	mov	r0, r5
10006d92:	f7ff ffe8 	bl	10006d66 <http_eof>
10006d96:	2000      	movs	r0, #0
10006d98:	e7f3      	b.n	10006d82 <http_check_eof+0x14>

10006d9a <http_send>:
10006d9a:	b570      	push	{r4, r5, r6, lr}
10006d9c:	b1d9      	cbz	r1, 10006dd6 <http_send+0x3c>
10006d9e:	4604      	mov	r4, r0
10006da0:	460e      	mov	r6, r1
10006da2:	6a0b      	ldr	r3, [r1, #32]
10006da4:	b91b      	cbnz	r3, 10006dae <http_send+0x14>
10006da6:	f7ff ffe2 	bl	10006d6e <http_check_eof>
10006daa:	4605      	mov	r5, r0
10006dac:	b130      	cbz	r0, 10006dbc <http_send+0x22>
10006dae:	4631      	mov	r1, r6
10006db0:	4620      	mov	r0, r4
10006db2:	f7ff ff65 	bl	10006c80 <http_send_data_nonssi>
10006db6:	4605      	mov	r5, r0
10006db8:	6a33      	ldr	r3, [r6, #32]
10006dba:	b10b      	cbz	r3, 10006dc0 <http_send+0x26>
10006dbc:	4628      	mov	r0, r5
10006dbe:	bd70      	pop	{r4, r5, r6, pc}
10006dc0:	6930      	ldr	r0, [r6, #16]
10006dc2:	f000 fa56 	bl	10007272 <fs_bytes_left>
10006dc6:	2800      	cmp	r0, #0
10006dc8:	dcf8      	bgt.n	10006dbc <http_send+0x22>
10006dca:	4631      	mov	r1, r6
10006dcc:	4620      	mov	r0, r4
10006dce:	f7ff ffca 	bl	10006d66 <http_eof>
10006dd2:	2500      	movs	r5, #0
10006dd4:	e7f2      	b.n	10006dbc <http_send+0x22>
10006dd6:	2500      	movs	r5, #0
10006dd8:	e7f0      	b.n	10006dbc <http_send+0x22>

10006dda <http_sent>:
10006dda:	b150      	cbz	r0, 10006df2 <http_sent+0x18>
10006ddc:	b508      	push	{r3, lr}
10006dde:	460b      	mov	r3, r1
10006de0:	4601      	mov	r1, r0
10006de2:	2200      	movs	r2, #0
10006de4:	f880 2024 	strb.w	r2, [r0, #36]	@ 0x24
10006de8:	4618      	mov	r0, r3
10006dea:	f7ff ffd6 	bl	10006d9a <http_send>
10006dee:	2000      	movs	r0, #0
10006df0:	bd08      	pop	{r3, pc}
10006df2:	2000      	movs	r0, #0
10006df4:	4770      	bx	lr

10006df6 <http_err>:
10006df6:	b118      	cbz	r0, 10006e00 <http_err+0xa>
10006df8:	b508      	push	{r3, lr}
10006dfa:	f7ff ff72 	bl	10006ce2 <http_state_free>
10006dfe:	bd08      	pop	{r3, pc}
10006e00:	4770      	bx	lr

10006e02 <http_poll>:
10006e02:	b510      	push	{r4, lr}
10006e04:	460c      	mov	r4, r1
10006e06:	b180      	cbz	r0, 10006e2a <http_poll+0x28>
10006e08:	4601      	mov	r1, r0
10006e0a:	f890 3024 	ldrb.w	r3, [r0, #36]	@ 0x24
10006e0e:	3301      	adds	r3, #1
10006e10:	b2db      	uxtb	r3, r3
10006e12:	f880 3024 	strb.w	r3, [r0, #36]	@ 0x24
10006e16:	2b04      	cmp	r3, #4
10006e18:	d00c      	beq.n	10006e34 <http_poll+0x32>
10006e1a:	6903      	ldr	r3, [r0, #16]
10006e1c:	b11b      	cbz	r3, 10006e26 <http_poll+0x24>
10006e1e:	4620      	mov	r0, r4
10006e20:	f7ff ffbb 	bl	10006d9a <http_send>
10006e24:	b950      	cbnz	r0, 10006e3c <http_poll+0x3a>
10006e26:	2000      	movs	r0, #0
10006e28:	bd10      	pop	{r4, pc}
10006e2a:	2100      	movs	r1, #0
10006e2c:	4620      	mov	r0, r4
10006e2e:	f7ff ff95 	bl	10006d5c <http_close_conn>
10006e32:	e7f8      	b.n	10006e26 <http_poll+0x24>
10006e34:	4620      	mov	r0, r4
10006e36:	f7ff ff91 	bl	10006d5c <http_close_conn>
10006e3a:	e7f4      	b.n	10006e26 <http_poll+0x24>
10006e3c:	4620      	mov	r0, r4
10006e3e:	f7fd fe7f 	bl	10004b40 <tcp_output>
10006e42:	e7f0      	b.n	10006e26 <http_poll+0x24>

10006e44 <http_init_file>:
10006e44:	b510      	push	{r4, lr}
10006e46:	4604      	mov	r4, r0
10006e48:	b1e1      	cbz	r1, 10006e84 <http_init_file+0x40>
10006e4a:	460b      	mov	r3, r1
10006e4c:	6121      	str	r1, [r4, #16]
10006e4e:	6808      	ldr	r0, [r1, #0]
10006e50:	6160      	str	r0, [r4, #20]
10006e52:	6849      	ldr	r1, [r1, #4]
10006e54:	6221      	str	r1, [r4, #32]
10006e56:	f04f 0c00 	mov.w	ip, #0
10006e5a:	f884 c024 	strb.w	ip, [r4, #36]	@ 0x24
10006e5e:	7b1b      	ldrb	r3, [r3, #12]
10006e60:	f003 0301 	and.w	r3, r3, #1
10006e64:	b1a2      	cbz	r2, 10006e90 <http_init_file+0x4c>
10006e66:	b19b      	cbz	r3, 10006e90 <http_init_file+0x4c>
10006e68:	460a      	mov	r2, r1
10006e6a:	490a      	ldr	r1, [pc, #40]	@ (10006e94 <http_init_file+0x50>)
10006e6c:	f7f9 feb5 	bl	10000bda <lwip_strnstr>
10006e70:	4603      	mov	r3, r0
10006e72:	b168      	cbz	r0, 10006e90 <http_init_file+0x4c>
10006e74:	3304      	adds	r3, #4
10006e76:	6962      	ldr	r2, [r4, #20]
10006e78:	1a9a      	subs	r2, r3, r2
10006e7a:	6163      	str	r3, [r4, #20]
10006e7c:	6a23      	ldr	r3, [r4, #32]
10006e7e:	1a9b      	subs	r3, r3, r2
10006e80:	6223      	str	r3, [r4, #32]
10006e82:	e005      	b.n	10006e90 <http_init_file+0x4c>
10006e84:	2300      	movs	r3, #0
10006e86:	6103      	str	r3, [r0, #16]
10006e88:	6143      	str	r3, [r0, #20]
10006e8a:	6203      	str	r3, [r0, #32]
10006e8c:	f880 3024 	strb.w	r3, [r0, #36]	@ 0x24
10006e90:	2000      	movs	r0, #0
10006e92:	bd10      	pop	{r4, pc}
10006e94:	1000cef8 	.word	0x1000cef8

10006e98 <http_get_404_file>:
10006e98:	b570      	push	{r4, r5, r6, lr}
10006e9a:	4606      	mov	r6, r0
10006e9c:	460c      	mov	r4, r1
10006e9e:	490c      	ldr	r1, [pc, #48]	@ (10006ed0 <http_get_404_file+0x38>)
10006ea0:	6021      	str	r1, [r4, #0]
10006ea2:	4605      	mov	r5, r0
10006ea4:	f000 f9c2 	bl	1000722c <fs_open>
10006ea8:	b908      	cbnz	r0, 10006eae <http_get_404_file+0x16>
10006eaa:	4628      	mov	r0, r5
10006eac:	bd70      	pop	{r4, r5, r6, pc}
10006eae:	4909      	ldr	r1, [pc, #36]	@ (10006ed4 <http_get_404_file+0x3c>)
10006eb0:	6021      	str	r1, [r4, #0]
10006eb2:	4630      	mov	r0, r6
10006eb4:	f000 f9ba 	bl	1000722c <fs_open>
10006eb8:	2800      	cmp	r0, #0
10006eba:	d0f6      	beq.n	10006eaa <http_get_404_file+0x12>
10006ebc:	4906      	ldr	r1, [pc, #24]	@ (10006ed8 <http_get_404_file+0x40>)
10006ebe:	6021      	str	r1, [r4, #0]
10006ec0:	4630      	mov	r0, r6
10006ec2:	f000 f9b3 	bl	1000722c <fs_open>
10006ec6:	2800      	cmp	r0, #0
10006ec8:	d0ef      	beq.n	10006eaa <http_get_404_file+0x12>
10006eca:	2500      	movs	r5, #0
10006ecc:	6025      	str	r5, [r4, #0]
10006ece:	e7ec      	b.n	10006eaa <http_get_404_file+0x12>
10006ed0:	1000cf00 	.word	0x1000cf00
10006ed4:	1000cf0c 	.word	0x1000cf0c
10006ed8:	1000cf18 	.word	0x1000cf18

10006edc <http_find_file>:
10006edc:	e92d 4ff0 	stmdb	sp!, {r4, r5, r6, r7, r8, r9, sl, fp, lr}
10006ee0:	b085      	sub	sp, #20
10006ee2:	4604      	mov	r4, r0
10006ee4:	9103      	str	r1, [sp, #12]
10006ee6:	4616      	mov	r6, r2
10006ee8:	460d      	mov	r5, r1
10006eea:	4608      	mov	r0, r1
10006eec:	f005 ff52 	bl	1000cd94 <strlen>
10006ef0:	b120      	cbz	r0, 10006efc <http_find_file+0x20>
10006ef2:	4680      	mov	r8, r0
10006ef4:	1e47      	subs	r7, r0, #1
10006ef6:	5deb      	ldrb	r3, [r5, r7]
10006ef8:	2b2f      	cmp	r3, #47	@ 0x2f
10006efa:	d01d      	beq.n	10006f38 <http_find_file+0x5c>
10006efc:	213f      	movs	r1, #63	@ 0x3f
10006efe:	9803      	ldr	r0, [sp, #12]
10006f00:	f005 fd4c 	bl	1000c99c <strchr>
10006f04:	4607      	mov	r7, r0
10006f06:	b110      	cbz	r0, 10006f0e <http_find_file+0x32>
10006f08:	2300      	movs	r3, #0
10006f0a:	f807 3b01 	strb.w	r3, [r7], #1
10006f0e:	4625      	mov	r5, r4
10006f10:	9903      	ldr	r1, [sp, #12]
10006f12:	4620      	mov	r0, r4
10006f14:	f000 f98a 	bl	1000722c <fs_open>
10006f18:	2800      	cmp	r0, #0
10006f1a:	d15b      	bne.n	10006fd4 <http_find_file+0xf8>
10006f1c:	2d00      	cmp	r5, #0
10006f1e:	d05f      	beq.n	10006fe0 <http_find_file+0x104>
10006f20:	9701      	str	r7, [sp, #4]
10006f22:	2300      	movs	r3, #0
10006f24:	9300      	str	r3, [sp, #0]
10006f26:	9b03      	ldr	r3, [sp, #12]
10006f28:	4632      	mov	r2, r6
10006f2a:	4629      	mov	r1, r5
10006f2c:	4620      	mov	r0, r4
10006f2e:	f7ff ff89 	bl	10006e44 <http_init_file>
10006f32:	b005      	add	sp, #20
10006f34:	e8bd 8ff0 	ldmia.w	sp!, {r4, r5, r6, r7, r8, r9, sl, fp, pc}
10006f38:	4b2c      	ldr	r3, [pc, #176]	@ (10006fec <http_find_file+0x110>)
10006f3a:	429d      	cmp	r5, r3
10006f3c:	d008      	beq.n	10006f50 <http_find_file+0x74>
10006f3e:	2f3f      	cmp	r7, #63	@ 0x3f
10006f40:	bf28      	it	cs
10006f42:	273f      	movcs	r7, #63	@ 0x3f
10006f44:	f1b8 0f01 	cmp.w	r8, #1
10006f48:	d105      	bne.n	10006f56 <http_find_file+0x7a>
10006f4a:	f04f 0900 	mov.w	r9, #0
10006f4e:	e02d      	b.n	10006fac <http_find_file+0xd0>
10006f50:	2801      	cmp	r0, #1
10006f52:	d1d3      	bne.n	10006efc <http_find_file+0x20>
10006f54:	e7f3      	b.n	10006f3e <http_find_file+0x62>
10006f56:	f8df 9094 	ldr.w	r9, [pc, #148]	@ 10006fec <http_find_file+0x110>
10006f5a:	463a      	mov	r2, r7
10006f5c:	4629      	mov	r1, r5
10006f5e:	4648      	mov	r0, r9
10006f60:	f005 fea2 	bl	1000cca8 <memcpy>
10006f64:	2300      	movs	r3, #0
10006f66:	f809 3007 	strb.w	r3, [r9, r7]
10006f6a:	e7ee      	b.n	10006f4a <http_find_file+0x6e>
10006f6c:	4b20      	ldr	r3, [pc, #128]	@ (10006ff0 <http_find_file+0x114>)
10006f6e:	f853 a039 	ldr.w	sl, [r3, r9, lsl #3]
10006f72:	4650      	mov	r0, sl
10006f74:	f005 ff0e 	bl	1000cd94 <strlen>
10006f78:	4583      	cmp	fp, r0
10006f7a:	bf28      	it	cs
10006f7c:	4683      	movcs	fp, r0
10006f7e:	4d1b      	ldr	r5, [pc, #108]	@ (10006fec <http_find_file+0x110>)
10006f80:	465a      	mov	r2, fp
10006f82:	4651      	mov	r1, sl
10006f84:	19e8      	adds	r0, r5, r7
10006f86:	f005 fe8f 	bl	1000cca8 <memcpy>
10006f8a:	44bb      	add	fp, r7
10006f8c:	2300      	movs	r3, #0
10006f8e:	f805 300b 	strb.w	r3, [r5, fp]
10006f92:	46aa      	mov	sl, r5
10006f94:	e002      	b.n	10006f9c <http_find_file+0xc0>
10006f96:	4b16      	ldr	r3, [pc, #88]	@ (10006ff0 <http_find_file+0x114>)
10006f98:	f853 a039 	ldr.w	sl, [r3, r9, lsl #3]
10006f9c:	4625      	mov	r5, r4
10006f9e:	4651      	mov	r1, sl
10006fa0:	4620      	mov	r0, r4
10006fa2:	f000 f943 	bl	1000722c <fs_open>
10006fa6:	b168      	cbz	r0, 10006fc4 <http_find_file+0xe8>
10006fa8:	f109 0901 	add.w	r9, r9, #1
10006fac:	f1b9 0f04 	cmp.w	r9, #4
10006fb0:	d80b      	bhi.n	10006fca <http_find_file+0xee>
10006fb2:	f1b8 0f01 	cmp.w	r8, #1
10006fb6:	d0ee      	beq.n	10006f96 <http_find_file+0xba>
10006fb8:	f1d7 0b3f 	rsbs	fp, r7, #63	@ 0x3f
10006fbc:	d1d6      	bne.n	10006f6c <http_find_file+0x90>
10006fbe:	f8df a02c 	ldr.w	sl, [pc, #44]	@ 10006fec <http_find_file+0x110>
10006fc2:	e7eb      	b.n	10006f9c <http_find_file+0xc0>
10006fc4:	f8cd a00c 	str.w	sl, [sp, #12]
10006fc8:	e000      	b.n	10006fcc <http_find_file+0xf0>
10006fca:	2500      	movs	r5, #0
10006fcc:	2d00      	cmp	r5, #0
10006fce:	d095      	beq.n	10006efc <http_find_file+0x20>
10006fd0:	2700      	movs	r7, #0
10006fd2:	e7a5      	b.n	10006f20 <http_find_file+0x44>
10006fd4:	a903      	add	r1, sp, #12
10006fd6:	4620      	mov	r0, r4
10006fd8:	f7ff ff5e 	bl	10006e98 <http_get_404_file>
10006fdc:	4605      	mov	r5, r0
10006fde:	e79d      	b.n	10006f1c <http_find_file+0x40>
10006fe0:	a903      	add	r1, sp, #12
10006fe2:	4620      	mov	r0, r4
10006fe4:	f7ff ff58 	bl	10006e98 <http_get_404_file>
10006fe8:	4605      	mov	r5, r0
10006fea:	e799      	b.n	10006f20 <http_find_file+0x44>
10006fec:	20001544 	.word	0x20001544
10006ff0:	1000d930 	.word	0x1000d930

10006ff4 <http_parse_request>:
10006ff4:	690b      	ldr	r3, [r1, #16]
10006ff6:	2b00      	cmp	r3, #0
10006ff8:	d173      	bne.n	100070e2 <http_parse_request+0xee>
10006ffa:	e92d 47f0 	stmdb	sp!, {r4, r5, r6, r7, r8, r9, sl, lr}
10006ffe:	4605      	mov	r5, r0
10007000:	460c      	mov	r4, r1
10007002:	694b      	ldr	r3, [r1, #20]
10007004:	2b00      	cmp	r3, #0
10007006:	d16f      	bne.n	100070e8 <http_parse_request+0xf4>
10007008:	69c8      	ldr	r0, [r1, #28]
1000700a:	2800      	cmp	r0, #0
1000700c:	d044      	beq.n	10007098 <http_parse_request+0xa4>
1000700e:	4629      	mov	r1, r5
10007010:	f7fa fc38 	bl	10001884 <pbuf_cat>
10007014:	4628      	mov	r0, r5
10007016:	f7fa fc29 	bl	1000186c <pbuf_ref>
1000701a:	69e0      	ldr	r0, [r4, #28]
1000701c:	6803      	ldr	r3, [r0, #0]
1000701e:	2b00      	cmp	r3, #0
10007020:	d03c      	beq.n	1000709c <http_parse_request+0xa8>
10007022:	8905      	ldrh	r5, [r0, #8]
10007024:	f240 33ff 	movw	r3, #1023	@ 0x3ff
10007028:	429d      	cmp	r5, r3
1000702a:	bf28      	it	cs
1000702c:	461d      	movcs	r5, r3
1000702e:	4e33      	ldr	r6, [pc, #204]	@ (100070fc <http_parse_request+0x108>)
10007030:	2300      	movs	r3, #0
10007032:	462a      	mov	r2, r5
10007034:	4631      	mov	r1, r6
10007036:	f7fa fcbe 	bl	100019b6 <pbuf_copy_partial>
1000703a:	2d06      	cmp	r5, #6
1000703c:	d91e      	bls.n	1000707c <http_parse_request+0x88>
1000703e:	46a8      	mov	r8, r5
10007040:	462a      	mov	r2, r5
10007042:	492f      	ldr	r1, [pc, #188]	@ (10007100 <http_parse_request+0x10c>)
10007044:	4630      	mov	r0, r6
10007046:	f7f9 fdc8 	bl	10000bda <lwip_strnstr>
1000704a:	b1b8      	cbz	r0, 1000707c <http_parse_request+0x88>
1000704c:	2204      	movs	r2, #4
1000704e:	492d      	ldr	r1, [pc, #180]	@ (10007104 <http_parse_request+0x110>)
10007050:	4630      	mov	r0, r6
10007052:	f005 fd0b 	bl	1000ca6c <strncmp>
10007056:	4681      	mov	r9, r0
10007058:	bb18      	cbnz	r0, 100070a2 <http_parse_request+0xae>
1000705a:	1cf7      	adds	r7, r6, #3
1000705c:	3d04      	subs	r5, #4
1000705e:	b2ad      	uxth	r5, r5
10007060:	f106 0a04 	add.w	sl, r6, #4
10007064:	462a      	mov	r2, r5
10007066:	4928      	ldr	r1, [pc, #160]	@ (10007108 <http_parse_request+0x114>)
10007068:	4650      	mov	r0, sl
1000706a:	f7f9 fdb6 	bl	10000bda <lwip_strnstr>
1000706e:	4603      	mov	r3, r0
10007070:	b1e0      	cbz	r0, 100070ac <http_parse_request+0xb8>
10007072:	eba3 050a 	sub.w	r5, r3, sl
10007076:	b10b      	cbz	r3, 1000707c <http_parse_request+0x88>
10007078:	42bb      	cmp	r3, r7
1000707a:	d820      	bhi.n	100070be <http_parse_request+0xca>
1000707c:	69e0      	ldr	r0, [r4, #28]
1000707e:	f7fa fbec 	bl	1000185a <pbuf_clen>
10007082:	69e3      	ldr	r3, [r4, #28]
10007084:	891b      	ldrh	r3, [r3, #8]
10007086:	f5b3 6f80 	cmp.w	r3, #1024	@ 0x400
1000708a:	d230      	bcs.n	100070ee <http_parse_request+0xfa>
1000708c:	2805      	cmp	r0, #5
1000708e:	d931      	bls.n	100070f4 <http_parse_request+0x100>
10007090:	f06f 000f 	mvn.w	r0, #15
10007094:	e8bd 87f0 	ldmia.w	sp!, {r4, r5, r6, r7, r8, r9, sl, pc}
10007098:	61cd      	str	r5, [r1, #28]
1000709a:	e7bb      	b.n	10007014 <http_parse_request+0x20>
1000709c:	686e      	ldr	r6, [r5, #4]
1000709e:	896d      	ldrh	r5, [r5, #10]
100070a0:	e7cb      	b.n	1000703a <http_parse_request+0x46>
100070a2:	2300      	movs	r3, #0
100070a4:	7133      	strb	r3, [r6, #4]
100070a6:	f06f 000f 	mvn.w	r0, #15
100070aa:	e7f3      	b.n	10007094 <http_parse_request+0xa0>
100070ac:	462a      	mov	r2, r5
100070ae:	4914      	ldr	r1, [pc, #80]	@ (10007100 <http_parse_request+0x10c>)
100070b0:	4650      	mov	r0, sl
100070b2:	f7f9 fd92 	bl	10000bda <lwip_strnstr>
100070b6:	4603      	mov	r3, r0
100070b8:	f04f 0901 	mov.w	r9, #1
100070bc:	e7d9      	b.n	10007072 <http_parse_request+0x7e>
100070be:	4642      	mov	r2, r8
100070c0:	4912      	ldr	r1, [pc, #72]	@ (1000710c <http_parse_request+0x118>)
100070c2:	4630      	mov	r0, r6
100070c4:	f7f9 fd89 	bl	10000bda <lwip_strnstr>
100070c8:	2800      	cmp	r0, #0
100070ca:	d0d7      	beq.n	1000707c <http_parse_request+0x88>
100070cc:	2300      	movs	r3, #0
100070ce:	70f3      	strb	r3, [r6, #3]
100070d0:	b2ad      	uxth	r5, r5
100070d2:	f80a 3005 	strb.w	r3, [sl, r5]
100070d6:	464a      	mov	r2, r9
100070d8:	4651      	mov	r1, sl
100070da:	4620      	mov	r0, r4
100070dc:	f7ff fefe 	bl	10006edc <http_find_file>
100070e0:	e7d8      	b.n	10007094 <http_parse_request+0xa0>
100070e2:	f06f 0007 	mvn.w	r0, #7
100070e6:	4770      	bx	lr
100070e8:	f06f 0007 	mvn.w	r0, #7
100070ec:	e7d2      	b.n	10007094 <http_parse_request+0xa0>
100070ee:	f06f 000f 	mvn.w	r0, #15
100070f2:	e7cf      	b.n	10007094 <http_parse_request+0xa0>
100070f4:	f06f 0004 	mvn.w	r0, #4
100070f8:	e7cc      	b.n	10007094 <http_parse_request+0xa0>
100070fa:	bf00      	nop
100070fc:	20001584 	.word	0x20001584
10007100:	1000d760 	.word	0x1000d760
10007104:	1000cf24 	.word	0x1000cf24
10007108:	1000cf2c 	.word	0x1000cf2c
1000710c:	1000cef8 	.word	0x1000cef8

10007110 <http_recv>:
10007110:	b5f8      	push	{r3, r4, r5, r6, r7, lr}
10007112:	4605      	mov	r5, r0
10007114:	460e      	mov	r6, r1
10007116:	4614      	mov	r4, r2
10007118:	b95b      	cbnz	r3, 10007132 <http_recv+0x22>
1000711a:	b192      	cbz	r2, 10007142 <http_recv+0x32>
1000711c:	b148      	cbz	r0, 10007132 <http_recv+0x22>
1000711e:	8911      	ldrh	r1, [r2, #8]
10007120:	4630      	mov	r0, r6
10007122:	f7fa fe46 	bl	10001db2 <tcp_recved>
10007126:	692b      	ldr	r3, [r5, #16]
10007128:	b18b      	cbz	r3, 1000714e <http_recv+0x3e>
1000712a:	4620      	mov	r0, r4
1000712c:	f7fa faaf 	bl	1000168e <pbuf_free>
10007130:	e00b      	b.n	1000714a <http_recv+0x3a>
10007132:	b134      	cbz	r4, 10007142 <http_recv+0x32>
10007134:	8921      	ldrh	r1, [r4, #8]
10007136:	4630      	mov	r0, r6
10007138:	f7fa fe3b 	bl	10001db2 <tcp_recved>
1000713c:	4620      	mov	r0, r4
1000713e:	f7fa faa6 	bl	1000168e <pbuf_free>
10007142:	4629      	mov	r1, r5
10007144:	4630      	mov	r0, r6
10007146:	f7ff fe09 	bl	10006d5c <http_close_conn>
1000714a:	2000      	movs	r0, #0
1000714c:	bdf8      	pop	{r3, r4, r5, r6, r7, pc}
1000714e:	4632      	mov	r2, r6
10007150:	4629      	mov	r1, r5
10007152:	4620      	mov	r0, r4
10007154:	f7ff ff4e 	bl	10006ff4 <http_parse_request>
10007158:	4607      	mov	r7, r0
1000715a:	f110 0f05 	cmn.w	r0, #5
1000715e:	d005      	beq.n	1000716c <http_recv+0x5c>
10007160:	69e8      	ldr	r0, [r5, #28]
10007162:	b118      	cbz	r0, 1000716c <http_recv+0x5c>
10007164:	f7fa fa93 	bl	1000168e <pbuf_free>
10007168:	2300      	movs	r3, #0
1000716a:	61eb      	str	r3, [r5, #28]
1000716c:	4620      	mov	r0, r4
1000716e:	f7fa fa8e 	bl	1000168e <pbuf_free>
10007172:	b13f      	cbz	r7, 10007184 <http_recv+0x74>
10007174:	f117 0f10 	cmn.w	r7, #16
10007178:	d1e7      	bne.n	1000714a <http_recv+0x3a>
1000717a:	4629      	mov	r1, r5
1000717c:	4630      	mov	r0, r6
1000717e:	f7ff fded 	bl	10006d5c <http_close_conn>
10007182:	e7e2      	b.n	1000714a <http_recv+0x3a>
10007184:	4629      	mov	r1, r5
10007186:	4630      	mov	r0, r6
10007188:	f7ff fe07 	bl	10006d9a <http_send>
1000718c:	e7dd      	b.n	1000714a <http_recv+0x3a>

1000718e <http_state_init>:
1000718e:	b508      	push	{r3, lr}
10007190:	2228      	movs	r2, #40	@ 0x28
10007192:	2100      	movs	r1, #0
10007194:	f005 fbb0 	bl	1000c8f8 <memset>
10007198:	bd08      	pop	{r3, pc}

1000719a <http_state_alloc>:
1000719a:	b510      	push	{r4, lr}
1000719c:	2028      	movs	r0, #40	@ 0x28
1000719e:	f7f9 ffb7 	bl	10001110 <mem_malloc>
100071a2:	4604      	mov	r4, r0
100071a4:	b108      	cbz	r0, 100071aa <http_state_alloc+0x10>
100071a6:	f7ff fff2 	bl	1000718e <http_state_init>
100071aa:	4620      	mov	r0, r4
100071ac:	bd10      	pop	{r4, pc}
	...

100071b0 <http_accept>:
100071b0:	bb12      	cbnz	r2, 100071f8 <http_accept+0x48>
100071b2:	b538      	push	{r3, r4, r5, lr}
100071b4:	460c      	mov	r4, r1
100071b6:	4615      	mov	r5, r2
100071b8:	b309      	cbz	r1, 100071fe <http_accept+0x4e>
100071ba:	2101      	movs	r1, #1
100071bc:	4620      	mov	r0, r4
100071be:	f7fa fe31 	bl	10001e24 <tcp_setprio>
100071c2:	f7ff ffea 	bl	1000719a <http_state_alloc>
100071c6:	4601      	mov	r1, r0
100071c8:	b1e0      	cbz	r0, 10007204 <http_accept+0x54>
100071ca:	6184      	str	r4, [r0, #24]
100071cc:	4620      	mov	r0, r4
100071ce:	f7fa fe40 	bl	10001e52 <tcp_arg>
100071d2:	490e      	ldr	r1, [pc, #56]	@ (1000720c <http_accept+0x5c>)
100071d4:	4620      	mov	r0, r4
100071d6:	f7fa fe3f 	bl	10001e58 <tcp_recv>
100071da:	490d      	ldr	r1, [pc, #52]	@ (10007210 <http_accept+0x60>)
100071dc:	4620      	mov	r0, r4
100071de:	f7fa fe43 	bl	10001e68 <tcp_err>
100071e2:	2204      	movs	r2, #4
100071e4:	490b      	ldr	r1, [pc, #44]	@ (10007214 <http_accept+0x64>)
100071e6:	4620      	mov	r0, r4
100071e8:	f7fa fe49 	bl	10001e7e <tcp_poll>
100071ec:	490a      	ldr	r1, [pc, #40]	@ (10007218 <http_accept+0x68>)
100071ee:	4620      	mov	r0, r4
100071f0:	f7fa fe36 	bl	10001e60 <tcp_sent>
100071f4:	4628      	mov	r0, r5
100071f6:	bd38      	pop	{r3, r4, r5, pc}
100071f8:	f06f 0005 	mvn.w	r0, #5
100071fc:	4770      	bx	lr
100071fe:	f06f 0005 	mvn.w	r0, #5
10007202:	e7f8      	b.n	100071f6 <http_accept+0x46>
10007204:	f04f 30ff 	mov.w	r0, #4294967295
10007208:	e7f5      	b.n	100071f6 <http_accept+0x46>
1000720a:	bf00      	nop
1000720c:	10007111 	.word	0x10007111
10007210:	10006df7 	.word	0x10006df7
10007214:	10006e03 	.word	0x10006e03
10007218:	10006ddb 	.word	0x10006ddb

1000721c <httpd_init>:
1000721c:	b508      	push	{r3, lr}
1000721e:	202e      	movs	r0, #46	@ 0x2e
10007220:	f7fb f8be 	bl	100023a0 <tcp_new_ip_type>
10007224:	2150      	movs	r1, #80	@ 0x50
10007226:	f7ff fcd9 	bl	10006bdc <httpd_init_pcb>
1000722a:	bd08      	pop	{r3, pc}

1000722c <fs_open>:
1000722c:	b1b8      	cbz	r0, 1000725e <fs_open+0x32>
1000722e:	b570      	push	{r4, r5, r6, lr}
10007230:	460d      	mov	r5, r1
10007232:	4606      	mov	r6, r0
10007234:	b1b1      	cbz	r1, 10007264 <fs_open+0x38>
10007236:	4c0d      	ldr	r4, [pc, #52]	@ (1000726c <fs_open+0x40>)
10007238:	b174      	cbz	r4, 10007258 <fs_open+0x2c>
1000723a:	6861      	ldr	r1, [r4, #4]
1000723c:	4628      	mov	r0, r5
1000723e:	f005 fc55 	bl	1000caec <strcmp>
10007242:	b108      	cbz	r0, 10007248 <fs_open+0x1c>
10007244:	6824      	ldr	r4, [r4, #0]
10007246:	e7f7      	b.n	10007238 <fs_open+0xc>
10007248:	68a3      	ldr	r3, [r4, #8]
1000724a:	6033      	str	r3, [r6, #0]
1000724c:	68e3      	ldr	r3, [r4, #12]
1000724e:	6073      	str	r3, [r6, #4]
10007250:	60b3      	str	r3, [r6, #8]
10007252:	7c23      	ldrb	r3, [r4, #16]
10007254:	7333      	strb	r3, [r6, #12]
10007256:	e001      	b.n	1000725c <fs_open+0x30>
10007258:	f06f 0005 	mvn.w	r0, #5
1000725c:	bd70      	pop	{r4, r5, r6, pc}
1000725e:	f06f 000f 	mvn.w	r0, #15
10007262:	4770      	bx	lr
10007264:	f06f 000f 	mvn.w	r0, #15
10007268:	e7f8      	b.n	1000725c <fs_open+0x30>
1000726a:	bf00      	nop
1000726c:	1000d958 	.word	0x1000d958

10007270 <fs_close>:
10007270:	4770      	bx	lr

10007272 <fs_bytes_left>:
10007272:	6842      	ldr	r2, [r0, #4]
10007274:	6880      	ldr	r0, [r0, #8]
10007276:	1a10      	subs	r0, r2, r0
10007278:	4770      	bx	lr
	...

1000727c <lwiperf_list_add>:
1000727c:	4b02      	ldr	r3, [pc, #8]	@ (10007288 <lwiperf_list_add+0xc>)
1000727e:	681a      	ldr	r2, [r3, #0]
10007280:	6002      	str	r2, [r0, #0]
10007282:	6018      	str	r0, [r3, #0]
10007284:	4770      	bx	lr
10007286:	bf00      	nop
10007288:	20001e88 	.word	0x20001e88

1000728c <lwiperf_list_remove>:
1000728c:	4b0b      	ldr	r3, [pc, #44]	@ (100072bc <lwiperf_list_remove+0x30>)
1000728e:	681b      	ldr	r3, [r3, #0]
10007290:	2200      	movs	r2, #0
10007292:	e009      	b.n	100072a8 <lwiperf_list_remove+0x1c>
10007294:	6819      	ldr	r1, [r3, #0]
10007296:	4a09      	ldr	r2, [pc, #36]	@ (100072bc <lwiperf_list_remove+0x30>)
10007298:	6011      	str	r1, [r2, #0]
1000729a:	e00c      	b.n	100072b6 <lwiperf_list_remove+0x2a>
1000729c:	681b      	ldr	r3, [r3, #0]
1000729e:	2b00      	cmp	r3, #0
100072a0:	d1fc      	bne.n	1000729c <lwiperf_list_remove+0x10>
100072a2:	4770      	bx	lr
100072a4:	461a      	mov	r2, r3
100072a6:	681b      	ldr	r3, [r3, #0]
100072a8:	b13b      	cbz	r3, 100072ba <lwiperf_list_remove+0x2e>
100072aa:	4283      	cmp	r3, r0
100072ac:	d1fa      	bne.n	100072a4 <lwiperf_list_remove+0x18>
100072ae:	2a00      	cmp	r2, #0
100072b0:	d0f0      	beq.n	10007294 <lwiperf_list_remove+0x8>
100072b2:	6819      	ldr	r1, [r3, #0]
100072b4:	6011      	str	r1, [r2, #0]
100072b6:	681b      	ldr	r3, [r3, #0]
100072b8:	e7f1      	b.n	1000729e <lwiperf_list_remove+0x12>
100072ba:	4770      	bx	lr
100072bc:	20001e88 	.word	0x20001e88

100072c0 <lwiperf_list_find>:
100072c0:	4603      	mov	r3, r0
100072c2:	4a05      	ldr	r2, [pc, #20]	@ (100072d8 <lwiperf_list_find+0x18>)
100072c4:	6810      	ldr	r0, [r2, #0]
100072c6:	e000      	b.n	100072ca <lwiperf_list_find+0xa>
100072c8:	6800      	ldr	r0, [r0, #0]
100072ca:	b118      	cbz	r0, 100072d4 <lwiperf_list_find+0x14>
100072cc:	4298      	cmp	r0, r3
100072ce:	d1fb      	bne.n	100072c8 <lwiperf_list_find+0x8>
100072d0:	4618      	mov	r0, r3
100072d2:	4770      	bx	lr
100072d4:	4770      	bx	lr
100072d6:	bf00      	nop
100072d8:	20001e88 	.word	0x20001e88

100072dc <lwiperf_start_tcp_server_impl>:
100072dc:	e92d 41f0 	stmdb	sp!, {r4, r5, r6, r7, r8, lr}
100072e0:	2800      	cmp	r0, #0
100072e2:	d03f      	beq.n	10007364 <lwiperf_start_tcp_server_impl+0x88>
100072e4:	460d      	mov	r5, r1
100072e6:	4616      	mov	r6, r2
100072e8:	4698      	mov	r8, r3
100072ea:	4607      	mov	r7, r0
100072ec:	2048      	movs	r0, #72	@ 0x48
100072ee:	f7f9 ff0f 	bl	10001110 <mem_malloc>
100072f2:	4604      	mov	r4, r0
100072f4:	2800      	cmp	r0, #0
100072f6:	d038      	beq.n	1000736a <lwiperf_start_tcp_server_impl+0x8e>
100072f8:	2248      	movs	r2, #72	@ 0x48
100072fa:	2100      	movs	r1, #0
100072fc:	f005 fafc 	bl	1000c8f8 <memset>
10007300:	2001      	movs	r0, #1
10007302:	7120      	strb	r0, [r4, #4]
10007304:	7160      	strb	r0, [r4, #5]
10007306:	9b06      	ldr	r3, [sp, #24]
10007308:	60a3      	str	r3, [r4, #8]
1000730a:	61a6      	str	r6, [r4, #24]
1000730c:	f8c4 801c 	str.w	r8, [r4, #28]
10007310:	202e      	movs	r0, #46	@ 0x2e
10007312:	f7fb f845 	bl	100023a0 <tcp_new_ip_type>
10007316:	4606      	mov	r6, r0
10007318:	b350      	cbz	r0, 10007370 <lwiperf_start_tcp_server_impl+0x94>
1000731a:	462a      	mov	r2, r5
1000731c:	4639      	mov	r1, r7
1000731e:	f7fa fc7d 	bl	10001c1c <tcp_bind>
10007322:	4605      	mov	r5, r0
10007324:	b110      	cbz	r0, 1000732c <lwiperf_start_tcp_server_impl+0x50>
10007326:	4628      	mov	r0, r5
10007328:	e8bd 81f0 	ldmia.w	sp!, {r4, r5, r6, r7, r8, pc}
1000732c:	2101      	movs	r1, #1
1000732e:	4630      	mov	r0, r6
10007330:	f7fa fd1c 	bl	10001d6c <tcp_listen_with_backlog>
10007334:	60e0      	str	r0, [r4, #12]
10007336:	b160      	cbz	r0, 10007352 <lwiperf_start_tcp_server_impl+0x76>
10007338:	4621      	mov	r1, r4
1000733a:	f7fa fd8a 	bl	10001e52 <tcp_arg>
1000733e:	490e      	ldr	r1, [pc, #56]	@ (10007378 <lwiperf_start_tcp_server_impl+0x9c>)
10007340:	68e0      	ldr	r0, [r4, #12]
10007342:	f7fa fd95 	bl	10001e70 <tcp_accept>
10007346:	4620      	mov	r0, r4
10007348:	f7ff ff98 	bl	1000727c <lwiperf_list_add>
1000734c:	9b07      	ldr	r3, [sp, #28]
1000734e:	601c      	str	r4, [r3, #0]
10007350:	e7e9      	b.n	10007326 <lwiperf_start_tcp_server_impl+0x4a>
10007352:	4630      	mov	r0, r6
10007354:	f7fb f8b4 	bl	100024c0 <tcp_close>
10007358:	4620      	mov	r0, r4
1000735a:	f7f9 fdc5 	bl	10000ee8 <mem_free>
1000735e:	f04f 35ff 	mov.w	r5, #4294967295
10007362:	e7e0      	b.n	10007326 <lwiperf_start_tcp_server_impl+0x4a>
10007364:	f06f 050f 	mvn.w	r5, #15
10007368:	e7dd      	b.n	10007326 <lwiperf_start_tcp_server_impl+0x4a>
1000736a:	f04f 35ff 	mov.w	r5, #4294967295
1000736e:	e7da      	b.n	10007326 <lwiperf_start_tcp_server_impl+0x4a>
10007370:	f04f 35ff 	mov.w	r5, #4294967295
10007374:	e7d7      	b.n	10007326 <lwiperf_start_tcp_server_impl+0x4a>
10007376:	bf00      	nop
10007378:	10007425 	.word	0x10007425

1000737c <lwip_tcp_conn_report>:
1000737c:	b300      	cbz	r0, 100073c0 <lwip_tcp_conn_report+0x44>
1000737e:	b5f0      	push	{r4, r5, r6, r7, lr}
10007380:	b087      	sub	sp, #28
10007382:	460d      	mov	r5, r1
10007384:	4604      	mov	r4, r0
10007386:	6983      	ldr	r3, [r0, #24]
10007388:	b1b3      	cbz	r3, 100073b8 <lwip_tcp_conn_report+0x3c>
1000738a:	f7f9 f862 	bl	10000452 <sys_now>
1000738e:	6963      	ldr	r3, [r4, #20]
10007390:	1ac0      	subs	r0, r0, r3
10007392:	d013      	beq.n	100073bc <lwip_tcp_conn_report+0x40>
10007394:	6a61      	ldr	r1, [r4, #36]	@ 0x24
10007396:	fbb1 f1f0 	udiv	r1, r1, r0
1000739a:	00c9      	lsls	r1, r1, #3
1000739c:	69a6      	ldr	r6, [r4, #24]
1000739e:	6922      	ldr	r2, [r4, #16]
100073a0:	1d17      	adds	r7, r2, #4
100073a2:	8ad3      	ldrh	r3, [r2, #22]
100073a4:	9104      	str	r1, [sp, #16]
100073a6:	9003      	str	r0, [sp, #12]
100073a8:	6a61      	ldr	r1, [r4, #36]	@ 0x24
100073aa:	9102      	str	r1, [sp, #8]
100073ac:	8b11      	ldrh	r1, [r2, #24]
100073ae:	9101      	str	r1, [sp, #4]
100073b0:	9700      	str	r7, [sp, #0]
100073b2:	4629      	mov	r1, r5
100073b4:	69e0      	ldr	r0, [r4, #28]
100073b6:	47b0      	blx	r6
100073b8:	b007      	add	sp, #28
100073ba:	bdf0      	pop	{r4, r5, r6, r7, pc}
100073bc:	4601      	mov	r1, r0
100073be:	e7ed      	b.n	1000739c <lwip_tcp_conn_report+0x20>
100073c0:	4770      	bx	lr

100073c2 <lwiperf_tcp_close>:
100073c2:	b538      	push	{r3, r4, r5, lr}
100073c4:	4604      	mov	r4, r0
100073c6:	460d      	mov	r5, r1
100073c8:	f7ff ff60 	bl	1000728c <lwiperf_list_remove>
100073cc:	4629      	mov	r1, r5
100073ce:	4620      	mov	r0, r4
100073d0:	f7ff ffd4 	bl	1000737c <lwip_tcp_conn_report>
100073d4:	6920      	ldr	r0, [r4, #16]
100073d6:	b1f8      	cbz	r0, 10007418 <lwiperf_tcp_close+0x56>
100073d8:	2100      	movs	r1, #0
100073da:	f7fa fd3a 	bl	10001e52 <tcp_arg>
100073de:	2200      	movs	r2, #0
100073e0:	4611      	mov	r1, r2
100073e2:	6920      	ldr	r0, [r4, #16]
100073e4:	f7fa fd4b 	bl	10001e7e <tcp_poll>
100073e8:	2100      	movs	r1, #0
100073ea:	6920      	ldr	r0, [r4, #16]
100073ec:	f7fa fd38 	bl	10001e60 <tcp_sent>
100073f0:	2100      	movs	r1, #0
100073f2:	6920      	ldr	r0, [r4, #16]
100073f4:	f7fa fd30 	bl	10001e58 <tcp_recv>
100073f8:	2100      	movs	r1, #0
100073fa:	6920      	ldr	r0, [r4, #16]
100073fc:	f7fa fd34 	bl	10001e68 <tcp_err>
10007400:	6920      	ldr	r0, [r4, #16]
10007402:	f7fb f85d 	bl	100024c0 <tcp_close>
10007406:	b918      	cbnz	r0, 10007410 <lwiperf_tcp_close+0x4e>
10007408:	4620      	mov	r0, r4
1000740a:	f7f9 fd6d 	bl	10000ee8 <mem_free>
1000740e:	bd38      	pop	{r3, r4, r5, pc}
10007410:	6920      	ldr	r0, [r4, #16]
10007412:	f7fa fe99 	bl	10002148 <tcp_abort>
10007416:	e7f7      	b.n	10007408 <lwiperf_tcp_close+0x46>
10007418:	68e0      	ldr	r0, [r4, #12]
1000741a:	2800      	cmp	r0, #0
1000741c:	d0f4      	beq.n	10007408 <lwiperf_tcp_close+0x46>
1000741e:	f7fb f84f 	bl	100024c0 <tcp_close>
10007422:	e7f1      	b.n	10007408 <lwiperf_tcp_close+0x46>

10007424 <lwiperf_tcp_accept>:
10007424:	2a00      	cmp	r2, #0
10007426:	d14b      	bne.n	100074c0 <lwiperf_tcp_accept+0x9c>
10007428:	b5f8      	push	{r3, r4, r5, r6, r7, lr}
1000742a:	4605      	mov	r5, r0
1000742c:	460e      	mov	r6, r1
1000742e:	4617      	mov	r7, r2
10007430:	2900      	cmp	r1, #0
10007432:	d048      	beq.n	100074c6 <lwiperf_tcp_accept+0xa2>
10007434:	2800      	cmp	r0, #0
10007436:	d049      	beq.n	100074cc <lwiperf_tcp_accept+0xa8>
10007438:	f890 3041 	ldrb.w	r3, [r0, #65]	@ 0x41
1000743c:	b11b      	cbz	r3, 10007446 <lwiperf_tcp_accept+0x22>
1000743e:	684a      	ldr	r2, [r1, #4]
10007440:	6c43      	ldr	r3, [r0, #68]	@ 0x44
10007442:	429a      	cmp	r2, r3
10007444:	d145      	bne.n	100074d2 <lwiperf_tcp_accept+0xae>
10007446:	2048      	movs	r0, #72	@ 0x48
10007448:	f7f9 fe62 	bl	10001110 <mem_malloc>
1000744c:	4604      	mov	r4, r0
1000744e:	2800      	cmp	r0, #0
10007450:	d042      	beq.n	100074d8 <lwiperf_tcp_accept+0xb4>
10007452:	2248      	movs	r2, #72	@ 0x48
10007454:	2100      	movs	r1, #0
10007456:	f005 fa4f 	bl	1000c8f8 <memset>
1000745a:	2301      	movs	r3, #1
1000745c:	7123      	strb	r3, [r4, #4]
1000745e:	7163      	strb	r3, [r4, #5]
10007460:	60a5      	str	r5, [r4, #8]
10007462:	6126      	str	r6, [r4, #16]
10007464:	f7f8 fff5 	bl	10000452 <sys_now>
10007468:	6160      	str	r0, [r4, #20]
1000746a:	69ab      	ldr	r3, [r5, #24]
1000746c:	61a3      	str	r3, [r4, #24]
1000746e:	69eb      	ldr	r3, [r5, #28]
10007470:	61e3      	str	r3, [r4, #28]
10007472:	4621      	mov	r1, r4
10007474:	4630      	mov	r0, r6
10007476:	f7fa fcec 	bl	10001e52 <tcp_arg>
1000747a:	4919      	ldr	r1, [pc, #100]	@ (100074e0 <lwiperf_tcp_accept+0xbc>)
1000747c:	4630      	mov	r0, r6
1000747e:	f7fa fceb 	bl	10001e58 <tcp_recv>
10007482:	2202      	movs	r2, #2
10007484:	4917      	ldr	r1, [pc, #92]	@ (100074e4 <lwiperf_tcp_accept+0xc0>)
10007486:	4630      	mov	r0, r6
10007488:	f7fa fcf9 	bl	10001e7e <tcp_poll>
1000748c:	4916      	ldr	r1, [pc, #88]	@ (100074e8 <lwiperf_tcp_accept+0xc4>)
1000748e:	6920      	ldr	r0, [r4, #16]
10007490:	f7fa fcea 	bl	10001e68 <tcp_err>
10007494:	f895 3041 	ldrb.w	r3, [r5, #65]	@ 0x41
10007498:	b16b      	cbz	r3, 100074b6 <lwiperf_tcp_accept+0x92>
1000749a:	68a8      	ldr	r0, [r5, #8]
1000749c:	60a0      	str	r0, [r4, #8]
1000749e:	f895 3022 	ldrb.w	r3, [r5, #34]	@ 0x22
100074a2:	b113      	cbz	r3, 100074aa <lwiperf_tcp_accept+0x86>
100074a4:	f7ff ff0c 	bl	100072c0 <lwiperf_list_find>
100074a8:	b928      	cbnz	r0, 100074b6 <lwiperf_tcp_accept+0x92>
100074aa:	2300      	movs	r3, #0
100074ac:	61ab      	str	r3, [r5, #24]
100074ae:	2102      	movs	r1, #2
100074b0:	4628      	mov	r0, r5
100074b2:	f7ff ff86 	bl	100073c2 <lwiperf_tcp_close>
100074b6:	4620      	mov	r0, r4
100074b8:	f7ff fee0 	bl	1000727c <lwiperf_list_add>
100074bc:	4638      	mov	r0, r7
100074be:	bdf8      	pop	{r3, r4, r5, r6, r7, pc}
100074c0:	f06f 0005 	mvn.w	r0, #5
100074c4:	4770      	bx	lr
100074c6:	f06f 0005 	mvn.w	r0, #5
100074ca:	e7f8      	b.n	100074be <lwiperf_tcp_accept+0x9a>
100074cc:	f06f 0005 	mvn.w	r0, #5
100074d0:	e7f5      	b.n	100074be <lwiperf_tcp_accept+0x9a>
100074d2:	f06f 0005 	mvn.w	r0, #5
100074d6:	e7f2      	b.n	100074be <lwiperf_tcp_accept+0x9a>
100074d8:	f04f 30ff 	mov.w	r0, #4294967295
100074dc:	e7ef      	b.n	100074be <lwiperf_tcp_accept+0x9a>
100074de:	bf00      	nop
100074e0:	10007751 	.word	0x10007751
100074e4:	100075fb 	.word	0x100075fb
100074e8:	100074ed 	.word	0x100074ed

100074ec <lwiperf_tcp_err>:
100074ec:	b508      	push	{r3, lr}
100074ee:	2200      	movs	r2, #0
100074f0:	6102      	str	r2, [r0, #16]
100074f2:	60c2      	str	r2, [r0, #12]
100074f4:	2105      	movs	r1, #5
100074f6:	f7ff ff64 	bl	100073c2 <lwiperf_tcp_close>
100074fa:	bd08      	pop	{r3, pc}

100074fc <lwiperf_tcp_client_send_more>:
100074fc:	e92d 41f0 	stmdb	sp!, {r4, r5, r6, r7, r8, lr}
10007500:	4605      	mov	r5, r0
10007502:	e03a      	b.n	1000757a <lwiperf_tcp_client_send_more+0x7e>
10007504:	2101      	movs	r1, #1
10007506:	4628      	mov	r0, r5
10007508:	f7ff ff5b 	bl	100073c2 <lwiperf_tcp_close>
1000750c:	e067      	b.n	100075de <lwiperf_tcp_client_send_more+0xe2>
1000750e:	f7f9 fb58 	bl	10000bc2 <lwip_htonl>
10007512:	6a6b      	ldr	r3, [r5, #36]	@ 0x24
10007514:	4283      	cmp	r3, r0
10007516:	d841      	bhi.n	1000759c <lwiperf_tcp_client_send_more+0xa0>
10007518:	2101      	movs	r1, #1
1000751a:	4628      	mov	r0, r5
1000751c:	f7ff ff51 	bl	100073c2 <lwiperf_tcp_close>
10007520:	e05d      	b.n	100075de <lwiperf_tcp_client_send_more+0xe2>
10007522:	2c2f      	cmp	r4, #47	@ 0x2f
10007524:	d80c      	bhi.n	10007540 <lwiperf_tcp_client_send_more+0x44>
10007526:	f105 0628 	add.w	r6, r5, #40	@ 0x28
1000752a:	f1a4 0218 	sub.w	r2, r4, #24
1000752e:	4416      	add	r6, r2
10007530:	b2a4      	uxth	r4, r4
10007532:	f1c4 0430 	rsb	r4, r4, #48	@ 0x30
10007536:	b2a4      	uxth	r4, r4
10007538:	f04f 0803 	mov.w	r8, #3
1000753c:	2701      	movs	r7, #1
1000753e:	e03a      	b.n	100075b6 <lwiperf_tcp_client_send_more+0xba>
10007540:	4e28      	ldr	r6, [pc, #160]	@ (100075e4 <lwiperf_tcp_client_send_more+0xe8>)
10007542:	fba6 2604 	umull	r2, r6, r6, r4
10007546:	08f6      	lsrs	r6, r6, #3
10007548:	eb06 0686 	add.w	r6, r6, r6, lsl #2
1000754c:	eba4 0646 	sub.w	r6, r4, r6, lsl #1
10007550:	4a25      	ldr	r2, [pc, #148]	@ (100075e8 <lwiperf_tcp_client_send_more+0xec>)
10007552:	4416      	add	r6, r2
10007554:	2c30      	cmp	r4, #48	@ 0x30
10007556:	d005      	beq.n	10007564 <lwiperf_tcp_client_send_more+0x68>
10007558:	f04f 0800 	mov.w	r8, #0
1000755c:	f240 54b4 	movw	r4, #1460	@ 0x5b4
10007560:	2701      	movs	r7, #1
10007562:	e028      	b.n	100075b6 <lwiperf_tcp_client_send_more+0xba>
10007564:	f04f 0800 	mov.w	r8, #0
10007568:	f240 549c 	movw	r4, #1436	@ 0x59c
1000756c:	2701      	movs	r7, #1
1000756e:	e022      	b.n	100075b6 <lwiperf_tcp_client_send_more+0xba>
10007570:	bb80      	cbnz	r0, 100075d4 <lwiperf_tcp_client_send_more+0xd8>
10007572:	6a6b      	ldr	r3, [r5, #36]	@ 0x24
10007574:	441c      	add	r4, r3
10007576:	626c      	str	r4, [r5, #36]	@ 0x24
10007578:	b377      	cbz	r7, 100075d8 <lwiperf_tcp_client_send_more+0xdc>
1000757a:	6be8      	ldr	r0, [r5, #60]	@ 0x3c
1000757c:	f010 0f80 	tst.w	r0, #128	@ 0x80
10007580:	d0c5      	beq.n	1000750e <lwiperf_tcp_client_send_more+0x12>
10007582:	f7f8 ff66 	bl	10000452 <sys_now>
10007586:	696b      	ldr	r3, [r5, #20]
10007588:	1ac4      	subs	r4, r0, r3
1000758a:	6be8      	ldr	r0, [r5, #60]	@ 0x3c
1000758c:	f7f9 fb19 	bl	10000bc2 <lwip_htonl>
10007590:	f06f 0309 	mvn.w	r3, #9
10007594:	fb03 f000 	mul.w	r0, r3, r0
10007598:	4284      	cmp	r4, r0
1000759a:	d2b3      	bcs.n	10007504 <lwiperf_tcp_client_send_more+0x8>
1000759c:	6a6c      	ldr	r4, [r5, #36]	@ 0x24
1000759e:	2c17      	cmp	r4, #23
100075a0:	d8bf      	bhi.n	10007522 <lwiperf_tcp_client_send_more+0x26>
100075a2:	f105 0628 	add.w	r6, r5, #40	@ 0x28
100075a6:	4426      	add	r6, r4
100075a8:	b2a4      	uxth	r4, r4
100075aa:	f1c4 0418 	rsb	r4, r4, #24
100075ae:	b2a4      	uxth	r4, r4
100075b0:	f04f 0801 	mov.w	r8, #1
100075b4:	2700      	movs	r7, #0
100075b6:	4643      	mov	r3, r8
100075b8:	4622      	mov	r2, r4
100075ba:	4631      	mov	r1, r6
100075bc:	6928      	ldr	r0, [r5, #16]
100075be:	f7fc fecb 	bl	10004358 <tcp_write>
100075c2:	f1b0 3fff 	cmp.w	r0, #4294967295
100075c6:	d1d3      	bne.n	10007570 <lwiperf_tcp_client_send_more+0x74>
100075c8:	0864      	lsrs	r4, r4, #1
100075ca:	f240 23d9 	movw	r3, #729	@ 0x2d9
100075ce:	429c      	cmp	r4, r3
100075d0:	d8f1      	bhi.n	100075b6 <lwiperf_tcp_client_send_more+0xba>
100075d2:	e7cd      	b.n	10007570 <lwiperf_tcp_client_send_more+0x74>
100075d4:	2700      	movs	r7, #0
100075d6:	e7cf      	b.n	10007578 <lwiperf_tcp_client_send_more+0x7c>
100075d8:	6928      	ldr	r0, [r5, #16]
100075da:	f7fd fab1 	bl	10004b40 <tcp_output>
100075de:	2000      	movs	r0, #0
100075e0:	e8bd 81f0 	ldmia.w	sp!, {r4, r5, r6, r7, r8, pc}
100075e4:	cccccccd 	.word	0xcccccccd
100075e8:	1000e734 	.word	0x1000e734

100075ec <lwiperf_tcp_client_sent>:
100075ec:	b508      	push	{r3, lr}
100075ee:	2200      	movs	r2, #0
100075f0:	f880 2020 	strb.w	r2, [r0, #32]
100075f4:	f7ff ff82 	bl	100074fc <lwiperf_tcp_client_send_more>
100075f8:	bd08      	pop	{r3, pc}

100075fa <lwiperf_tcp_poll>:
100075fa:	b508      	push	{r3, lr}
100075fc:	f890 3020 	ldrb.w	r3, [r0, #32]
10007600:	3301      	adds	r3, #1
10007602:	b2db      	uxtb	r3, r3
10007604:	f880 3020 	strb.w	r3, [r0, #32]
10007608:	2b09      	cmp	r3, #9
1000760a:	d803      	bhi.n	10007614 <lwiperf_tcp_poll+0x1a>
1000760c:	7943      	ldrb	r3, [r0, #5]
1000760e:	b12b      	cbz	r3, 1000761c <lwiperf_tcp_poll+0x22>
10007610:	2000      	movs	r0, #0
10007612:	bd08      	pop	{r3, pc}
10007614:	2102      	movs	r1, #2
10007616:	f7ff fed4 	bl	100073c2 <lwiperf_tcp_close>
1000761a:	e7f9      	b.n	10007610 <lwiperf_tcp_poll+0x16>
1000761c:	f7ff ff6e 	bl	100074fc <lwiperf_tcp_client_send_more>
10007620:	e7f6      	b.n	10007610 <lwiperf_tcp_poll+0x16>
	...

10007624 <lwiperf_tx_start_impl>:
10007624:	e92d 4ff0 	stmdb	sp!, {r4, r5, r6, r7, r8, r9, sl, fp, lr}
10007628:	b083      	sub	sp, #12
1000762a:	4680      	mov	r8, r0
1000762c:	460f      	mov	r7, r1
1000762e:	4615      	mov	r5, r2
10007630:	4699      	mov	r9, r3
10007632:	f8dd b038 	ldr.w	fp, [sp, #56]	@ 0x38
10007636:	2300      	movs	r3, #0
10007638:	f8cb 3000 	str.w	r3, [fp]
1000763c:	2048      	movs	r0, #72	@ 0x48
1000763e:	f7f9 fd67 	bl	10001110 <mem_malloc>
10007642:	2800      	cmp	r0, #0
10007644:	d05c      	beq.n	10007700 <lwiperf_tx_start_impl+0xdc>
10007646:	4604      	mov	r4, r0
10007648:	2000      	movs	r0, #0
1000764a:	f7fa fea9 	bl	100023a0 <tcp_new_ip_type>
1000764e:	4606      	mov	r6, r0
10007650:	2800      	cmp	r0, #0
10007652:	d04a      	beq.n	100076ea <lwiperf_tx_start_impl+0xc6>
10007654:	2248      	movs	r2, #72	@ 0x48
10007656:	2100      	movs	r1, #0
10007658:	4620      	mov	r0, r4
1000765a:	f005 f94d 	bl	1000c8f8 <memset>
1000765e:	f04f 0a01 	mov.w	sl, #1
10007662:	f884 a004 	strb.w	sl, [r4, #4]
10007666:	9b0d      	ldr	r3, [sp, #52]	@ 0x34
10007668:	60a3      	str	r3, [r4, #8]
1000766a:	6126      	str	r6, [r4, #16]
1000766c:	f7f8 fef1 	bl	10000452 <sys_now>
10007670:	6160      	str	r0, [r4, #20]
10007672:	f8c4 9018 	str.w	r9, [r4, #24]
10007676:	9b0c      	ldr	r3, [sp, #48]	@ 0x30
10007678:	61e3      	str	r3, [r4, #28]
1000767a:	2304      	movs	r3, #4
1000767c:	f884 3021 	strb.w	r3, [r4, #33]	@ 0x21
10007680:	2300      	movs	r3, #0
10007682:	6263      	str	r3, [r4, #36]	@ 0x24
10007684:	682a      	ldr	r2, [r5, #0]
10007686:	686b      	ldr	r3, [r5, #4]
10007688:	68a8      	ldr	r0, [r5, #8]
1000768a:	68e9      	ldr	r1, [r5, #12]
1000768c:	62a2      	str	r2, [r4, #40]	@ 0x28
1000768e:	62e3      	str	r3, [r4, #44]	@ 0x2c
10007690:	6320      	str	r0, [r4, #48]	@ 0x30
10007692:	6361      	str	r1, [r4, #52]	@ 0x34
10007694:	692a      	ldr	r2, [r5, #16]
10007696:	696b      	ldr	r3, [r5, #20]
10007698:	63a2      	str	r2, [r4, #56]	@ 0x38
1000769a:	63e3      	str	r3, [r4, #60]	@ 0x3c
1000769c:	f884 a040 	strb.w	sl, [r4, #64]	@ 0x40
100076a0:	4621      	mov	r1, r4
100076a2:	4630      	mov	r0, r6
100076a4:	f7fa fbd5 	bl	10001e52 <tcp_arg>
100076a8:	4917      	ldr	r1, [pc, #92]	@ (10007708 <lwiperf_tx_start_impl+0xe4>)
100076aa:	4630      	mov	r0, r6
100076ac:	f7fa fbd8 	bl	10001e60 <tcp_sent>
100076b0:	2202      	movs	r2, #2
100076b2:	4916      	ldr	r1, [pc, #88]	@ (1000770c <lwiperf_tx_start_impl+0xe8>)
100076b4:	4630      	mov	r0, r6
100076b6:	f7fa fbe2 	bl	10001e7e <tcp_poll>
100076ba:	4915      	ldr	r1, [pc, #84]	@ (10007710 <lwiperf_tx_start_impl+0xec>)
100076bc:	4630      	mov	r0, r6
100076be:	f7fa fbd3 	bl	10001e68 <tcp_err>
100076c2:	f8d8 3000 	ldr.w	r3, [r8]
100076c6:	9301      	str	r3, [sp, #4]
100076c8:	4b12      	ldr	r3, [pc, #72]	@ (10007714 <lwiperf_tx_start_impl+0xf0>)
100076ca:	463a      	mov	r2, r7
100076cc:	a901      	add	r1, sp, #4
100076ce:	4630      	mov	r0, r6
100076d0:	f7fa fbf4 	bl	10001ebc <tcp_connect>
100076d4:	4605      	mov	r5, r0
100076d6:	b970      	cbnz	r0, 100076f6 <lwiperf_tx_start_impl+0xd2>
100076d8:	4620      	mov	r0, r4
100076da:	f7ff fdcf 	bl	1000727c <lwiperf_list_add>
100076de:	f8cb 4000 	str.w	r4, [fp]
100076e2:	4628      	mov	r0, r5
100076e4:	b003      	add	sp, #12
100076e6:	e8bd 8ff0 	ldmia.w	sp!, {r4, r5, r6, r7, r8, r9, sl, fp, pc}
100076ea:	4620      	mov	r0, r4
100076ec:	f7f9 fbfc 	bl	10000ee8 <mem_free>
100076f0:	f04f 35ff 	mov.w	r5, #4294967295
100076f4:	e7f5      	b.n	100076e2 <lwiperf_tx_start_impl+0xbe>
100076f6:	2102      	movs	r1, #2
100076f8:	4620      	mov	r0, r4
100076fa:	f7ff fe62 	bl	100073c2 <lwiperf_tcp_close>
100076fe:	e7f0      	b.n	100076e2 <lwiperf_tx_start_impl+0xbe>
10007700:	f04f 35ff 	mov.w	r5, #4294967295
10007704:	e7ed      	b.n	100076e2 <lwiperf_tx_start_impl+0xbe>
10007706:	bf00      	nop
10007708:	100075ed 	.word	0x100075ed
1000770c:	100075fb 	.word	0x100075fb
10007710:	100074ed 	.word	0x100074ed
10007714:	10007885 	.word	0x10007885

10007718 <lwiperf_tx_start_passive>:
10007718:	b530      	push	{r4, r5, lr}
1000771a:	b087      	sub	sp, #28
1000771c:	4604      	mov	r4, r0
1000771e:	2300      	movs	r3, #0
10007720:	9305      	str	r3, [sp, #20]
10007722:	6b00      	ldr	r0, [r0, #48]	@ 0x30
10007724:	f7f9 fa4d 	bl	10000bc2 <lwip_htonl>
10007728:	6925      	ldr	r5, [r4, #16]
1000772a:	ab05      	add	r3, sp, #20
1000772c:	9302      	str	r3, [sp, #8]
1000772e:	68a3      	ldr	r3, [r4, #8]
10007730:	9301      	str	r3, [sp, #4]
10007732:	69e3      	ldr	r3, [r4, #28]
10007734:	9300      	str	r3, [sp, #0]
10007736:	69a3      	ldr	r3, [r4, #24]
10007738:	f104 0228 	add.w	r2, r4, #40	@ 0x28
1000773c:	b281      	uxth	r1, r0
1000773e:	1d28      	adds	r0, r5, #4
10007740:	f7ff ff70 	bl	10007624 <lwiperf_tx_start_impl>
10007744:	b910      	cbnz	r0, 1000774c <lwiperf_tx_start_passive+0x34>
10007746:	9b05      	ldr	r3, [sp, #20]
10007748:	2200      	movs	r2, #0
1000774a:	629a      	str	r2, [r3, #40]	@ 0x28
1000774c:	b007      	add	sp, #28
1000774e:	bd30      	pop	{r4, r5, pc}

10007750 <lwiperf_tcp_recv>:
10007750:	b5f8      	push	{r3, r4, r5, r6, r7, lr}
10007752:	4604      	mov	r4, r0
10007754:	bb33      	cbnz	r3, 100077a4 <lwiperf_tcp_recv+0x54>
10007756:	460e      	mov	r6, r1
10007758:	4615      	mov	r5, r2
1000775a:	b33a      	cbz	r2, 100077ac <lwiperf_tcp_recv+0x5c>
1000775c:	8917      	ldrh	r7, [r2, #8]
1000775e:	2300      	movs	r3, #0
10007760:	f880 3020 	strb.w	r3, [r0, #32]
10007764:	f890 2040 	ldrb.w	r2, [r0, #64]	@ 0x40
10007768:	b122      	cbz	r2, 10007774 <lwiperf_tcp_recv+0x24>
1000776a:	6a43      	ldr	r3, [r0, #36]	@ 0x24
1000776c:	3b18      	subs	r3, #24
1000776e:	f3c3 0310 	ubfx	r3, r3, #0, #17
10007772:	b99b      	cbnz	r3, 1000779c <lwiperf_tcp_recv+0x4c>
10007774:	892b      	ldrh	r3, [r5, #8]
10007776:	2b17      	cmp	r3, #23
10007778:	d927      	bls.n	100077ca <lwiperf_tcp_recv+0x7a>
1000777a:	b372      	cbz	r2, 100077da <lwiperf_tcp_recv+0x8a>
1000777c:	6aa3      	ldr	r3, [r4, #40]	@ 0x28
1000777e:	f013 0f80 	tst.w	r3, #128	@ 0x80
10007782:	d152      	bne.n	1000782a <lwiperf_tcp_recv+0xda>
10007784:	6a63      	ldr	r3, [r4, #36]	@ 0x24
10007786:	3318      	adds	r3, #24
10007788:	6263      	str	r3, [r4, #36]	@ 0x24
1000778a:	2b18      	cmp	r3, #24
1000778c:	d95e      	bls.n	1000784c <lwiperf_tcp_recv+0xfc>
1000778e:	2304      	movs	r3, #4
10007790:	f884 3021 	strb.w	r3, [r4, #33]	@ 0x21
10007794:	2118      	movs	r1, #24
10007796:	4628      	mov	r0, r5
10007798:	f7f9 ff4b 	bl	10001632 <pbuf_remove_header>
1000779c:	462b      	mov	r3, r5
1000779e:	f04f 0c00 	mov.w	ip, #0
100077a2:	e061      	b.n	10007868 <lwiperf_tcp_recv+0x118>
100077a4:	2105      	movs	r1, #5
100077a6:	f7ff fe0c 	bl	100073c2 <lwiperf_tcp_close>
100077aa:	e069      	b.n	10007880 <lwiperf_tcp_recv+0x130>
100077ac:	6a83      	ldr	r3, [r0, #40]	@ 0x28
100077ae:	f013 0f80 	tst.w	r3, #128	@ 0x80
100077b2:	d002      	beq.n	100077ba <lwiperf_tcp_recv+0x6a>
100077b4:	f013 7f80 	tst.w	r3, #16777216	@ 0x1000000
100077b8:	d004      	beq.n	100077c4 <lwiperf_tcp_recv+0x74>
100077ba:	2100      	movs	r1, #0
100077bc:	4620      	mov	r0, r4
100077be:	f7ff fe00 	bl	100073c2 <lwiperf_tcp_close>
100077c2:	e05d      	b.n	10007880 <lwiperf_tcp_recv+0x130>
100077c4:	f7ff ffa8 	bl	10007718 <lwiperf_tx_start_passive>
100077c8:	e7f7      	b.n	100077ba <lwiperf_tcp_recv+0x6a>
100077ca:	2103      	movs	r1, #3
100077cc:	4620      	mov	r0, r4
100077ce:	f7ff fdf8 	bl	100073c2 <lwiperf_tcp_close>
100077d2:	4628      	mov	r0, r5
100077d4:	f7f9 ff5b 	bl	1000168e <pbuf_free>
100077d8:	e052      	b.n	10007880 <lwiperf_tcp_recv+0x130>
100077da:	2300      	movs	r3, #0
100077dc:	2218      	movs	r2, #24
100077de:	f104 0128 	add.w	r1, r4, #40	@ 0x28
100077e2:	4628      	mov	r0, r5
100077e4:	f7fa f8e7 	bl	100019b6 <pbuf_copy_partial>
100077e8:	2818      	cmp	r0, #24
100077ea:	d116      	bne.n	1000781a <lwiperf_tcp_recv+0xca>
100077ec:	2301      	movs	r3, #1
100077ee:	f884 3040 	strb.w	r3, [r4, #64]	@ 0x40
100077f2:	6aa3      	ldr	r3, [r4, #40]	@ 0x28
100077f4:	f013 0f80 	tst.w	r3, #128	@ 0x80
100077f8:	d0c4      	beq.n	10007784 <lwiperf_tcp_recv+0x34>
100077fa:	f013 7f80 	tst.w	r3, #16777216	@ 0x1000000
100077fe:	d0c1      	beq.n	10007784 <lwiperf_tcp_recv+0x34>
10007800:	4620      	mov	r0, r4
10007802:	f7ff ff89 	bl	10007718 <lwiperf_tx_start_passive>
10007806:	2800      	cmp	r0, #0
10007808:	d0bc      	beq.n	10007784 <lwiperf_tcp_recv+0x34>
1000780a:	2104      	movs	r1, #4
1000780c:	4620      	mov	r0, r4
1000780e:	f7ff fdd8 	bl	100073c2 <lwiperf_tcp_close>
10007812:	4628      	mov	r0, r5
10007814:	f7f9 ff3b 	bl	1000168e <pbuf_free>
10007818:	e032      	b.n	10007880 <lwiperf_tcp_recv+0x130>
1000781a:	2102      	movs	r1, #2
1000781c:	4620      	mov	r0, r4
1000781e:	f7ff fdd0 	bl	100073c2 <lwiperf_tcp_close>
10007822:	4628      	mov	r0, r5
10007824:	f7f9 ff33 	bl	1000168e <pbuf_free>
10007828:	e02a      	b.n	10007880 <lwiperf_tcp_recv+0x130>
1000782a:	2318      	movs	r3, #24
1000782c:	f104 0228 	add.w	r2, r4, #40	@ 0x28
10007830:	2100      	movs	r1, #0
10007832:	4628      	mov	r0, r5
10007834:	f7fa f91f 	bl	10001a76 <pbuf_memcmp>
10007838:	2800      	cmp	r0, #0
1000783a:	d0a3      	beq.n	10007784 <lwiperf_tcp_recv+0x34>
1000783c:	2103      	movs	r1, #3
1000783e:	4620      	mov	r0, r4
10007840:	f7ff fdbf 	bl	100073c2 <lwiperf_tcp_close>
10007844:	4628      	mov	r0, r5
10007846:	f7f9 ff22 	bl	1000168e <pbuf_free>
1000784a:	e019      	b.n	10007880 <lwiperf_tcp_recv+0x130>
1000784c:	f7f8 fe01 	bl	10000452 <sys_now>
10007850:	6160      	str	r0, [r4, #20]
10007852:	8929      	ldrh	r1, [r5, #8]
10007854:	4630      	mov	r0, r6
10007856:	f7fa faac 	bl	10001db2 <tcp_recved>
1000785a:	4628      	mov	r0, r5
1000785c:	f7f9 ff17 	bl	1000168e <pbuf_free>
10007860:	e00e      	b.n	10007880 <lwiperf_tcp_recv+0x130>
10007862:	895a      	ldrh	r2, [r3, #10]
10007864:	4494      	add	ip, r2
10007866:	681b      	ldr	r3, [r3, #0]
10007868:	2b00      	cmp	r3, #0
1000786a:	d1fa      	bne.n	10007862 <lwiperf_tcp_recv+0x112>
1000786c:	6a63      	ldr	r3, [r4, #36]	@ 0x24
1000786e:	4463      	add	r3, ip
10007870:	6263      	str	r3, [r4, #36]	@ 0x24
10007872:	4639      	mov	r1, r7
10007874:	4630      	mov	r0, r6
10007876:	f7fa fa9c 	bl	10001db2 <tcp_recved>
1000787a:	4628      	mov	r0, r5
1000787c:	f7f9 ff07 	bl	1000168e <pbuf_free>
10007880:	2000      	movs	r0, #0
10007882:	bdf8      	pop	{r3, r4, r5, r6, r7, pc}

10007884 <lwiperf_tcp_client_connected>:
10007884:	b510      	push	{r4, lr}
10007886:	4604      	mov	r4, r0
10007888:	b94a      	cbnz	r2, 1000789e <lwiperf_tcp_client_connected+0x1a>
1000788a:	2300      	movs	r3, #0
1000788c:	f880 3020 	strb.w	r3, [r0, #32]
10007890:	f7f8 fddf 	bl	10000452 <sys_now>
10007894:	6160      	str	r0, [r4, #20]
10007896:	4620      	mov	r0, r4
10007898:	f7ff fe30 	bl	100074fc <lwiperf_tcp_client_send_more>
1000789c:	bd10      	pop	{r4, pc}
1000789e:	2105      	movs	r1, #5
100078a0:	f7ff fd8f 	bl	100073c2 <lwiperf_tcp_close>
100078a4:	2000      	movs	r0, #0
100078a6:	e7f9      	b.n	1000789c <lwiperf_tcp_client_connected+0x18>

100078a8 <lwiperf_start_tcp_server>:
100078a8:	b530      	push	{r4, r5, lr}
100078aa:	b085      	sub	sp, #20
100078ac:	2400      	movs	r4, #0
100078ae:	9403      	str	r4, [sp, #12]
100078b0:	ad03      	add	r5, sp, #12
100078b2:	9501      	str	r5, [sp, #4]
100078b4:	9400      	str	r4, [sp, #0]
100078b6:	f7ff fd11 	bl	100072dc <lwiperf_start_tcp_server_impl>
100078ba:	b910      	cbnz	r0, 100078c2 <lwiperf_start_tcp_server+0x1a>
100078bc:	9803      	ldr	r0, [sp, #12]
100078be:	b005      	add	sp, #20
100078c0:	bd30      	pop	{r4, r5, pc}
100078c2:	2000      	movs	r0, #0
100078c4:	e7fb      	b.n	100078be <lwiperf_start_tcp_server+0x16>
	...

100078c8 <lwiperf_start_tcp_server_default>:
100078c8:	b508      	push	{r3, lr}
100078ca:	4602      	mov	r2, r0
100078cc:	460b      	mov	r3, r1
100078ce:	f241 3189 	movw	r1, #5001	@ 0x1389
100078d2:	4802      	ldr	r0, [pc, #8]	@ (100078dc <lwiperf_start_tcp_server_default+0x14>)
100078d4:	f7ff ffe8 	bl	100078a8 <lwiperf_start_tcp_server>
100078d8:	bd08      	pop	{r3, pc}
100078da:	bf00      	nop
100078dc:	1000d91c 	.word	0x1000d91c

100078e0 <gpio_set_function>:
100078e0:	4b0c      	ldr	r3, [pc, #48]	@ (10007914 <gpio_set_function+0x34>)
100078e2:	eb03 0280 	add.w	r2, r3, r0, lsl #2
100078e6:	f853 3020 	ldr.w	r3, [r3, r0, lsl #2]
100078ea:	f083 0340 	eor.w	r3, r3, #64	@ 0x40
100078ee:	f003 03c0 	and.w	r3, r3, #192	@ 0xc0
100078f2:	f502 5c80 	add.w	ip, r2, #4096	@ 0x1000
100078f6:	f8cc 3000 	str.w	r3, [ip]
100078fa:	00c0      	lsls	r0, r0, #3
100078fc:	f100 4080 	add.w	r0, r0, #1073741824	@ 0x40000000
10007900:	f500 3020 	add.w	r0, r0, #163840	@ 0x28000
10007904:	6041      	str	r1, [r0, #4]
10007906:	f502 5240 	add.w	r2, r2, #12288	@ 0x3000
1000790a:	f44f 7380 	mov.w	r3, #256	@ 0x100
1000790e:	6013      	str	r3, [r2, #0]
10007910:	4770      	bx	lr
10007912:	bf00      	nop
10007914:	40038004 	.word	0x40038004

10007918 <gpio_init>:
10007918:	b508      	push	{r3, lr}
1000791a:	f04f 0200 	mov.w	r2, #0
1000791e:	ec42 0044 	gpioc_bit_oe_put r0, r2
10007922:	ec42 0040 	gpioc_bit_out_put r0, r2
10007926:	2105      	movs	r1, #5
10007928:	f7ff ffda 	bl	100078e0 <gpio_set_function>
1000792c:	bd08      	pop	{r3, pc}
	...

10007930 <panic>:
10007930:	b40f      	push	{r0, r1, r2, r3}
10007932:	b500      	push	{lr}
10007934:	b083      	sub	sp, #12
10007936:	9c04      	ldr	r4, [sp, #16]
10007938:	4807      	ldr	r0, [pc, #28]	@ (10007958 <panic+0x28>)
1000793a:	f002 fe73 	bl	1000a624 <__wrap_puts>
1000793e:	b13c      	cbz	r4, 10007950 <panic+0x20>
10007940:	a905      	add	r1, sp, #20
10007942:	9101      	str	r1, [sp, #4]
10007944:	4620      	mov	r0, r4
10007946:	f002 fe7d 	bl	1000a644 <__wrap_vprintf>
1000794a:	4804      	ldr	r0, [pc, #16]	@ (1000795c <panic+0x2c>)
1000794c:	f002 fe6a 	bl	1000a624 <__wrap_puts>
10007950:	2001      	movs	r0, #1
10007952:	f002 fd33 	bl	1000a3bc <_exit>
10007956:	bf00      	nop
10007958:	1000cf70 	.word	0x1000cf70
1000795c:	1000cf80 	.word	0x1000cf80

10007960 <hw_claim_lock>:
10007960:	f3ef 8010 	mrs	r0, PRIMASK
10007964:	b672      	cpsid	i
10007966:	4b06      	ldr	r3, [pc, #24]	@ (10007980 <hw_claim_lock+0x20>)
10007968:	e8d3 1fcf 	ldaexb	r1, [r3]
1000796c:	2201      	movs	r2, #1
1000796e:	2900      	cmp	r1, #0
10007970:	d1fa      	bne.n	10007968 <hw_claim_lock+0x8>
10007972:	e8c3 2f41 	strexb	r1, r2, [r3]
10007976:	2900      	cmp	r1, #0
10007978:	d1f6      	bne.n	10007968 <hw_claim_lock+0x8>
1000797a:	f3bf 8f5f 	dmb	sy
1000797e:	4770      	bx	lr
10007980:	20001087 	.word	0x20001087

10007984 <hw_claim_unlock>:
10007984:	2300      	movs	r3, #0
10007986:	4a03      	ldr	r2, [pc, #12]	@ (10007994 <hw_claim_unlock+0x10>)
10007988:	e8c2 3f8f 	stlb	r3, [r2]
1000798c:	f380 8810 	msr	PRIMASK, r0
10007990:	4770      	bx	lr
10007992:	bf00      	nop
10007994:	20001087 	.word	0x20001087

10007998 <hw_claim_or_assert>:
10007998:	b570      	push	{r4, r5, r6, lr}
1000799a:	4605      	mov	r5, r0
1000799c:	460c      	mov	r4, r1
1000799e:	4616      	mov	r6, r2
100079a0:	f7ff ffde 	bl	10007960 <hw_claim_lock>
100079a4:	08e2      	lsrs	r2, r4, #3
100079a6:	5ca9      	ldrb	r1, [r5, r2]
100079a8:	f004 0c07 	and.w	ip, r4, #7
100079ac:	2301      	movs	r3, #1
100079ae:	fa03 f30c 	lsl.w	r3, r3, ip
100079b2:	4219      	tst	r1, r3
100079b4:	d105      	bne.n	100079c2 <hw_claim_or_assert+0x2a>
100079b6:	b2db      	uxtb	r3, r3
100079b8:	430b      	orrs	r3, r1
100079ba:	54ab      	strb	r3, [r5, r2]
100079bc:	f7ff ffe2 	bl	10007984 <hw_claim_unlock>
100079c0:	bd70      	pop	{r4, r5, r6, pc}
100079c2:	4621      	mov	r1, r4
100079c4:	4630      	mov	r0, r6
100079c6:	f7ff ffb3 	bl	10007930 <panic>

100079ca <hw_claim_unused_from_range>:
100079ca:	b5f8      	push	{r3, r4, r5, r6, r7, lr}
100079cc:	4606      	mov	r6, r0
100079ce:	460d      	mov	r5, r1
100079d0:	4614      	mov	r4, r2
100079d2:	461f      	mov	r7, r3
100079d4:	f7ff ffc4 	bl	10007960 <hw_claim_lock>
100079d8:	e000      	b.n	100079dc <hw_claim_unused_from_range+0x12>
100079da:	3401      	adds	r4, #1
100079dc:	42bc      	cmp	r4, r7
100079de:	d80e      	bhi.n	100079fe <hw_claim_unused_from_range+0x34>
100079e0:	ea4f 0cd4 	mov.w	ip, r4, lsr #3
100079e4:	f816 100c 	ldrb.w	r1, [r6, ip]
100079e8:	f004 0307 	and.w	r3, r4, #7
100079ec:	2201      	movs	r2, #1
100079ee:	409a      	lsls	r2, r3
100079f0:	4211      	tst	r1, r2
100079f2:	d1f2      	bne.n	100079da <hw_claim_unused_from_range+0x10>
100079f4:	b2d2      	uxtb	r2, r2
100079f6:	430a      	orrs	r2, r1
100079f8:	f806 200c 	strb.w	r2, [r6, ip]
100079fc:	e001      	b.n	10007a02 <hw_claim_unused_from_range+0x38>
100079fe:	f04f 34ff 	mov.w	r4, #4294967295
10007a02:	f7ff ffbf 	bl	10007984 <hw_claim_unlock>
10007a06:	2c00      	cmp	r4, #0
10007a08:	db01      	blt.n	10007a0e <hw_claim_unused_from_range+0x44>
10007a0a:	4620      	mov	r0, r4
10007a0c:	bdf8      	pop	{r3, r4, r5, r6, r7, pc}
10007a0e:	2d00      	cmp	r5, #0
10007a10:	d0fb      	beq.n	10007a0a <hw_claim_unused_from_range+0x40>
10007a12:	9806      	ldr	r0, [sp, #24]
10007a14:	f7ff ff8c 	bl	10007930 <panic>

10007a18 <next_striped_spin_lock_num>:
10007a18:	4a05      	ldr	r2, [pc, #20]	@ (10007a30 <next_striped_spin_lock_num+0x18>)
10007a1a:	7810      	ldrb	r0, [r2, #0]
10007a1c:	1c43      	adds	r3, r0, #1
10007a1e:	b2db      	uxtb	r3, r3
10007a20:	7013      	strb	r3, [r2, #0]
10007a22:	2b17      	cmp	r3, #23
10007a24:	d902      	bls.n	10007a2c <next_striped_spin_lock_num+0x14>
10007a26:	4613      	mov	r3, r2
10007a28:	2210      	movs	r2, #16
10007a2a:	701a      	strb	r2, [r3, #0]
10007a2c:	4770      	bx	lr
10007a2e:	bf00      	nop
10007a30:	20000ddc 	.word	0x20000ddc

10007a34 <spin_lock_claim_unused>:
10007a34:	b500      	push	{lr}
10007a36:	b083      	sub	sp, #12
10007a38:	4601      	mov	r1, r0
10007a3a:	4b05      	ldr	r3, [pc, #20]	@ (10007a50 <spin_lock_claim_unused+0x1c>)
10007a3c:	9300      	str	r3, [sp, #0]
10007a3e:	231f      	movs	r3, #31
10007a40:	2218      	movs	r2, #24
10007a42:	4804      	ldr	r0, [pc, #16]	@ (10007a54 <spin_lock_claim_unused+0x20>)
10007a44:	f7ff ffc1 	bl	100079ca <hw_claim_unused_from_range>
10007a48:	b003      	add	sp, #12
10007a4a:	f85d fb04 	ldr.w	pc, [sp], #4
10007a4e:	bf00      	nop
10007a50:	1000cf84 	.word	0x1000cf84
10007a54:	200012fc 	.word	0x200012fc

10007a58 <spinlock_set_extexclall>:
10007a58:	f04f 22e0 	mov.w	r2, #3758153728	@ 0xe000e000
10007a5c:	6893      	ldr	r3, [r2, #8]
10007a5e:	f043 5300 	orr.w	r3, r3, #536870912	@ 0x20000000
10007a62:	6093      	str	r3, [r2, #8]
10007a64:	4770      	bx	lr
	...

10007a68 <spin_locks_reset>:
10007a68:	2300      	movs	r3, #0
10007a6a:	e005      	b.n	10007a78 <spin_locks_reset+0x10>
10007a6c:	4a04      	ldr	r2, [pc, #16]	@ (10007a80 <spin_locks_reset+0x18>)
10007a6e:	441a      	add	r2, r3
10007a70:	2100      	movs	r1, #0
10007a72:	e8c2 1f8f 	stlb	r1, [r2]
10007a76:	3301      	adds	r3, #1
10007a78:	2b1f      	cmp	r3, #31
10007a7a:	d9f7      	bls.n	10007a6c <spin_locks_reset+0x4>
10007a7c:	4770      	bx	lr
10007a7e:	bf00      	nop
10007a80:	2000107c 	.word	0x2000107c

10007a84 <set_raw_irq_handler_and_unlock>:
10007a84:	4b06      	ldr	r3, [pc, #24]	@ (10007aa0 <set_raw_irq_handler_and_unlock+0x1c>)
10007a86:	689b      	ldr	r3, [r3, #8]
10007a88:	3010      	adds	r0, #16
10007a8a:	f843 1020 	str.w	r1, [r3, r0, lsl #2]
10007a8e:	f3bf 8f5f 	dmb	sy
10007a92:	2300      	movs	r3, #0
10007a94:	4903      	ldr	r1, [pc, #12]	@ (10007aa4 <set_raw_irq_handler_and_unlock+0x20>)
10007a96:	e8c1 3f8f 	stlb	r3, [r1]
10007a9a:	f382 8810 	msr	PRIMASK, r2
10007a9e:	4770      	bx	lr
10007aa0:	e000ed00 	.word	0xe000ed00
10007aa4:	20001085 	.word	0x20001085

10007aa8 <nvic_ipr0>:
10007aa8:	4800      	ldr	r0, [pc, #0]	@ (10007aac <nvic_ipr0+0x4>)
10007aaa:	4770      	bx	lr
10007aac:	e000e400 	.word	0xe000e400

10007ab0 <runtime_init_per_core_irq_priorities>:
10007ab0:	b508      	push	{r3, lr}
10007ab2:	f7ff fff9 	bl	10007aa8 <nvic_ipr0>
10007ab6:	2300      	movs	r3, #0
10007ab8:	e004      	b.n	10007ac4 <runtime_init_per_core_irq_priorities+0x14>
10007aba:	f04f 3280 	mov.w	r2, #2155905152	@ 0x80808080
10007abe:	f840 2b04 	str.w	r2, [r0], #4
10007ac2:	3301      	adds	r3, #1
10007ac4:	2b0c      	cmp	r3, #12
10007ac6:	d9f8      	bls.n	10007aba <runtime_init_per_core_irq_priorities+0xa>
10007ac8:	bd08      	pop	{r3, pc}
	...

10007acc <resolve_j_16>:
10007acc:	b508      	push	{r3, lr}
10007ace:	8803      	ldrh	r3, [r0, #0]
10007ad0:	0ada      	lsrs	r2, r3, #11
10007ad2:	2a1c      	cmp	r2, #28
10007ad4:	d106      	bne.n	10007ae4 <resolve_j_16+0x18>
10007ad6:	055b      	lsls	r3, r3, #21
10007ad8:	d40b      	bmi.n	10007af2 <resolve_j_16+0x26>
10007ada:	155b      	asrs	r3, r3, #21
10007adc:	3302      	adds	r3, #2
10007ade:	eb00 0043 	add.w	r0, r0, r3, lsl #1
10007ae2:	bd08      	pop	{r3, pc}
10007ae4:	4b06      	ldr	r3, [pc, #24]	@ (10007b00 <resolve_j_16+0x34>)
10007ae6:	4a07      	ldr	r2, [pc, #28]	@ (10007b04 <resolve_j_16+0x38>)
10007ae8:	f240 110f 	movw	r1, #271	@ 0x10f
10007aec:	4806      	ldr	r0, [pc, #24]	@ (10007b08 <resolve_j_16+0x3c>)
10007aee:	f002 fc6b 	bl	1000a3c8 <__assert_func>
10007af2:	f503 13ff 	add.w	r3, r3, #2088960	@ 0x1fe000
10007af6:	f503 53ff 	add.w	r3, r3, #8160	@ 0x1fe0
10007afa:	331f      	adds	r3, #31
10007afc:	e7ed      	b.n	10007ada <resolve_j_16+0xe>
10007afe:	bf00      	nop
10007b00:	1000cfa0 	.word	0x1000cfa0
10007b04:	1000edc0 	.word	0x1000edc0
10007b08:	1000cfb8 	.word	0x1000cfb8

10007b0c <make_j_16>:
10007b0c:	b508      	push	{r3, lr}
10007b0e:	1a09      	subs	r1, r1, r0
10007b10:	f201 72fc 	addw	r2, r1, #2044	@ 0x7fc
10007b14:	f640 73fe 	movw	r3, #4094	@ 0xffe
10007b18:	429a      	cmp	r2, r3
10007b1a:	d808      	bhi.n	10007b2e <make_j_16+0x22>
10007b1c:	1f08      	subs	r0, r1, #4
10007b1e:	f011 0f01 	tst.w	r1, #1
10007b22:	d104      	bne.n	10007b2e <make_j_16+0x22>
10007b24:	f3c0 004a 	ubfx	r0, r0, #1, #11
10007b28:	f440 4060 	orr.w	r0, r0, #57344	@ 0xe000
10007b2c:	bd08      	pop	{r3, pc}
10007b2e:	4b03      	ldr	r3, [pc, #12]	@ (10007b3c <make_j_16+0x30>)
10007b30:	4a03      	ldr	r2, [pc, #12]	@ (10007b40 <make_j_16+0x34>)
10007b32:	f240 1101 	movw	r1, #257	@ 0x101
10007b36:	4803      	ldr	r0, [pc, #12]	@ (10007b44 <make_j_16+0x38>)
10007b38:	f002 fc46 	bl	1000a3c8 <__assert_func>
10007b3c:	1000d000 	.word	0x1000d000
10007b40:	1000edb4 	.word	0x1000edb4
10007b44:	1000cfb8 	.word	0x1000cfb8

10007b48 <insert_bl_32>:
10007b48:	b508      	push	{r3, lr}
10007b4a:	1a09      	subs	r1, r1, r0
10007b4c:	3904      	subs	r1, #4
10007b4e:	084b      	lsrs	r3, r1, #1
10007b50:	0b09      	lsrs	r1, r1, #12
10007b52:	d10a      	bne.n	10007b6a <insert_bl_32+0x22>
10007b54:	f3c1 010a 	ubfx	r1, r1, #0, #11
10007b58:	f441 4170 	orr.w	r1, r1, #61440	@ 0xf000
10007b5c:	8001      	strh	r1, [r0, #0]
10007b5e:	ea6f 5343 	mvn.w	r3, r3, lsl #21
10007b62:	ea6f 5353 	mvn.w	r3, r3, lsr #21
10007b66:	8043      	strh	r3, [r0, #2]
10007b68:	bd08      	pop	{r3, pc}
10007b6a:	4b03      	ldr	r3, [pc, #12]	@ (10007b78 <insert_bl_32+0x30>)
10007b6c:	4a03      	ldr	r2, [pc, #12]	@ (10007b7c <insert_bl_32+0x34>)
10007b6e:	f240 1109 	movw	r1, #265	@ 0x109
10007b72:	4803      	ldr	r0, [pc, #12]	@ (10007b80 <insert_bl_32+0x38>)
10007b74:	f002 fc28 	bl	1000a3c8 <__assert_func>
10007b78:	1000d030 	.word	0x1000d030
10007b7c:	1000ed90 	.word	0x1000ed90
10007b80:	1000cfb8 	.word	0x1000cfb8

10007b84 <irq_is_enabled>:
10007b84:	0942      	lsrs	r2, r0, #5
10007b86:	4b06      	ldr	r3, [pc, #24]	@ (10007ba0 <irq_is_enabled+0x1c>)
10007b88:	f853 2022 	ldr.w	r2, [r3, r2, lsl #2]
10007b8c:	f000 001f 	and.w	r0, r0, #31
10007b90:	2301      	movs	r3, #1
10007b92:	4083      	lsls	r3, r0
10007b94:	421a      	tst	r2, r3
10007b96:	bf14      	ite	ne
10007b98:	2001      	movne	r0, #1
10007b9a:	2000      	moveq	r0, #0
10007b9c:	4770      	bx	lr
10007b9e:	bf00      	nop
10007ba0:	e000e100 	.word	0xe000e100

10007ba4 <irq_set_mask_n_enabled>:
10007ba4:	b13a      	cbz	r2, 10007bb6 <irq_set_mask_n_enabled+0x12>
10007ba6:	4b06      	ldr	r3, [pc, #24]	@ (10007bc0 <irq_set_mask_n_enabled+0x1c>)
10007ba8:	f100 0260 	add.w	r2, r0, #96	@ 0x60
10007bac:	f843 1022 	str.w	r1, [r3, r2, lsl #2]
10007bb0:	f843 1020 	str.w	r1, [r3, r0, lsl #2]
10007bb4:	4770      	bx	lr
10007bb6:	3020      	adds	r0, #32
10007bb8:	4b01      	ldr	r3, [pc, #4]	@ (10007bc0 <irq_set_mask_n_enabled+0x1c>)
10007bba:	f843 1020 	str.w	r1, [r3, r0, lsl #2]
10007bbe:	4770      	bx	lr
10007bc0:	e000e100 	.word	0xe000e100

10007bc4 <irq_set_enabled>:
10007bc4:	b508      	push	{r3, lr}
10007bc6:	460a      	mov	r2, r1
10007bc8:	f000 031f 	and.w	r3, r0, #31
10007bcc:	2101      	movs	r1, #1
10007bce:	4099      	lsls	r1, r3
10007bd0:	0940      	lsrs	r0, r0, #5
10007bd2:	f7ff ffe7 	bl	10007ba4 <irq_set_mask_n_enabled>
10007bd6:	bd08      	pop	{r3, pc}

10007bd8 <irq_get_vtable_handler>:
10007bd8:	4b02      	ldr	r3, [pc, #8]	@ (10007be4 <irq_get_vtable_handler+0xc>)
10007bda:	689b      	ldr	r3, [r3, #8]
10007bdc:	3010      	adds	r0, #16
10007bde:	f853 0020 	ldr.w	r0, [r3, r0, lsl #2]
10007be2:	4770      	bx	lr
10007be4:	e000ed00 	.word	0xe000ed00

10007be8 <irq_set_exclusive_handler>:
10007be8:	b570      	push	{r4, r5, r6, lr}
10007bea:	4605      	mov	r5, r0
10007bec:	460c      	mov	r4, r1
10007bee:	f3ef 8610 	mrs	r6, PRIMASK
10007bf2:	b672      	cpsid	i
10007bf4:	4b0f      	ldr	r3, [pc, #60]	@ (10007c34 <irq_set_exclusive_handler+0x4c>)
10007bf6:	e8d3 1fcf 	ldaexb	r1, [r3]
10007bfa:	2201      	movs	r2, #1
10007bfc:	2900      	cmp	r1, #0
10007bfe:	d1fa      	bne.n	10007bf6 <irq_set_exclusive_handler+0xe>
10007c00:	e8c3 2f41 	strexb	r1, r2, [r3]
10007c04:	2900      	cmp	r1, #0
10007c06:	d1f6      	bne.n	10007bf6 <irq_set_exclusive_handler+0xe>
10007c08:	f3bf 8f5f 	dmb	sy
10007c0c:	f7ff ffe4 	bl	10007bd8 <irq_get_vtable_handler>
10007c10:	4b09      	ldr	r3, [pc, #36]	@ (10007c38 <irq_set_exclusive_handler+0x50>)
10007c12:	4298      	cmp	r0, r3
10007c14:	d001      	beq.n	10007c1a <irq_set_exclusive_handler+0x32>
10007c16:	42a0      	cmp	r0, r4
10007c18:	d105      	bne.n	10007c26 <irq_set_exclusive_handler+0x3e>
10007c1a:	4632      	mov	r2, r6
10007c1c:	4621      	mov	r1, r4
10007c1e:	4628      	mov	r0, r5
10007c20:	f7ff ff30 	bl	10007a84 <set_raw_irq_handler_and_unlock>
10007c24:	bd70      	pop	{r4, r5, r6, pc}
10007c26:	4b05      	ldr	r3, [pc, #20]	@ (10007c3c <irq_set_exclusive_handler+0x54>)
10007c28:	4a05      	ldr	r2, [pc, #20]	@ (10007c40 <irq_set_exclusive_handler+0x58>)
10007c2a:	21e1      	movs	r1, #225	@ 0xe1
10007c2c:	4805      	ldr	r0, [pc, #20]	@ (10007c44 <irq_set_exclusive_handler+0x5c>)
10007c2e:	f002 fbcb 	bl	1000a3c8 <__assert_func>
10007c32:	bf00      	nop
10007c34:	20001085 	.word	0x20001085
10007c38:	1000011d 	.word	0x1000011d
10007c3c:	1000d040 	.word	0x1000d040
10007c40:	1000ede8 	.word	0x1000ede8
10007c44:	1000cfb8 	.word	0x1000cfb8

10007c48 <irq_add_shared_handler>:
10007c48:	e92d 4ff0 	stmdb	sp!, {r4, r5, r6, r7, r8, r9, sl, fp, lr}
10007c4c:	b087      	sub	sp, #28
10007c4e:	9100      	str	r1, [sp, #0]
10007c50:	4615      	mov	r5, r2
10007c52:	f3ef 8a10 	mrs	sl, PRIMASK
10007c56:	b672      	cpsid	i
10007c58:	4b7c      	ldr	r3, [pc, #496]	@ (10007e4c <irq_add_shared_handler+0x204>)
10007c5a:	e8d3 1fcf 	ldaexb	r1, [r3]
10007c5e:	2201      	movs	r2, #1
10007c60:	2900      	cmp	r1, #0
10007c62:	d1fa      	bne.n	10007c5a <irq_add_shared_handler+0x12>
10007c64:	e8c3 2f41 	strexb	r1, r2, [r3]
10007c68:	2900      	cmp	r1, #0
10007c6a:	d1f6      	bne.n	10007c5a <irq_add_shared_handler+0x12>
10007c6c:	f3bf 8f5f 	dmb	sy
10007c70:	4b77      	ldr	r3, [pc, #476]	@ (10007e50 <irq_add_shared_handler+0x208>)
10007c72:	f993 4000 	ldrsb.w	r4, [r3]
10007c76:	2c00      	cmp	r4, #0
10007c78:	db44      	blt.n	10007d04 <irq_add_shared_handler+0xbc>
10007c7a:	4680      	mov	r8, r0
10007c7c:	eb04 0744 	add.w	r7, r4, r4, lsl #1
10007c80:	4b74      	ldr	r3, [pc, #464]	@ (10007e54 <irq_add_shared_handler+0x20c>)
10007c82:	eb03 0787 	add.w	r7, r3, r7, lsl #2
10007c86:	f997 1006 	ldrsb.w	r1, [r7, #6]
10007c8a:	4a71      	ldr	r2, [pc, #452]	@ (10007e50 <irq_add_shared_handler+0x208>)
10007c8c:	7011      	strb	r1, [r2, #0]
10007c8e:	4a72      	ldr	r2, [pc, #456]	@ (10007e58 <irq_add_shared_handler+0x210>)
10007c90:	6892      	ldr	r2, [r2, #8]
10007c92:	f100 0110 	add.w	r1, r0, #16
10007c96:	f852 9021 	ldr.w	r9, [r2, r1, lsl #2]
10007c9a:	eba9 0203 	sub.w	r2, r9, r3
10007c9e:	2a2f      	cmp	r2, #47	@ 0x2f
10007ca0:	d93e      	bls.n	10007d20 <irq_add_shared_handler+0xd8>
10007ca2:	4b6e      	ldr	r3, [pc, #440]	@ (10007e5c <irq_add_shared_handler+0x214>)
10007ca4:	4599      	cmp	r9, r3
10007ca6:	d134      	bne.n	10007d12 <irq_add_shared_handler+0xca>
10007ca8:	f44f 4321 	mov.w	r3, #41216	@ 0xa100
10007cac:	f8ad 300c 	strh.w	r3, [sp, #12]
10007cb0:	ea4f 0944 	mov.w	r9, r4, lsl #1
10007cb4:	eb04 0044 	add.w	r0, r4, r4, lsl #1
10007cb8:	4e66      	ldr	r6, [pc, #408]	@ (10007e54 <irq_add_shared_handler+0x20c>)
10007cba:	eb06 0080 	add.w	r0, r6, r0, lsl #2
10007cbe:	4968      	ldr	r1, [pc, #416]	@ (10007e60 <irq_add_shared_handler+0x218>)
10007cc0:	3002      	adds	r0, #2
10007cc2:	f7ff ff23 	bl	10007b0c <make_j_16>
10007cc6:	f8ad 000e 	strh.w	r0, [sp, #14]
10007cca:	f64b 5301 	movw	r3, #48385	@ 0xbd01
10007cce:	f8ad 3010 	strh.w	r3, [sp, #16]
10007cd2:	23ff      	movs	r3, #255	@ 0xff
10007cd4:	f88d 3012 	strb.w	r3, [sp, #18]
10007cd8:	f88d 5013 	strb.w	r5, [sp, #19]
10007cdc:	9b00      	ldr	r3, [sp, #0]
10007cde:	9305      	str	r3, [sp, #20]
10007ce0:	44a1      	add	r9, r4
10007ce2:	eb06 0389 	add.w	r3, r6, r9, lsl #2
10007ce6:	aa06      	add	r2, sp, #24
10007ce8:	e912 0007 	ldmdb	r2, {r0, r1, r2}
10007cec:	e883 0007 	stmia.w	r3, {r0, r1, r2}
10007cf0:	f047 0901 	orr.w	r9, r7, #1
10007cf4:	4652      	mov	r2, sl
10007cf6:	4649      	mov	r1, r9
10007cf8:	4640      	mov	r0, r8
10007cfa:	f7ff fec3 	bl	10007a84 <set_raw_irq_handler_and_unlock>
10007cfe:	b007      	add	sp, #28
10007d00:	e8bd 8ff0 	ldmia.w	sp!, {r4, r5, r6, r7, r8, r9, sl, fp, pc}
10007d04:	4b57      	ldr	r3, [pc, #348]	@ (10007e64 <irq_add_shared_handler+0x21c>)
10007d06:	4a58      	ldr	r2, [pc, #352]	@ (10007e68 <irq_add_shared_handler+0x220>)
10007d08:	f240 116d 	movw	r1, #365	@ 0x16d
10007d0c:	4857      	ldr	r0, [pc, #348]	@ (10007e6c <irq_add_shared_handler+0x224>)
10007d0e:	f002 fb5b 	bl	1000a3c8 <__assert_func>
10007d12:	4b57      	ldr	r3, [pc, #348]	@ (10007e70 <irq_add_shared_handler+0x228>)
10007d14:	4a54      	ldr	r2, [pc, #336]	@ (10007e68 <irq_add_shared_handler+0x220>)
10007d16:	f44f 71ba 	mov.w	r1, #372	@ 0x174
10007d1a:	4854      	ldr	r0, [pc, #336]	@ (10007e6c <irq_add_shared_handler+0x224>)
10007d1c:	f002 fb54 	bl	1000a3c8 <__assert_func>
10007d20:	f029 0b01 	bic.w	fp, r9, #1
10007d24:	ebab 0303 	sub.w	r3, fp, r3
10007d28:	4a52      	ldr	r2, [pc, #328]	@ (10007e74 <irq_add_shared_handler+0x22c>)
10007d2a:	fba2 1203 	umull	r1, r2, r2, r3
10007d2e:	08d2      	lsrs	r2, r2, #3
10007d30:	eb02 0242 	add.w	r2, r2, r2, lsl #1
10007d34:	ebb3 0f82 	cmp.w	r3, r2, lsl #2
10007d38:	d10f      	bne.n	10007d5a <irq_add_shared_handler+0x112>
10007d3a:	465b      	mov	r3, fp
10007d3c:	2600      	movs	r6, #0
10007d3e:	79da      	ldrb	r2, [r3, #7]
10007d40:	42aa      	cmp	r2, r5
10007d42:	d912      	bls.n	10007d6a <irq_add_shared_handler+0x122>
10007d44:	f993 2006 	ldrsb.w	r2, [r3, #6]
10007d48:	2a00      	cmp	r2, #0
10007d4a:	db0d      	blt.n	10007d68 <irq_add_shared_handler+0x120>
10007d4c:	eb02 0242 	add.w	r2, r2, r2, lsl #1
10007d50:	461e      	mov	r6, r3
10007d52:	4b40      	ldr	r3, [pc, #256]	@ (10007e54 <irq_add_shared_handler+0x20c>)
10007d54:	eb03 0382 	add.w	r3, r3, r2, lsl #2
10007d58:	e7f1      	b.n	10007d3e <irq_add_shared_handler+0xf6>
10007d5a:	4b47      	ldr	r3, [pc, #284]	@ (10007e78 <irq_add_shared_handler+0x230>)
10007d5c:	4a42      	ldr	r2, [pc, #264]	@ (10007e68 <irq_add_shared_handler+0x220>)
10007d5e:	f240 1185 	movw	r1, #389	@ 0x185
10007d62:	4842      	ldr	r0, [pc, #264]	@ (10007e6c <irq_add_shared_handler+0x224>)
10007d64:	f002 fb30 	bl	1000a3c8 <__assert_func>
10007d68:	461e      	mov	r6, r3
10007d6a:	b3a6      	cbz	r6, 10007dd6 <irq_add_shared_handler+0x18e>
10007d6c:	f644 0301 	movw	r3, #18433	@ 0x4801
10007d70:	f8ad 300c 	strh.w	r3, [sp, #12]
10007d74:	f44f 438f 	mov.w	r3, #18304	@ 0x4780
10007d78:	f8ad 300e 	strh.w	r3, [sp, #14]
10007d7c:	f996 b006 	ldrsb.w	fp, [r6, #6]
10007d80:	f1bb 0f00 	cmp.w	fp, #0
10007d84:	da1a      	bge.n	10007dbc <irq_add_shared_handler+0x174>
10007d86:	f64b 5001 	movw	r0, #48385	@ 0xbd01
10007d8a:	f8ad 0010 	strh.w	r0, [sp, #16]
10007d8e:	f88d b012 	strb.w	fp, [sp, #18]
10007d92:	f88d 5013 	strb.w	r5, [sp, #19]
10007d96:	9b00      	ldr	r3, [sp, #0]
10007d98:	9305      	str	r3, [sp, #20]
10007d9a:	4639      	mov	r1, r7
10007d9c:	1d30      	adds	r0, r6, #4
10007d9e:	f7ff feb5 	bl	10007b0c <make_j_16>
10007da2:	80b0      	strh	r0, [r6, #4]
10007da4:	71b4      	strb	r4, [r6, #6]
10007da6:	eb04 0444 	add.w	r4, r4, r4, lsl #1
10007daa:	4b2a      	ldr	r3, [pc, #168]	@ (10007e54 <irq_add_shared_handler+0x20c>)
10007dac:	eb03 0384 	add.w	r3, r3, r4, lsl #2
10007db0:	aa06      	add	r2, sp, #24
10007db2:	e912 0007 	ldmdb	r2, {r0, r1, r2}
10007db6:	e883 0007 	stmia.w	r3, {r0, r1, r2}
10007dba:	e79b      	b.n	10007cf4 <irq_add_shared_handler+0xac>
10007dbc:	1d30      	adds	r0, r6, #4
10007dbe:	f7ff fe85 	bl	10007acc <resolve_j_16>
10007dc2:	4601      	mov	r1, r0
10007dc4:	eb04 0244 	add.w	r2, r4, r4, lsl #1
10007dc8:	4b22      	ldr	r3, [pc, #136]	@ (10007e54 <irq_add_shared_handler+0x20c>)
10007dca:	eb03 0382 	add.w	r3, r3, r2, lsl #2
10007dce:	1d18      	adds	r0, r3, #4
10007dd0:	f7ff fe9c 	bl	10007b0c <make_j_16>
10007dd4:	e7d9      	b.n	10007d8a <irq_add_shared_handler+0x142>
10007dd6:	f44f 4321 	mov.w	r3, #41216	@ 0xa100
10007dda:	f8ad 300c 	strh.w	r3, [sp, #12]
10007dde:	0063      	lsls	r3, r4, #1
10007de0:	9301      	str	r3, [sp, #4]
10007de2:	eb04 0644 	add.w	r6, r4, r4, lsl #1
10007de6:	f8df 906c 	ldr.w	r9, [pc, #108]	@ 10007e54 <irq_add_shared_handler+0x20c>
10007dea:	eb09 0686 	add.w	r6, r9, r6, lsl #2
10007dee:	491c      	ldr	r1, [pc, #112]	@ (10007e60 <irq_add_shared_handler+0x218>)
10007df0:	1cb0      	adds	r0, r6, #2
10007df2:	f7ff fe8b 	bl	10007b0c <make_j_16>
10007df6:	f8ad 000e 	strh.w	r0, [sp, #14]
10007dfa:	4659      	mov	r1, fp
10007dfc:	1d30      	adds	r0, r6, #4
10007dfe:	f7ff fe85 	bl	10007b0c <make_j_16>
10007e02:	f8ad 0010 	strh.w	r0, [sp, #16]
10007e06:	f64a 23aa 	movw	r3, #43690	@ 0xaaaa
10007e0a:	465a      	mov	r2, fp
10007e0c:	4649      	mov	r1, r9
10007e0e:	1a52      	subs	r2, r2, r1
10007e10:	4152      	adcs	r2, r2
10007e12:	4353      	muls	r3, r2
10007e14:	0d1b      	lsrs	r3, r3, #20
10007e16:	f88d 3012 	strb.w	r3, [sp, #18]
10007e1a:	f88d 5013 	strb.w	r5, [sp, #19]
10007e1e:	9a00      	ldr	r2, [sp, #0]
10007e20:	9205      	str	r2, [sp, #20]
10007e22:	9b01      	ldr	r3, [sp, #4]
10007e24:	4423      	add	r3, r4
10007e26:	eb09 0983 	add.w	r9, r9, r3, lsl #2
10007e2a:	ab06      	add	r3, sp, #24
10007e2c:	e913 0007 	ldmdb	r3, {r0, r1, r2}
10007e30:	e889 0007 	stmia.w	r9, {r0, r1, r2}
10007e34:	f644 0301 	movw	r3, #18433	@ 0x4801
10007e38:	f8ab 3000 	strh.w	r3, [fp]
10007e3c:	f44f 438f 	mov.w	r3, #18304	@ 0x4780
10007e40:	f8ab 3002 	strh.w	r3, [fp, #2]
10007e44:	f047 0901 	orr.w	r9, r7, #1
10007e48:	e754      	b.n	10007cf4 <irq_add_shared_handler+0xac>
10007e4a:	bf00      	nop
10007e4c:	20001085 	.word	0x20001085
10007e50:	20005f5f 	.word	0x20005f5f
10007e54:	20000de0 	.word	0x20000de0
10007e58:	e000ed00 	.word	0xe000ed00
10007e5c:	1000011d 	.word	0x1000011d
10007e60:	20000e10 	.word	0x20000e10
10007e64:	1000d078 	.word	0x1000d078
10007e68:	1000edd0 	.word	0x1000edd0
10007e6c:	1000cfb8 	.word	0x1000cfb8
10007e70:	1000d0a0 	.word	0x1000d0a0
10007e74:	aaaaaaab 	.word	0xaaaaaaab
10007e78:	1000d0c8 	.word	0x1000d0c8

10007e7c <irq_remove_handler>:
10007e7c:	e92d 47f0 	stmdb	sp!, {r4, r5, r6, r7, r8, r9, sl, lr}
10007e80:	4606      	mov	r6, r0
10007e82:	460d      	mov	r5, r1
10007e84:	f3ef 8810 	mrs	r8, PRIMASK
10007e88:	b672      	cpsid	i
10007e8a:	4b50      	ldr	r3, [pc, #320]	@ (10007fcc <irq_remove_handler+0x150>)
10007e8c:	e8d3 1fcf 	ldaexb	r1, [r3]
10007e90:	2201      	movs	r2, #1
10007e92:	2900      	cmp	r1, #0
10007e94:	d1fa      	bne.n	10007e8c <irq_remove_handler+0x10>
10007e96:	e8c3 2f41 	strexb	r1, r2, [r3]
10007e9a:	2900      	cmp	r1, #0
10007e9c:	d1f6      	bne.n	10007e8c <irq_remove_handler+0x10>
10007e9e:	f3bf 8f5f 	dmb	sy
10007ea2:	4b4b      	ldr	r3, [pc, #300]	@ (10007fd0 <irq_remove_handler+0x154>)
10007ea4:	689b      	ldr	r3, [r3, #8]
10007ea6:	f100 0a10 	add.w	sl, r0, #16
10007eaa:	f853 702a 	ldr.w	r7, [r3, sl, lsl #2]
10007eae:	4b49      	ldr	r3, [pc, #292]	@ (10007fd4 <irq_remove_handler+0x158>)
10007eb0:	429f      	cmp	r7, r3
10007eb2:	d007      	beq.n	10007ec4 <irq_remove_handler+0x48>
10007eb4:	42af      	cmp	r7, r5
10007eb6:	f000 8087 	beq.w	10007fc8 <irq_remove_handler+0x14c>
10007eba:	463c      	mov	r4, r7
10007ebc:	4b46      	ldr	r3, [pc, #280]	@ (10007fd8 <irq_remove_handler+0x15c>)
10007ebe:	1afb      	subs	r3, r7, r3
10007ec0:	2b2f      	cmp	r3, #47	@ 0x2f
10007ec2:	d906      	bls.n	10007ed2 <irq_remove_handler+0x56>
10007ec4:	4642      	mov	r2, r8
10007ec6:	4639      	mov	r1, r7
10007ec8:	4630      	mov	r0, r6
10007eca:	f7ff fddb 	bl	10007a84 <set_raw_irq_handler_and_unlock>
10007ece:	e8bd 87f0 	ldmia.w	sp!, {r4, r5, r6, r7, r8, r9, sl, pc}
10007ed2:	f7ff fe57 	bl	10007b84 <irq_is_enabled>
10007ed6:	4681      	mov	r9, r0
10007ed8:	2100      	movs	r1, #0
10007eda:	4630      	mov	r0, r6
10007edc:	f7ff fe72 	bl	10007bc4 <irq_set_enabled>
10007ee0:	f3bf 8f5f 	dmb	sy
10007ee4:	f3ef 8005 	mrs	r0, IPSR
10007ee8:	b2c0      	uxtb	r0, r0
10007eea:	b108      	cbz	r0, 10007ef0 <irq_remove_handler+0x74>
10007eec:	4582      	cmp	sl, r0
10007eee:	d110      	bne.n	10007f12 <irq_remove_handler+0x96>
10007ef0:	f024 0401 	bic.w	r4, r4, #1
10007ef4:	2100      	movs	r1, #0
10007ef6:	68a2      	ldr	r2, [r4, #8]
10007ef8:	4295      	cmp	r5, r2
10007efa:	d012      	beq.n	10007f22 <irq_remove_handler+0xa6>
10007efc:	f994 3006 	ldrsb.w	r3, [r4, #6]
10007f00:	2b00      	cmp	r3, #0
10007f02:	db0d      	blt.n	10007f20 <irq_remove_handler+0xa4>
10007f04:	eb03 0343 	add.w	r3, r3, r3, lsl #1
10007f08:	4621      	mov	r1, r4
10007f0a:	4c33      	ldr	r4, [pc, #204]	@ (10007fd8 <irq_remove_handler+0x15c>)
10007f0c:	eb04 0483 	add.w	r4, r4, r3, lsl #2
10007f10:	e7f1      	b.n	10007ef6 <irq_remove_handler+0x7a>
10007f12:	4b32      	ldr	r3, [pc, #200]	@ (10007fdc <irq_remove_handler+0x160>)
10007f14:	4a32      	ldr	r2, [pc, #200]	@ (10007fe0 <irq_remove_handler+0x164>)
10007f16:	f240 11f3 	movw	r1, #499	@ 0x1f3
10007f1a:	4832      	ldr	r0, [pc, #200]	@ (10007fe4 <irq_remove_handler+0x168>)
10007f1c:	f002 fa54 	bl	1000a3c8 <__assert_func>
10007f20:	4621      	mov	r1, r4
10007f22:	4295      	cmp	r5, r2
10007f24:	d149      	bne.n	10007fba <irq_remove_handler+0x13e>
10007f26:	f994 5006 	ldrsb.w	r5, [r4, #6]
10007f2a:	2d00      	cmp	r5, #0
10007f2c:	db2b      	blt.n	10007f86 <irq_remove_handler+0x10a>
10007f2e:	eb05 0245 	add.w	r2, r5, r5, lsl #1
10007f32:	4b29      	ldr	r3, [pc, #164]	@ (10007fd8 <irq_remove_handler+0x15c>)
10007f34:	eb03 0382 	add.w	r3, r3, r2, lsl #2
10007f38:	689a      	ldr	r2, [r3, #8]
10007f3a:	60a2      	str	r2, [r4, #8]
10007f3c:	79da      	ldrb	r2, [r3, #7]
10007f3e:	71e2      	strb	r2, [r4, #7]
10007f40:	f993 3006 	ldrsb.w	r3, [r3, #6]
10007f44:	71a3      	strb	r3, [r4, #6]
10007f46:	2b00      	cmp	r3, #0
10007f48:	da10      	bge.n	10007f6c <irq_remove_handler+0xf0>
10007f4a:	f64b 5001 	movw	r0, #48385	@ 0xbd01
10007f4e:	80a0      	strh	r0, [r4, #4]
10007f50:	eb05 0245 	add.w	r2, r5, r5, lsl #1
10007f54:	4b20      	ldr	r3, [pc, #128]	@ (10007fd8 <irq_remove_handler+0x15c>)
10007f56:	eb03 0382 	add.w	r3, r3, r2, lsl #2
10007f5a:	4a23      	ldr	r2, [pc, #140]	@ (10007fe8 <irq_remove_handler+0x16c>)
10007f5c:	7811      	ldrb	r1, [r2, #0]
10007f5e:	7199      	strb	r1, [r3, #6]
10007f60:	7015      	strb	r5, [r2, #0]
10007f62:	4649      	mov	r1, r9
10007f64:	4630      	mov	r0, r6
10007f66:	f7ff fe2d 	bl	10007bc4 <irq_set_enabled>
10007f6a:	e7ab      	b.n	10007ec4 <irq_remove_handler+0x48>
10007f6c:	eb05 0345 	add.w	r3, r5, r5, lsl #1
10007f70:	4819      	ldr	r0, [pc, #100]	@ (10007fd8 <irq_remove_handler+0x15c>)
10007f72:	eb00 0083 	add.w	r0, r0, r3, lsl #2
10007f76:	3004      	adds	r0, #4
10007f78:	f7ff fda8 	bl	10007acc <resolve_j_16>
10007f7c:	4601      	mov	r1, r0
10007f7e:	1d20      	adds	r0, r4, #4
10007f80:	f7ff fdc4 	bl	10007b0c <make_j_16>
10007f84:	e7e3      	b.n	10007f4e <irq_remove_handler+0xd2>
10007f86:	b998      	cbnz	r0, 10007fb0 <irq_remove_handler+0x134>
10007f88:	b181      	cbz	r1, 10007fac <irq_remove_handler+0x130>
10007f8a:	23ff      	movs	r3, #255	@ 0xff
10007f8c:	718b      	strb	r3, [r1, #6]
10007f8e:	f64b 5301 	movw	r3, #48385	@ 0xbd01
10007f92:	808b      	strh	r3, [r1, #4]
10007f94:	4a14      	ldr	r2, [pc, #80]	@ (10007fe8 <irq_remove_handler+0x16c>)
10007f96:	7813      	ldrb	r3, [r2, #0]
10007f98:	71a3      	strb	r3, [r4, #6]
10007f9a:	f64a 23aa 	movw	r3, #43690	@ 0xaaaa
10007f9e:	490e      	ldr	r1, [pc, #56]	@ (10007fd8 <irq_remove_handler+0x15c>)
10007fa0:	1a64      	subs	r4, r4, r1
10007fa2:	4164      	adcs	r4, r4
10007fa4:	4363      	muls	r3, r4
10007fa6:	0d1b      	lsrs	r3, r3, #20
10007fa8:	7013      	strb	r3, [r2, #0]
10007faa:	e7da      	b.n	10007f62 <irq_remove_handler+0xe6>
10007fac:	4f09      	ldr	r7, [pc, #36]	@ (10007fd4 <irq_remove_handler+0x158>)
10007fae:	e7f1      	b.n	10007f94 <irq_remove_handler+0x118>
10007fb0:	490e      	ldr	r1, [pc, #56]	@ (10007fec <irq_remove_handler+0x170>)
10007fb2:	1d20      	adds	r0, r4, #4
10007fb4:	f7ff fdc8 	bl	10007b48 <insert_bl_32>
10007fb8:	e7d3      	b.n	10007f62 <irq_remove_handler+0xe6>
10007fba:	4b0d      	ldr	r3, [pc, #52]	@ (10007ff0 <irq_remove_handler+0x174>)
10007fbc:	4a08      	ldr	r2, [pc, #32]	@ (10007fe0 <irq_remove_handler+0x164>)
10007fbe:	f240 2135 	movw	r1, #565	@ 0x235
10007fc2:	4808      	ldr	r0, [pc, #32]	@ (10007fe4 <irq_remove_handler+0x168>)
10007fc4:	f002 fa00 	bl	1000a3c8 <__assert_func>
10007fc8:	4f02      	ldr	r7, [pc, #8]	@ (10007fd4 <irq_remove_handler+0x158>)
10007fca:	e77b      	b.n	10007ec4 <irq_remove_handler+0x48>
10007fcc:	20001085 	.word	0x20001085
10007fd0:	e000ed00 	.word	0xe000ed00
10007fd4:	1000011d 	.word	0x1000011d
10007fd8:	20000de0 	.word	0x20000de0
10007fdc:	1000d14c 	.word	0x1000d14c
10007fe0:	1000eda0 	.word	0x1000eda0
10007fe4:	1000cfb8 	.word	0x1000cfb8
10007fe8:	20005f5f 	.word	0x20005f5f
10007fec:	20000e1a 	.word	0x20000e1a
10007ff0:	1000d180 	.word	0x1000d180

10007ff4 <irq_add_tail_to_free_list>:
10007ff4:	b538      	push	{r3, r4, r5, lr}
10007ff6:	f040 0401 	orr.w	r4, r0, #1
10007ffa:	4b32      	ldr	r3, [pc, #200]	@ (100080c4 <irq_add_tail_to_free_list+0xd0>)
10007ffc:	1ae3      	subs	r3, r4, r3
10007ffe:	2b2f      	cmp	r3, #47	@ 0x2f
10008000:	d831      	bhi.n	10008066 <irq_add_tail_to_free_list+0x72>
10008002:	f3ef 8105 	mrs	r1, IPSR
10008006:	b2c9      	uxtb	r1, r1
10008008:	2900      	cmp	r1, #0
1000800a:	d033      	beq.n	10008074 <irq_add_tail_to_free_list+0x80>
1000800c:	f3ef 8e10 	mrs	lr, PRIMASK
10008010:	b672      	cpsid	i
10008012:	4b2d      	ldr	r3, [pc, #180]	@ (100080c8 <irq_add_tail_to_free_list+0xd4>)
10008014:	e8d3 5fcf 	ldaexb	r5, [r3]
10008018:	2201      	movs	r2, #1
1000801a:	2d00      	cmp	r5, #0
1000801c:	d1fa      	bne.n	10008014 <irq_add_tail_to_free_list+0x20>
1000801e:	e8c3 2f45 	strexb	r5, r2, [r3]
10008022:	2d00      	cmp	r5, #0
10008024:	d1f6      	bne.n	10008014 <irq_add_tail_to_free_list+0x20>
10008026:	f3bf 8f5f 	dmb	sy
1000802a:	f64a 23aa 	movw	r3, #43690	@ 0xaaaa
1000802e:	4602      	mov	r2, r0
10008030:	4d24      	ldr	r5, [pc, #144]	@ (100080c4 <irq_add_tail_to_free_list+0xd0>)
10008032:	1b52      	subs	r2, r2, r5
10008034:	4152      	adcs	r2, r2
10008036:	4353      	muls	r3, r2
10008038:	0d1b      	lsrs	r3, r3, #20
1000803a:	fa4f fc83 	sxtb.w	ip, r3
1000803e:	4b23      	ldr	r3, [pc, #140]	@ (100080cc <irq_add_tail_to_free_list+0xd8>)
10008040:	689b      	ldr	r3, [r3, #8]
10008042:	f853 3021 	ldr.w	r3, [r3, r1, lsl #2]
10008046:	42a3      	cmp	r3, r4
10008048:	d01b      	beq.n	10008082 <irq_add_tail_to_free_list+0x8e>
1000804a:	2300      	movs	r3, #0
1000804c:	2b03      	cmp	r3, #3
1000804e:	d832      	bhi.n	100080b6 <irq_add_tail_to_free_list+0xc2>
10008050:	eb03 0143 	add.w	r1, r3, r3, lsl #1
10008054:	4a1b      	ldr	r2, [pc, #108]	@ (100080c4 <irq_add_tail_to_free_list+0xd0>)
10008056:	eb02 0281 	add.w	r2, r2, r1, lsl #2
1000805a:	f992 2006 	ldrsb.w	r2, [r2, #6]
1000805e:	4562      	cmp	r2, ip
10008060:	d020      	beq.n	100080a4 <irq_add_tail_to_free_list+0xb0>
10008062:	3301      	adds	r3, #1
10008064:	e7f2      	b.n	1000804c <irq_add_tail_to_free_list+0x58>
10008066:	4b1a      	ldr	r3, [pc, #104]	@ (100080d0 <irq_add_tail_to_free_list+0xdc>)
10008068:	4a1a      	ldr	r2, [pc, #104]	@ (100080d4 <irq_add_tail_to_free_list+0xe0>)
1000806a:	f240 216e 	movw	r1, #622	@ 0x26e
1000806e:	481a      	ldr	r0, [pc, #104]	@ (100080d8 <irq_add_tail_to_free_list+0xe4>)
10008070:	f002 f9aa 	bl	1000a3c8 <__assert_func>
10008074:	4b19      	ldr	r3, [pc, #100]	@ (100080dc <irq_add_tail_to_free_list+0xe8>)
10008076:	4a17      	ldr	r2, [pc, #92]	@ (100080d4 <irq_add_tail_to_free_list+0xe0>)
10008078:	f240 2171 	movw	r1, #625	@ 0x271
1000807c:	4816      	ldr	r0, [pc, #88]	@ (100080d8 <irq_add_tail_to_free_list+0xe4>)
1000807e:	f002 f9a3 	bl	1000a3c8 <__assert_func>
10008082:	4b12      	ldr	r3, [pc, #72]	@ (100080cc <irq_add_tail_to_free_list+0xd8>)
10008084:	689b      	ldr	r3, [r3, #8]
10008086:	4a16      	ldr	r2, [pc, #88]	@ (100080e0 <irq_add_tail_to_free_list+0xec>)
10008088:	f843 2021 	str.w	r2, [r3, r1, lsl #2]
1000808c:	4b15      	ldr	r3, [pc, #84]	@ (100080e4 <irq_add_tail_to_free_list+0xf0>)
1000808e:	781a      	ldrb	r2, [r3, #0]
10008090:	7182      	strb	r2, [r0, #6]
10008092:	f883 c000 	strb.w	ip, [r3]
10008096:	2300      	movs	r3, #0
10008098:	4a0b      	ldr	r2, [pc, #44]	@ (100080c8 <irq_add_tail_to_free_list+0xd4>)
1000809a:	e8c2 3f8f 	stlb	r3, [r2]
1000809e:	f38e 8810 	msr	PRIMASK, lr
100080a2:	bd38      	pop	{r3, r4, r5, pc}
100080a4:	4a07      	ldr	r2, [pc, #28]	@ (100080c4 <irq_add_tail_to_free_list+0xd0>)
100080a6:	eb02 0181 	add.w	r1, r2, r1, lsl #2
100080aa:	24ff      	movs	r4, #255	@ 0xff
100080ac:	718c      	strb	r4, [r1, #6]
100080ae:	f64b 5301 	movw	r3, #48385	@ 0xbd01
100080b2:	808b      	strh	r3, [r1, #4]
100080b4:	e7ea      	b.n	1000808c <irq_add_tail_to_free_list+0x98>
100080b6:	4b0c      	ldr	r3, [pc, #48]	@ (100080e8 <irq_add_tail_to_free_list+0xf4>)
100080b8:	4a06      	ldr	r2, [pc, #24]	@ (100080d4 <irq_add_tail_to_free_list+0xe0>)
100080ba:	f240 2182 	movw	r1, #642	@ 0x282
100080be:	4806      	ldr	r0, [pc, #24]	@ (100080d8 <irq_add_tail_to_free_list+0xe4>)
100080c0:	f002 f982 	bl	1000a3c8 <__assert_func>
100080c4:	20000de0 	.word	0x20000de0
100080c8:	20001085 	.word	0x20001085
100080cc:	e000ed00 	.word	0xe000ed00
100080d0:	1000d188 	.word	0x1000d188
100080d4:	1000ed74 	.word	0x1000ed74
100080d8:	1000cfb8 	.word	0x1000cfb8
100080dc:	1000d1b0 	.word	0x1000d1b0
100080e0:	1000011d 	.word	0x1000011d
100080e4:	20005f5f 	.word	0x20005f5f
100080e8:	1000d1bc 	.word	0x1000d1bc

100080ec <lock_init>:
100080ec:	4b01      	ldr	r3, [pc, #4]	@ (100080f4 <lock_init+0x8>)
100080ee:	440b      	add	r3, r1
100080f0:	6003      	str	r3, [r0, #0]
100080f2:	4770      	bx	lr
100080f4:	2000107c 	.word	0x2000107c

100080f8 <mutex_init>:
100080f8:	b510      	push	{r4, lr}
100080fa:	4604      	mov	r4, r0
100080fc:	f7ff fc8c 	bl	10007a18 <next_striped_spin_lock_num>
10008100:	4601      	mov	r1, r0
10008102:	4620      	mov	r0, r4
10008104:	f7ff fff2 	bl	100080ec <lock_init>
10008108:	23ff      	movs	r3, #255	@ 0xff
1000810a:	7123      	strb	r3, [r4, #4]
1000810c:	f3bf 8f5f 	dmb	sy
10008110:	bd10      	pop	{r4, pc}

10008112 <recursive_mutex_init>:
10008112:	b510      	push	{r4, lr}
10008114:	4604      	mov	r4, r0
10008116:	f7ff fc7f 	bl	10007a18 <next_striped_spin_lock_num>
1000811a:	4601      	mov	r1, r0
1000811c:	4620      	mov	r0, r4
1000811e:	f7ff ffe5 	bl	100080ec <lock_init>
10008122:	23ff      	movs	r3, #255	@ 0xff
10008124:	7123      	strb	r3, [r4, #4]
10008126:	2300      	movs	r3, #0
10008128:	7163      	strb	r3, [r4, #5]
1000812a:	f3bf 8f5f 	dmb	sy
1000812e:	bd10      	pop	{r4, pc}

10008130 <runtime_init_mutex>:
10008130:	b510      	push	{r4, lr}
10008132:	4c0d      	ldr	r4, [pc, #52]	@ (10008168 <runtime_init_mutex+0x38>)
10008134:	e009      	b.n	1000814a <runtime_init_mutex+0x1a>
10008136:	4b0d      	ldr	r3, [pc, #52]	@ (1000816c <runtime_init_mutex+0x3c>)
10008138:	4a0d      	ldr	r2, [pc, #52]	@ (10008170 <runtime_init_mutex+0x40>)
1000813a:	211a      	movs	r1, #26
1000813c:	480d      	ldr	r0, [pc, #52]	@ (10008174 <runtime_init_mutex+0x44>)
1000813e:	f002 f943 	bl	1000a3c8 <__assert_func>
10008142:	4620      	mov	r0, r4
10008144:	f7ff ffd8 	bl	100080f8 <mutex_init>
10008148:	3408      	adds	r4, #8
1000814a:	4b0b      	ldr	r3, [pc, #44]	@ (10008178 <runtime_init_mutex+0x48>)
1000814c:	429c      	cmp	r4, r3
1000814e:	d209      	bcs.n	10008164 <runtime_init_mutex+0x34>
10008150:	6823      	ldr	r3, [r4, #0]
10008152:	2b00      	cmp	r3, #0
10008154:	d0f5      	beq.n	10008142 <runtime_init_mutex+0x12>
10008156:	2b01      	cmp	r3, #1
10008158:	d1ed      	bne.n	10008136 <runtime_init_mutex+0x6>
1000815a:	4620      	mov	r0, r4
1000815c:	f7ff ffd9 	bl	10008112 <recursive_mutex_init>
10008160:	3408      	adds	r4, #8
10008162:	e7f2      	b.n	1000814a <runtime_init_mutex+0x1a>
10008164:	bd10      	pop	{r4, pc}
10008166:	bf00      	nop
10008168:	20000e98 	.word	0x20000e98
1000816c:	1000d1c4 	.word	0x1000d1c4
10008170:	1000ee28 	.word	0x1000ee28
10008174:	1000d1e4 	.word	0x1000d1e4
10008178:	20000ea0 	.word	0x20000ea0

1000817c <critical_section_init_with_lock_num>:
1000817c:	4b02      	ldr	r3, [pc, #8]	@ (10008188 <critical_section_init_with_lock_num+0xc>)
1000817e:	440b      	add	r3, r1
10008180:	6003      	str	r3, [r0, #0]
10008182:	f3bf 8f5f 	dmb	sy
10008186:	4770      	bx	lr
10008188:	2000107c 	.word	0x2000107c

1000818c <critical_section_init>:
1000818c:	b510      	push	{r4, lr}
1000818e:	4604      	mov	r4, r0
10008190:	2001      	movs	r0, #1
10008192:	f7ff fc4f 	bl	10007a34 <spin_lock_claim_unused>
10008196:	4601      	mov	r1, r0
10008198:	4620      	mov	r0, r4
1000819a:	f7ff ffef 	bl	1000817c <critical_section_init_with_lock_num>
1000819e:	bd10      	pop	{r4, pc}

100081a0 <ta_from_current_irq>:
100081a0:	4602      	mov	r2, r0
100081a2:	f3ef 8305 	mrs	r3, IPSR
100081a6:	b2db      	uxtb	r3, r3
100081a8:	3b10      	subs	r3, #16
100081aa:	0899      	lsrs	r1, r3, #2
100081ac:	d004      	beq.n	100081b8 <ta_from_current_irq+0x18>
100081ae:	4803      	ldr	r0, [pc, #12]	@ (100081bc <ta_from_current_irq+0x1c>)
100081b0:	f003 0303 	and.w	r3, r3, #3
100081b4:	6013      	str	r3, [r2, #0]
100081b6:	4770      	bx	lr
100081b8:	4801      	ldr	r0, [pc, #4]	@ (100081c0 <ta_from_current_irq+0x20>)
100081ba:	e7f9      	b.n	100081b0 <ta_from_current_irq+0x10>
100081bc:	400b8000 	.word	0x400b8000
100081c0:	400b0000 	.word	0x400b0000

100081c4 <make_alarm_id>:
100081c4:	ea41 4000 	orr.w	r0, r1, r0, lsl #16
100081c8:	4770      	bx	lr
	...

100081cc <sleep_until_callback>:
100081cc:	4b0d      	ldr	r3, [pc, #52]	@ (10008204 <sleep_until_callback+0x38>)
100081ce:	681a      	ldr	r2, [r3, #0]
100081d0:	f3ef 8110 	mrs	r1, PRIMASK
100081d4:	b672      	cpsid	i
100081d6:	e8d2 cfcf 	ldaexb	ip, [r2]
100081da:	2001      	movs	r0, #1
100081dc:	f1bc 0f00 	cmp.w	ip, #0
100081e0:	d1f9      	bne.n	100081d6 <sleep_until_callback+0xa>
100081e2:	e8c2 0f4c 	strexb	ip, r0, [r2]
100081e6:	f1bc 0f00 	cmp.w	ip, #0
100081ea:	d1f4      	bne.n	100081d6 <sleep_until_callback+0xa>
100081ec:	f3bf 8f5f 	dmb	sy
100081f0:	681a      	ldr	r2, [r3, #0]
100081f2:	2300      	movs	r3, #0
100081f4:	e8c2 3f8f 	stlb	r3, [r2]
100081f8:	f381 8810 	msr	PRIMASK, r1
100081fc:	bf40      	sev
100081fe:	2000      	movs	r0, #0
10008200:	2100      	movs	r1, #0
10008202:	4770      	bx	lr
10008204:	20005f14 	.word	0x20005f14

10008208 <alarm_pool_irq_handler>:
10008208:	e92d 4ff0 	stmdb	sp!, {r4, r5, r6, r7, r8, r9, sl, fp, lr}
1000820c:	b085      	sub	sp, #20
1000820e:	a803      	add	r0, sp, #12
10008210:	f7ff ffc6 	bl	100081a0 <ta_from_current_irq>
10008214:	4b8f      	ldr	r3, [pc, #572]	@ (10008454 <alarm_pool_irq_handler+0x24c>)
10008216:	4298      	cmp	r0, r3
10008218:	bf14      	ite	ne
1000821a:	2300      	movne	r3, #0
1000821c:	2301      	moveq	r3, #1
1000821e:	9903      	ldr	r1, [sp, #12]
10008220:	eb01 0383 	add.w	r3, r1, r3, lsl #2
10008224:	4a8c      	ldr	r2, [pc, #560]	@ (10008458 <alarm_pool_irq_handler+0x250>)
10008226:	f852 4023 	ldr.w	r4, [r2, r3, lsl #2]
1000822a:	7823      	ldrb	r3, [r4, #0]
1000822c:	4299      	cmp	r1, r3
1000822e:	d106      	bne.n	1000823e <alarm_pool_irq_handler+0x36>
10008230:	4605      	mov	r5, r0
10008232:	2201      	movs	r2, #1
10008234:	408a      	lsls	r2, r1
10008236:	f500 5341 	add.w	r3, r0, #12352	@ 0x3040
1000823a:	605a      	str	r2, [r3, #4]
1000823c:	e120      	b.n	10008480 <alarm_pool_irq_handler+0x278>
1000823e:	4b87      	ldr	r3, [pc, #540]	@ (1000845c <alarm_pool_irq_handler+0x254>)
10008240:	4a87      	ldr	r2, [pc, #540]	@ (10008460 <alarm_pool_irq_handler+0x258>)
10008242:	2192      	movs	r1, #146	@ 0x92
10008244:	4887      	ldr	r0, [pc, #540]	@ (10008464 <alarm_pool_irq_handler+0x25c>)
10008246:	f002 f8bf 	bl	1000a3c8 <__assert_func>
1000824a:	f8d4 9014 	ldr.w	r9, [r4, #20]
1000824e:	eb06 0746 	add.w	r7, r6, r6, lsl #1
10008252:	ea4f 0ac7 	mov.w	sl, r7, lsl #3
10008256:	eb09 07c7 	add.w	r7, r9, r7, lsl #3
1000825a:	f8d7 b008 	ldr.w	fp, [r7, #8]
1000825e:	f8d7 800c 	ldr.w	r8, [r7, #12]
10008262:	4628      	mov	r0, r5
10008264:	f000 fb2e 	bl	100088c4 <timer_time_us_64>
10008268:	ebb0 000b 	subs.w	r0, r0, fp
1000826c:	eb61 0308 	sbc.w	r3, r1, r8
10008270:	2b00      	cmp	r3, #0
10008272:	f2c0 810e 	blt.w	10008492 <alarm_pool_irq_handler+0x28a>
10008276:	f1b8 0f00 	cmp.w	r8, #0
1000827a:	db60      	blt.n	1000833e <alarm_pool_irq_handler+0x136>
1000827c:	693b      	ldr	r3, [r7, #16]
1000827e:	461a      	mov	r2, r3
10008280:	9300      	str	r3, [sp, #0]
10008282:	4b79      	ldr	r3, [pc, #484]	@ (10008468 <alarm_pool_irq_handler+0x260>)
10008284:	429a      	cmp	r2, r3
10008286:	d030      	beq.n	100082ea <alarm_pool_irq_handler+0xe2>
10008288:	8879      	ldrh	r1, [r7, #2]
1000828a:	b289      	uxth	r1, r1
1000828c:	f9b4 0008 	ldrsh.w	r0, [r4, #8]
10008290:	f7ff ff98 	bl	100081c4 <make_alarm_id>
10008294:	6979      	ldr	r1, [r7, #20]
10008296:	9b00      	ldr	r3, [sp, #0]
10008298:	4798      	blx	r3
1000829a:	9000      	str	r0, [sp, #0]
1000829c:	9101      	str	r1, [sp, #4]
1000829e:	9900      	ldr	r1, [sp, #0]
100082a0:	9a01      	ldr	r2, [sp, #4]
100082a2:	ea51 0302 	orrs.w	r3, r1, r2
100082a6:	d04a      	beq.n	1000833e <alarm_pool_irq_handler+0x136>
100082a8:	4613      	mov	r3, r2
100082aa:	2a00      	cmp	r2, #0
100082ac:	da29      	bge.n	10008302 <alarm_pool_irq_handler+0xfa>
100082ae:	ebbb 0201 	subs.w	r2, fp, r1
100082b2:	eb68 0803 	sbc.w	r8, r8, r3
100082b6:	60ba      	str	r2, [r7, #8]
100082b8:	f8c7 800c 	str.w	r8, [r7, #12]
100082bc:	f939 300a 	ldrsh.w	r3, [r9, sl]
100082c0:	2b00      	cmp	r3, #0
100082c2:	f2c0 80e6 	blt.w	10008492 <alarm_pool_irq_handler+0x28a>
100082c6:	f8d4 e014 	ldr.w	lr, [r4, #20]
100082ca:	eb03 0143 	add.w	r1, r3, r3, lsl #1
100082ce:	eb0e 01c1 	add.w	r1, lr, r1, lsl #3
100082d2:	6888      	ldr	r0, [r1, #8]
100082d4:	68c9      	ldr	r1, [r1, #12]
100082d6:	1a10      	subs	r0, r2, r0
100082d8:	eb68 0101 	sbc.w	r1, r8, r1
100082dc:	2900      	cmp	r1, #0
100082de:	f2c0 80d8 	blt.w	10008492 <alarm_pool_irq_handler+0x28a>
100082e2:	46a4      	mov	ip, r4
100082e4:	f82c 3f08 	strh.w	r3, [ip, #8]!
100082e8:	e015      	b.n	10008316 <alarm_pool_irq_handler+0x10e>
100082ea:	697a      	ldr	r2, [r7, #20]
100082ec:	6913      	ldr	r3, [r2, #16]
100082ee:	9200      	str	r2, [sp, #0]
100082f0:	4610      	mov	r0, r2
100082f2:	4798      	blx	r3
100082f4:	b318      	cbz	r0, 1000833e <alarm_pool_irq_handler+0x136>
100082f6:	9a00      	ldr	r2, [sp, #0]
100082f8:	6813      	ldr	r3, [r2, #0]
100082fa:	9300      	str	r3, [sp, #0]
100082fc:	6853      	ldr	r3, [r2, #4]
100082fe:	9301      	str	r3, [sp, #4]
10008300:	e7cd      	b.n	1000829e <alarm_pool_irq_handler+0x96>
10008302:	4628      	mov	r0, r5
10008304:	f000 fade 	bl	100088c4 <timer_time_us_64>
10008308:	9b00      	ldr	r3, [sp, #0]
1000830a:	181a      	adds	r2, r3, r0
1000830c:	9b01      	ldr	r3, [sp, #4]
1000830e:	eb43 0801 	adc.w	r8, r3, r1
10008312:	e7d0      	b.n	100082b6 <alarm_pool_irq_handler+0xae>
10008314:	469c      	mov	ip, r3
10008316:	f9bc 7000 	ldrsh.w	r7, [ip]
1000831a:	2f00      	cmp	r7, #0
1000831c:	db0a      	blt.n	10008334 <alarm_pool_irq_handler+0x12c>
1000831e:	eb07 0347 	add.w	r3, r7, r7, lsl #1
10008322:	eb0e 03c3 	add.w	r3, lr, r3, lsl #3
10008326:	6898      	ldr	r0, [r3, #8]
10008328:	68d9      	ldr	r1, [r3, #12]
1000832a:	1a10      	subs	r0, r2, r0
1000832c:	eb68 0101 	sbc.w	r1, r8, r1
10008330:	2900      	cmp	r1, #0
10008332:	daef      	bge.n	10008314 <alarm_pool_irq_handler+0x10c>
10008334:	f829 700a 	strh.w	r7, [r9, sl]
10008338:	f8ac 6000 	strh.w	r6, [ip]
1000833c:	e0a9      	b.n	10008492 <alarm_pool_irq_handler+0x28a>
1000833e:	f939 300a 	ldrsh.w	r3, [r9, sl]
10008342:	8123      	strh	r3, [r4, #8]
10008344:	6923      	ldr	r3, [r4, #16]
10008346:	f3ef 8210 	mrs	r2, PRIMASK
1000834a:	b672      	cpsid	i
1000834c:	e8d3 0fcf 	ldaexb	r0, [r3]
10008350:	2101      	movs	r1, #1
10008352:	2800      	cmp	r0, #0
10008354:	d1fa      	bne.n	1000834c <alarm_pool_irq_handler+0x144>
10008356:	e8c3 1f40 	strexb	r0, r1, [r3]
1000835a:	2800      	cmp	r0, #0
1000835c:	d1f6      	bne.n	1000834c <alarm_pool_irq_handler+0x144>
1000835e:	f3bf 8f5f 	dmb	sy
10008362:	f9b4 3002 	ldrsh.w	r3, [r4, #2]
10008366:	f829 300a 	strh.w	r3, [r9, sl]
1000836a:	8066      	strh	r6, [r4, #2]
1000836c:	6921      	ldr	r1, [r4, #16]
1000836e:	2300      	movs	r3, #0
10008370:	e8c1 3f8f 	stlb	r3, [r1]
10008374:	f382 8810 	msr	PRIMASK, r2
10008378:	e08b      	b.n	10008492 <alarm_pool_irq_handler+0x28a>
1000837a:	6923      	ldr	r3, [r4, #16]
1000837c:	f3ef 8210 	mrs	r2, PRIMASK
10008380:	b672      	cpsid	i
10008382:	e8d3 0fcf 	ldaexb	r0, [r3]
10008386:	2101      	movs	r1, #1
10008388:	2800      	cmp	r0, #0
1000838a:	d1fa      	bne.n	10008382 <alarm_pool_irq_handler+0x17a>
1000838c:	e8c3 1f40 	strexb	r0, r1, [r3]
10008390:	2800      	cmp	r0, #0
10008392:	d1f6      	bne.n	10008382 <alarm_pool_irq_handler+0x17a>
10008394:	f3bf 8f5f 	dmb	sy
10008398:	f8b4 8004 	ldrh.w	r8, [r4, #4]
1000839c:	fa0f f888 	sxth.w	r8, r8
100083a0:	f64f 73ff 	movw	r3, #65535	@ 0xffff
100083a4:	80a3      	strh	r3, [r4, #4]
100083a6:	6921      	ldr	r1, [r4, #16]
100083a8:	2300      	movs	r3, #0
100083aa:	e8c1 3f8f 	stlb	r3, [r1]
100083ae:	f382 8810 	msr	PRIMASK, r2
100083b2:	e015      	b.n	100083e0 <alarm_pool_irq_handler+0x1d8>
100083b4:	461e      	mov	r6, r3
100083b6:	f9b6 2000 	ldrsh.w	r2, [r6]
100083ba:	2a00      	cmp	r2, #0
100083bc:	db0a      	blt.n	100083d4 <alarm_pool_irq_handler+0x1cc>
100083be:	eb02 0342 	add.w	r3, r2, r2, lsl #1
100083c2:	eb0c 03c3 	add.w	r3, ip, r3, lsl #3
100083c6:	6898      	ldr	r0, [r3, #8]
100083c8:	68d9      	ldr	r1, [r3, #12]
100083ca:	1a38      	subs	r0, r7, r0
100083cc:	eb6e 0101 	sbc.w	r1, lr, r1
100083d0:	2900      	cmp	r1, #0
100083d2:	daef      	bge.n	100083b4 <alarm_pool_irq_handler+0x1ac>
100083d4:	f8a6 8000 	strh.w	r8, [r6]
100083d8:	f93c 8009 	ldrsh.w	r8, [ip, r9]
100083dc:	f82c 2009 	strh.w	r2, [ip, r9]
100083e0:	f1b8 0f00 	cmp.w	r8, #0
100083e4:	db5a      	blt.n	1000849c <alarm_pool_irq_handler+0x294>
100083e6:	f8d4 c014 	ldr.w	ip, [r4, #20]
100083ea:	eb08 0348 	add.w	r3, r8, r8, lsl #1
100083ee:	ea4f 09c3 	mov.w	r9, r3, lsl #3
100083f2:	eb0c 03c3 	add.w	r3, ip, r3, lsl #3
100083f6:	689f      	ldr	r7, [r3, #8]
100083f8:	f8d3 e00c 	ldr.w	lr, [r3, #12]
100083fc:	f104 0608 	add.w	r6, r4, #8
10008400:	e7d9      	b.n	100083b6 <alarm_pool_irq_handler+0x1ae>
10008402:	2300      	movs	r3, #0
10008404:	71a3      	strb	r3, [r4, #6]
10008406:	f104 0c08 	add.w	ip, r4, #8
1000840a:	f9b4 3008 	ldrsh.w	r3, [r4, #8]
1000840e:	e010      	b.n	10008432 <alarm_pool_irq_handler+0x22a>
10008410:	f04f 38ff 	mov.w	r8, #4294967295
10008414:	f04f 39ff 	mov.w	r9, #4294967295
10008418:	e9c0 8902 	strd	r8, r9, [r0, #8]
1000841c:	f9b4 0008 	ldrsh.w	r0, [r4, #8]
10008420:	4298      	cmp	r0, r3
10008422:	d005      	beq.n	10008430 <alarm_pool_irq_handler+0x228>
10008424:	f8ac 2000 	strh.w	r2, [ip]
10008428:	f9b4 0008 	ldrsh.w	r0, [r4, #8]
1000842c:	53c8      	strh	r0, [r1, r7]
1000842e:	8123      	strh	r3, [r4, #8]
10008430:	4613      	mov	r3, r2
10008432:	f1b3 3fff 	cmp.w	r3, #4294967295
10008436:	d034      	beq.n	100084a2 <alarm_pool_irq_handler+0x29a>
10008438:	6961      	ldr	r1, [r4, #20]
1000843a:	eb03 0243 	add.w	r2, r3, r3, lsl #1
1000843e:	00d7      	lsls	r7, r2, #3
10008440:	eb01 00c2 	add.w	r0, r1, r2, lsl #3
10008444:	f931 2032 	ldrsh.w	r2, [r1, r2, lsl #3]
10008448:	8846      	ldrh	r6, [r0, #2]
1000844a:	f416 4f00 	tst.w	r6, #32768	@ 0x8000
1000844e:	d1df      	bne.n	10008410 <alarm_pool_irq_handler+0x208>
10008450:	4684      	mov	ip, r0
10008452:	e7ed      	b.n	10008430 <alarm_pool_irq_handler+0x228>
10008454:	400b8000 	.word	0x400b8000
10008458:	200057f8 	.word	0x200057f8
1000845c:	1000d278 	.word	0x1000d278
10008460:	1000ee54 	.word	0x1000ee54
10008464:	1000d2a4 	.word	0x1000d2a4
10008468:	10008209 	.word	0x10008209
1000846c:	4628      	mov	r0, r5
1000846e:	f000 fa29 	bl	100088c4 <timer_time_us_64>
10008472:	1a36      	subs	r6, r6, r0
10008474:	eb67 0701 	sbc.w	r7, r7, r1
10008478:	2e01      	cmp	r6, #1
1000847a:	f177 0700 	sbcs.w	r7, r7, #0
1000847e:	da2e      	bge.n	100084de <alarm_pool_irq_handler+0x2d6>
10008480:	9a03      	ldr	r2, [sp, #12]
10008482:	2301      	movs	r3, #1
10008484:	4093      	lsls	r3, r2
10008486:	63eb      	str	r3, [r5, #60]	@ 0x3c
10008488:	f9b4 6008 	ldrsh.w	r6, [r4, #8]
1000848c:	2e00      	cmp	r6, #0
1000848e:	f6bf aedc 	bge.w	1000824a <alarm_pool_irq_handler+0x42>
10008492:	88a3      	ldrh	r3, [r4, #4]
10008494:	f413 4f00 	tst.w	r3, #32768	@ 0x8000
10008498:	f43f af6f 	beq.w	1000837a <alarm_pool_irq_handler+0x172>
1000849c:	79a3      	ldrb	r3, [r4, #6]
1000849e:	2b00      	cmp	r3, #0
100084a0:	d1af      	bne.n	10008402 <alarm_pool_irq_handler+0x1fa>
100084a2:	f9b4 3008 	ldrsh.w	r3, [r4, #8]
100084a6:	2b00      	cmp	r3, #0
100084a8:	db19      	blt.n	100084de <alarm_pool_irq_handler+0x2d6>
100084aa:	6962      	ldr	r2, [r4, #20]
100084ac:	eb03 0343 	add.w	r3, r3, r3, lsl #1
100084b0:	eb02 03c3 	add.w	r3, r2, r3, lsl #3
100084b4:	689e      	ldr	r6, [r3, #8]
100084b6:	68df      	ldr	r7, [r3, #12]
100084b8:	f1b7 3fff 	cmp.w	r7, #4294967295
100084bc:	bf08      	it	eq
100084be:	f1b6 3fff 	cmpeq.w	r6, #4294967295
100084c2:	d0d3      	beq.n	1000846c <alarm_pool_irq_handler+0x264>
100084c4:	9a03      	ldr	r2, [sp, #12]
100084c6:	6aa9      	ldr	r1, [r5, #40]	@ 0x28
100084c8:	1a70      	subs	r0, r6, r1
100084ca:	1d13      	adds	r3, r2, #4
100084cc:	f855 3023 	ldr.w	r3, [r5, r3, lsl #2]
100084d0:	1a5b      	subs	r3, r3, r1
100084d2:	4298      	cmp	r0, r3
100084d4:	d2ca      	bcs.n	1000846c <alarm_pool_irq_handler+0x264>
100084d6:	3204      	adds	r2, #4
100084d8:	f845 6022 	str.w	r6, [r5, r2, lsl #2]
100084dc:	e7c6      	b.n	1000846c <alarm_pool_irq_handler+0x264>
100084de:	bf40      	sev
100084e0:	b005      	add	sp, #20
100084e2:	e8bd 8ff0 	ldmia.w	sp!, {r4, r5, r6, r7, r8, r9, sl, fp, pc}
100084e6:	bf00      	nop

100084e8 <ta_enable_irq_handler>:
100084e8:	b5f8      	push	{r3, r4, r5, r6, r7, lr}
100084ea:	4604      	mov	r4, r0
100084ec:	460d      	mov	r5, r1
100084ee:	4611      	mov	r1, r2
100084f0:	4b0a      	ldr	r3, [pc, #40]	@ (1000851c <ta_enable_irq_handler+0x34>)
100084f2:	4298      	cmp	r0, r3
100084f4:	d010      	beq.n	10008518 <ta_enable_irq_handler+0x30>
100084f6:	2600      	movs	r6, #0
100084f8:	442e      	add	r6, r5
100084fa:	2701      	movs	r7, #1
100084fc:	fa07 f505 	lsl.w	r5, r7, r5
10008500:	6225      	str	r5, [r4, #32]
10008502:	4630      	mov	r0, r6
10008504:	f7ff fb70 	bl	10007be8 <irq_set_exclusive_handler>
10008508:	4639      	mov	r1, r7
1000850a:	4630      	mov	r0, r6
1000850c:	f7ff fb5a 	bl	10007bc4 <irq_set_enabled>
10008510:	f504 5401 	add.w	r4, r4, #8256	@ 0x2040
10008514:	6025      	str	r5, [r4, #0]
10008516:	bdf8      	pop	{r3, r4, r5, r6, r7, pc}
10008518:	2604      	movs	r6, #4
1000851a:	e7ed      	b.n	100084f8 <ta_enable_irq_handler+0x10>
1000851c:	400b8000 	.word	0x400b8000

10008520 <alarm_pool_post_alloc_init>:
10008520:	b5f8      	push	{r3, r4, r5, r6, r7, lr}
10008522:	4604      	mov	r4, r0
10008524:	460e      	mov	r6, r1
10008526:	4617      	mov	r7, r2
10008528:	461d      	mov	r5, r3
1000852a:	60c1      	str	r1, [r0, #12]
1000852c:	f7ff fa74 	bl	10007a18 <next_striped_spin_lock_num>
10008530:	4b16      	ldr	r3, [pc, #88]	@ (1000858c <alarm_pool_post_alloc_init+0x6c>)
10008532:	4403      	add	r3, r0
10008534:	6123      	str	r3, [r4, #16]
10008536:	7027      	strb	r7, [r4, #0]
10008538:	b2ab      	uxth	r3, r5
1000853a:	8163      	strh	r3, [r4, #10]
1000853c:	f04f 4250 	mov.w	r2, #3489660928	@ 0xd0000000
10008540:	7812      	ldrb	r2, [r2, #0]
10008542:	7062      	strb	r2, [r4, #1]
10008544:	f64f 72ff 	movw	r2, #65535	@ 0xffff
10008548:	8122      	strh	r2, [r4, #8]
1000854a:	80a2      	strh	r2, [r4, #4]
1000854c:	3b01      	subs	r3, #1
1000854e:	8063      	strh	r3, [r4, #2]
10008550:	f04f 0c00 	mov.w	ip, #0
10008554:	e008      	b.n	10008568 <alarm_pool_post_alloc_init+0x48>
10008556:	f10c 30ff 	add.w	r0, ip, #4294967295
1000855a:	eb0c 0e4c 	add.w	lr, ip, ip, lsl #1
1000855e:	6963      	ldr	r3, [r4, #20]
10008560:	f823 003e 	strh.w	r0, [r3, lr, lsl #3]
10008564:	f10c 0c01 	add.w	ip, ip, #1
10008568:	45ac      	cmp	ip, r5
1000856a:	d3f4      	bcc.n	10008556 <alarm_pool_post_alloc_init+0x36>
1000856c:	4b08      	ldr	r3, [pc, #32]	@ (10008590 <alarm_pool_post_alloc_init+0x70>)
1000856e:	429e      	cmp	r6, r3
10008570:	bf14      	ite	ne
10008572:	2300      	movne	r3, #0
10008574:	2301      	moveq	r3, #1
10008576:	eb07 0383 	add.w	r3, r7, r3, lsl #2
1000857a:	4a06      	ldr	r2, [pc, #24]	@ (10008594 <alarm_pool_post_alloc_init+0x74>)
1000857c:	f842 4023 	str.w	r4, [r2, r3, lsl #2]
10008580:	4a05      	ldr	r2, [pc, #20]	@ (10008598 <alarm_pool_post_alloc_init+0x78>)
10008582:	4639      	mov	r1, r7
10008584:	4630      	mov	r0, r6
10008586:	f7ff ffaf 	bl	100084e8 <ta_enable_irq_handler>
1000858a:	bdf8      	pop	{r3, r4, r5, r6, r7, pc}
1000858c:	2000107c 	.word	0x2000107c
10008590:	400b8000 	.word	0x400b8000
10008594:	200057f8 	.word	0x200057f8
10008598:	10008209 	.word	0x10008209

1000859c <alarm_pool_get_default>:
1000859c:	b508      	push	{r3, lr}
1000859e:	4b05      	ldr	r3, [pc, #20]	@ (100085b4 <alarm_pool_get_default+0x18>)
100085a0:	691b      	ldr	r3, [r3, #16]
100085a2:	b10b      	cbz	r3, 100085a8 <alarm_pool_get_default+0xc>
100085a4:	4803      	ldr	r0, [pc, #12]	@ (100085b4 <alarm_pool_get_default+0x18>)
100085a6:	bd08      	pop	{r3, pc}
100085a8:	4b03      	ldr	r3, [pc, #12]	@ (100085b8 <alarm_pool_get_default+0x1c>)
100085aa:	4a04      	ldr	r2, [pc, #16]	@ (100085bc <alarm_pool_get_default+0x20>)
100085ac:	2165      	movs	r1, #101	@ 0x65
100085ae:	4804      	ldr	r0, [pc, #16]	@ (100085c0 <alarm_pool_get_default+0x24>)
100085b0:	f001 ff0a 	bl	1000a3c8 <__assert_func>
100085b4:	20000e28 	.word	0x20000e28
100085b8:	1000d2e4 	.word	0x1000d2e4
100085bc:	1000ee3c 	.word	0x1000ee3c
100085c0:	1000d2a4 	.word	0x1000d2a4

100085c4 <alarm_pool_add_alarm_at_force_in_context>:
100085c4:	b5f8      	push	{r3, r4, r5, r6, r7, lr}
100085c6:	4604      	mov	r4, r0
100085c8:	469e      	mov	lr, r3
100085ca:	6900      	ldr	r0, [r0, #16]
100085cc:	f3ef 8110 	mrs	r1, PRIMASK
100085d0:	b672      	cpsid	i
100085d2:	e8d0 6fcf 	ldaexb	r6, [r0]
100085d6:	2501      	movs	r5, #1
100085d8:	2e00      	cmp	r6, #0
100085da:	d1fa      	bne.n	100085d2 <alarm_pool_add_alarm_at_force_in_context+0xe>
100085dc:	e8c0 5f46 	strexb	r6, r5, [r0]
100085e0:	2e00      	cmp	r6, #0
100085e2:	d1f6      	bne.n	100085d2 <alarm_pool_add_alarm_at_force_in_context+0xe>
100085e4:	f3bf 8f5f 	dmb	sy
100085e8:	f9b4 5002 	ldrsh.w	r5, [r4, #2]
100085ec:	6966      	ldr	r6, [r4, #20]
100085ee:	eb05 0045 	add.w	r0, r5, r5, lsl #1
100085f2:	00c7      	lsls	r7, r0, #3
100085f4:	eb06 00c0 	add.w	r0, r6, r0, lsl #3
100085f8:	2d00      	cmp	r5, #0
100085fa:	db03      	blt.n	10008604 <alarm_pool_add_alarm_at_force_in_context+0x40>
100085fc:	f936 c007 	ldrsh.w	ip, [r6, r7]
10008600:	f8a4 c002 	strh.w	ip, [r4, #2]
10008604:	f04f 0c00 	mov.w	ip, #0
10008608:	6923      	ldr	r3, [r4, #16]
1000860a:	e8c3 cf8f 	stlb	ip, [r3]
1000860e:	f381 8810 	msr	PRIMASK, r1
10008612:	4565      	cmp	r5, ip
10008614:	db33      	blt.n	1000867e <alarm_pool_add_alarm_at_force_in_context+0xba>
10008616:	9906      	ldr	r1, [sp, #24]
10008618:	6101      	str	r1, [r0, #16]
1000861a:	9907      	ldr	r1, [sp, #28]
1000861c:	6141      	str	r1, [r0, #20]
1000861e:	6082      	str	r2, [r0, #8]
10008620:	f8c0 e00c 	str.w	lr, [r0, #12]
10008624:	8841      	ldrh	r1, [r0, #2]
10008626:	b289      	uxth	r1, r1
10008628:	3101      	adds	r1, #1
1000862a:	f3c1 010e 	ubfx	r1, r1, #0, #15
1000862e:	b901      	cbnz	r1, 10008632 <alarm_pool_add_alarm_at_force_in_context+0x6e>
10008630:	2101      	movs	r1, #1
10008632:	8041      	strh	r1, [r0, #2]
10008634:	4628      	mov	r0, r5
10008636:	f7ff fdc5 	bl	100081c4 <make_alarm_id>
1000863a:	6923      	ldr	r3, [r4, #16]
1000863c:	f3ef 8210 	mrs	r2, PRIMASK
10008640:	b672      	cpsid	i
10008642:	e8d3 cfcf 	ldaexb	ip, [r3]
10008646:	2101      	movs	r1, #1
10008648:	f1bc 0f00 	cmp.w	ip, #0
1000864c:	d1f9      	bne.n	10008642 <alarm_pool_add_alarm_at_force_in_context+0x7e>
1000864e:	e8c3 1f4c 	strexb	ip, r1, [r3]
10008652:	f1bc 0f00 	cmp.w	ip, #0
10008656:	d1f4      	bne.n	10008642 <alarm_pool_add_alarm_at_force_in_context+0x7e>
10008658:	f3bf 8f5f 	dmb	sy
1000865c:	88a3      	ldrh	r3, [r4, #4]
1000865e:	53f3      	strh	r3, [r6, r7]
10008660:	80a5      	strh	r5, [r4, #4]
10008662:	6921      	ldr	r1, [r4, #16]
10008664:	2300      	movs	r3, #0
10008666:	e8c1 3f8f 	stlb	r3, [r1]
1000866a:	f382 8810 	msr	PRIMASK, r2
1000866e:	68e3      	ldr	r3, [r4, #12]
10008670:	7821      	ldrb	r1, [r4, #0]
10008672:	2201      	movs	r2, #1
10008674:	408a      	lsls	r2, r1
10008676:	f503 5301 	add.w	r3, r3, #8256	@ 0x2040
1000867a:	605a      	str	r2, [r3, #4]
1000867c:	bdf8      	pop	{r3, r4, r5, r6, r7, pc}
1000867e:	f04f 30ff 	mov.w	r0, #4294967295
10008682:	e7fb      	b.n	1000867c <alarm_pool_add_alarm_at_force_in_context+0xb8>

10008684 <alarm_pool_add_alarm_at>:
10008684:	b570      	push	{r4, r5, r6, lr}
10008686:	b082      	sub	sp, #8
10008688:	4606      	mov	r6, r0
1000868a:	4615      	mov	r5, r2
1000868c:	461c      	mov	r4, r3
1000868e:	f89d 3020 	ldrb.w	r3, [sp, #32]
10008692:	b933      	cbnz	r3, 100086a2 <alarm_pool_add_alarm_at+0x1e>
10008694:	f000 f940 	bl	10008918 <time_us_64>
10008698:	4285      	cmp	r5, r0
1000869a:	eb64 0101 	sbc.w	r1, r4, r1
1000869e:	2900      	cmp	r1, #0
100086a0:	db0a      	blt.n	100086b8 <alarm_pool_add_alarm_at+0x34>
100086a2:	9b07      	ldr	r3, [sp, #28]
100086a4:	9301      	str	r3, [sp, #4]
100086a6:	9b06      	ldr	r3, [sp, #24]
100086a8:	9300      	str	r3, [sp, #0]
100086aa:	462a      	mov	r2, r5
100086ac:	4623      	mov	r3, r4
100086ae:	4630      	mov	r0, r6
100086b0:	f7ff ff88 	bl	100085c4 <alarm_pool_add_alarm_at_force_in_context>
100086b4:	b002      	add	sp, #8
100086b6:	bd70      	pop	{r4, r5, r6, pc}
100086b8:	2000      	movs	r0, #0
100086ba:	e7fb      	b.n	100086b4 <alarm_pool_add_alarm_at+0x30>

100086bc <add_alarm_at>:
100086bc:	b5f0      	push	{r4, r5, r6, r7, lr}
100086be:	b085      	sub	sp, #20
100086c0:	4605      	mov	r5, r0
100086c2:	460c      	mov	r4, r1
100086c4:	4616      	mov	r6, r2
100086c6:	461f      	mov	r7, r3
100086c8:	f7ff ff68 	bl	1000859c <alarm_pool_get_default>
100086cc:	f89d 3028 	ldrb.w	r3, [sp, #40]	@ 0x28
100086d0:	9302      	str	r3, [sp, #8]
100086d2:	9701      	str	r7, [sp, #4]
100086d4:	9600      	str	r6, [sp, #0]
100086d6:	462a      	mov	r2, r5
100086d8:	4623      	mov	r3, r4
100086da:	f7ff ffd3 	bl	10008684 <alarm_pool_add_alarm_at>
100086de:	b005      	add	sp, #20
100086e0:	bdf0      	pop	{r4, r5, r6, r7, pc}

100086e2 <alarm_pool_cancel_alarm>:
100086e2:	4603      	mov	r3, r0
100086e4:	8940      	ldrh	r0, [r0, #10]
100086e6:	ebb0 4f21 	cmp.w	r0, r1, asr #16
100086ea:	dd31      	ble.n	10008750 <alarm_pool_cancel_alarm+0x6e>
100086ec:	b510      	push	{r4, lr}
100086ee:	140a      	asrs	r2, r1, #16
100086f0:	6958      	ldr	r0, [r3, #20]
100086f2:	eb02 0242 	add.w	r2, r2, r2, lsl #1
100086f6:	eb00 00c2 	add.w	r0, r0, r2, lsl #3
100086fa:	691a      	ldr	r2, [r3, #16]
100086fc:	f3ef 8c10 	mrs	ip, PRIMASK
10008700:	b672      	cpsid	i
10008702:	e8d2 4fcf 	ldaexb	r4, [r2]
10008706:	f05f 0e01 	movs.w	lr, #1
1000870a:	2c00      	cmp	r4, #0
1000870c:	d1f9      	bne.n	10008702 <alarm_pool_cancel_alarm+0x20>
1000870e:	e8c2 ef44 	strexb	r4, lr, [r2]
10008712:	2c00      	cmp	r4, #0
10008714:	d1f5      	bne.n	10008702 <alarm_pool_cancel_alarm+0x20>
10008716:	f3bf 8f5f 	dmb	sy
1000871a:	8842      	ldrh	r2, [r0, #2]
1000871c:	b292      	uxth	r2, r2
1000871e:	b289      	uxth	r1, r1
10008720:	428a      	cmp	r2, r1
10008722:	d00f      	beq.n	10008744 <alarm_pool_cancel_alarm+0x62>
10008724:	2000      	movs	r0, #0
10008726:	6919      	ldr	r1, [r3, #16]
10008728:	2200      	movs	r2, #0
1000872a:	e8c1 2f8f 	stlb	r2, [r1]
1000872e:	f38c 8810 	msr	PRIMASK, ip
10008732:	b130      	cbz	r0, 10008742 <alarm_pool_cancel_alarm+0x60>
10008734:	68da      	ldr	r2, [r3, #12]
10008736:	781b      	ldrb	r3, [r3, #0]
10008738:	2101      	movs	r1, #1
1000873a:	4099      	lsls	r1, r3
1000873c:	f502 5301 	add.w	r3, r2, #8256	@ 0x2040
10008740:	6059      	str	r1, [r3, #4]
10008742:	bd10      	pop	{r4, pc}
10008744:	f442 4200 	orr.w	r2, r2, #32768	@ 0x8000
10008748:	8042      	strh	r2, [r0, #2]
1000874a:	2001      	movs	r0, #1
1000874c:	7198      	strb	r0, [r3, #6]
1000874e:	e7ea      	b.n	10008726 <alarm_pool_cancel_alarm+0x44>
10008750:	2000      	movs	r0, #0
10008752:	4770      	bx	lr

10008754 <cancel_alarm>:
10008754:	b510      	push	{r4, lr}
10008756:	4604      	mov	r4, r0
10008758:	f7ff ff20 	bl	1000859c <alarm_pool_get_default>
1000875c:	4621      	mov	r1, r4
1000875e:	f7ff ffc0 	bl	100086e2 <alarm_pool_cancel_alarm>
10008762:	bd10      	pop	{r4, pc}

10008764 <best_effort_wfe_or_timeout>:
10008764:	b530      	push	{r4, r5, lr}
10008766:	b083      	sub	sp, #12
10008768:	4605      	mov	r5, r0
1000876a:	460c      	mov	r4, r1
1000876c:	f3ef 8305 	mrs	r3, IPSR
10008770:	b2db      	uxtb	r3, r3
10008772:	b193      	cbz	r3, 1000879a <best_effort_wfe_or_timeout+0x36>
10008774:	4b39      	ldr	r3, [pc, #228]	@ (1000885c <best_effort_wfe_or_timeout+0xf8>)
10008776:	6a5b      	ldr	r3, [r3, #36]	@ 0x24
10008778:	428b      	cmp	r3, r1
1000877a:	d309      	bcc.n	10008790 <best_effort_wfe_or_timeout+0x2c>
1000877c:	4a37      	ldr	r2, [pc, #220]	@ (1000885c <best_effort_wfe_or_timeout+0xf8>)
1000877e:	6a92      	ldr	r2, [r2, #40]	@ 0x28
10008780:	4282      	cmp	r2, r0
10008782:	d208      	bcs.n	10008796 <best_effort_wfe_or_timeout+0x32>
10008784:	428b      	cmp	r3, r1
10008786:	d001      	beq.n	1000878c <best_effort_wfe_or_timeout+0x28>
10008788:	2001      	movs	r0, #1
1000878a:	e002      	b.n	10008792 <best_effort_wfe_or_timeout+0x2e>
1000878c:	2000      	movs	r0, #0
1000878e:	e000      	b.n	10008792 <best_effort_wfe_or_timeout+0x2e>
10008790:	2000      	movs	r0, #0
10008792:	b003      	add	sp, #12
10008794:	bd30      	pop	{r4, r5, pc}
10008796:	2001      	movs	r0, #1
10008798:	e7fb      	b.n	10008792 <best_effort_wfe_or_timeout+0x2e>
1000879a:	f7ff feff 	bl	1000859c <alarm_pool_get_default>
1000879e:	68c1      	ldr	r1, [r0, #12]
100087a0:	7803      	ldrb	r3, [r0, #0]
100087a2:	6a8a      	ldr	r2, [r1, #40]	@ 0x28
100087a4:	1aa8      	subs	r0, r5, r2
100087a6:	3304      	adds	r3, #4
100087a8:	f851 3023 	ldr.w	r3, [r1, r3, lsl #2]
100087ac:	1a9b      	subs	r3, r3, r2
100087ae:	4298      	cmp	r0, r3
100087b0:	d312      	bcc.n	100087d8 <best_effort_wfe_or_timeout+0x74>
100087b2:	bf20      	wfe
100087b4:	4b29      	ldr	r3, [pc, #164]	@ (1000885c <best_effort_wfe_or_timeout+0xf8>)
100087b6:	6a5b      	ldr	r3, [r3, #36]	@ 0x24
100087b8:	429c      	cmp	r4, r3
100087ba:	d809      	bhi.n	100087d0 <best_effort_wfe_or_timeout+0x6c>
100087bc:	4a27      	ldr	r2, [pc, #156]	@ (1000885c <best_effort_wfe_or_timeout+0xf8>)
100087be:	6a92      	ldr	r2, [r2, #40]	@ 0x28
100087c0:	4295      	cmp	r5, r2
100087c2:	d907      	bls.n	100087d4 <best_effort_wfe_or_timeout+0x70>
100087c4:	429c      	cmp	r4, r3
100087c6:	d001      	beq.n	100087cc <best_effort_wfe_or_timeout+0x68>
100087c8:	2001      	movs	r0, #1
100087ca:	e7e2      	b.n	10008792 <best_effort_wfe_or_timeout+0x2e>
100087cc:	2000      	movs	r0, #0
100087ce:	e7e0      	b.n	10008792 <best_effort_wfe_or_timeout+0x2e>
100087d0:	2000      	movs	r0, #0
100087d2:	e7de      	b.n	10008792 <best_effort_wfe_or_timeout+0x2e>
100087d4:	2001      	movs	r0, #1
100087d6:	e7dc      	b.n	10008792 <best_effort_wfe_or_timeout+0x2e>
100087d8:	2300      	movs	r3, #0
100087da:	9300      	str	r3, [sp, #0]
100087dc:	4a20      	ldr	r2, [pc, #128]	@ (10008860 <best_effort_wfe_or_timeout+0xfc>)
100087de:	4628      	mov	r0, r5
100087e0:	4621      	mov	r1, r4
100087e2:	f7ff ff6b 	bl	100086bc <add_alarm_at>
100087e6:	2800      	cmp	r0, #0
100087e8:	dd0b      	ble.n	10008802 <best_effort_wfe_or_timeout+0x9e>
100087ea:	4b1c      	ldr	r3, [pc, #112]	@ (1000885c <best_effort_wfe_or_timeout+0xf8>)
100087ec:	6a5b      	ldr	r3, [r3, #36]	@ 0x24
100087ee:	429c      	cmp	r4, r3
100087f0:	d81b      	bhi.n	1000882a <best_effort_wfe_or_timeout+0xc6>
100087f2:	4a1a      	ldr	r2, [pc, #104]	@ (1000885c <best_effort_wfe_or_timeout+0xf8>)
100087f4:	6a92      	ldr	r2, [r2, #40]	@ 0x28
100087f6:	4295      	cmp	r5, r2
100087f8:	d928      	bls.n	1000884c <best_effort_wfe_or_timeout+0xe8>
100087fa:	429c      	cmp	r4, r3
100087fc:	d013      	beq.n	10008826 <best_effort_wfe_or_timeout+0xc2>
100087fe:	2301      	movs	r3, #1
10008800:	e014      	b.n	1000882c <best_effort_wfe_or_timeout+0xc8>
10008802:	4b16      	ldr	r3, [pc, #88]	@ (1000885c <best_effort_wfe_or_timeout+0xf8>)
10008804:	6a5b      	ldr	r3, [r3, #36]	@ 0x24
10008806:	429c      	cmp	r4, r3
10008808:	d809      	bhi.n	1000881e <best_effort_wfe_or_timeout+0xba>
1000880a:	4a14      	ldr	r2, [pc, #80]	@ (1000885c <best_effort_wfe_or_timeout+0xf8>)
1000880c:	6a92      	ldr	r2, [r2, #40]	@ 0x28
1000880e:	4295      	cmp	r5, r2
10008810:	d907      	bls.n	10008822 <best_effort_wfe_or_timeout+0xbe>
10008812:	429c      	cmp	r4, r3
10008814:	d001      	beq.n	1000881a <best_effort_wfe_or_timeout+0xb6>
10008816:	2001      	movs	r0, #1
10008818:	e7bb      	b.n	10008792 <best_effort_wfe_or_timeout+0x2e>
1000881a:	2000      	movs	r0, #0
1000881c:	e7b9      	b.n	10008792 <best_effort_wfe_or_timeout+0x2e>
1000881e:	2000      	movs	r0, #0
10008820:	e7b7      	b.n	10008792 <best_effort_wfe_or_timeout+0x2e>
10008822:	2001      	movs	r0, #1
10008824:	e7b5      	b.n	10008792 <best_effort_wfe_or_timeout+0x2e>
10008826:	2300      	movs	r3, #0
10008828:	e000      	b.n	1000882c <best_effort_wfe_or_timeout+0xc8>
1000882a:	2300      	movs	r3, #0
1000882c:	b903      	cbnz	r3, 10008830 <best_effort_wfe_or_timeout+0xcc>
1000882e:	bf20      	wfe
10008830:	f7ff ff90 	bl	10008754 <cancel_alarm>
10008834:	4b09      	ldr	r3, [pc, #36]	@ (1000885c <best_effort_wfe_or_timeout+0xf8>)
10008836:	6a5b      	ldr	r3, [r3, #36]	@ 0x24
10008838:	429c      	cmp	r4, r3
1000883a:	d80b      	bhi.n	10008854 <best_effort_wfe_or_timeout+0xf0>
1000883c:	4a07      	ldr	r2, [pc, #28]	@ (1000885c <best_effort_wfe_or_timeout+0xf8>)
1000883e:	6a92      	ldr	r2, [r2, #40]	@ 0x28
10008840:	4295      	cmp	r5, r2
10008842:	d909      	bls.n	10008858 <best_effort_wfe_or_timeout+0xf4>
10008844:	429c      	cmp	r4, r3
10008846:	d003      	beq.n	10008850 <best_effort_wfe_or_timeout+0xec>
10008848:	2001      	movs	r0, #1
1000884a:	e7a2      	b.n	10008792 <best_effort_wfe_or_timeout+0x2e>
1000884c:	2301      	movs	r3, #1
1000884e:	e7ed      	b.n	1000882c <best_effort_wfe_or_timeout+0xc8>
10008850:	2000      	movs	r0, #0
10008852:	e79e      	b.n	10008792 <best_effort_wfe_or_timeout+0x2e>
10008854:	2000      	movs	r0, #0
10008856:	e79c      	b.n	10008792 <best_effort_wfe_or_timeout+0x2e>
10008858:	2001      	movs	r0, #1
1000885a:	e79a      	b.n	10008792 <best_effort_wfe_or_timeout+0x2e>
1000885c:	400b0000 	.word	0x400b0000
10008860:	100081cd 	.word	0x100081cd

10008864 <alarm_pool_get_default_timer>:
10008864:	4800      	ldr	r0, [pc, #0]	@ (10008868 <alarm_pool_get_default_timer+0x4>)
10008866:	4770      	bx	lr
10008868:	400b0000 	.word	0x400b0000

1000886c <runtime_init_default_alarm_pool>:
1000886c:	b510      	push	{r4, lr}
1000886e:	4b0a      	ldr	r3, [pc, #40]	@ (10008898 <runtime_init_default_alarm_pool+0x2c>)
10008870:	691b      	ldr	r3, [r3, #16]
10008872:	b123      	cbz	r3, 1000887e <runtime_init_default_alarm_pool+0x12>
10008874:	210a      	movs	r1, #10
10008876:	4809      	ldr	r0, [pc, #36]	@ (1000889c <runtime_init_default_alarm_pool+0x30>)
10008878:	f7ff fc38 	bl	100080ec <lock_init>
1000887c:	bd10      	pop	{r4, pc}
1000887e:	f7ff fff1 	bl	10008864 <alarm_pool_get_default_timer>
10008882:	4604      	mov	r4, r0
10008884:	2103      	movs	r1, #3
10008886:	f000 f80b 	bl	100088a0 <timer_hardware_alarm_claim>
1000888a:	2310      	movs	r3, #16
1000888c:	2203      	movs	r2, #3
1000888e:	4621      	mov	r1, r4
10008890:	4801      	ldr	r0, [pc, #4]	@ (10008898 <runtime_init_default_alarm_pool+0x2c>)
10008892:	f7ff fe45 	bl	10008520 <alarm_pool_post_alloc_init>
10008896:	e7ed      	b.n	10008874 <runtime_init_default_alarm_pool+0x8>
10008898:	20000e28 	.word	0x20000e28
1000889c:	20005f14 	.word	0x20005f14

100088a0 <timer_hardware_alarm_claim>:
100088a0:	b510      	push	{r4, lr}
100088a2:	4a05      	ldr	r2, [pc, #20]	@ (100088b8 <timer_hardware_alarm_claim+0x18>)
100088a4:	4c05      	ldr	r4, [pc, #20]	@ (100088bc <timer_hardware_alarm_claim+0x1c>)
100088a6:	4b06      	ldr	r3, [pc, #24]	@ (100088c0 <timer_hardware_alarm_claim+0x20>)
100088a8:	42a0      	cmp	r0, r4
100088aa:	bf14      	ite	ne
100088ac:	4618      	movne	r0, r3
100088ae:	1c58      	addeq	r0, r3, #1
100088b0:	f7ff f872 	bl	10007998 <hw_claim_or_assert>
100088b4:	bd10      	pop	{r4, pc}
100088b6:	bf00      	nop
100088b8:	1000d308 	.word	0x1000d308
100088bc:	400b8000 	.word	0x400b8000
100088c0:	20001300 	.word	0x20001300

100088c4 <timer_time_us_64>:
100088c4:	4602      	mov	r2, r0
100088c6:	6a43      	ldr	r3, [r0, #36]	@ 0x24
100088c8:	6a90      	ldr	r0, [r2, #40]	@ 0x28
100088ca:	4619      	mov	r1, r3
100088cc:	6a53      	ldr	r3, [r2, #36]	@ 0x24
100088ce:	4299      	cmp	r1, r3
100088d0:	d1fa      	bne.n	100088c8 <timer_time_us_64+0x4>
100088d2:	4770      	bx	lr

100088d4 <timer_busy_wait_until>:
100088d4:	6a41      	ldr	r1, [r0, #36]	@ 0x24
100088d6:	e000      	b.n	100088da <timer_busy_wait_until+0x6>
100088d8:	6a41      	ldr	r1, [r0, #36]	@ 0x24
100088da:	4299      	cmp	r1, r3
100088dc:	d3fc      	bcc.n	100088d8 <timer_busy_wait_until+0x4>
100088de:	e000      	b.n	100088e2 <timer_busy_wait_until+0xe>
100088e0:	6a41      	ldr	r1, [r0, #36]	@ 0x24
100088e2:	4299      	cmp	r1, r3
100088e4:	d102      	bne.n	100088ec <timer_busy_wait_until+0x18>
100088e6:	6a81      	ldr	r1, [r0, #40]	@ 0x28
100088e8:	4291      	cmp	r1, r2
100088ea:	d3f9      	bcc.n	100088e0 <timer_busy_wait_until+0xc>
100088ec:	4770      	bx	lr

100088ee <timer_busy_wait_us>:
100088ee:	b570      	push	{r4, r5, r6, lr}
100088f0:	4606      	mov	r6, r0
100088f2:	4614      	mov	r4, r2
100088f4:	461d      	mov	r5, r3
100088f6:	f7ff ffe5 	bl	100088c4 <timer_time_us_64>
100088fa:	1902      	adds	r2, r0, r4
100088fc:	eb41 0305 	adc.w	r3, r1, r5
10008900:	4282      	cmp	r2, r0
10008902:	eb73 0101 	sbcs.w	r1, r3, r1
10008906:	d202      	bcs.n	1000890e <timer_busy_wait_us+0x20>
10008908:	f04f 32ff 	mov.w	r2, #4294967295
1000890c:	4613      	mov	r3, r2
1000890e:	4630      	mov	r0, r6
10008910:	f7ff ffe0 	bl	100088d4 <timer_busy_wait_until>
10008914:	bd70      	pop	{r4, r5, r6, pc}
	...

10008918 <time_us_64>:
10008918:	b508      	push	{r3, lr}
1000891a:	4802      	ldr	r0, [pc, #8]	@ (10008924 <time_us_64+0xc>)
1000891c:	f7ff ffd2 	bl	100088c4 <timer_time_us_64>
10008920:	bd08      	pop	{r3, pc}
10008922:	bf00      	nop
10008924:	400b0000 	.word	0x400b0000

10008928 <busy_wait_us>:
10008928:	b508      	push	{r3, lr}
1000892a:	4602      	mov	r2, r0
1000892c:	460b      	mov	r3, r1
1000892e:	4802      	ldr	r0, [pc, #8]	@ (10008938 <busy_wait_us+0x10>)
10008930:	f7ff ffdd 	bl	100088ee <timer_busy_wait_us>
10008934:	bd08      	pop	{r3, pc}
10008936:	bf00      	nop
10008938:	400b0000 	.word	0x400b0000

1000893c <uart_unreset>:
1000893c:	4b07      	ldr	r3, [pc, #28]	@ (1000895c <uart_unreset+0x20>)
1000893e:	4298      	cmp	r0, r3
10008940:	d00a      	beq.n	10008958 <uart_unreset+0x1c>
10008942:	231a      	movs	r3, #26
10008944:	2201      	movs	r2, #1
10008946:	409a      	lsls	r2, r3
10008948:	4b05      	ldr	r3, [pc, #20]	@ (10008960 <uart_unreset+0x24>)
1000894a:	601a      	str	r2, [r3, #0]
1000894c:	4b05      	ldr	r3, [pc, #20]	@ (10008964 <uart_unreset+0x28>)
1000894e:	689b      	ldr	r3, [r3, #8]
10008950:	ea32 0303 	bics.w	r3, r2, r3
10008954:	d1fa      	bne.n	1000894c <uart_unreset+0x10>
10008956:	4770      	bx	lr
10008958:	231b      	movs	r3, #27
1000895a:	e7f3      	b.n	10008944 <uart_unreset+0x8>
1000895c:	40078000 	.word	0x40078000
10008960:	40023000 	.word	0x40023000
10008964:	40020000 	.word	0x40020000

10008968 <uart_disable_before_lcr_write>:
10008968:	b538      	push	{r3, r4, r5, lr}
1000896a:	6b04      	ldr	r4, [r0, #48]	@ 0x30
1000896c:	f014 0f01 	tst.w	r4, #1
10008970:	d101      	bne.n	10008976 <uart_disable_before_lcr_write+0xe>
10008972:	4620      	mov	r0, r4
10008974:	bd38      	pop	{r3, r4, r5, pc}
10008976:	f500 5340 	add.w	r3, r0, #12288	@ 0x3000
1000897a:	f240 3201 	movw	r2, #769	@ 0x301
1000897e:	631a      	str	r2, [r3, #48]	@ 0x30
10008980:	6a43      	ldr	r3, [r0, #36]	@ 0x24
10008982:	6a85      	ldr	r5, [r0, #40]	@ 0x28
10008984:	eb05 1583 	add.w	r5, r5, r3, lsl #6
10008988:	02ad      	lsls	r5, r5, #10
1000898a:	2006      	movs	r0, #6
1000898c:	f000 f8ea 	bl	10008b64 <clock_get_hz>
10008990:	4b04      	ldr	r3, [pc, #16]	@ (100089a4 <uart_disable_before_lcr_write+0x3c>)
10008992:	fba3 3000 	umull	r3, r0, r3, r0
10008996:	0ac0      	lsrs	r0, r0, #11
10008998:	fbb5 f0f0 	udiv	r0, r5, r0
1000899c:	2100      	movs	r1, #0
1000899e:	f7ff ffc3 	bl	10008928 <busy_wait_us>
100089a2:	e7e6      	b.n	10008972 <uart_disable_before_lcr_write+0xa>
100089a4:	8f2b7b75 	.word	0x8f2b7b75

100089a8 <uart_write_lcr_bits_masked>:
100089a8:	b570      	push	{r4, r5, r6, lr}
100089aa:	4605      	mov	r5, r0
100089ac:	460c      	mov	r4, r1
100089ae:	4616      	mov	r6, r2
100089b0:	f7ff ffda 	bl	10008968 <uart_disable_before_lcr_write>
100089b4:	6aeb      	ldr	r3, [r5, #44]	@ 0x2c
100089b6:	405c      	eors	r4, r3
100089b8:	4034      	ands	r4, r6
100089ba:	f505 5381 	add.w	r3, r5, #4128	@ 0x1020
100089be:	60dc      	str	r4, [r3, #12]
100089c0:	6328      	str	r0, [r5, #48]	@ 0x30
100089c2:	bd70      	pop	{r4, r5, r6, pc}

100089c4 <uart_set_baudrate>:
100089c4:	b570      	push	{r4, r5, r6, lr}
100089c6:	4605      	mov	r5, r0
100089c8:	460c      	mov	r4, r1
100089ca:	2006      	movs	r0, #6
100089cc:	f000 f8ca 	bl	10008b64 <clock_get_hz>
100089d0:	00c3      	lsls	r3, r0, #3
100089d2:	fbb3 f3f4 	udiv	r3, r3, r4
100089d6:	3301      	adds	r3, #1
100089d8:	09dc      	lsrs	r4, r3, #7
100089da:	d007      	beq.n	100089ec <uart_set_baudrate+0x28>
100089dc:	f64f 72fe 	movw	r2, #65534	@ 0xfffe
100089e0:	4294      	cmp	r4, r2
100089e2:	d814      	bhi.n	10008a0e <uart_set_baudrate+0x4a>
100089e4:	4626      	mov	r6, r4
100089e6:	f3c3 0445 	ubfx	r4, r3, #1, #6
100089ea:	e000      	b.n	100089ee <uart_set_baudrate+0x2a>
100089ec:	2601      	movs	r6, #1
100089ee:	626e      	str	r6, [r5, #36]	@ 0x24
100089f0:	62ac      	str	r4, [r5, #40]	@ 0x28
100089f2:	2200      	movs	r2, #0
100089f4:	4611      	mov	r1, r2
100089f6:	4628      	mov	r0, r5
100089f8:	f7ff ffd6 	bl	100089a8 <uart_write_lcr_bits_masked>
100089fc:	2006      	movs	r0, #6
100089fe:	f000 f8b1 	bl	10008b64 <clock_get_hz>
10008a02:	0080      	lsls	r0, r0, #2
10008a04:	eb04 1486 	add.w	r4, r4, r6, lsl #6
10008a08:	fbb0 f0f4 	udiv	r0, r0, r4
10008a0c:	bd70      	pop	{r4, r5, r6, pc}
10008a0e:	2400      	movs	r4, #0
10008a10:	f64f 76ff 	movw	r6, #65535	@ 0xffff
10008a14:	e7eb      	b.n	100089ee <uart_set_baudrate+0x2a>
	...

10008a18 <uart_set_translate_crlf>:
10008a18:	b149      	cbz	r1, 10008a2e <uart_set_translate_crlf+0x16>
10008a1a:	220a      	movs	r2, #10
10008a1c:	4b05      	ldr	r3, [pc, #20]	@ (10008a34 <uart_set_translate_crlf+0x1c>)
10008a1e:	4298      	cmp	r0, r3
10008a20:	bf14      	ite	ne
10008a22:	2000      	movne	r0, #0
10008a24:	2001      	moveq	r0, #1
10008a26:	4b04      	ldr	r3, [pc, #16]	@ (10008a38 <uart_set_translate_crlf+0x20>)
10008a28:	f823 2010 	strh.w	r2, [r3, r0, lsl #1]
10008a2c:	4770      	bx	lr
10008a2e:	f44f 7280 	mov.w	r2, #256	@ 0x100
10008a32:	e7f3      	b.n	10008a1c <uart_set_translate_crlf+0x4>
10008a34:	40078000 	.word	0x40078000
10008a38:	20005f3c 	.word	0x20005f3c

10008a3c <uart_init>:
10008a3c:	b538      	push	{r3, r4, r5, lr}
10008a3e:	4604      	mov	r4, r0
10008a40:	460d      	mov	r5, r1
10008a42:	2006      	movs	r0, #6
10008a44:	f000 f88e 	bl	10008b64 <clock_get_hz>
10008a48:	b1f8      	cbz	r0, 10008a8a <uart_init+0x4e>
10008a4a:	4b11      	ldr	r3, [pc, #68]	@ (10008a90 <uart_init+0x54>)
10008a4c:	429c      	cmp	r4, r3
10008a4e:	d01d      	beq.n	10008a8c <uart_init+0x50>
10008a50:	221a      	movs	r2, #26
10008a52:	2301      	movs	r3, #1
10008a54:	4093      	lsls	r3, r2
10008a56:	4a0f      	ldr	r2, [pc, #60]	@ (10008a94 <uart_init+0x58>)
10008a58:	6013      	str	r3, [r2, #0]
10008a5a:	4620      	mov	r0, r4
10008a5c:	f7ff ff6e 	bl	1000893c <uart_unreset>
10008a60:	2100      	movs	r1, #0
10008a62:	4620      	mov	r0, r4
10008a64:	f7ff ffd8 	bl	10008a18 <uart_set_translate_crlf>
10008a68:	4629      	mov	r1, r5
10008a6a:	4620      	mov	r0, r4
10008a6c:	f7ff ffaa 	bl	100089c4 <uart_set_baudrate>
10008a70:	6ae3      	ldr	r3, [r4, #44]	@ 0x2c
10008a72:	f083 0370 	eor.w	r3, r3, #112	@ 0x70
10008a76:	f003 037e 	and.w	r3, r3, #126	@ 0x7e
10008a7a:	f504 5281 	add.w	r2, r4, #4128	@ 0x1020
10008a7e:	60d3      	str	r3, [r2, #12]
10008a80:	f240 3301 	movw	r3, #769	@ 0x301
10008a84:	6323      	str	r3, [r4, #48]	@ 0x30
10008a86:	2303      	movs	r3, #3
10008a88:	64a3      	str	r3, [r4, #72]	@ 0x48
10008a8a:	bd38      	pop	{r3, r4, r5, pc}
10008a8c:	221b      	movs	r2, #27
10008a8e:	e7e0      	b.n	10008a52 <uart_init+0x16>
10008a90:	40078000 	.word	0x40078000
10008a94:	40022000 	.word	0x40022000

10008a98 <clock_configure_internal>:
10008a98:	b570      	push	{r4, r5, r6, lr}
10008a9a:	4616      	mov	r6, r2
10008a9c:	9d04      	ldr	r5, [sp, #16]
10008a9e:	eb00 0c40 	add.w	ip, r0, r0, lsl #1
10008aa2:	ea4f 0c8c 	mov.w	ip, ip, lsl #2
10008aa6:	f10c 4c80 	add.w	ip, ip, #1073741824	@ 0x40000000
10008aaa:	f50c 3c80 	add.w	ip, ip, #65536	@ 0x10000
10008aae:	f8dc 2004 	ldr.w	r2, [ip, #4]
10008ab2:	42aa      	cmp	r2, r5
10008ab4:	d201      	bcs.n	10008aba <clock_configure_internal+0x22>
10008ab6:	f8cc 5004 	str.w	r5, [ip, #4]
10008aba:	f1a0 0e04 	sub.w	lr, r0, #4
10008abe:	fa5f fe8e 	uxtb.w	lr, lr
10008ac2:	f1be 0f01 	cmp.w	lr, #1
10008ac6:	d928      	bls.n	10008b1a <clock_configure_internal+0x82>
10008ac8:	f50c 5240 	add.w	r2, ip, #12288	@ 0x3000
10008acc:	f44f 6400 	mov.w	r4, #2048	@ 0x800
10008ad0:	6014      	str	r4, [r2, #0]
10008ad2:	4a1e      	ldr	r2, [pc, #120]	@ (10008b4c <clock_configure_internal+0xb4>)
10008ad4:	f852 2020 	ldr.w	r2, [r2, r0, lsl #2]
10008ad8:	b142      	cbz	r2, 10008aec <clock_configure_internal+0x54>
10008ada:	4c1c      	ldr	r4, [pc, #112]	@ (10008b4c <clock_configure_internal+0xb4>)
10008adc:	6964      	ldr	r4, [r4, #20]
10008ade:	fbb4 f4f2 	udiv	r4, r4, r2
10008ae2:	3401      	adds	r4, #1
10008ae4:	eb04 0444 	add.w	r4, r4, r4, lsl #1
10008ae8:	3c03      	subs	r4, #3
10008aea:	d2fd      	bcs.n	10008ae8 <clock_configure_internal+0x50>
10008aec:	f8dc 2000 	ldr.w	r2, [ip]
10008af0:	ea82 1246 	eor.w	r2, r2, r6, lsl #5
10008af4:	f002 02e0 	and.w	r2, r2, #224	@ 0xe0
10008af8:	f50c 5480 	add.w	r4, ip, #4096	@ 0x1000
10008afc:	6022      	str	r2, [r4, #0]
10008afe:	f1be 0f01 	cmp.w	lr, #1
10008b02:	d916      	bls.n	10008b32 <clock_configure_internal+0x9a>
10008b04:	f50c 5200 	add.w	r2, ip, #8192	@ 0x2000
10008b08:	f44f 6100 	mov.w	r1, #2048	@ 0x800
10008b0c:	6011      	str	r1, [r2, #0]
10008b0e:	f8cc 5004 	str.w	r5, [ip, #4]
10008b12:	4a0e      	ldr	r2, [pc, #56]	@ (10008b4c <clock_configure_internal+0xb4>)
10008b14:	f842 3020 	str.w	r3, [r2, r0, lsl #2]
10008b18:	bd70      	pop	{r4, r5, r6, pc}
10008b1a:	2901      	cmp	r1, #1
10008b1c:	d1d4      	bne.n	10008ac8 <clock_configure_internal+0x30>
10008b1e:	f50c 5240 	add.w	r2, ip, #12288	@ 0x3000
10008b22:	2403      	movs	r4, #3
10008b24:	6014      	str	r4, [r2, #0]
10008b26:	f8dc 2008 	ldr.w	r2, [ip, #8]
10008b2a:	f012 0f01 	tst.w	r2, #1
10008b2e:	d0fa      	beq.n	10008b26 <clock_configure_internal+0x8e>
10008b30:	e7dc      	b.n	10008aec <clock_configure_internal+0x54>
10008b32:	f8dc 2000 	ldr.w	r2, [ip]
10008b36:	404a      	eors	r2, r1
10008b38:	f002 0203 	and.w	r2, r2, #3
10008b3c:	6022      	str	r2, [r4, #0]
10008b3e:	f8dc 4008 	ldr.w	r4, [ip, #8]
10008b42:	2201      	movs	r2, #1
10008b44:	408a      	lsls	r2, r1
10008b46:	4214      	tst	r4, r2
10008b48:	d0f9      	beq.n	10008b3e <clock_configure_internal+0xa6>
10008b4a:	e7db      	b.n	10008b04 <clock_configure_internal+0x6c>
10008b4c:	20001308 	.word	0x20001308

10008b50 <clock_configure_undivided>:
10008b50:	b510      	push	{r4, lr}
10008b52:	b082      	sub	sp, #8
10008b54:	f44f 3480 	mov.w	r4, #65536	@ 0x10000
10008b58:	9400      	str	r4, [sp, #0]
10008b5a:	f7ff ff9d 	bl	10008a98 <clock_configure_internal>
10008b5e:	b002      	add	sp, #8
10008b60:	bd10      	pop	{r4, pc}
	...

10008b64 <clock_get_hz>:
10008b64:	4b01      	ldr	r3, [pc, #4]	@ (10008b6c <clock_get_hz+0x8>)
10008b66:	f853 0020 	ldr.w	r0, [r3, r0, lsl #2]
10008b6a:	4770      	bx	lr
10008b6c:	20001308 	.word	0x20001308

10008b70 <pll_init>:
10008b70:	b570      	push	{r4, r5, r6, lr}
10008b72:	9c04      	ldr	r4, [sp, #16]
10008b74:	4d34      	ldr	r5, [pc, #208]	@ (10008c48 <pll_init+0xd8>)
10008b76:	fbb5 fcf1 	udiv	ip, r5, r1
10008b7a:	4d34      	ldr	r5, [pc, #208]	@ (10008c4c <pll_init+0xdc>)
10008b7c:	4415      	add	r5, r2
10008b7e:	4e34      	ldr	r6, [pc, #208]	@ (10008c50 <pll_init+0xe0>)
10008b80:	42b5      	cmp	r5, r6
10008b82:	d837      	bhi.n	10008bf4 <pll_init+0x84>
10008b84:	fbb2 f5fc 	udiv	r5, r2, ip
10008b88:	f1a5 0e10 	sub.w	lr, r5, #16
10008b8c:	f5be 7f98 	cmp.w	lr, #304	@ 0x130
10008b90:	d836      	bhi.n	10008c00 <pll_init+0x90>
10008b92:	f103 3eff 	add.w	lr, r3, #4294967295
10008b96:	f1be 0f06 	cmp.w	lr, #6
10008b9a:	d837      	bhi.n	10008c0c <pll_init+0x9c>
10008b9c:	f104 3eff 	add.w	lr, r4, #4294967295
10008ba0:	f1be 0f06 	cmp.w	lr, #6
10008ba4:	d832      	bhi.n	10008c0c <pll_init+0x9c>
10008ba6:	ebbc 1f12 	cmp.w	ip, r2, lsr #4
10008baa:	d835      	bhi.n	10008c18 <pll_init+0xa8>
10008bac:	0324      	lsls	r4, r4, #12
10008bae:	ea44 4403 	orr.w	r4, r4, r3, lsl #16
10008bb2:	6803      	ldr	r3, [r0, #0]
10008bb4:	2b00      	cmp	r3, #0
10008bb6:	db35      	blt.n	10008c24 <pll_init+0xb4>
10008bb8:	4b26      	ldr	r3, [pc, #152]	@ (10008c54 <pll_init+0xe4>)
10008bba:	4298      	cmp	r0, r3
10008bbc:	d042      	beq.n	10008c44 <pll_init+0xd4>
10008bbe:	230e      	movs	r3, #14
10008bc0:	2201      	movs	r2, #1
10008bc2:	409a      	lsls	r2, r3
10008bc4:	4b24      	ldr	r3, [pc, #144]	@ (10008c58 <pll_init+0xe8>)
10008bc6:	601a      	str	r2, [r3, #0]
10008bc8:	f503 5380 	add.w	r3, r3, #4096	@ 0x1000
10008bcc:	601a      	str	r2, [r3, #0]
10008bce:	4b23      	ldr	r3, [pc, #140]	@ (10008c5c <pll_init+0xec>)
10008bd0:	689b      	ldr	r3, [r3, #8]
10008bd2:	ea32 0303 	bics.w	r3, r2, r3
10008bd6:	d1fa      	bne.n	10008bce <pll_init+0x5e>
10008bd8:	6001      	str	r1, [r0, #0]
10008bda:	6085      	str	r5, [r0, #8]
10008bdc:	f500 5240 	add.w	r2, r0, #12288	@ 0x3000
10008be0:	3204      	adds	r2, #4
10008be2:	2321      	movs	r3, #33	@ 0x21
10008be4:	6013      	str	r3, [r2, #0]
10008be6:	6803      	ldr	r3, [r0, #0]
10008be8:	2b00      	cmp	r3, #0
10008bea:	dafc      	bge.n	10008be6 <pll_init+0x76>
10008bec:	60c4      	str	r4, [r0, #12]
10008bee:	2308      	movs	r3, #8
10008bf0:	6013      	str	r3, [r2, #0]
10008bf2:	bd70      	pop	{r4, r5, r6, pc}
10008bf4:	4b1a      	ldr	r3, [pc, #104]	@ (10008c60 <pll_init+0xf0>)
10008bf6:	4a1b      	ldr	r2, [pc, #108]	@ (10008c64 <pll_init+0xf4>)
10008bf8:	2111      	movs	r1, #17
10008bfa:	481b      	ldr	r0, [pc, #108]	@ (10008c68 <pll_init+0xf8>)
10008bfc:	f001 fbe4 	bl	1000a3c8 <__assert_func>
10008c00:	4b1a      	ldr	r3, [pc, #104]	@ (10008c6c <pll_init+0xfc>)
10008c02:	4a18      	ldr	r2, [pc, #96]	@ (10008c64 <pll_init+0xf4>)
10008c04:	2119      	movs	r1, #25
10008c06:	4818      	ldr	r0, [pc, #96]	@ (10008c68 <pll_init+0xf8>)
10008c08:	f001 fbde 	bl	1000a3c8 <__assert_func>
10008c0c:	4b18      	ldr	r3, [pc, #96]	@ (10008c70 <pll_init+0x100>)
10008c0e:	4a15      	ldr	r2, [pc, #84]	@ (10008c64 <pll_init+0xf4>)
10008c10:	211c      	movs	r1, #28
10008c12:	4815      	ldr	r0, [pc, #84]	@ (10008c68 <pll_init+0xf8>)
10008c14:	f001 fbd8 	bl	1000a3c8 <__assert_func>
10008c18:	4b16      	ldr	r3, [pc, #88]	@ (10008c74 <pll_init+0x104>)
10008c1a:	4a12      	ldr	r2, [pc, #72]	@ (10008c64 <pll_init+0xf4>)
10008c1c:	2123      	movs	r1, #35	@ 0x23
10008c1e:	4812      	ldr	r0, [pc, #72]	@ (10008c68 <pll_init+0xf8>)
10008c20:	f001 fbd2 	bl	1000a3c8 <__assert_func>
10008c24:	6803      	ldr	r3, [r0, #0]
10008c26:	f003 033f 	and.w	r3, r3, #63	@ 0x3f
10008c2a:	428b      	cmp	r3, r1
10008c2c:	d1c4      	bne.n	10008bb8 <pll_init+0x48>
10008c2e:	6883      	ldr	r3, [r0, #8]
10008c30:	f3c3 030b 	ubfx	r3, r3, #0, #12
10008c34:	42ab      	cmp	r3, r5
10008c36:	d1bf      	bne.n	10008bb8 <pll_init+0x48>
10008c38:	68c3      	ldr	r3, [r0, #12]
10008c3a:	f403 23ee 	and.w	r3, r3, #487424	@ 0x77000
10008c3e:	42a3      	cmp	r3, r4
10008c40:	d1ba      	bne.n	10008bb8 <pll_init+0x48>
10008c42:	e7d6      	b.n	10008bf2 <pll_init+0x82>
10008c44:	230f      	movs	r3, #15
10008c46:	e7bb      	b.n	10008bc0 <pll_init+0x50>
10008c48:	00b71b00 	.word	0x00b71b00
10008c4c:	d34be880 	.word	0xd34be880
10008c50:	32a9f880 	.word	0x32a9f880
10008c54:	40058000 	.word	0x40058000
10008c58:	40022000 	.word	0x40022000
10008c5c:	40020000 	.word	0x40020000
10008c60:	1000d32c 	.word	0x1000d32c
10008c64:	1000ee6c 	.word	0x1000ee6c
10008c68:	1000d37c 	.word	0x1000d37c
10008c6c:	1000d3c4 	.word	0x1000d3c4
10008c70:	1000d3e0 	.word	0x1000d3e0
10008c74:	1000d42c 	.word	0x1000d42c

10008c78 <tick_start>:
10008c78:	4a05      	ldr	r2, [pc, #20]	@ (10008c90 <tick_start+0x18>)
10008c7a:	eb00 0340 	add.w	r3, r0, r0, lsl #1
10008c7e:	eb02 0383 	add.w	r3, r2, r3, lsl #2
10008c82:	6059      	str	r1, [r3, #4]
10008c84:	eb00 0040 	add.w	r0, r0, r0, lsl #1
10008c88:	0080      	lsls	r0, r0, #2
10008c8a:	2301      	movs	r3, #1
10008c8c:	5013      	str	r3, [r2, r0]
10008c8e:	4770      	bx	lr
10008c90:	40108000 	.word	0x40108000

10008c94 <rom_func_lookup>:
10008c94:	b508      	push	{r3, lr}
10008c96:	2300      	movs	r3, #0
10008c98:	8adb      	ldrh	r3, [r3, #22]
10008c9a:	2200      	movs	r2, #0
10008c9c:	e842 f200 	tt	r2, r2
10008ca0:	f412 0f80 	tst.w	r2, #4194304	@ 0x400000
10008ca4:	d102      	bne.n	10008cac <rom_func_lookup+0x18>
10008ca6:	2110      	movs	r1, #16
10008ca8:	4798      	blx	r3
10008caa:	bd08      	pop	{r3, pc}
10008cac:	2104      	movs	r1, #4
10008cae:	4798      	blx	r3
10008cb0:	e7fb      	b.n	10008caa <rom_func_lookup+0x16>
	...

10008cb4 <runtime_init_bootrom_locking_enable>:
10008cb4:	4b03      	ldr	r3, [pc, #12]	@ (10008cc4 <runtime_init_bootrom_locking_enable+0x10>)
10008cb6:	f8d3 3828 	ldr.w	r3, [r3, #2088]	@ 0x828
10008cba:	2b00      	cmp	r3, #0
10008cbc:	d0fa      	beq.n	10008cb4 <runtime_init_bootrom_locking_enable>
10008cbe:	f3bf 8f5f 	dmb	sy
10008cc2:	4770      	bx	lr
10008cc4:	400e0000 	.word	0x400e0000

10008cc8 <boot_locks_reset>:
10008cc8:	2200      	movs	r2, #0
10008cca:	e007      	b.n	10008cdc <boot_locks_reset+0x14>
10008ccc:	4b05      	ldr	r3, [pc, #20]	@ (10008ce4 <boot_locks_reset+0x1c>)
10008cce:	4413      	add	r3, r2
10008cd0:	009b      	lsls	r3, r3, #2
10008cd2:	f3bf 8f5f 	dmb	sy
10008cd6:	2100      	movs	r1, #0
10008cd8:	6019      	str	r1, [r3, #0]
10008cda:	3201      	adds	r2, #1
10008cdc:	2a07      	cmp	r2, #7
10008cde:	d9f5      	bls.n	10008ccc <boot_locks_reset+0x4>
10008ce0:	4770      	bx	lr
10008ce2:	bf00      	nop
10008ce4:	10038203 	.word	0x10038203

10008ce8 <runtime_init_boot_locks_reset>:
10008ce8:	b508      	push	{r3, lr}
10008cea:	f7ff ffed 	bl	10008cc8 <boot_locks_reset>
10008cee:	bd08      	pop	{r3, pc}

10008cf0 <xosc_init>:
10008cf0:	4b07      	ldr	r3, [pc, #28]	@ (10008d10 <xosc_init+0x20>)
10008cf2:	f44f 622a 	mov.w	r2, #2720	@ 0xaa0
10008cf6:	601a      	str	r2, [r3, #0]
10008cf8:	222f      	movs	r2, #47	@ 0x2f
10008cfa:	60da      	str	r2, [r3, #12]
10008cfc:	f503 5300 	add.w	r3, r3, #8192	@ 0x2000
10008d00:	4a04      	ldr	r2, [pc, #16]	@ (10008d14 <xosc_init+0x24>)
10008d02:	601a      	str	r2, [r3, #0]
10008d04:	4b02      	ldr	r3, [pc, #8]	@ (10008d10 <xosc_init+0x20>)
10008d06:	685b      	ldr	r3, [r3, #4]
10008d08:	2b00      	cmp	r3, #0
10008d0a:	dafb      	bge.n	10008d04 <xosc_init+0x14>
10008d0c:	4770      	bx	lr
10008d0e:	bf00      	nop
10008d10:	40048000 	.word	0x40048000
10008d14:	00fab000 	.word	0x00fab000

10008d18 <runtime_run_initializers_from>:
10008d18:	b510      	push	{r4, lr}
10008d1a:	4604      	mov	r4, r0
10008d1c:	e002      	b.n	10008d24 <runtime_run_initializers_from+0xc>
10008d1e:	f854 3b04 	ldr.w	r3, [r4], #4
10008d22:	4798      	blx	r3
10008d24:	4b01      	ldr	r3, [pc, #4]	@ (10008d2c <runtime_run_initializers_from+0x14>)
10008d26:	429c      	cmp	r4, r3
10008d28:	d3f9      	bcc.n	10008d1e <runtime_run_initializers_from+0x6>
10008d2a:	bd10      	pop	{r4, pc}
10008d2c:	1000ce88 	.word	0x1000ce88

10008d30 <first_per_core_initializer>:
10008d30:	4770      	bx	lr
	...

10008d34 <runtime_run_initializers>:
10008d34:	b508      	push	{r3, lr}
10008d36:	4802      	ldr	r0, [pc, #8]	@ (10008d40 <runtime_run_initializers+0xc>)
10008d38:	f7ff ffee 	bl	10008d18 <runtime_run_initializers_from>
10008d3c:	bd08      	pop	{r3, pc}
10008d3e:	bf00      	nop
10008d40:	1000ce48 	.word	0x1000ce48

10008d44 <runtime_init_early_resets>:
10008d44:	4b06      	ldr	r3, [pc, #24]	@ (10008d60 <runtime_init_early_resets+0x1c>)
10008d46:	4a07      	ldr	r2, [pc, #28]	@ (10008d64 <runtime_init_early_resets+0x20>)
10008d48:	601a      	str	r2, [r3, #0]
10008d4a:	f503 5380 	add.w	r3, r3, #4096	@ 0x1000
10008d4e:	4a06      	ldr	r2, [pc, #24]	@ (10008d68 <runtime_init_early_resets+0x24>)
10008d50:	601a      	str	r2, [r3, #0]
10008d52:	4b06      	ldr	r3, [pc, #24]	@ (10008d6c <runtime_init_early_resets+0x28>)
10008d54:	689a      	ldr	r2, [r3, #8]
10008d56:	4b04      	ldr	r3, [pc, #16]	@ (10008d68 <runtime_init_early_resets+0x24>)
10008d58:	4393      	bics	r3, r2
10008d5a:	d1fa      	bne.n	10008d52 <runtime_init_early_resets+0xe>
10008d5c:	4770      	bx	lr
10008d5e:	bf00      	nop
10008d60:	40022000 	.word	0x40022000
10008d64:	efef3b7f 	.word	0xefef3b7f
10008d68:	03f3fff6 	.word	0x03f3fff6
10008d6c:	40020000 	.word	0x40020000

10008d70 <runtime_init_usb_power_down>:
10008d70:	4b05      	ldr	r3, [pc, #20]	@ (10008d88 <runtime_init_usb_power_down+0x18>)
10008d72:	6cdb      	ldr	r3, [r3, #76]	@ 0x4c
10008d74:	f5b3 4f00 	cmp.w	r3, #32768	@ 0x8000
10008d78:	d000      	beq.n	10008d7c <runtime_init_usb_power_down+0xc>
10008d7a:	4770      	bx	lr
10008d7c:	4b03      	ldr	r3, [pc, #12]	@ (10008d8c <runtime_init_usb_power_down+0x1c>)
10008d7e:	f44f 2280 	mov.w	r2, #262144	@ 0x40000
10008d82:	64da      	str	r2, [r3, #76]	@ 0x4c
10008d84:	e7f9      	b.n	10008d7a <runtime_init_usb_power_down+0xa>
10008d86:	bf00      	nop
10008d88:	50110000 	.word	0x50110000
10008d8c:	50112000 	.word	0x50112000

10008d90 <runtime_init_per_core_enable_coprocessors>:
10008d90:	f04f 22e0 	mov.w	r2, #3758153728	@ 0xe000e000
10008d94:	f8d2 1d88 	ldr.w	r1, [r2, #3464]	@ 0xd88
10008d98:	4b03      	ldr	r3, [pc, #12]	@ (10008da8 <runtime_init_per_core_enable_coprocessors+0x18>)
10008d9a:	430b      	orrs	r3, r1
10008d9c:	f8c2 3d88 	str.w	r3, [r2, #3464]	@ 0xd88
10008da0:	ee10 0430 	dcp_rcmp r0
10008da4:	4770      	bx	lr
10008da6:	bf00      	nop
10008da8:	00300303 	.word	0x00300303

10008dac <runtime_init_post_clock_resets>:
10008dac:	4b05      	ldr	r3, [pc, #20]	@ (10008dc4 <runtime_init_post_clock_resets+0x18>)
10008dae:	f06f 4260 	mvn.w	r2, #3758096384	@ 0xe0000000
10008db2:	601a      	str	r2, [r3, #0]
10008db4:	4b04      	ldr	r3, [pc, #16]	@ (10008dc8 <runtime_init_post_clock_resets+0x1c>)
10008db6:	689b      	ldr	r3, [r3, #8]
10008db8:	43db      	mvns	r3, r3
10008dba:	f033 4360 	bics.w	r3, r3, #3758096384	@ 0xe0000000
10008dbe:	d1f9      	bne.n	10008db4 <runtime_init_post_clock_resets+0x8>
10008dc0:	4770      	bx	lr
10008dc2:	bf00      	nop
10008dc4:	40023000 	.word	0x40023000
10008dc8:	40020000 	.word	0x40020000

10008dcc <runtime_init_bootrom_reset>:
10008dcc:	b508      	push	{r3, lr}
10008dce:	f245 2053 	movw	r0, #21075	@ 0x5253
10008dd2:	f7ff ff5f 	bl	10008c94 <rom_func_lookup>
10008dd6:	4603      	mov	r3, r0
10008dd8:	2004      	movs	r0, #4
10008dda:	4798      	blx	r3
10008ddc:	bd08      	pop	{r3, pc}

10008dde <runtime_init_per_core_bootrom_reset>:
10008dde:	b508      	push	{r3, lr}
10008de0:	f245 2053 	movw	r0, #21075	@ 0x5253
10008de4:	f7ff ff56 	bl	10008c94 <rom_func_lookup>
10008de8:	4603      	mov	r3, r0
10008dea:	2001      	movs	r0, #1
10008dec:	4798      	blx	r3
10008dee:	bd08      	pop	{r3, pc}

10008df0 <runtime_init_spin_locks_reset>:
10008df0:	b508      	push	{r3, lr}
10008df2:	f7fe fe39 	bl	10007a68 <spin_locks_reset>
10008df6:	bd08      	pop	{r3, pc}

10008df8 <runtime_init_install_ram_vector_table>:
10008df8:	b538      	push	{r3, r4, r5, lr}
10008dfa:	4c05      	ldr	r4, [pc, #20]	@ (10008e10 <runtime_init_install_ram_vector_table+0x18>)
10008dfc:	68a1      	ldr	r1, [r4, #8]
10008dfe:	4d05      	ldr	r5, [pc, #20]	@ (10008e14 <runtime_init_install_ram_vector_table+0x1c>)
10008e00:	f44f 7288 	mov.w	r2, #272	@ 0x110
10008e04:	4628      	mov	r0, r5
10008e06:	f003 ff4f 	bl	1000cca8 <memcpy>
10008e0a:	60a5      	str	r5, [r4, #8]
10008e0c:	bd38      	pop	{r3, r4, r5, pc}
10008e0e:	bf00      	nop
10008e10:	e000ed00 	.word	0xe000ed00
10008e14:	20000000 	.word	0x20000000

10008e18 <start_all_ticks>:
10008e18:	b538      	push	{r3, r4, r5, lr}
10008e1a:	2004      	movs	r0, #4
10008e1c:	f7ff fea2 	bl	10008b64 <clock_get_hz>
10008e20:	4b06      	ldr	r3, [pc, #24]	@ (10008e3c <start_all_ticks+0x24>)
10008e22:	fba3 3500 	umull	r3, r5, r3, r0
10008e26:	0cad      	lsrs	r5, r5, #18
10008e28:	2400      	movs	r4, #0
10008e2a:	e004      	b.n	10008e36 <start_all_ticks+0x1e>
10008e2c:	4629      	mov	r1, r5
10008e2e:	b2e0      	uxtb	r0, r4
10008e30:	f7ff ff22 	bl	10008c78 <tick_start>
10008e34:	3401      	adds	r4, #1
10008e36:	2c05      	cmp	r4, #5
10008e38:	ddf8      	ble.n	10008e2c <start_all_ticks+0x14>
10008e3a:	bd38      	pop	{r3, r4, r5, pc}
10008e3c:	431bde83 	.word	0x431bde83

10008e40 <runtime_init_clocks>:
10008e40:	b530      	push	{r4, r5, lr}
10008e42:	b083      	sub	sp, #12
10008e44:	4b26      	ldr	r3, [pc, #152]	@ (10008ee0 <runtime_init_clocks+0xa0>)
10008e46:	2200      	movs	r2, #0
10008e48:	f8c3 2084 	str.w	r2, [r3, #132]	@ 0x84
10008e4c:	f7ff ff50 	bl	10008cf0 <xosc_init>
10008e50:	4b24      	ldr	r3, [pc, #144]	@ (10008ee4 <runtime_init_clocks+0xa4>)
10008e52:	2201      	movs	r2, #1
10008e54:	63da      	str	r2, [r3, #60]	@ 0x3c
10008e56:	4b22      	ldr	r3, [pc, #136]	@ (10008ee0 <runtime_init_clocks+0xa0>)
10008e58:	6c5b      	ldr	r3, [r3, #68]	@ 0x44
10008e5a:	2b01      	cmp	r3, #1
10008e5c:	d1fb      	bne.n	10008e56 <runtime_init_clocks+0x16>
10008e5e:	4b21      	ldr	r3, [pc, #132]	@ (10008ee4 <runtime_init_clocks+0xa4>)
10008e60:	2203      	movs	r2, #3
10008e62:	631a      	str	r2, [r3, #48]	@ 0x30
10008e64:	4b1e      	ldr	r3, [pc, #120]	@ (10008ee0 <runtime_init_clocks+0xa0>)
10008e66:	6b9b      	ldr	r3, [r3, #56]	@ 0x38
10008e68:	2b01      	cmp	r3, #1
10008e6a:	d1fb      	bne.n	10008e64 <runtime_init_clocks+0x24>
10008e6c:	2402      	movs	r4, #2
10008e6e:	9400      	str	r4, [sp, #0]
10008e70:	2305      	movs	r3, #5
10008e72:	4a1d      	ldr	r2, [pc, #116]	@ (10008ee8 <runtime_init_clocks+0xa8>)
10008e74:	2101      	movs	r1, #1
10008e76:	481d      	ldr	r0, [pc, #116]	@ (10008eec <runtime_init_clocks+0xac>)
10008e78:	f7ff fe7a 	bl	10008b70 <pll_init>
10008e7c:	2505      	movs	r5, #5
10008e7e:	9500      	str	r5, [sp, #0]
10008e80:	462b      	mov	r3, r5
10008e82:	4a1b      	ldr	r2, [pc, #108]	@ (10008ef0 <runtime_init_clocks+0xb0>)
10008e84:	2101      	movs	r1, #1
10008e86:	481b      	ldr	r0, [pc, #108]	@ (10008ef4 <runtime_init_clocks+0xb4>)
10008e88:	f7ff fe72 	bl	10008b70 <pll_init>
10008e8c:	4b1a      	ldr	r3, [pc, #104]	@ (10008ef8 <runtime_init_clocks+0xb8>)
10008e8e:	2200      	movs	r2, #0
10008e90:	4621      	mov	r1, r4
10008e92:	2004      	movs	r0, #4
10008e94:	f7ff fe5c 	bl	10008b50 <clock_configure_undivided>
10008e98:	4c18      	ldr	r4, [pc, #96]	@ (10008efc <runtime_init_clocks+0xbc>)
10008e9a:	4623      	mov	r3, r4
10008e9c:	2200      	movs	r2, #0
10008e9e:	2101      	movs	r1, #1
10008ea0:	4628      	mov	r0, r5
10008ea2:	f7ff fe55 	bl	10008b50 <clock_configure_undivided>
10008ea6:	4d16      	ldr	r5, [pc, #88]	@ (10008f00 <runtime_init_clocks+0xc0>)
10008ea8:	462b      	mov	r3, r5
10008eaa:	2200      	movs	r2, #0
10008eac:	4611      	mov	r1, r2
10008eae:	2008      	movs	r0, #8
10008eb0:	f7ff fe4e 	bl	10008b50 <clock_configure_undivided>
10008eb4:	462b      	mov	r3, r5
10008eb6:	2200      	movs	r2, #0
10008eb8:	4611      	mov	r1, r2
10008eba:	2009      	movs	r0, #9
10008ebc:	f7ff fe48 	bl	10008b50 <clock_configure_undivided>
10008ec0:	4623      	mov	r3, r4
10008ec2:	2200      	movs	r2, #0
10008ec4:	4611      	mov	r1, r2
10008ec6:	2006      	movs	r0, #6
10008ec8:	f7ff fe42 	bl	10008b50 <clock_configure_undivided>
10008ecc:	4623      	mov	r3, r4
10008ece:	2200      	movs	r2, #0
10008ed0:	4611      	mov	r1, r2
10008ed2:	2007      	movs	r0, #7
10008ed4:	f7ff fe3c 	bl	10008b50 <clock_configure_undivided>
10008ed8:	f7ff ff9e 	bl	10008e18 <start_all_ticks>
10008edc:	b003      	add	sp, #12
10008ede:	bd30      	pop	{r4, r5, pc}
10008ee0:	40010000 	.word	0x40010000
10008ee4:	40013000 	.word	0x40013000
10008ee8:	59682f00 	.word	0x59682f00
10008eec:	40050000 	.word	0x40050000
10008ef0:	47868c00 	.word	0x47868c00
10008ef4:	40058000 	.word	0x40058000
10008ef8:	00b71b00 	.word	0x00b71b00
10008efc:	08f0d180 	.word	0x08f0d180
10008f00:	02dc6c00 	.word	0x02dc6c00

10008f04 <generic_save_state>:
10008f04:	b086      	sub	sp, #24
10008f06:	b403      	push	{r0, r1}
10008f08:	fc51 0408 	dcp_pxmd r0, r1
10008f0c:	e9cd 0102 	strd	r0, r1, [sp, #8]
10008f10:	fc51 0409 	dcp_pymd r0, r1
10008f14:	e9cd 0104 	strd	r0, r1, [sp, #16]
10008f18:	ec51 040a 	dcp_refd r0, r1
10008f1c:	e9cd 0106 	strd	r0, r1, [sp, #24]
10008f20:	bc03      	pop	{r0, r1}
10008f22:	47f0      	blx	lr

10008f24 <generic_restore_state>:
10008f24:	e8bd 5000 	ldmia.w	sp!, {ip, lr}
10008f28:	ec4e c400 	dcp_wxmd ip, lr
10008f2c:	e8bd 5000 	ldmia.w	sp!, {ip, lr}
10008f30:	ec4e c401 	dcp_wymd ip, lr
10008f34:	e8bd 5000 	ldmia.w	sp!, {ip, lr}
10008f38:	ec4e c402 	dcp_wefd ip, lr
10008f3c:	bd00      	pop	{pc}
10008f3e:	0000      	movs	r0, r0
10008f40:	b500      	push	{lr}
10008f42:	f7ff ffdf 	bl	10008f04 <generic_save_state>
10008f46:	e002      	b.n	10008f4e <__wrap___aeabi_dadd+0x6>

10008f48 <__wrap___aeabi_dadd>:
10008f48:	fe10 f430 	dcp_pcmp APSR_nzcv
10008f4c:	d4f8      	bmi.n	10008f40 <generic_restore_state+0x1c>
10008f4e:	ec41 0410 	dcp_wxup r0, r1
10008f52:	ec43 2411 	dcp_wyup r2, r3
10008f56:	ee00 0401 	dcp_add0
10008f5a:	ee10 0401 	dcp_add1
10008f5e:	ee80 0420 	dcp_nrdd
10008f62:	ec51 0410 	dcp_rdda r0, r1
10008f66:	4770      	bx	lr
10008f68:	b500      	push	{lr}
10008f6a:	f7ff ffcb 	bl	10008f04 <generic_save_state>
10008f6e:	e002      	b.n	10008f76 <__wrap___aeabi_dsub+0x6>

10008f70 <__wrap___aeabi_dsub>:
10008f70:	fe10 f430 	dcp_pcmp APSR_nzcv
10008f74:	d4f8      	bmi.n	10008f68 <__wrap___aeabi_dadd+0x20>
10008f76:	ec41 0410 	dcp_wxup r0, r1
10008f7a:	ec43 2411 	dcp_wyup r2, r3
10008f7e:	ee00 0401 	dcp_add0
10008f82:	ee10 0421 	dcp_sub1
10008f86:	ee80 0420 	dcp_nrdd
10008f8a:	ec51 0430 	dcp_rdds r0, r1
10008f8e:	4770      	bx	lr
10008f90:	b500      	push	{lr}
10008f92:	f7ff ffb7 	bl	10008f04 <generic_save_state>
10008f96:	e002      	b.n	10008f9e <__wrap___aeabi_dmul+0x6>

10008f98 <__wrap___aeabi_dmul>:
10008f98:	fe10 f430 	dcp_pcmp APSR_nzcv
10008f9c:	d4f8      	bmi.n	10008f90 <__wrap___aeabi_dsub+0x20>
10008f9e:	b510      	push	{r4, lr}
10008fa0:	ec41 0410 	dcp_wxup r0, r1
10008fa4:	ec43 2411 	dcp_wyup r2, r3
10008fa8:	ec51 0404 	dcp_rxms r0, r1, #0x0
10008fac:	ec53 2405 	dcp_ryms r2, r3, #0x0
10008fb0:	fba0 4c02 	umull	r4, ip, r0, r2
10008fb4:	f05f 0e00 	movs.w	lr, #0
10008fb8:	fbe0 ce03 	umlal	ip, lr, r0, r3
10008fbc:	fbe1 ce02 	umlal	ip, lr, r1, r2
10008fc0:	ec4c 4420 	dcp_wxms r4, ip
10008fc4:	2400      	movs	r4, #0
10008fc6:	fbe1 e403 	umlal	lr, r4, r1, r3
10008fca:	ec44 e430 	dcp_wxmo lr, r4
10008fce:	ee80 0420 	dcp_nrdd
10008fd2:	ec51 0450 	dcp_rddm r0, r1
10008fd6:	e8bd 4010 	ldmia.w	sp!, {r4, lr}
10008fda:	4770      	bx	lr
10008fdc:	b500      	push	{lr}
10008fde:	f7ff ff91 	bl	10008f04 <generic_save_state>
10008fe2:	e002      	b.n	10008fea <__wrap___aeabi_ddiv+0x6>

10008fe4 <__wrap___aeabi_ddiv>:
10008fe4:	fe10 f430 	dcp_pcmp APSR_nzcv
10008fe8:	d4f8      	bmi.n	10008fdc <__wrap___aeabi_dmul+0x44>
10008fea:	ec41 0410 	dcp_wxup r0, r1
10008fee:	ec43 2411 	dcp_wyup r2, r3
10008ff2:	ec51 0421 	dcp_rymr r0, r1
10008ff6:	fba0 1201 	umull	r1, r2, r0, r1
10008ffa:	ea6f 0282 	mvn.w	r2, r2, lsl #2
10008ffe:	fb52 0010 	smmlar	r0, r2, r0, r0
10009002:	fb52 f212 	smmulr	r2, r2, r2
10009006:	fb52 0010 	smmlar	r0, r2, r0, r0
1000900a:	eba0 7cd0 	sub.w	ip, r0, r0, lsr #31
1000900e:	ec53 2404 	dcp_rxms r2, r3, #0x0
10009012:	fb5c f113 	smmulr	r1, ip, r3
10009016:	ec53 2415 	dcp_ryms r2, r3, #0x1
1000901a:	fba1 2002 	umull	r2, r0, r1, r2
1000901e:	fb01 0003 	mla	r0, r1, r3, r0
10009022:	ec53 2444 	dcp_rxms r2, r3, #0x4
10009026:	eba2 0000 	sub.w	r0, r2, r0
1000902a:	fb50 f21c 	smmulr	r2, r0, ip
1000902e:	ea4f 1311 	mov.w	r3, r1, lsr #4
10009032:	eb12 7001 	adds.w	r0, r2, r1, lsl #28
10009036:	eb43 71e2 	adc.w	r1, r3, r2, asr #31
1000903a:	ea40 5051 	orr.w	r0, r0, r1, lsr #21
1000903e:	ea20 5091 	bic.w	r0, r0, r1, lsr #22
10009042:	f020 0007 	bic.w	r0, r0, #7
10009046:	ec53 2475 	dcp_ryms r2, r3, #0x7
1000904a:	fba0 3c02 	umull	r3, ip, r0, r2
1000904e:	ec53 2475 	dcp_ryms r2, r3, #0x7
10009052:	fb00 cc03 	mla	ip, r0, r3, ip
10009056:	fb01 cc02 	mla	ip, r1, r2, ip
1000905a:	ec53 2404 	dcp_rxms r2, r3, #0x0
1000905e:	ebac 4c82 	sub.w	ip, ip, r2, lsl #18
10009062:	ea40 705c 	orr.w	r0, r0, ip, lsr #29
10009066:	f1a0 0001 	sub.w	r0, r0, #1
1000906a:	ec41 0440 	dcp_wxdd r0, r1
1000906e:	ee80 0420 	dcp_nrdd
10009072:	ec51 0470 	dcp_rddd r0, r1
10009076:	4770      	bx	lr
10009078:	b500      	push	{lr}
1000907a:	f7ff ff43 	bl	10008f04 <generic_save_state>
1000907e:	e002      	b.n	10009086 <__wrap___aeabi_i2d+0x6>

10009080 <__wrap___aeabi_i2d>:
10009080:	fe10 f430 	dcp_pcmp APSR_nzcv
10009084:	d4f8      	bmi.n	10009078 <__wrap___aeabi_ddiv+0x94>
10009086:	ec40 0470 	dcp_wxic r0, r0
1000908a:	ee00 0401 	dcp_add0
1000908e:	ee10 0421 	dcp_sub1
10009092:	ee80 0420 	dcp_nrdd
10009096:	ec51 0430 	dcp_rdds r0, r1
1000909a:	4770      	bx	lr
1000909c:	b500      	push	{lr}
1000909e:	f7ff ff31 	bl	10008f04 <generic_save_state>
100090a2:	e002      	b.n	100090aa <__wrap___aeabi_ui2d+0x6>

100090a4 <__wrap___aeabi_ui2d>:
100090a4:	fe10 f430 	dcp_pcmp APSR_nzcv
100090a8:	d4f8      	bmi.n	1000909c <__wrap___aeabi_i2d+0x1c>
100090aa:	ec40 0460 	dcp_wxuc r0, r0
100090ae:	ee00 0401 	dcp_add0
100090b2:	ee10 0421 	dcp_sub1
100090b6:	ee80 0420 	dcp_nrdd
100090ba:	ec51 0430 	dcp_rdds r0, r1
100090be:	4770      	bx	lr
100090c0:	b500      	push	{lr}
100090c2:	f7ff ff1f 	bl	10008f04 <generic_save_state>
100090c6:	e002      	b.n	100090ce <__wrap___aeabi_d2iz+0x6>

100090c8 <__wrap___aeabi_d2iz>:
100090c8:	fe10 f430 	dcp_pcmp APSR_nzcv
100090cc:	d4f8      	bmi.n	100090c0 <__wrap___aeabi_ui2d+0x1c>
100090ce:	ec41 0480 	dcp_wxdc r0, r1
100090d2:	ee00 0401 	dcp_add0
100090d6:	ee10 0401 	dcp_add1
100090da:	ee80 0440 	dcp_ntdc
100090de:	ee10 0413 	dcp_rdic r0
100090e2:	4770      	bx	lr
100090e4:	b500      	push	{lr}
100090e6:	f7ff ff0d 	bl	10008f04 <generic_save_state>
100090ea:	e002      	b.n	100090f2 <__wrap___aeabi_d2uiz+0x6>

100090ec <__wrap___aeabi_d2uiz>:
100090ec:	fe10 f430 	dcp_pcmp APSR_nzcv
100090f0:	d4f8      	bmi.n	100090e4 <__wrap___aeabi_d2iz+0x1c>
100090f2:	ec41 0480 	dcp_wxdc r0, r1
100090f6:	ee00 0401 	dcp_add0
100090fa:	ee10 0401 	dcp_add1
100090fe:	ee80 0440 	dcp_ntdc
10009102:	ee10 0433 	dcp_rduc r0
10009106:	4770      	bx	lr
10009108:	b500      	push	{lr}
1000910a:	f7ff fefb 	bl	10008f04 <generic_save_state>
1000910e:	e002      	b.n	10009116 <__wrap___aeabi_dcmpun+0x6>

10009110 <__wrap___aeabi_dcmpun>:
10009110:	fe10 f430 	dcp_pcmp APSR_nzcv
10009114:	d4f8      	bmi.n	10009108 <__wrap___aeabi_d2uiz+0x1c>
10009116:	ec41 0410 	dcp_wxup r0, r1
1000911a:	ec43 2411 	dcp_wyup r2, r3
1000911e:	ee00 0401 	dcp_add0
10009122:	ee10 0430 	dcp_rcmp r0
10009126:	f3c0 7000 	ubfx	r0, r0, #28, #1
1000912a:	4770      	bx	lr
1000912c:	b500      	push	{lr}
1000912e:	f7ff fee9 	bl	10008f04 <generic_save_state>
10009132:	e002      	b.n	1000913a <__wrap___aeabi_dcmplt+0x6>

10009134 <__wrap___aeabi_dcmplt>:
10009134:	fe10 f430 	dcp_pcmp APSR_nzcv
10009138:	d4f8      	bmi.n	1000912c <__wrap___aeabi_dcmpun+0x1c>
1000913a:	ec43 2410 	dcp_wxup r2, r3
1000913e:	ec41 0411 	dcp_wyup r0, r1
10009142:	ee00 0401 	dcp_add0
10009146:	ee10 f430 	dcp_rcmp APSR_nzcv
1000914a:	bf8c      	ite	hi
1000914c:	2001      	movhi	r0, #1
1000914e:	2000      	movls	r0, #0
10009150:	4770      	bx	lr
10009152:	bf00      	nop
10009154:	b500      	push	{lr}
10009156:	f7ff fed5 	bl	10008f04 <generic_save_state>
1000915a:	e002      	b.n	10009162 <__wrap___aeabi_dcmple+0x6>

1000915c <__wrap___aeabi_dcmple>:
1000915c:	fe10 f430 	dcp_pcmp APSR_nzcv
10009160:	d4f8      	bmi.n	10009154 <__wrap___aeabi_dcmplt+0x20>
10009162:	ec43 2410 	dcp_wxup r2, r3
10009166:	ec41 0411 	dcp_wyup r0, r1
1000916a:	ee00 0401 	dcp_add0
1000916e:	ee10 f430 	dcp_rcmp APSR_nzcv
10009172:	bf2c      	ite	cs
10009174:	2001      	movcs	r0, #1
10009176:	2000      	movcc	r0, #0
10009178:	4770      	bx	lr
1000917a:	bf00      	nop
1000917c:	b500      	push	{lr}
1000917e:	f7ff fec1 	bl	10008f04 <generic_save_state>
10009182:	e002      	b.n	1000918a <__wrap___aeabi_dcmpge+0x6>

10009184 <__wrap___aeabi_dcmpge>:
10009184:	fe10 f430 	dcp_pcmp APSR_nzcv
10009188:	d4f8      	bmi.n	1000917c <__wrap___aeabi_dcmple+0x20>
1000918a:	ec41 0410 	dcp_wxup r0, r1
1000918e:	ec43 2411 	dcp_wyup r2, r3
10009192:	ee00 0401 	dcp_add0
10009196:	ee10 f430 	dcp_rcmp APSR_nzcv
1000919a:	bf2c      	ite	cs
1000919c:	2001      	movcs	r0, #1
1000919e:	2000      	movcc	r0, #0
100091a0:	4770      	bx	lr
100091a2:	bf00      	nop
100091a4:	b500      	push	{lr}
100091a6:	f7ff fead 	bl	10008f04 <generic_save_state>
100091aa:	e002      	b.n	100091b2 <__wrap___aeabi_dcmpgt+0x6>

100091ac <__wrap___aeabi_dcmpgt>:
100091ac:	fe10 f430 	dcp_pcmp APSR_nzcv
100091b0:	d4f8      	bmi.n	100091a4 <__wrap___aeabi_dcmpge+0x20>
100091b2:	ec41 0410 	dcp_wxup r0, r1
100091b6:	ec43 2411 	dcp_wyup r2, r3
100091ba:	ee00 0401 	dcp_add0
100091be:	ee10 f430 	dcp_rcmp APSR_nzcv
100091c2:	bf8c      	ite	hi
100091c4:	2001      	movhi	r0, #1
100091c6:	2000      	movls	r0, #0
100091c8:	4770      	bx	lr
100091ca:	bf00      	nop

100091cc <_out_null>:
100091cc:	4770      	bx	lr

100091ce <_out_fct>:
100091ce:	b120      	cbz	r0, 100091da <_out_fct+0xc>
100091d0:	b508      	push	{r3, lr}
100091d2:	680a      	ldr	r2, [r1, #0]
100091d4:	6849      	ldr	r1, [r1, #4]
100091d6:	4790      	blx	r2
100091d8:	bd08      	pop	{r3, pc}
100091da:	4770      	bx	lr

100091dc <_atoi>:
100091dc:	4601      	mov	r1, r0
100091de:	2000      	movs	r0, #0
100091e0:	e008      	b.n	100091f4 <_atoi+0x18>
100091e2:	eb00 0080 	add.w	r0, r0, r0, lsl #2
100091e6:	1c53      	adds	r3, r2, #1
100091e8:	600b      	str	r3, [r1, #0]
100091ea:	7813      	ldrb	r3, [r2, #0]
100091ec:	eb03 0340 	add.w	r3, r3, r0, lsl #1
100091f0:	f1a3 0030 	sub.w	r0, r3, #48	@ 0x30
100091f4:	680a      	ldr	r2, [r1, #0]
100091f6:	7813      	ldrb	r3, [r2, #0]
100091f8:	3b30      	subs	r3, #48	@ 0x30
100091fa:	b2db      	uxtb	r3, r3
100091fc:	2b09      	cmp	r3, #9
100091fe:	d9f0      	bls.n	100091e2 <_atoi+0x6>
10009200:	4770      	bx	lr

10009202 <_out_rev>:
10009202:	e92d 4ff0 	stmdb	sp!, {r4, r5, r6, r7, r8, r9, sl, fp, lr}
10009206:	b083      	sub	sp, #12
10009208:	4605      	mov	r5, r0
1000920a:	460e      	mov	r6, r1
1000920c:	4693      	mov	fp, r2
1000920e:	461f      	mov	r7, r3
10009210:	f8dd a030 	ldr.w	sl, [sp, #48]	@ 0x30
10009214:	9c0d      	ldr	r4, [sp, #52]	@ 0x34
10009216:	f8dd 9038 	ldr.w	r9, [sp, #56]	@ 0x38
1000921a:	9b0f      	ldr	r3, [sp, #60]	@ 0x3c
1000921c:	f013 0f03 	tst.w	r3, #3
10009220:	d119      	bne.n	10009256 <_out_rev+0x54>
10009222:	46a0      	mov	r8, r4
10009224:	9201      	str	r2, [sp, #4]
10009226:	45c8      	cmp	r8, r9
10009228:	d209      	bcs.n	1000923e <_out_rev+0x3c>
1000922a:	f102 0b01 	add.w	fp, r2, #1
1000922e:	463b      	mov	r3, r7
10009230:	4631      	mov	r1, r6
10009232:	2020      	movs	r0, #32
10009234:	47a8      	blx	r5
10009236:	f108 0801 	add.w	r8, r8, #1
1000923a:	465a      	mov	r2, fp
1000923c:	e7f3      	b.n	10009226 <_out_rev+0x24>
1000923e:	f8dd b004 	ldr.w	fp, [sp, #4]
10009242:	e008      	b.n	10009256 <_out_rev+0x54>
10009244:	3c01      	subs	r4, #1
10009246:	f102 0801 	add.w	r8, r2, #1
1000924a:	463b      	mov	r3, r7
1000924c:	4631      	mov	r1, r6
1000924e:	f81a 0004 	ldrb.w	r0, [sl, r4]
10009252:	47a8      	blx	r5
10009254:	4642      	mov	r2, r8
10009256:	2c00      	cmp	r4, #0
10009258:	d1f4      	bne.n	10009244 <_out_rev+0x42>
1000925a:	9b0f      	ldr	r3, [sp, #60]	@ 0x3c
1000925c:	f013 0f02 	tst.w	r3, #2
10009260:	d103      	bne.n	1000926a <_out_rev+0x68>
10009262:	4610      	mov	r0, r2
10009264:	b003      	add	sp, #12
10009266:	e8bd 8ff0 	ldmia.w	sp!, {r4, r5, r6, r7, r8, r9, sl, fp, pc}
1000926a:	eba2 030b 	sub.w	r3, r2, fp
1000926e:	454b      	cmp	r3, r9
10009270:	d2f7      	bcs.n	10009262 <_out_rev+0x60>
10009272:	1c54      	adds	r4, r2, #1
10009274:	463b      	mov	r3, r7
10009276:	4631      	mov	r1, r6
10009278:	2020      	movs	r0, #32
1000927a:	47a8      	blx	r5
1000927c:	4622      	mov	r2, r4
1000927e:	e7f4      	b.n	1000926a <_out_rev+0x68>

10009280 <_ntoa_format>:
10009280:	e92d 43f0 	stmdb	sp!, {r4, r5, r6, r7, r8, r9, lr}
10009284:	b085      	sub	sp, #20
10009286:	4699      	mov	r9, r3
10009288:	9d0c      	ldr	r5, [sp, #48]	@ 0x30
1000928a:	9c0d      	ldr	r4, [sp, #52]	@ 0x34
1000928c:	f89d 8038 	ldrb.w	r8, [sp, #56]	@ 0x38
10009290:	f8dd e040 	ldr.w	lr, [sp, #64]	@ 0x40
10009294:	9f11      	ldr	r7, [sp, #68]	@ 0x44
10009296:	9e12      	ldr	r6, [sp, #72]	@ 0x48
10009298:	f016 0f02 	tst.w	r6, #2
1000929c:	d121      	bne.n	100092e2 <_ntoa_format+0x62>
1000929e:	b17f      	cbz	r7, 100092c0 <_ntoa_format+0x40>
100092a0:	f016 0f01 	tst.w	r6, #1
100092a4:	d00c      	beq.n	100092c0 <_ntoa_format+0x40>
100092a6:	f1b8 0f00 	cmp.w	r8, #0
100092aa:	d102      	bne.n	100092b2 <_ntoa_format+0x32>
100092ac:	f016 0f0c 	tst.w	r6, #12
100092b0:	d006      	beq.n	100092c0 <_ntoa_format+0x40>
100092b2:	3f01      	subs	r7, #1
100092b4:	e004      	b.n	100092c0 <_ntoa_format+0x40>
100092b6:	f04f 0c30 	mov.w	ip, #48	@ 0x30
100092ba:	f805 c004 	strb.w	ip, [r5, r4]
100092be:	3401      	adds	r4, #1
100092c0:	4574      	cmp	r4, lr
100092c2:	d201      	bcs.n	100092c8 <_ntoa_format+0x48>
100092c4:	2c1f      	cmp	r4, #31
100092c6:	d9f6      	bls.n	100092b6 <_ntoa_format+0x36>
100092c8:	f016 0f01 	tst.w	r6, #1
100092cc:	d009      	beq.n	100092e2 <_ntoa_format+0x62>
100092ce:	42bc      	cmp	r4, r7
100092d0:	d207      	bcs.n	100092e2 <_ntoa_format+0x62>
100092d2:	2c1f      	cmp	r4, #31
100092d4:	d805      	bhi.n	100092e2 <_ntoa_format+0x62>
100092d6:	f04f 0c30 	mov.w	ip, #48	@ 0x30
100092da:	f805 c004 	strb.w	ip, [r5, r4]
100092de:	3401      	adds	r4, #1
100092e0:	e7f2      	b.n	100092c8 <_ntoa_format+0x48>
100092e2:	f016 0f10 	tst.w	r6, #16
100092e6:	d014      	beq.n	10009312 <_ntoa_format+0x92>
100092e8:	f416 6f80 	tst.w	r6, #1024	@ 0x400
100092ec:	d104      	bne.n	100092f8 <_ntoa_format+0x78>
100092ee:	b11c      	cbz	r4, 100092f8 <_ntoa_format+0x78>
100092f0:	4574      	cmp	r4, lr
100092f2:	d022      	beq.n	1000933a <_ntoa_format+0xba>
100092f4:	42bc      	cmp	r4, r7
100092f6:	d020      	beq.n	1000933a <_ntoa_format+0xba>
100092f8:	9b0f      	ldr	r3, [sp, #60]	@ 0x3c
100092fa:	2b10      	cmp	r3, #16
100092fc:	d036      	beq.n	1000936c <_ntoa_format+0xec>
100092fe:	9b0f      	ldr	r3, [sp, #60]	@ 0x3c
10009300:	2b02      	cmp	r3, #2
10009302:	d03e      	beq.n	10009382 <_ntoa_format+0x102>
10009304:	2c1f      	cmp	r4, #31
10009306:	d80e      	bhi.n	10009326 <_ntoa_format+0xa6>
10009308:	f04f 0c30 	mov.w	ip, #48	@ 0x30
1000930c:	f805 c004 	strb.w	ip, [r5, r4]
10009310:	3401      	adds	r4, #1
10009312:	2c1f      	cmp	r4, #31
10009314:	d807      	bhi.n	10009326 <_ntoa_format+0xa6>
10009316:	f1b8 0f00 	cmp.w	r8, #0
1000931a:	d03a      	beq.n	10009392 <_ntoa_format+0x112>
1000931c:	f04f 0c2d 	mov.w	ip, #45	@ 0x2d
10009320:	f805 c004 	strb.w	ip, [r5, r4]
10009324:	3401      	adds	r4, #1
10009326:	9603      	str	r6, [sp, #12]
10009328:	9702      	str	r7, [sp, #8]
1000932a:	9401      	str	r4, [sp, #4]
1000932c:	9500      	str	r5, [sp, #0]
1000932e:	464b      	mov	r3, r9
10009330:	f7ff ff67 	bl	10009202 <_out_rev>
10009334:	b005      	add	sp, #20
10009336:	e8bd 83f0 	ldmia.w	sp!, {r4, r5, r6, r7, r8, r9, pc}
1000933a:	f1b4 0c01 	subs.w	ip, r4, #1
1000933e:	d013      	beq.n	10009368 <_ntoa_format+0xe8>
10009340:	9b0f      	ldr	r3, [sp, #60]	@ 0x3c
10009342:	2b10      	cmp	r3, #16
10009344:	d00e      	beq.n	10009364 <_ntoa_format+0xe4>
10009346:	4664      	mov	r4, ip
10009348:	9b0f      	ldr	r3, [sp, #60]	@ 0x3c
1000934a:	2b10      	cmp	r3, #16
1000934c:	d1d7      	bne.n	100092fe <_ntoa_format+0x7e>
1000934e:	f016 0f20 	tst.w	r6, #32
10009352:	d0d4      	beq.n	100092fe <_ntoa_format+0x7e>
10009354:	2c1f      	cmp	r4, #31
10009356:	d8d2      	bhi.n	100092fe <_ntoa_format+0x7e>
10009358:	f04f 0c58 	mov.w	ip, #88	@ 0x58
1000935c:	f805 c004 	strb.w	ip, [r5, r4]
10009360:	3401      	adds	r4, #1
10009362:	e7cf      	b.n	10009304 <_ntoa_format+0x84>
10009364:	3c02      	subs	r4, #2
10009366:	e7c7      	b.n	100092f8 <_ntoa_format+0x78>
10009368:	4664      	mov	r4, ip
1000936a:	e7c5      	b.n	100092f8 <_ntoa_format+0x78>
1000936c:	f016 0f20 	tst.w	r6, #32
10009370:	d1ea      	bne.n	10009348 <_ntoa_format+0xc8>
10009372:	2c1f      	cmp	r4, #31
10009374:	d8e8      	bhi.n	10009348 <_ntoa_format+0xc8>
10009376:	f04f 0c78 	mov.w	ip, #120	@ 0x78
1000937a:	f805 c004 	strb.w	ip, [r5, r4]
1000937e:	3401      	adds	r4, #1
10009380:	e7c0      	b.n	10009304 <_ntoa_format+0x84>
10009382:	2c1f      	cmp	r4, #31
10009384:	d8cf      	bhi.n	10009326 <_ntoa_format+0xa6>
10009386:	f04f 0c62 	mov.w	ip, #98	@ 0x62
1000938a:	f805 c004 	strb.w	ip, [r5, r4]
1000938e:	3401      	adds	r4, #1
10009390:	e7b8      	b.n	10009304 <_ntoa_format+0x84>
10009392:	f016 0f04 	tst.w	r6, #4
10009396:	d005      	beq.n	100093a4 <_ntoa_format+0x124>
10009398:	f04f 0c2b 	mov.w	ip, #43	@ 0x2b
1000939c:	f805 c004 	strb.w	ip, [r5, r4]
100093a0:	3401      	adds	r4, #1
100093a2:	e7c0      	b.n	10009326 <_ntoa_format+0xa6>
100093a4:	f016 0f08 	tst.w	r6, #8
100093a8:	d0bd      	beq.n	10009326 <_ntoa_format+0xa6>
100093aa:	f04f 0c20 	mov.w	ip, #32
100093ae:	f805 c004 	strb.w	ip, [r5, r4]
100093b2:	3401      	adds	r4, #1
100093b4:	e7b7      	b.n	10009326 <_ntoa_format+0xa6>

100093b6 <_ntoa_long>:
100093b6:	b5f0      	push	{r4, r5, r6, r7, lr}
100093b8:	b091      	sub	sp, #68	@ 0x44
100093ba:	9c16      	ldr	r4, [sp, #88]	@ 0x58
100093bc:	9d18      	ldr	r5, [sp, #96]	@ 0x60
100093be:	9e1b      	ldr	r6, [sp, #108]	@ 0x6c
100093c0:	b90c      	cbnz	r4, 100093c6 <_ntoa_long+0x10>
100093c2:	f026 0610 	bic.w	r6, r6, #16
100093c6:	f416 6e80 	ands.w	lr, r6, #1024	@ 0x400
100093ca:	d016      	beq.n	100093fa <_ntoa_long+0x44>
100093cc:	b364      	cbz	r4, 10009428 <_ntoa_long+0x72>
100093ce:	f04f 0e00 	mov.w	lr, #0
100093d2:	e012      	b.n	100093fa <_ntoa_long+0x44>
100093d4:	f10c 0c30 	add.w	ip, ip, #48	@ 0x30
100093d8:	fa5f fc8c 	uxtb.w	ip, ip
100093dc:	f10e 0701 	add.w	r7, lr, #1
100093e0:	f10e 0e40 	add.w	lr, lr, #64	@ 0x40
100093e4:	44ee      	add	lr, sp
100093e6:	f80e cc20 	strb.w	ip, [lr, #-32]
100093ea:	fbb4 fcf5 	udiv	ip, r4, r5
100093ee:	42ac      	cmp	r4, r5
100093f0:	d31b      	bcc.n	1000942a <_ntoa_long+0x74>
100093f2:	2f1f      	cmp	r7, #31
100093f4:	d819      	bhi.n	1000942a <_ntoa_long+0x74>
100093f6:	46be      	mov	lr, r7
100093f8:	4664      	mov	r4, ip
100093fa:	fbb4 fcf5 	udiv	ip, r4, r5
100093fe:	fb05 4c1c 	mls	ip, r5, ip, r4
10009402:	fa5f fc8c 	uxtb.w	ip, ip
10009406:	f1bc 0f09 	cmp.w	ip, #9
1000940a:	d9e3      	bls.n	100093d4 <_ntoa_long+0x1e>
1000940c:	f016 0f20 	tst.w	r6, #32
10009410:	d008      	beq.n	10009424 <_ntoa_long+0x6e>
10009412:	2741      	movs	r7, #65	@ 0x41
10009414:	44bc      	add	ip, r7
10009416:	fa5f fc8c 	uxtb.w	ip, ip
1000941a:	f1ac 0c0a 	sub.w	ip, ip, #10
1000941e:	fa5f fc8c 	uxtb.w	ip, ip
10009422:	e7db      	b.n	100093dc <_ntoa_long+0x26>
10009424:	2761      	movs	r7, #97	@ 0x61
10009426:	e7f5      	b.n	10009414 <_ntoa_long+0x5e>
10009428:	4627      	mov	r7, r4
1000942a:	9606      	str	r6, [sp, #24]
1000942c:	9c1a      	ldr	r4, [sp, #104]	@ 0x68
1000942e:	9405      	str	r4, [sp, #20]
10009430:	9c19      	ldr	r4, [sp, #100]	@ 0x64
10009432:	9404      	str	r4, [sp, #16]
10009434:	9503      	str	r5, [sp, #12]
10009436:	f89d 405c 	ldrb.w	r4, [sp, #92]	@ 0x5c
1000943a:	9402      	str	r4, [sp, #8]
1000943c:	9701      	str	r7, [sp, #4]
1000943e:	ac08      	add	r4, sp, #32
10009440:	9400      	str	r4, [sp, #0]
10009442:	f7ff ff1d 	bl	10009280 <_ntoa_format>
10009446:	b011      	add	sp, #68	@ 0x44
10009448:	bdf0      	pop	{r4, r5, r6, r7, pc}

1000944a <_ntoa_long_long>:
1000944a:	e92d 4ff0 	stmdb	sp!, {r4, r5, r6, r7, r8, r9, sl, fp, lr}
1000944e:	b095      	sub	sp, #84	@ 0x54
10009450:	9009      	str	r0, [sp, #36]	@ 0x24
10009452:	910a      	str	r1, [sp, #40]	@ 0x28
10009454:	920b      	str	r2, [sp, #44]	@ 0x2c
10009456:	4698      	mov	r8, r3
10009458:	f8dd b078 	ldr.w	fp, [sp, #120]	@ 0x78
1000945c:	f8dd 907c 	ldr.w	r9, [sp, #124]	@ 0x7c
10009460:	9d22      	ldr	r5, [sp, #136]	@ 0x88
10009462:	9f23      	ldr	r7, [sp, #140]	@ 0x8c
10009464:	9e26      	ldr	r6, [sp, #152]	@ 0x98
10009466:	ea5b 0209 	orrs.w	r2, fp, r9
1000946a:	d101      	bne.n	10009470 <_ntoa_long_long+0x26>
1000946c:	f026 0610 	bic.w	r6, r6, #16
10009470:	f416 6480 	ands.w	r4, r6, #1024	@ 0x400
10009474:	d01e      	beq.n	100094b4 <_ntoa_long_long+0x6a>
10009476:	ea5b 0209 	orrs.w	r2, fp, r9
1000947a:	d02f      	beq.n	100094dc <_ntoa_long_long+0x92>
1000947c:	2400      	movs	r4, #0
1000947e:	e019      	b.n	100094b4 <_ntoa_long_long+0x6a>
10009480:	3230      	adds	r2, #48	@ 0x30
10009482:	b2d3      	uxtb	r3, r2
10009484:	f104 0a01 	add.w	sl, r4, #1
10009488:	f104 0250 	add.w	r2, r4, #80	@ 0x50
1000948c:	eb0d 0402 	add.w	r4, sp, r2
10009490:	f804 3c20 	strb.w	r3, [r4, #-32]
10009494:	462a      	mov	r2, r5
10009496:	463b      	mov	r3, r7
10009498:	4658      	mov	r0, fp
1000949a:	4649      	mov	r1, r9
1000949c:	f003 fcbc 	bl	1000ce18 <____aeabi_uldivmod_veneer>
100094a0:	45ab      	cmp	fp, r5
100094a2:	eb79 0907 	sbcs.w	r9, r9, r7
100094a6:	d31b      	bcc.n	100094e0 <_ntoa_long_long+0x96>
100094a8:	f1ba 0f1f 	cmp.w	sl, #31
100094ac:	d818      	bhi.n	100094e0 <_ntoa_long_long+0x96>
100094ae:	4654      	mov	r4, sl
100094b0:	4683      	mov	fp, r0
100094b2:	4689      	mov	r9, r1
100094b4:	462a      	mov	r2, r5
100094b6:	463b      	mov	r3, r7
100094b8:	4658      	mov	r0, fp
100094ba:	4649      	mov	r1, r9
100094bc:	f003 fcac 	bl	1000ce18 <____aeabi_uldivmod_veneer>
100094c0:	b2d2      	uxtb	r2, r2
100094c2:	2a09      	cmp	r2, #9
100094c4:	d9dc      	bls.n	10009480 <_ntoa_long_long+0x36>
100094c6:	f016 0f20 	tst.w	r6, #32
100094ca:	d005      	beq.n	100094d8 <_ntoa_long_long+0x8e>
100094cc:	2341      	movs	r3, #65	@ 0x41
100094ce:	4413      	add	r3, r2
100094d0:	b2db      	uxtb	r3, r3
100094d2:	3b0a      	subs	r3, #10
100094d4:	b2db      	uxtb	r3, r3
100094d6:	e7d5      	b.n	10009484 <_ntoa_long_long+0x3a>
100094d8:	2361      	movs	r3, #97	@ 0x61
100094da:	e7f8      	b.n	100094ce <_ntoa_long_long+0x84>
100094dc:	f04f 0a00 	mov.w	sl, #0
100094e0:	9606      	str	r6, [sp, #24]
100094e2:	9b25      	ldr	r3, [sp, #148]	@ 0x94
100094e4:	9305      	str	r3, [sp, #20]
100094e6:	9b24      	ldr	r3, [sp, #144]	@ 0x90
100094e8:	9304      	str	r3, [sp, #16]
100094ea:	9503      	str	r5, [sp, #12]
100094ec:	f89d 3080 	ldrb.w	r3, [sp, #128]	@ 0x80
100094f0:	9302      	str	r3, [sp, #8]
100094f2:	f8cd a004 	str.w	sl, [sp, #4]
100094f6:	ab0c      	add	r3, sp, #48	@ 0x30
100094f8:	9300      	str	r3, [sp, #0]
100094fa:	4643      	mov	r3, r8
100094fc:	9a0b      	ldr	r2, [sp, #44]	@ 0x2c
100094fe:	990a      	ldr	r1, [sp, #40]	@ 0x28
10009500:	9809      	ldr	r0, [sp, #36]	@ 0x24
10009502:	f7ff febd 	bl	10009280 <_ntoa_format>
10009506:	b015      	add	sp, #84	@ 0x54
10009508:	e8bd 8ff0 	ldmia.w	sp!, {r4, r5, r6, r7, r8, r9, sl, fp, pc}
1000950c:	0000      	movs	r0, r0
	...

10009510 <_etoa>:
10009510:	e92d 4ff0 	stmdb	sp!, {r4, r5, r6, r7, r8, r9, sl, fp, lr}
10009514:	b091      	sub	sp, #68	@ 0x44
10009516:	4604      	mov	r4, r0
10009518:	460d      	mov	r5, r1
1000951a:	4617      	mov	r7, r2
1000951c:	461e      	mov	r6, r3
1000951e:	e9dd 231a 	ldrd	r2, r3, [sp, #104]	@ 0x68
10009522:	4610      	mov	r0, r2
10009524:	4619      	mov	r1, r3
10009526:	f7ff fdf3 	bl	10009110 <__wrap___aeabi_dcmpun>
1000952a:	2800      	cmp	r0, #0
1000952c:	f040 80ed 	bne.w	1000970a <_etoa+0x1fa>
10009530:	f04f 32ff 	mov.w	r2, #4294967295
10009534:	4bae      	ldr	r3, [pc, #696]	@ (100097f0 <_etoa+0x2e0>)
10009536:	e9dd 011a 	ldrd	r0, r1, [sp, #104]	@ 0x68
1000953a:	f7ff fe37 	bl	100091ac <__wrap___aeabi_dcmpgt>
1000953e:	2800      	cmp	r0, #0
10009540:	f040 80e3 	bne.w	1000970a <_etoa+0x1fa>
10009544:	f04f 32ff 	mov.w	r2, #4294967295
10009548:	f46f 1380 	mvn.w	r3, #1048576	@ 0x100000
1000954c:	e9dd 011a 	ldrd	r0, r1, [sp, #104]	@ 0x68
10009550:	f7ff fdf0 	bl	10009134 <__wrap___aeabi_dcmplt>
10009554:	2800      	cmp	r0, #0
10009556:	f040 80d8 	bne.w	1000970a <_etoa+0x1fa>
1000955a:	2200      	movs	r2, #0
1000955c:	2300      	movs	r3, #0
1000955e:	e9dd 011a 	ldrd	r0, r1, [sp, #104]	@ 0x68
10009562:	f7ff fde7 	bl	10009134 <__wrap___aeabi_dcmplt>
10009566:	2800      	cmp	r0, #0
10009568:	f040 80e2 	bne.w	10009730 <_etoa+0x220>
1000956c:	ed9d 7b1a 	vldr	d7, [sp, #104]	@ 0x68
10009570:	ed8d 7b06 	vstr	d7, [sp, #24]
10009574:	9b1e      	ldr	r3, [sp, #120]	@ 0x78
10009576:	f413 6380 	ands.w	r3, r3, #1024	@ 0x400
1000957a:	930d      	str	r3, [sp, #52]	@ 0x34
1000957c:	d101      	bne.n	10009582 <_etoa+0x72>
1000957e:	2306      	movs	r3, #6
10009580:	931c      	str	r3, [sp, #112]	@ 0x70
10009582:	e9dd 2306 	ldrd	r2, r3, [sp, #24]
10009586:	4610      	mov	r0, r2
10009588:	4619      	mov	r1, r3
1000958a:	e9cd 0108 	strd	r0, r1, [sp, #32]
1000958e:	ea52 0103 	orrs.w	r1, r2, r3
10009592:	f000 80d8 	beq.w	10009746 <_etoa+0x236>
10009596:	f3c3 500a 	ubfx	r0, r3, #20, #11
1000959a:	f3c3 0313 	ubfx	r3, r3, #0, #20
1000959e:	4690      	mov	r8, r2
100095a0:	f043 597f 	orr.w	r9, r3, #1069547520	@ 0x3fc00000
100095a4:	f449 1940 	orr.w	r9, r9, #3145728	@ 0x300000
100095a8:	f2a0 30ff 	subw	r0, r0, #1023	@ 0x3ff
100095ac:	f7ff fd68 	bl	10009080 <__wrap___aeabi_i2d>
100095b0:	a37d      	add	r3, pc, #500	@ (adr r3, 100097a8 <_etoa+0x298>)
100095b2:	e9d3 2300 	ldrd	r2, r3, [r3]
100095b6:	f7ff fcef 	bl	10008f98 <__wrap___aeabi_dmul>
100095ba:	a37d      	add	r3, pc, #500	@ (adr r3, 100097b0 <_etoa+0x2a0>)
100095bc:	e9d3 2300 	ldrd	r2, r3, [r3]
100095c0:	f7ff fcc2 	bl	10008f48 <__wrap___aeabi_dadd>
100095c4:	4682      	mov	sl, r0
100095c6:	468b      	mov	fp, r1
100095c8:	2200      	movs	r2, #0
100095ca:	4b8a      	ldr	r3, [pc, #552]	@ (100097f4 <_etoa+0x2e4>)
100095cc:	4640      	mov	r0, r8
100095ce:	4649      	mov	r1, r9
100095d0:	f7ff fcce 	bl	10008f70 <__wrap___aeabi_dsub>
100095d4:	a378      	add	r3, pc, #480	@ (adr r3, 100097b8 <_etoa+0x2a8>)
100095d6:	e9d3 2300 	ldrd	r2, r3, [r3]
100095da:	f7ff fcdd 	bl	10008f98 <__wrap___aeabi_dmul>
100095de:	4602      	mov	r2, r0
100095e0:	460b      	mov	r3, r1
100095e2:	4650      	mov	r0, sl
100095e4:	4659      	mov	r1, fp
100095e6:	f7ff fcaf 	bl	10008f48 <__wrap___aeabi_dadd>
100095ea:	f7ff fd6d 	bl	100090c8 <__wrap___aeabi_d2iz>
100095ee:	4682      	mov	sl, r0
100095f0:	f7ff fd46 	bl	10009080 <__wrap___aeabi_i2d>
100095f4:	4680      	mov	r8, r0
100095f6:	4689      	mov	r9, r1
100095f8:	a371      	add	r3, pc, #452	@ (adr r3, 100097c0 <_etoa+0x2b0>)
100095fa:	e9d3 2300 	ldrd	r2, r3, [r3]
100095fe:	f7ff fccb 	bl	10008f98 <__wrap___aeabi_dmul>
10009602:	2200      	movs	r2, #0
10009604:	4b7c      	ldr	r3, [pc, #496]	@ (100097f8 <_etoa+0x2e8>)
10009606:	f7ff fc9f 	bl	10008f48 <__wrap___aeabi_dadd>
1000960a:	f7ff fd5d 	bl	100090c8 <__wrap___aeabi_d2iz>
1000960e:	4683      	mov	fp, r0
10009610:	a36d      	add	r3, pc, #436	@ (adr r3, 100097c8 <_etoa+0x2b8>)
10009612:	e9d3 2300 	ldrd	r2, r3, [r3]
10009616:	4640      	mov	r0, r8
10009618:	4649      	mov	r1, r9
1000961a:	f7ff fcbd 	bl	10008f98 <__wrap___aeabi_dmul>
1000961e:	4680      	mov	r8, r0
10009620:	4689      	mov	r9, r1
10009622:	4658      	mov	r0, fp
10009624:	f7ff fd2c 	bl	10009080 <__wrap___aeabi_i2d>
10009628:	a369      	add	r3, pc, #420	@ (adr r3, 100097d0 <_etoa+0x2c0>)
1000962a:	e9d3 2300 	ldrd	r2, r3, [r3]
1000962e:	f7ff fcb3 	bl	10008f98 <__wrap___aeabi_dmul>
10009632:	4602      	mov	r2, r0
10009634:	460b      	mov	r3, r1
10009636:	4640      	mov	r0, r8
10009638:	4649      	mov	r1, r9
1000963a:	f7ff fc99 	bl	10008f70 <__wrap___aeabi_dsub>
1000963e:	4680      	mov	r8, r0
10009640:	4689      	mov	r9, r1
10009642:	4602      	mov	r2, r0
10009644:	460b      	mov	r3, r1
10009646:	f7ff fca7 	bl	10008f98 <__wrap___aeabi_dmul>
1000964a:	e9cd 010a 	strd	r0, r1, [sp, #40]	@ 0x28
1000964e:	f20b 3bff 	addw	fp, fp, #1023	@ 0x3ff
10009652:	2100      	movs	r1, #0
10009654:	2200      	movs	r2, #0
10009656:	e9cd 1208 	strd	r1, r2, [sp, #32]
1000965a:	ea4f 530b 	mov.w	r3, fp, lsl #20
1000965e:	9309      	str	r3, [sp, #36]	@ 0x24
10009660:	2300      	movs	r3, #0
10009662:	9308      	str	r3, [sp, #32]
10009664:	4642      	mov	r2, r8
10009666:	464b      	mov	r3, r9
10009668:	4640      	mov	r0, r8
1000966a:	4649      	mov	r1, r9
1000966c:	f7ff fc6c 	bl	10008f48 <__wrap___aeabi_dadd>
10009670:	e9cd 010e 	strd	r0, r1, [sp, #56]	@ 0x38
10009674:	4642      	mov	r2, r8
10009676:	464b      	mov	r3, r9
10009678:	2000      	movs	r0, #0
1000967a:	f04f 4180 	mov.w	r1, #1073741824	@ 0x40000000
1000967e:	f7ff fc77 	bl	10008f70 <__wrap___aeabi_dsub>
10009682:	4680      	mov	r8, r0
10009684:	4689      	mov	r9, r1
10009686:	2200      	movs	r2, #0
10009688:	4b5c      	ldr	r3, [pc, #368]	@ (100097fc <_etoa+0x2ec>)
1000968a:	e9dd 010a 	ldrd	r0, r1, [sp, #40]	@ 0x28
1000968e:	f7ff fca9 	bl	10008fe4 <__wrap___aeabi_ddiv>
10009692:	2200      	movs	r2, #0
10009694:	4b5a      	ldr	r3, [pc, #360]	@ (10009800 <_etoa+0x2f0>)
10009696:	f7ff fc57 	bl	10008f48 <__wrap___aeabi_dadd>
1000969a:	4602      	mov	r2, r0
1000969c:	460b      	mov	r3, r1
1000969e:	e9dd 010a 	ldrd	r0, r1, [sp, #40]	@ 0x28
100096a2:	f7ff fc9f 	bl	10008fe4 <__wrap___aeabi_ddiv>
100096a6:	2200      	movs	r2, #0
100096a8:	4b56      	ldr	r3, [pc, #344]	@ (10009804 <_etoa+0x2f4>)
100096aa:	f7ff fc4d 	bl	10008f48 <__wrap___aeabi_dadd>
100096ae:	4602      	mov	r2, r0
100096b0:	460b      	mov	r3, r1
100096b2:	e9dd 010a 	ldrd	r0, r1, [sp, #40]	@ 0x28
100096b6:	f7ff fc95 	bl	10008fe4 <__wrap___aeabi_ddiv>
100096ba:	4602      	mov	r2, r0
100096bc:	460b      	mov	r3, r1
100096be:	4640      	mov	r0, r8
100096c0:	4649      	mov	r1, r9
100096c2:	f7ff fc41 	bl	10008f48 <__wrap___aeabi_dadd>
100096c6:	4602      	mov	r2, r0
100096c8:	460b      	mov	r3, r1
100096ca:	e9dd 010e 	ldrd	r0, r1, [sp, #56]	@ 0x38
100096ce:	f7ff fc89 	bl	10008fe4 <__wrap___aeabi_ddiv>
100096d2:	2200      	movs	r2, #0
100096d4:	4b4c      	ldr	r3, [pc, #304]	@ (10009808 <_etoa+0x2f8>)
100096d6:	f7ff fc37 	bl	10008f48 <__wrap___aeabi_dadd>
100096da:	e9dd 2308 	ldrd	r2, r3, [sp, #32]
100096de:	f7ff fc5b 	bl	10008f98 <__wrap___aeabi_dmul>
100096e2:	4680      	mov	r8, r0
100096e4:	4689      	mov	r9, r1
100096e6:	e9cd 8908 	strd	r8, r9, [sp, #32]
100096ea:	e9dd 2306 	ldrd	r2, r3, [sp, #24]
100096ee:	f7ff fd5d 	bl	100091ac <__wrap___aeabi_dcmpgt>
100096f2:	b350      	cbz	r0, 1000974a <_etoa+0x23a>
100096f4:	f10a 3aff 	add.w	sl, sl, #4294967295
100096f8:	2200      	movs	r2, #0
100096fa:	4b41      	ldr	r3, [pc, #260]	@ (10009800 <_etoa+0x2f0>)
100096fc:	4640      	mov	r0, r8
100096fe:	4649      	mov	r1, r9
10009700:	f7ff fc70 	bl	10008fe4 <__wrap___aeabi_ddiv>
10009704:	e9cd 0108 	strd	r0, r1, [sp, #32]
10009708:	e01f      	b.n	1000974a <_etoa+0x23a>
1000970a:	9b1e      	ldr	r3, [sp, #120]	@ 0x78
1000970c:	9304      	str	r3, [sp, #16]
1000970e:	9b1d      	ldr	r3, [sp, #116]	@ 0x74
10009710:	9303      	str	r3, [sp, #12]
10009712:	9b1c      	ldr	r3, [sp, #112]	@ 0x70
10009714:	9302      	str	r3, [sp, #8]
10009716:	ed9d 7b1a 	vldr	d7, [sp, #104]	@ 0x68
1000971a:	ed8d 7b00 	vstr	d7, [sp]
1000971e:	4633      	mov	r3, r6
10009720:	463a      	mov	r2, r7
10009722:	4629      	mov	r1, r5
10009724:	4620      	mov	r0, r4
10009726:	f000 f903 	bl	10009930 <_ftoa>
1000972a:	b011      	add	sp, #68	@ 0x44
1000972c:	e8bd 8ff0 	ldmia.w	sp!, {r4, r5, r6, r7, r8, r9, sl, fp, pc}
10009730:	ed9f 7b29 	vldr	d7, [pc, #164]	@ 100097d8 <_etoa+0x2c8>
10009734:	ed8d 7b06 	vstr	d7, [sp, #24]
10009738:	9b1a      	ldr	r3, [sp, #104]	@ 0x68
1000973a:	9306      	str	r3, [sp, #24]
1000973c:	9b1b      	ldr	r3, [sp, #108]	@ 0x6c
1000973e:	f103 4300 	add.w	r3, r3, #2147483648	@ 0x80000000
10009742:	9307      	str	r3, [sp, #28]
10009744:	e716      	b.n	10009574 <_etoa+0x64>
10009746:	f04f 0a00 	mov.w	sl, #0
1000974a:	f10a 0363 	add.w	r3, sl, #99	@ 0x63
1000974e:	2bc6      	cmp	r3, #198	@ 0xc6
10009750:	d827      	bhi.n	100097a2 <_etoa+0x292>
10009752:	f04f 0804 	mov.w	r8, #4
10009756:	9b1e      	ldr	r3, [sp, #120]	@ 0x78
10009758:	f413 6f00 	tst.w	r3, #2048	@ 0x800
1000975c:	d05f      	beq.n	1000981e <_etoa+0x30e>
1000975e:	e9dd 1208 	ldrd	r1, r2, [sp, #32]
10009762:	4613      	mov	r3, r2
10009764:	430b      	orrs	r3, r1
10009766:	d013      	beq.n	10009790 <_etoa+0x280>
10009768:	a31d      	add	r3, pc, #116	@ (adr r3, 100097e0 <_etoa+0x2d0>)
1000976a:	e9d3 2300 	ldrd	r2, r3, [r3]
1000976e:	e9dd 0106 	ldrd	r0, r1, [sp, #24]
10009772:	f7ff fd07 	bl	10009184 <__wrap___aeabi_dcmpge>
10009776:	2800      	cmp	r0, #0
10009778:	f000 80b4 	beq.w	100098e4 <_etoa+0x3d4>
1000977c:	a31a      	add	r3, pc, #104	@ (adr r3, 100097e8 <_etoa+0x2d8>)
1000977e:	e9d3 2300 	ldrd	r2, r3, [r3]
10009782:	e9dd 0106 	ldrd	r0, r1, [sp, #24]
10009786:	f7ff fcd5 	bl	10009134 <__wrap___aeabi_dcmplt>
1000978a:	2800      	cmp	r0, #0
1000978c:	f000 80aa 	beq.w	100098e4 <_etoa+0x3d4>
10009790:	9b1c      	ldr	r3, [sp, #112]	@ 0x70
10009792:	4553      	cmp	r3, sl
10009794:	dd3a      	ble.n	1000980c <_etoa+0x2fc>
10009796:	eba3 0a0a 	sub.w	sl, r3, sl
1000979a:	f10a 33ff 	add.w	r3, sl, #4294967295
1000979e:	931c      	str	r3, [sp, #112]	@ 0x70
100097a0:	e036      	b.n	10009810 <_etoa+0x300>
100097a2:	f04f 0805 	mov.w	r8, #5
100097a6:	e7d6      	b.n	10009756 <_etoa+0x246>
100097a8:	509f79fb 	.word	0x509f79fb
100097ac:	3fd34413 	.word	0x3fd34413
100097b0:	8b60c8b3 	.word	0x8b60c8b3
100097b4:	3fc68a28 	.word	0x3fc68a28
100097b8:	636f4361 	.word	0x636f4361
100097bc:	3fd287a7 	.word	0x3fd287a7
100097c0:	0979a371 	.word	0x0979a371
100097c4:	400a934f 	.word	0x400a934f
100097c8:	bbb55516 	.word	0xbbb55516
100097cc:	40026bb1 	.word	0x40026bb1
100097d0:	fefa39ef 	.word	0xfefa39ef
100097d4:	3fe62e42 	.word	0x3fe62e42
	...
100097e0:	eb1c432d 	.word	0xeb1c432d
100097e4:	3f1a36e2 	.word	0x3f1a36e2
100097e8:	00000000 	.word	0x00000000
100097ec:	412e8480 	.word	0x412e8480
100097f0:	7fefffff 	.word	0x7fefffff
100097f4:	3ff80000 	.word	0x3ff80000
100097f8:	3fe00000 	.word	0x3fe00000
100097fc:	402c0000 	.word	0x402c0000
10009800:	40240000 	.word	0x40240000
10009804:	40180000 	.word	0x40180000
10009808:	3ff00000 	.word	0x3ff00000
1000980c:	2300      	movs	r3, #0
1000980e:	931c      	str	r3, [sp, #112]	@ 0x70
10009810:	9b1e      	ldr	r3, [sp, #120]	@ 0x78
10009812:	f443 6380 	orr.w	r3, r3, #1024	@ 0x400
10009816:	931e      	str	r3, [sp, #120]	@ 0x78
10009818:	f04f 0800 	mov.w	r8, #0
1000981c:	46c2      	mov	sl, r8
1000981e:	9b1d      	ldr	r3, [sp, #116]	@ 0x74
10009820:	4598      	cmp	r8, r3
10009822:	d269      	bcs.n	100098f8 <_etoa+0x3e8>
10009824:	eba3 0908 	sub.w	r9, r3, r8
10009828:	9b1e      	ldr	r3, [sp, #120]	@ 0x78
1000982a:	f013 0b02 	ands.w	fp, r3, #2
1000982e:	d004      	beq.n	1000983a <_etoa+0x32a>
10009830:	f1b8 0f00 	cmp.w	r8, #0
10009834:	d001      	beq.n	1000983a <_etoa+0x32a>
10009836:	f04f 0900 	mov.w	r9, #0
1000983a:	f1ba 0f00 	cmp.w	sl, #0
1000983e:	d007      	beq.n	10009850 <_etoa+0x340>
10009840:	e9dd 2308 	ldrd	r2, r3, [sp, #32]
10009844:	e9dd 0106 	ldrd	r0, r1, [sp, #24]
10009848:	f7ff fbcc 	bl	10008fe4 <__wrap___aeabi_ddiv>
1000984c:	e9cd 0106 	strd	r0, r1, [sp, #24]
10009850:	2200      	movs	r2, #0
10009852:	2300      	movs	r3, #0
10009854:	e9dd 011a 	ldrd	r0, r1, [sp, #104]	@ 0x68
10009858:	f7ff fc6c 	bl	10009134 <__wrap___aeabi_dcmplt>
1000985c:	2800      	cmp	r0, #0
1000985e:	d14e      	bne.n	100098fe <_etoa+0x3ee>
10009860:	9b1e      	ldr	r3, [sp, #120]	@ 0x78
10009862:	f423 6300 	bic.w	r3, r3, #2048	@ 0x800
10009866:	9304      	str	r3, [sp, #16]
10009868:	f8cd 900c 	str.w	r9, [sp, #12]
1000986c:	9b1c      	ldr	r3, [sp, #112]	@ 0x70
1000986e:	9302      	str	r3, [sp, #8]
10009870:	ed9d 7b06 	vldr	d7, [sp, #24]
10009874:	ed8d 7b00 	vstr	d7, [sp]
10009878:	4633      	mov	r3, r6
1000987a:	463a      	mov	r2, r7
1000987c:	4629      	mov	r1, r5
1000987e:	4620      	mov	r0, r4
10009880:	f000 f856 	bl	10009930 <_ftoa>
10009884:	f1b8 0f00 	cmp.w	r8, #0
10009888:	f43f af4f 	beq.w	1000972a <_etoa+0x21a>
1000988c:	9b1e      	ldr	r3, [sp, #120]	@ 0x78
1000988e:	f013 0f20 	tst.w	r3, #32
10009892:	d03c      	beq.n	1000990e <_etoa+0x3fe>
10009894:	f04f 0c45 	mov.w	ip, #69	@ 0x45
10009898:	f100 0901 	add.w	r9, r0, #1
1000989c:	4633      	mov	r3, r6
1000989e:	4602      	mov	r2, r0
100098a0:	4629      	mov	r1, r5
100098a2:	4660      	mov	r0, ip
100098a4:	47a0      	blx	r4
100098a6:	ea8a 72ea 	eor.w	r2, sl, sl, asr #31
100098aa:	eba2 72ea 	sub.w	r2, r2, sl, asr #31
100098ae:	2305      	movs	r3, #5
100098b0:	9305      	str	r3, [sp, #20]
100098b2:	f108 33ff 	add.w	r3, r8, #4294967295
100098b6:	9304      	str	r3, [sp, #16]
100098b8:	2300      	movs	r3, #0
100098ba:	9303      	str	r3, [sp, #12]
100098bc:	230a      	movs	r3, #10
100098be:	9302      	str	r3, [sp, #8]
100098c0:	ea4f 73da 	mov.w	r3, sl, lsr #31
100098c4:	9301      	str	r3, [sp, #4]
100098c6:	9200      	str	r2, [sp, #0]
100098c8:	4633      	mov	r3, r6
100098ca:	464a      	mov	r2, r9
100098cc:	4629      	mov	r1, r5
100098ce:	4620      	mov	r0, r4
100098d0:	f7ff fd71 	bl	100093b6 <_ntoa_long>
100098d4:	f1bb 0f00 	cmp.w	fp, #0
100098d8:	f43f af27 	beq.w	1000972a <_etoa+0x21a>
100098dc:	4602      	mov	r2, r0
100098de:	f8dd 9074 	ldr.w	r9, [sp, #116]	@ 0x74
100098e2:	e01e      	b.n	10009922 <_etoa+0x412>
100098e4:	9b1c      	ldr	r3, [sp, #112]	@ 0x70
100098e6:	2b00      	cmp	r3, #0
100098e8:	d099      	beq.n	1000981e <_etoa+0x30e>
100098ea:	9b0d      	ldr	r3, [sp, #52]	@ 0x34
100098ec:	2b00      	cmp	r3, #0
100098ee:	d096      	beq.n	1000981e <_etoa+0x30e>
100098f0:	9b1c      	ldr	r3, [sp, #112]	@ 0x70
100098f2:	3b01      	subs	r3, #1
100098f4:	931c      	str	r3, [sp, #112]	@ 0x70
100098f6:	e792      	b.n	1000981e <_etoa+0x30e>
100098f8:	f04f 0900 	mov.w	r9, #0
100098fc:	e794      	b.n	10009828 <_etoa+0x318>
100098fe:	e9dd 0106 	ldrd	r0, r1, [sp, #24]
10009902:	4602      	mov	r2, r0
10009904:	f101 4300 	add.w	r3, r1, #2147483648	@ 0x80000000
10009908:	e9cd 2306 	strd	r2, r3, [sp, #24]
1000990c:	e7a8      	b.n	10009860 <_etoa+0x350>
1000990e:	f04f 0c65 	mov.w	ip, #101	@ 0x65
10009912:	e7c1      	b.n	10009898 <_etoa+0x388>
10009914:	f102 0801 	add.w	r8, r2, #1
10009918:	4633      	mov	r3, r6
1000991a:	4629      	mov	r1, r5
1000991c:	2020      	movs	r0, #32
1000991e:	47a0      	blx	r4
10009920:	4642      	mov	r2, r8
10009922:	1bd3      	subs	r3, r2, r7
10009924:	454b      	cmp	r3, r9
10009926:	d3f5      	bcc.n	10009914 <_etoa+0x404>
10009928:	4610      	mov	r0, r2
1000992a:	e6fe      	b.n	1000972a <_etoa+0x21a>
1000992c:	0000      	movs	r0, r0
	...

10009930 <_ftoa>:
10009930:	e92d 4ff0 	stmdb	sp!, {r4, r5, r6, r7, r8, r9, sl, fp, lr}
10009934:	ed2d 8b02 	vpush	{d8}
10009938:	b095      	sub	sp, #84	@ 0x54
1000993a:	9007      	str	r0, [sp, #28]
1000993c:	910a      	str	r1, [sp, #40]	@ 0x28
1000993e:	4692      	mov	sl, r2
10009940:	469b      	mov	fp, r3
10009942:	e9dd 8920 	ldrd	r8, r9, [sp, #128]	@ 0x80
10009946:	9d22      	ldr	r5, [sp, #136]	@ 0x88
10009948:	4642      	mov	r2, r8
1000994a:	464b      	mov	r3, r9
1000994c:	4640      	mov	r0, r8
1000994e:	4649      	mov	r1, r9
10009950:	f7ff fbde 	bl	10009110 <__wrap___aeabi_dcmpun>
10009954:	2800      	cmp	r0, #0
10009956:	d135      	bne.n	100099c4 <_ftoa+0x94>
10009958:	f04f 32ff 	mov.w	r2, #4294967295
1000995c:	f46f 1380 	mvn.w	r3, #1048576	@ 0x100000
10009960:	4640      	mov	r0, r8
10009962:	4649      	mov	r1, r9
10009964:	f7ff fbe6 	bl	10009134 <__wrap___aeabi_dcmplt>
10009968:	2800      	cmp	r0, #0
1000996a:	d13a      	bne.n	100099e2 <_ftoa+0xb2>
1000996c:	f04f 32ff 	mov.w	r2, #4294967295
10009970:	4b9f      	ldr	r3, [pc, #636]	@ (10009bf0 <_ftoa+0x2c0>)
10009972:	4640      	mov	r0, r8
10009974:	4649      	mov	r1, r9
10009976:	f7ff fc19 	bl	100091ac <__wrap___aeabi_dcmpgt>
1000997a:	2800      	cmp	r0, #0
1000997c:	d140      	bne.n	10009a00 <_ftoa+0xd0>
1000997e:	a398      	add	r3, pc, #608	@ (adr r3, 10009be0 <_ftoa+0x2b0>)
10009980:	e9d3 2300 	ldrd	r2, r3, [r3]
10009984:	4640      	mov	r0, r8
10009986:	4649      	mov	r1, r9
10009988:	f7ff fc10 	bl	100091ac <__wrap___aeabi_dcmpgt>
1000998c:	2800      	cmp	r0, #0
1000998e:	d14f      	bne.n	10009a30 <_ftoa+0x100>
10009990:	a395      	add	r3, pc, #596	@ (adr r3, 10009be8 <_ftoa+0x2b8>)
10009992:	e9d3 2300 	ldrd	r2, r3, [r3]
10009996:	4640      	mov	r0, r8
10009998:	4649      	mov	r1, r9
1000999a:	f7ff fbcb 	bl	10009134 <__wrap___aeabi_dcmplt>
1000999e:	2800      	cmp	r0, #0
100099a0:	d146      	bne.n	10009a30 <_ftoa+0x100>
100099a2:	2200      	movs	r2, #0
100099a4:	2300      	movs	r3, #0
100099a6:	4640      	mov	r0, r8
100099a8:	4649      	mov	r1, r9
100099aa:	f7ff fbc3 	bl	10009134 <__wrap___aeabi_dcmplt>
100099ae:	2800      	cmp	r0, #0
100099b0:	d14c      	bne.n	10009a4c <_ftoa+0x11c>
100099b2:	2300      	movs	r3, #0
100099b4:	930b      	str	r3, [sp, #44]	@ 0x2c
100099b6:	9b24      	ldr	r3, [sp, #144]	@ 0x90
100099b8:	f413 6f80 	tst.w	r3, #1024	@ 0x400
100099bc:	f000 80b7 	beq.w	10009b2e <_ftoa+0x1fe>
100099c0:	2400      	movs	r4, #0
100099c2:	e056      	b.n	10009a72 <_ftoa+0x142>
100099c4:	9b24      	ldr	r3, [sp, #144]	@ 0x90
100099c6:	9303      	str	r3, [sp, #12]
100099c8:	9b23      	ldr	r3, [sp, #140]	@ 0x8c
100099ca:	9302      	str	r3, [sp, #8]
100099cc:	2303      	movs	r3, #3
100099ce:	9301      	str	r3, [sp, #4]
100099d0:	4b88      	ldr	r3, [pc, #544]	@ (10009bf4 <_ftoa+0x2c4>)
100099d2:	9300      	str	r3, [sp, #0]
100099d4:	465b      	mov	r3, fp
100099d6:	4652      	mov	r2, sl
100099d8:	990a      	ldr	r1, [sp, #40]	@ 0x28
100099da:	9807      	ldr	r0, [sp, #28]
100099dc:	f7ff fc11 	bl	10009202 <_out_rev>
100099e0:	e137      	b.n	10009c52 <_ftoa+0x322>
100099e2:	9b24      	ldr	r3, [sp, #144]	@ 0x90
100099e4:	9303      	str	r3, [sp, #12]
100099e6:	9b23      	ldr	r3, [sp, #140]	@ 0x8c
100099e8:	9302      	str	r3, [sp, #8]
100099ea:	2304      	movs	r3, #4
100099ec:	9301      	str	r3, [sp, #4]
100099ee:	4b82      	ldr	r3, [pc, #520]	@ (10009bf8 <_ftoa+0x2c8>)
100099f0:	9300      	str	r3, [sp, #0]
100099f2:	465b      	mov	r3, fp
100099f4:	4652      	mov	r2, sl
100099f6:	990a      	ldr	r1, [sp, #40]	@ 0x28
100099f8:	9807      	ldr	r0, [sp, #28]
100099fa:	f7ff fc02 	bl	10009202 <_out_rev>
100099fe:	e128      	b.n	10009c52 <_ftoa+0x322>
10009a00:	9b24      	ldr	r3, [sp, #144]	@ 0x90
10009a02:	f013 0304 	ands.w	r3, r3, #4
10009a06:	d00f      	beq.n	10009a28 <_ftoa+0xf8>
10009a08:	4a7c      	ldr	r2, [pc, #496]	@ (10009bfc <_ftoa+0x2cc>)
10009a0a:	b17b      	cbz	r3, 10009a2c <_ftoa+0xfc>
10009a0c:	2304      	movs	r3, #4
10009a0e:	9924      	ldr	r1, [sp, #144]	@ 0x90
10009a10:	9103      	str	r1, [sp, #12]
10009a12:	9923      	ldr	r1, [sp, #140]	@ 0x8c
10009a14:	9102      	str	r1, [sp, #8]
10009a16:	9301      	str	r3, [sp, #4]
10009a18:	9200      	str	r2, [sp, #0]
10009a1a:	465b      	mov	r3, fp
10009a1c:	4652      	mov	r2, sl
10009a1e:	990a      	ldr	r1, [sp, #40]	@ 0x28
10009a20:	9807      	ldr	r0, [sp, #28]
10009a22:	f7ff fbee 	bl	10009202 <_out_rev>
10009a26:	e114      	b.n	10009c52 <_ftoa+0x322>
10009a28:	4a75      	ldr	r2, [pc, #468]	@ (10009c00 <_ftoa+0x2d0>)
10009a2a:	e7ee      	b.n	10009a0a <_ftoa+0xda>
10009a2c:	2303      	movs	r3, #3
10009a2e:	e7ee      	b.n	10009a0e <_ftoa+0xde>
10009a30:	9b24      	ldr	r3, [sp, #144]	@ 0x90
10009a32:	9304      	str	r3, [sp, #16]
10009a34:	9b23      	ldr	r3, [sp, #140]	@ 0x8c
10009a36:	9303      	str	r3, [sp, #12]
10009a38:	9502      	str	r5, [sp, #8]
10009a3a:	e9cd 8900 	strd	r8, r9, [sp]
10009a3e:	465b      	mov	r3, fp
10009a40:	4652      	mov	r2, sl
10009a42:	990a      	ldr	r1, [sp, #40]	@ 0x28
10009a44:	9807      	ldr	r0, [sp, #28]
10009a46:	f7ff fd63 	bl	10009510 <_etoa>
10009a4a:	e102      	b.n	10009c52 <_ftoa+0x322>
10009a4c:	4642      	mov	r2, r8
10009a4e:	464b      	mov	r3, r9
10009a50:	2000      	movs	r0, #0
10009a52:	2100      	movs	r1, #0
10009a54:	f7ff fa8c 	bl	10008f70 <__wrap___aeabi_dsub>
10009a58:	4680      	mov	r8, r0
10009a5a:	4689      	mov	r9, r1
10009a5c:	2301      	movs	r3, #1
10009a5e:	930b      	str	r3, [sp, #44]	@ 0x2c
10009a60:	e7a9      	b.n	100099b6 <_ftoa+0x86>
10009a62:	f104 0350 	add.w	r3, r4, #80	@ 0x50
10009a66:	446b      	add	r3, sp
10009a68:	2230      	movs	r2, #48	@ 0x30
10009a6a:	f803 2c20 	strb.w	r2, [r3, #-32]
10009a6e:	3d01      	subs	r5, #1
10009a70:	3401      	adds	r4, #1
10009a72:	2c1f      	cmp	r4, #31
10009a74:	d801      	bhi.n	10009a7a <_ftoa+0x14a>
10009a76:	2d09      	cmp	r5, #9
10009a78:	d8f3      	bhi.n	10009a62 <_ftoa+0x132>
10009a7a:	4640      	mov	r0, r8
10009a7c:	4649      	mov	r1, r9
10009a7e:	f7ff fb23 	bl	100090c8 <__wrap___aeabi_d2iz>
10009a82:	4606      	mov	r6, r0
10009a84:	f7ff fafc 	bl	10009080 <__wrap___aeabi_i2d>
10009a88:	4602      	mov	r2, r0
10009a8a:	460b      	mov	r3, r1
10009a8c:	4640      	mov	r0, r8
10009a8e:	4649      	mov	r1, r9
10009a90:	f7ff fa6e 	bl	10008f70 <__wrap___aeabi_dsub>
10009a94:	4b5b      	ldr	r3, [pc, #364]	@ (10009c04 <_ftoa+0x2d4>)
10009a96:	eb03 03c5 	add.w	r3, r3, r5, lsl #3
10009a9a:	ed93 8b00 	vldr	d8, [r3]
10009a9e:	ec53 2b18 	vmov	r2, r3, d8
10009aa2:	f7ff fa79 	bl	10008f98 <__wrap___aeabi_dmul>
10009aa6:	4602      	mov	r2, r0
10009aa8:	460b      	mov	r3, r1
10009aaa:	e9cd 2308 	strd	r2, r3, [sp, #32]
10009aae:	f7ff fb1d 	bl	100090ec <__wrap___aeabi_d2uiz>
10009ab2:	4607      	mov	r7, r0
10009ab4:	f7ff faf6 	bl	100090a4 <__wrap___aeabi_ui2d>
10009ab8:	4602      	mov	r2, r0
10009aba:	460b      	mov	r3, r1
10009abc:	e9dd 0108 	ldrd	r0, r1, [sp, #32]
10009ac0:	f7ff fa56 	bl	10008f70 <__wrap___aeabi_dsub>
10009ac4:	4602      	mov	r2, r0
10009ac6:	460b      	mov	r3, r1
10009ac8:	e9cd 2308 	strd	r2, r3, [sp, #32]
10009acc:	2200      	movs	r2, #0
10009ace:	4b4e      	ldr	r3, [pc, #312]	@ (10009c08 <_ftoa+0x2d8>)
10009ad0:	f7ff fb6c 	bl	100091ac <__wrap___aeabi_dcmpgt>
10009ad4:	b368      	cbz	r0, 10009b32 <_ftoa+0x202>
10009ad6:	3701      	adds	r7, #1
10009ad8:	4638      	mov	r0, r7
10009ada:	f7ff fae3 	bl	100090a4 <__wrap___aeabi_ui2d>
10009ade:	4602      	mov	r2, r0
10009ae0:	460b      	mov	r3, r1
10009ae2:	ec51 0b18 	vmov	r0, r1, d8
10009ae6:	f7ff fb39 	bl	1000915c <__wrap___aeabi_dcmple>
10009aea:	b108      	cbz	r0, 10009af0 <_ftoa+0x1c0>
10009aec:	3601      	adds	r6, #1
10009aee:	2700      	movs	r7, #0
10009af0:	bb6d      	cbnz	r5, 10009b4e <_ftoa+0x21e>
10009af2:	4630      	mov	r0, r6
10009af4:	f7ff fac4 	bl	10009080 <__wrap___aeabi_i2d>
10009af8:	4602      	mov	r2, r0
10009afa:	460b      	mov	r3, r1
10009afc:	4640      	mov	r0, r8
10009afe:	4649      	mov	r1, r9
10009b00:	f7ff fa36 	bl	10008f70 <__wrap___aeabi_dsub>
10009b04:	4607      	mov	r7, r0
10009b06:	4688      	mov	r8, r1
10009b08:	2200      	movs	r2, #0
10009b0a:	4b3f      	ldr	r3, [pc, #252]	@ (10009c08 <_ftoa+0x2d8>)
10009b0c:	f7ff fb12 	bl	10009134 <__wrap___aeabi_dcmplt>
10009b10:	2800      	cmp	r0, #0
10009b12:	d14c      	bne.n	10009bae <_ftoa+0x27e>
10009b14:	2200      	movs	r2, #0
10009b16:	4b3c      	ldr	r3, [pc, #240]	@ (10009c08 <_ftoa+0x2d8>)
10009b18:	4638      	mov	r0, r7
10009b1a:	4641      	mov	r1, r8
10009b1c:	f7ff fb46 	bl	100091ac <__wrap___aeabi_dcmpgt>
10009b20:	2800      	cmp	r0, #0
10009b22:	d144      	bne.n	10009bae <_ftoa+0x27e>
10009b24:	f016 0f01 	tst.w	r6, #1
10009b28:	d041      	beq.n	10009bae <_ftoa+0x27e>
10009b2a:	3601      	adds	r6, #1
10009b2c:	e03f      	b.n	10009bae <_ftoa+0x27e>
10009b2e:	2506      	movs	r5, #6
10009b30:	e746      	b.n	100099c0 <_ftoa+0x90>
10009b32:	2200      	movs	r2, #0
10009b34:	4b34      	ldr	r3, [pc, #208]	@ (10009c08 <_ftoa+0x2d8>)
10009b36:	e9dd 0108 	ldrd	r0, r1, [sp, #32]
10009b3a:	f7ff fafb 	bl	10009134 <__wrap___aeabi_dcmplt>
10009b3e:	2800      	cmp	r0, #0
10009b40:	d1d6      	bne.n	10009af0 <_ftoa+0x1c0>
10009b42:	b117      	cbz	r7, 10009b4a <_ftoa+0x21a>
10009b44:	f017 0f01 	tst.w	r7, #1
10009b48:	d0d2      	beq.n	10009af0 <_ftoa+0x1c0>
10009b4a:	3701      	adds	r7, #1
10009b4c:	e7d0      	b.n	10009af0 <_ftoa+0x1c0>
10009b4e:	2c1f      	cmp	r4, #31
10009b50:	d817      	bhi.n	10009b82 <_ftoa+0x252>
10009b52:	3d01      	subs	r5, #1
10009b54:	4b2d      	ldr	r3, [pc, #180]	@ (10009c0c <_ftoa+0x2dc>)
10009b56:	fba3 2307 	umull	r2, r3, r3, r7
10009b5a:	08db      	lsrs	r3, r3, #3
10009b5c:	4619      	mov	r1, r3
10009b5e:	eb03 0383 	add.w	r3, r3, r3, lsl #2
10009b62:	eba7 0343 	sub.w	r3, r7, r3, lsl #1
10009b66:	1c62      	adds	r2, r4, #1
10009b68:	3330      	adds	r3, #48	@ 0x30
10009b6a:	f104 0050 	add.w	r0, r4, #80	@ 0x50
10009b6e:	eb0d 0400 	add.w	r4, sp, r0
10009b72:	f804 3c20 	strb.w	r3, [r4, #-32]
10009b76:	2f09      	cmp	r7, #9
10009b78:	d902      	bls.n	10009b80 <_ftoa+0x250>
10009b7a:	460f      	mov	r7, r1
10009b7c:	4614      	mov	r4, r2
10009b7e:	e7e6      	b.n	10009b4e <_ftoa+0x21e>
10009b80:	4614      	mov	r4, r2
10009b82:	2c1f      	cmp	r4, #31
10009b84:	d80a      	bhi.n	10009b9c <_ftoa+0x26c>
10009b86:	1e6b      	subs	r3, r5, #1
10009b88:	b145      	cbz	r5, 10009b9c <_ftoa+0x26c>
10009b8a:	f104 0250 	add.w	r2, r4, #80	@ 0x50
10009b8e:	446a      	add	r2, sp
10009b90:	2130      	movs	r1, #48	@ 0x30
10009b92:	f802 1c20 	strb.w	r1, [r2, #-32]
10009b96:	461d      	mov	r5, r3
10009b98:	3401      	adds	r4, #1
10009b9a:	e7f2      	b.n	10009b82 <_ftoa+0x252>
10009b9c:	2c1f      	cmp	r4, #31
10009b9e:	d806      	bhi.n	10009bae <_ftoa+0x27e>
10009ba0:	f104 0350 	add.w	r3, r4, #80	@ 0x50
10009ba4:	446b      	add	r3, sp
10009ba6:	222e      	movs	r2, #46	@ 0x2e
10009ba8:	f803 2c20 	strb.w	r2, [r3, #-32]
10009bac:	3401      	adds	r4, #1
10009bae:	2c1f      	cmp	r4, #31
10009bb0:	d831      	bhi.n	10009c16 <_ftoa+0x2e6>
10009bb2:	4a17      	ldr	r2, [pc, #92]	@ (10009c10 <_ftoa+0x2e0>)
10009bb4:	fb82 3206 	smull	r3, r2, r2, r6
10009bb8:	17f3      	asrs	r3, r6, #31
10009bba:	ebc3 03a2 	rsb	r3, r3, r2, asr #2
10009bbe:	461a      	mov	r2, r3
10009bc0:	eb03 0383 	add.w	r3, r3, r3, lsl #2
10009bc4:	eba6 0343 	sub.w	r3, r6, r3, lsl #1
10009bc8:	1c61      	adds	r1, r4, #1
10009bca:	3330      	adds	r3, #48	@ 0x30
10009bcc:	f104 0050 	add.w	r0, r4, #80	@ 0x50
10009bd0:	eb0d 0400 	add.w	r4, sp, r0
10009bd4:	f804 3c20 	strb.w	r3, [r4, #-32]
10009bd8:	4616      	mov	r6, r2
10009bda:	b1da      	cbz	r2, 10009c14 <_ftoa+0x2e4>
10009bdc:	460c      	mov	r4, r1
10009bde:	e7e6      	b.n	10009bae <_ftoa+0x27e>
10009be0:	00000000 	.word	0x00000000
10009be4:	41cdcd65 	.word	0x41cdcd65
10009be8:	00000000 	.word	0x00000000
10009bec:	c1cdcd65 	.word	0xc1cdcd65
10009bf0:	7fefffff 	.word	0x7fefffff
10009bf4:	1000d4a8 	.word	0x1000d4a8
10009bf8:	1000d4ac 	.word	0x1000d4ac
10009bfc:	1000d49c 	.word	0x1000d49c
10009c00:	1000d4a4 	.word	0x1000d4a4
10009c04:	1000eed0 	.word	0x1000eed0
10009c08:	3fe00000 	.word	0x3fe00000
10009c0c:	cccccccd 	.word	0xcccccccd
10009c10:	66666667 	.word	0x66666667
10009c14:	460c      	mov	r4, r1
10009c16:	9b24      	ldr	r3, [sp, #144]	@ 0x90
10009c18:	f003 0303 	and.w	r3, r3, #3
10009c1c:	2b01      	cmp	r3, #1
10009c1e:	d01d      	beq.n	10009c5c <_ftoa+0x32c>
10009c20:	2c1f      	cmp	r4, #31
10009c22:	d809      	bhi.n	10009c38 <_ftoa+0x308>
10009c24:	9b0b      	ldr	r3, [sp, #44]	@ 0x2c
10009c26:	2b00      	cmp	r3, #0
10009c28:	d035      	beq.n	10009c96 <_ftoa+0x366>
10009c2a:	f104 0350 	add.w	r3, r4, #80	@ 0x50
10009c2e:	446b      	add	r3, sp
10009c30:	222d      	movs	r2, #45	@ 0x2d
10009c32:	f803 2c20 	strb.w	r2, [r3, #-32]
10009c36:	3401      	adds	r4, #1
10009c38:	9b24      	ldr	r3, [sp, #144]	@ 0x90
10009c3a:	9303      	str	r3, [sp, #12]
10009c3c:	9b23      	ldr	r3, [sp, #140]	@ 0x8c
10009c3e:	9302      	str	r3, [sp, #8]
10009c40:	9401      	str	r4, [sp, #4]
10009c42:	ab0c      	add	r3, sp, #48	@ 0x30
10009c44:	9300      	str	r3, [sp, #0]
10009c46:	465b      	mov	r3, fp
10009c48:	4652      	mov	r2, sl
10009c4a:	990a      	ldr	r1, [sp, #40]	@ 0x28
10009c4c:	9807      	ldr	r0, [sp, #28]
10009c4e:	f7ff fad8 	bl	10009202 <_out_rev>
10009c52:	b015      	add	sp, #84	@ 0x54
10009c54:	ecbd 8b02 	vpop	{d8}
10009c58:	e8bd 8ff0 	ldmia.w	sp!, {r4, r5, r6, r7, r8, r9, sl, fp, pc}
10009c5c:	9b23      	ldr	r3, [sp, #140]	@ 0x8c
10009c5e:	b1b3      	cbz	r3, 10009c8e <_ftoa+0x35e>
10009c60:	9b0b      	ldr	r3, [sp, #44]	@ 0x2c
10009c62:	b91b      	cbnz	r3, 10009c6c <_ftoa+0x33c>
10009c64:	9b24      	ldr	r3, [sp, #144]	@ 0x90
10009c66:	f013 0f0c 	tst.w	r3, #12
10009c6a:	d012      	beq.n	10009c92 <_ftoa+0x362>
10009c6c:	9b23      	ldr	r3, [sp, #140]	@ 0x8c
10009c6e:	3b01      	subs	r3, #1
10009c70:	9323      	str	r3, [sp, #140]	@ 0x8c
10009c72:	4619      	mov	r1, r3
10009c74:	e006      	b.n	10009c84 <_ftoa+0x354>
10009c76:	f104 0350 	add.w	r3, r4, #80	@ 0x50
10009c7a:	446b      	add	r3, sp
10009c7c:	2230      	movs	r2, #48	@ 0x30
10009c7e:	f803 2c20 	strb.w	r2, [r3, #-32]
10009c82:	3401      	adds	r4, #1
10009c84:	428c      	cmp	r4, r1
10009c86:	d2cb      	bcs.n	10009c20 <_ftoa+0x2f0>
10009c88:	2c1f      	cmp	r4, #31
10009c8a:	d9f4      	bls.n	10009c76 <_ftoa+0x346>
10009c8c:	e7c8      	b.n	10009c20 <_ftoa+0x2f0>
10009c8e:	9923      	ldr	r1, [sp, #140]	@ 0x8c
10009c90:	e7f8      	b.n	10009c84 <_ftoa+0x354>
10009c92:	9923      	ldr	r1, [sp, #140]	@ 0x8c
10009c94:	e7f6      	b.n	10009c84 <_ftoa+0x354>
10009c96:	9b24      	ldr	r3, [sp, #144]	@ 0x90
10009c98:	f013 0f04 	tst.w	r3, #4
10009c9c:	d007      	beq.n	10009cae <_ftoa+0x37e>
10009c9e:	f104 0350 	add.w	r3, r4, #80	@ 0x50
10009ca2:	446b      	add	r3, sp
10009ca4:	222b      	movs	r2, #43	@ 0x2b
10009ca6:	f803 2c20 	strb.w	r2, [r3, #-32]
10009caa:	3401      	adds	r4, #1
10009cac:	e7c4      	b.n	10009c38 <_ftoa+0x308>
10009cae:	9b24      	ldr	r3, [sp, #144]	@ 0x90
10009cb0:	f013 0f08 	tst.w	r3, #8
10009cb4:	d0c0      	beq.n	10009c38 <_ftoa+0x308>
10009cb6:	f104 0350 	add.w	r3, r4, #80	@ 0x50
10009cba:	446b      	add	r3, sp
10009cbc:	2220      	movs	r2, #32
10009cbe:	f803 2c20 	strb.w	r2, [r3, #-32]
10009cc2:	3401      	adds	r4, #1
10009cc4:	e7b8      	b.n	10009c38 <_ftoa+0x308>
10009cc6:	bf00      	nop

10009cc8 <_vsnprintf>:
10009cc8:	e92d 4ff0 	stmdb	sp!, {r4, r5, r6, r7, r8, r9, sl, fp, lr}
10009ccc:	b091      	sub	sp, #68	@ 0x44
10009cce:	4680      	mov	r8, r0
10009cd0:	4617      	mov	r7, r2
10009cd2:	930f      	str	r3, [sp, #60]	@ 0x3c
10009cd4:	4689      	mov	r9, r1
10009cd6:	2900      	cmp	r1, #0
10009cd8:	f000 834b 	beq.w	1000a372 <_vsnprintf+0x6aa>
10009cdc:	2600      	movs	r6, #0
10009cde:	9b0f      	ldr	r3, [sp, #60]	@ 0x3c
10009ce0:	7818      	ldrb	r0, [r3, #0]
10009ce2:	2800      	cmp	r0, #0
10009ce4:	f000 8348 	beq.w	1000a378 <_vsnprintf+0x6b0>
10009ce8:	2825      	cmp	r0, #37	@ 0x25
10009cea:	d009      	beq.n	10009d00 <_vsnprintf+0x38>
10009cec:	1c74      	adds	r4, r6, #1
10009cee:	463b      	mov	r3, r7
10009cf0:	4632      	mov	r2, r6
10009cf2:	4649      	mov	r1, r9
10009cf4:	47c0      	blx	r8
10009cf6:	9b0f      	ldr	r3, [sp, #60]	@ 0x3c
10009cf8:	3301      	adds	r3, #1
10009cfa:	930f      	str	r3, [sp, #60]	@ 0x3c
10009cfc:	4626      	mov	r6, r4
10009cfe:	e7ee      	b.n	10009cde <_vsnprintf+0x16>
10009d00:	3301      	adds	r3, #1
10009d02:	930f      	str	r3, [sp, #60]	@ 0x3c
10009d04:	2500      	movs	r5, #0
10009d06:	e01f      	b.n	10009d48 <_vsnprintf+0x80>
10009d08:	f045 0501 	orr.w	r5, r5, #1
10009d0c:	3201      	adds	r2, #1
10009d0e:	920f      	str	r2, [sp, #60]	@ 0x3c
10009d10:	2301      	movs	r3, #1
10009d12:	e018      	b.n	10009d46 <_vsnprintf+0x7e>
10009d14:	f045 0502 	orr.w	r5, r5, #2
10009d18:	3201      	adds	r2, #1
10009d1a:	920f      	str	r2, [sp, #60]	@ 0x3c
10009d1c:	2301      	movs	r3, #1
10009d1e:	e012      	b.n	10009d46 <_vsnprintf+0x7e>
10009d20:	f045 0504 	orr.w	r5, r5, #4
10009d24:	3201      	adds	r2, #1
10009d26:	920f      	str	r2, [sp, #60]	@ 0x3c
10009d28:	2301      	movs	r3, #1
10009d2a:	e00c      	b.n	10009d46 <_vsnprintf+0x7e>
10009d2c:	f045 0508 	orr.w	r5, r5, #8
10009d30:	3201      	adds	r2, #1
10009d32:	920f      	str	r2, [sp, #60]	@ 0x3c
10009d34:	2301      	movs	r3, #1
10009d36:	e006      	b.n	10009d46 <_vsnprintf+0x7e>
10009d38:	f045 0510 	orr.w	r5, r5, #16
10009d3c:	3201      	adds	r2, #1
10009d3e:	920f      	str	r2, [sp, #60]	@ 0x3c
10009d40:	2301      	movs	r3, #1
10009d42:	e000      	b.n	10009d46 <_vsnprintf+0x7e>
10009d44:	2300      	movs	r3, #0
10009d46:	b34b      	cbz	r3, 10009d9c <_vsnprintf+0xd4>
10009d48:	9a0f      	ldr	r2, [sp, #60]	@ 0x3c
10009d4a:	7813      	ldrb	r3, [r2, #0]
10009d4c:	3b20      	subs	r3, #32
10009d4e:	2b10      	cmp	r3, #16
10009d50:	d8f8      	bhi.n	10009d44 <_vsnprintf+0x7c>
10009d52:	a101      	add	r1, pc, #4	@ (adr r1, 10009d58 <_vsnprintf+0x90>)
10009d54:	f851 f023 	ldr.w	pc, [r1, r3, lsl #2]
10009d58:	10009d2d 	.word	0x10009d2d
10009d5c:	10009d45 	.word	0x10009d45
10009d60:	10009d45 	.word	0x10009d45
10009d64:	10009d39 	.word	0x10009d39
10009d68:	10009d45 	.word	0x10009d45
10009d6c:	10009d45 	.word	0x10009d45
10009d70:	10009d45 	.word	0x10009d45
10009d74:	10009d45 	.word	0x10009d45
10009d78:	10009d45 	.word	0x10009d45
10009d7c:	10009d45 	.word	0x10009d45
10009d80:	10009d45 	.word	0x10009d45
10009d84:	10009d21 	.word	0x10009d21
10009d88:	10009d45 	.word	0x10009d45
10009d8c:	10009d15 	.word	0x10009d15
10009d90:	10009d45 	.word	0x10009d45
10009d94:	10009d45 	.word	0x10009d45
10009d98:	10009d09 	.word	0x10009d09
10009d9c:	930b      	str	r3, [sp, #44]	@ 0x2c
10009d9e:	9b0f      	ldr	r3, [sp, #60]	@ 0x3c
10009da0:	781a      	ldrb	r2, [r3, #0]
10009da2:	f1a2 0330 	sub.w	r3, r2, #48	@ 0x30
10009da6:	b2db      	uxtb	r3, r3
10009da8:	2b09      	cmp	r3, #9
10009daa:	d918      	bls.n	10009dde <_vsnprintf+0x116>
10009dac:	2a2a      	cmp	r2, #42	@ 0x2a
10009dae:	d01b      	beq.n	10009de8 <_vsnprintf+0x120>
10009db0:	f8dd b02c 	ldr.w	fp, [sp, #44]	@ 0x2c
10009db4:	9b0f      	ldr	r3, [sp, #60]	@ 0x3c
10009db6:	781a      	ldrb	r2, [r3, #0]
10009db8:	2a2e      	cmp	r2, #46	@ 0x2e
10009dba:	d025      	beq.n	10009e08 <_vsnprintf+0x140>
10009dbc:	9a0f      	ldr	r2, [sp, #60]	@ 0x3c
10009dbe:	7813      	ldrb	r3, [r2, #0]
10009dc0:	3b68      	subs	r3, #104	@ 0x68
10009dc2:	2b12      	cmp	r3, #18
10009dc4:	d85c      	bhi.n	10009e80 <_vsnprintf+0x1b8>
10009dc6:	e8df f003 	tbb	[pc, r3]
10009dca:	5b49      	.short	0x5b49
10009dcc:	5b3b5bac 	.word	0x5b3b5bac
10009dd0:	5b5b5b5b 	.word	0x5b5b5b5b
10009dd4:	5b575b5b 	.word	0x5b575b5b
10009dd8:	5b5b5b5b 	.word	0x5b5b5b5b
10009ddc:	b1          	.byte	0xb1
10009ddd:	00          	.byte	0x00
10009dde:	a80f      	add	r0, sp, #60	@ 0x3c
10009de0:	f7ff f9fc 	bl	100091dc <_atoi>
10009de4:	4683      	mov	fp, r0
10009de6:	e7e5      	b.n	10009db4 <_vsnprintf+0xec>
10009de8:	9b1a      	ldr	r3, [sp, #104]	@ 0x68
10009dea:	1d1a      	adds	r2, r3, #4
10009dec:	921a      	str	r2, [sp, #104]	@ 0x68
10009dee:	681b      	ldr	r3, [r3, #0]
10009df0:	2b00      	cmp	r3, #0
10009df2:	db04      	blt.n	10009dfe <_vsnprintf+0x136>
10009df4:	469b      	mov	fp, r3
10009df6:	9b0f      	ldr	r3, [sp, #60]	@ 0x3c
10009df8:	3301      	adds	r3, #1
10009dfa:	930f      	str	r3, [sp, #60]	@ 0x3c
10009dfc:	e7da      	b.n	10009db4 <_vsnprintf+0xec>
10009dfe:	f045 0502 	orr.w	r5, r5, #2
10009e02:	f1c3 0b00 	rsb	fp, r3, #0
10009e06:	e7f6      	b.n	10009df6 <_vsnprintf+0x12e>
10009e08:	f445 6580 	orr.w	r5, r5, #1024	@ 0x400
10009e0c:	1c5a      	adds	r2, r3, #1
10009e0e:	920f      	str	r2, [sp, #60]	@ 0x3c
10009e10:	785a      	ldrb	r2, [r3, #1]
10009e12:	f1a2 0330 	sub.w	r3, r2, #48	@ 0x30
10009e16:	b2db      	uxtb	r3, r3
10009e18:	2b09      	cmp	r3, #9
10009e1a:	d90c      	bls.n	10009e36 <_vsnprintf+0x16e>
10009e1c:	2a2a      	cmp	r2, #42	@ 0x2a
10009e1e:	d1cd      	bne.n	10009dbc <_vsnprintf+0xf4>
10009e20:	9b1a      	ldr	r3, [sp, #104]	@ 0x68
10009e22:	1d1a      	adds	r2, r3, #4
10009e24:	921a      	str	r2, [sp, #104]	@ 0x68
10009e26:	681c      	ldr	r4, [r3, #0]
10009e28:	ea24 73e4 	bic.w	r3, r4, r4, asr #31
10009e2c:	930b      	str	r3, [sp, #44]	@ 0x2c
10009e2e:	9b0f      	ldr	r3, [sp, #60]	@ 0x3c
10009e30:	3301      	adds	r3, #1
10009e32:	930f      	str	r3, [sp, #60]	@ 0x3c
10009e34:	e7c2      	b.n	10009dbc <_vsnprintf+0xf4>
10009e36:	a80f      	add	r0, sp, #60	@ 0x3c
10009e38:	f7ff f9d0 	bl	100091dc <_atoi>
10009e3c:	900b      	str	r0, [sp, #44]	@ 0x2c
10009e3e:	e7bd      	b.n	10009dbc <_vsnprintf+0xf4>
10009e40:	f445 7180 	orr.w	r1, r5, #256	@ 0x100
10009e44:	1c53      	adds	r3, r2, #1
10009e46:	930f      	str	r3, [sp, #60]	@ 0x3c
10009e48:	7853      	ldrb	r3, [r2, #1]
10009e4a:	2b6c      	cmp	r3, #108	@ 0x6c
10009e4c:	d001      	beq.n	10009e52 <_vsnprintf+0x18a>
10009e4e:	460d      	mov	r5, r1
10009e50:	e016      	b.n	10009e80 <_vsnprintf+0x1b8>
10009e52:	f445 7540 	orr.w	r5, r5, #768	@ 0x300
10009e56:	3202      	adds	r2, #2
10009e58:	920f      	str	r2, [sp, #60]	@ 0x3c
10009e5a:	e011      	b.n	10009e80 <_vsnprintf+0x1b8>
10009e5c:	f045 0180 	orr.w	r1, r5, #128	@ 0x80
10009e60:	1c53      	adds	r3, r2, #1
10009e62:	930f      	str	r3, [sp, #60]	@ 0x3c
10009e64:	7853      	ldrb	r3, [r2, #1]
10009e66:	2b68      	cmp	r3, #104	@ 0x68
10009e68:	d001      	beq.n	10009e6e <_vsnprintf+0x1a6>
10009e6a:	460d      	mov	r5, r1
10009e6c:	e008      	b.n	10009e80 <_vsnprintf+0x1b8>
10009e6e:	f045 05c0 	orr.w	r5, r5, #192	@ 0xc0
10009e72:	3202      	adds	r2, #2
10009e74:	920f      	str	r2, [sp, #60]	@ 0x3c
10009e76:	e003      	b.n	10009e80 <_vsnprintf+0x1b8>
10009e78:	f445 7580 	orr.w	r5, r5, #256	@ 0x100
10009e7c:	3201      	adds	r2, #1
10009e7e:	920f      	str	r2, [sp, #60]	@ 0x3c
10009e80:	9b0f      	ldr	r3, [sp, #60]	@ 0x3c
10009e82:	7818      	ldrb	r0, [r3, #0]
10009e84:	2867      	cmp	r0, #103	@ 0x67
10009e86:	d856      	bhi.n	10009f36 <_vsnprintf+0x26e>
10009e88:	2825      	cmp	r0, #37	@ 0x25
10009e8a:	f0c0 8268 	bcc.w	1000a35e <_vsnprintf+0x696>
10009e8e:	f1a0 0325 	sub.w	r3, r0, #37	@ 0x25
10009e92:	2b42      	cmp	r3, #66	@ 0x42
10009e94:	f200 8263 	bhi.w	1000a35e <_vsnprintf+0x696>
10009e98:	e8df f013 	tbh	[pc, r3, lsl #1]
10009e9c:	02610256 	.word	0x02610256
10009ea0:	02610261 	.word	0x02610261
10009ea4:	02610261 	.word	0x02610261
10009ea8:	02610261 	.word	0x02610261
10009eac:	02610261 	.word	0x02610261
10009eb0:	02610261 	.word	0x02610261
10009eb4:	02610261 	.word	0x02610261
10009eb8:	02610261 	.word	0x02610261
10009ebc:	02610261 	.word	0x02610261
10009ec0:	02610261 	.word	0x02610261
10009ec4:	02610261 	.word	0x02610261
10009ec8:	02610261 	.word	0x02610261
10009ecc:	02610261 	.word	0x02610261
10009ed0:	02610261 	.word	0x02610261
10009ed4:	02610261 	.word	0x02610261
10009ed8:	02610261 	.word	0x02610261
10009edc:	01680188 	.word	0x01680188
10009ee0:	02610188 	.word	0x02610188
10009ee4:	02610261 	.word	0x02610261
10009ee8:	02610261 	.word	0x02610261
10009eec:	02610261 	.word	0x02610261
10009ef0:	02610261 	.word	0x02610261
10009ef4:	02610261 	.word	0x02610261
10009ef8:	02610261 	.word	0x02610261
10009efc:	02610261 	.word	0x02610261
10009f00:	00710261 	.word	0x00710261
10009f04:	02610261 	.word	0x02610261
10009f08:	02610261 	.word	0x02610261
10009f0c:	02610261 	.word	0x02610261
10009f10:	02610261 	.word	0x02610261
10009f14:	00710261 	.word	0x00710261
10009f18:	007101af 	.word	0x007101af
10009f1c:	01680188 	.word	0x01680188
10009f20:	0188      	.short	0x0188
10009f22:	f445 7500 	orr.w	r5, r5, #512	@ 0x200
10009f26:	3201      	adds	r2, #1
10009f28:	920f      	str	r2, [sp, #60]	@ 0x3c
10009f2a:	e7a9      	b.n	10009e80 <_vsnprintf+0x1b8>
10009f2c:	f445 7580 	orr.w	r5, r5, #256	@ 0x100
10009f30:	3201      	adds	r2, #1
10009f32:	920f      	str	r2, [sp, #60]	@ 0x3c
10009f34:	e7a4      	b.n	10009e80 <_vsnprintf+0x1b8>
10009f36:	2878      	cmp	r0, #120	@ 0x78
10009f38:	f200 8211 	bhi.w	1000a35e <_vsnprintf+0x696>
10009f3c:	2869      	cmp	r0, #105	@ 0x69
10009f3e:	f0c0 820e 	bcc.w	1000a35e <_vsnprintf+0x696>
10009f42:	f1a0 0269 	sub.w	r2, r0, #105	@ 0x69
10009f46:	b2d2      	uxtb	r2, r2
10009f48:	2301      	movs	r3, #1
10009f4a:	4093      	lsls	r3, r2
10009f4c:	f249 0241 	movw	r2, #36929	@ 0x9041
10009f50:	4213      	tst	r3, r2
10009f52:	d114      	bne.n	10009f7e <_vsnprintf+0x2b6>
10009f54:	f013 0f80 	tst.w	r3, #128	@ 0x80
10009f58:	f040 81db 	bne.w	1000a312 <_vsnprintf+0x64a>
10009f5c:	f413 6f80 	tst.w	r3, #1024	@ 0x400
10009f60:	f000 81fd 	beq.w	1000a35e <_vsnprintf+0x696>
10009f64:	9b1a      	ldr	r3, [sp, #104]	@ 0x68
10009f66:	1d1a      	adds	r2, r3, #4
10009f68:	921a      	str	r2, [sp, #104]	@ 0x68
10009f6a:	f8d3 a000 	ldr.w	sl, [r3]
10009f6e:	9b0b      	ldr	r3, [sp, #44]	@ 0x2c
10009f70:	2b00      	cmp	r3, #0
10009f72:	f040 8190 	bne.w	1000a296 <_vsnprintf+0x5ce>
10009f76:	f04f 32ff 	mov.w	r2, #4294967295
10009f7a:	4653      	mov	r3, sl
10009f7c:	e171      	b.n	1000a262 <_vsnprintf+0x59a>
10009f7e:	286f      	cmp	r0, #111	@ 0x6f
10009f80:	d00c      	beq.n	10009f9c <_vsnprintf+0x2d4>
10009f82:	d805      	bhi.n	10009f90 <_vsnprintf+0x2c8>
10009f84:	2858      	cmp	r0, #88	@ 0x58
10009f86:	d03c      	beq.n	1000a002 <_vsnprintf+0x33a>
10009f88:	2862      	cmp	r0, #98	@ 0x62
10009f8a:	d103      	bne.n	10009f94 <_vsnprintf+0x2cc>
10009f8c:	2302      	movs	r3, #2
10009f8e:	e006      	b.n	10009f9e <_vsnprintf+0x2d6>
10009f90:	2878      	cmp	r0, #120	@ 0x78
10009f92:	d038      	beq.n	1000a006 <_vsnprintf+0x33e>
10009f94:	f025 0510 	bic.w	r5, r5, #16
10009f98:	230a      	movs	r3, #10
10009f9a:	e000      	b.n	10009f9e <_vsnprintf+0x2d6>
10009f9c:	2308      	movs	r3, #8
10009f9e:	2858      	cmp	r0, #88	@ 0x58
10009fa0:	d033      	beq.n	1000a00a <_vsnprintf+0x342>
10009fa2:	2869      	cmp	r0, #105	@ 0x69
10009fa4:	d003      	beq.n	10009fae <_vsnprintf+0x2e6>
10009fa6:	2864      	cmp	r0, #100	@ 0x64
10009fa8:	d001      	beq.n	10009fae <_vsnprintf+0x2e6>
10009faa:	f025 050c 	bic.w	r5, r5, #12
10009fae:	f415 6f80 	tst.w	r5, #1024	@ 0x400
10009fb2:	d001      	beq.n	10009fb8 <_vsnprintf+0x2f0>
10009fb4:	f025 0501 	bic.w	r5, r5, #1
10009fb8:	2869      	cmp	r0, #105	@ 0x69
10009fba:	d029      	beq.n	1000a010 <_vsnprintf+0x348>
10009fbc:	2864      	cmp	r0, #100	@ 0x64
10009fbe:	d027      	beq.n	1000a010 <_vsnprintf+0x348>
10009fc0:	f415 7f00 	tst.w	r5, #512	@ 0x200
10009fc4:	f040 8094 	bne.w	1000a0f0 <_vsnprintf+0x428>
10009fc8:	f415 7f80 	tst.w	r5, #256	@ 0x100
10009fcc:	f040 80ac 	bne.w	1000a128 <_vsnprintf+0x460>
10009fd0:	f015 0f40 	tst.w	r5, #64	@ 0x40
10009fd4:	f000 80bd 	beq.w	1000a152 <_vsnprintf+0x48a>
10009fd8:	9a1a      	ldr	r2, [sp, #104]	@ 0x68
10009fda:	1d11      	adds	r1, r2, #4
10009fdc:	911a      	str	r1, [sp, #104]	@ 0x68
10009fde:	7812      	ldrb	r2, [r2, #0]
10009fe0:	9505      	str	r5, [sp, #20]
10009fe2:	f8cd b010 	str.w	fp, [sp, #16]
10009fe6:	990b      	ldr	r1, [sp, #44]	@ 0x2c
10009fe8:	9103      	str	r1, [sp, #12]
10009fea:	9302      	str	r3, [sp, #8]
10009fec:	2300      	movs	r3, #0
10009fee:	9301      	str	r3, [sp, #4]
10009ff0:	9200      	str	r2, [sp, #0]
10009ff2:	463b      	mov	r3, r7
10009ff4:	4632      	mov	r2, r6
10009ff6:	4649      	mov	r1, r9
10009ff8:	4640      	mov	r0, r8
10009ffa:	f7ff f9dc 	bl	100093b6 <_ntoa_long>
10009ffe:	4606      	mov	r6, r0
1000a000:	e027      	b.n	1000a052 <_vsnprintf+0x38a>
1000a002:	2310      	movs	r3, #16
1000a004:	e7cb      	b.n	10009f9e <_vsnprintf+0x2d6>
1000a006:	2310      	movs	r3, #16
1000a008:	e7c9      	b.n	10009f9e <_vsnprintf+0x2d6>
1000a00a:	f045 0520 	orr.w	r5, r5, #32
1000a00e:	e7c8      	b.n	10009fa2 <_vsnprintf+0x2da>
1000a010:	f415 7f00 	tst.w	r5, #512	@ 0x200
1000a014:	d121      	bne.n	1000a05a <_vsnprintf+0x392>
1000a016:	f415 7f80 	tst.w	r5, #256	@ 0x100
1000a01a:	d142      	bne.n	1000a0a2 <_vsnprintf+0x3da>
1000a01c:	f015 0f40 	tst.w	r5, #64	@ 0x40
1000a020:	d058      	beq.n	1000a0d4 <_vsnprintf+0x40c>
1000a022:	9a1a      	ldr	r2, [sp, #104]	@ 0x68
1000a024:	1d11      	adds	r1, r2, #4
1000a026:	911a      	str	r1, [sp, #104]	@ 0x68
1000a028:	7812      	ldrb	r2, [r2, #0]
1000a02a:	ea82 71e2 	eor.w	r1, r2, r2, asr #31
1000a02e:	eba1 71e2 	sub.w	r1, r1, r2, asr #31
1000a032:	9505      	str	r5, [sp, #20]
1000a034:	f8cd b010 	str.w	fp, [sp, #16]
1000a038:	980b      	ldr	r0, [sp, #44]	@ 0x2c
1000a03a:	9003      	str	r0, [sp, #12]
1000a03c:	9302      	str	r3, [sp, #8]
1000a03e:	0fd2      	lsrs	r2, r2, #31
1000a040:	9201      	str	r2, [sp, #4]
1000a042:	9100      	str	r1, [sp, #0]
1000a044:	463b      	mov	r3, r7
1000a046:	4632      	mov	r2, r6
1000a048:	4649      	mov	r1, r9
1000a04a:	4640      	mov	r0, r8
1000a04c:	f7ff f9b3 	bl	100093b6 <_ntoa_long>
1000a050:	4606      	mov	r6, r0
1000a052:	9b0f      	ldr	r3, [sp, #60]	@ 0x3c
1000a054:	3301      	adds	r3, #1
1000a056:	930f      	str	r3, [sp, #60]	@ 0x3c
1000a058:	e641      	b.n	10009cde <_vsnprintf+0x16>
1000a05a:	9a1a      	ldr	r2, [sp, #104]	@ 0x68
1000a05c:	3207      	adds	r2, #7
1000a05e:	f022 0207 	bic.w	r2, r2, #7
1000a062:	f102 0108 	add.w	r1, r2, #8
1000a066:	911a      	str	r1, [sp, #104]	@ 0x68
1000a068:	6851      	ldr	r1, [r2, #4]
1000a06a:	6812      	ldr	r2, [r2, #0]
1000a06c:	4608      	mov	r0, r1
1000a06e:	2900      	cmp	r1, #0
1000a070:	db13      	blt.n	1000a09a <_vsnprintf+0x3d2>
1000a072:	9508      	str	r5, [sp, #32]
1000a074:	f8cd b01c 	str.w	fp, [sp, #28]
1000a078:	9c0b      	ldr	r4, [sp, #44]	@ 0x2c
1000a07a:	9406      	str	r4, [sp, #24]
1000a07c:	9304      	str	r3, [sp, #16]
1000a07e:	2300      	movs	r3, #0
1000a080:	9305      	str	r3, [sp, #20]
1000a082:	0fc9      	lsrs	r1, r1, #31
1000a084:	9102      	str	r1, [sp, #8]
1000a086:	9200      	str	r2, [sp, #0]
1000a088:	9001      	str	r0, [sp, #4]
1000a08a:	463b      	mov	r3, r7
1000a08c:	4632      	mov	r2, r6
1000a08e:	4649      	mov	r1, r9
1000a090:	4640      	mov	r0, r8
1000a092:	f7ff f9da 	bl	1000944a <_ntoa_long_long>
1000a096:	4606      	mov	r6, r0
1000a098:	e7db      	b.n	1000a052 <_vsnprintf+0x38a>
1000a09a:	4252      	negs	r2, r2
1000a09c:	eb61 0041 	sbc.w	r0, r1, r1, lsl #1
1000a0a0:	e7e7      	b.n	1000a072 <_vsnprintf+0x3aa>
1000a0a2:	9a1a      	ldr	r2, [sp, #104]	@ 0x68
1000a0a4:	1d11      	adds	r1, r2, #4
1000a0a6:	911a      	str	r1, [sp, #104]	@ 0x68
1000a0a8:	6812      	ldr	r2, [r2, #0]
1000a0aa:	ea82 71e2 	eor.w	r1, r2, r2, asr #31
1000a0ae:	eba1 71e2 	sub.w	r1, r1, r2, asr #31
1000a0b2:	9505      	str	r5, [sp, #20]
1000a0b4:	f8cd b010 	str.w	fp, [sp, #16]
1000a0b8:	980b      	ldr	r0, [sp, #44]	@ 0x2c
1000a0ba:	9003      	str	r0, [sp, #12]
1000a0bc:	9302      	str	r3, [sp, #8]
1000a0be:	0fd2      	lsrs	r2, r2, #31
1000a0c0:	9201      	str	r2, [sp, #4]
1000a0c2:	9100      	str	r1, [sp, #0]
1000a0c4:	463b      	mov	r3, r7
1000a0c6:	4632      	mov	r2, r6
1000a0c8:	4649      	mov	r1, r9
1000a0ca:	4640      	mov	r0, r8
1000a0cc:	f7ff f973 	bl	100093b6 <_ntoa_long>
1000a0d0:	4606      	mov	r6, r0
1000a0d2:	e7be      	b.n	1000a052 <_vsnprintf+0x38a>
1000a0d4:	f015 0f80 	tst.w	r5, #128	@ 0x80
1000a0d8:	d005      	beq.n	1000a0e6 <_vsnprintf+0x41e>
1000a0da:	9a1a      	ldr	r2, [sp, #104]	@ 0x68
1000a0dc:	1d11      	adds	r1, r2, #4
1000a0de:	911a      	str	r1, [sp, #104]	@ 0x68
1000a0e0:	f9b2 2000 	ldrsh.w	r2, [r2]
1000a0e4:	e7a1      	b.n	1000a02a <_vsnprintf+0x362>
1000a0e6:	9a1a      	ldr	r2, [sp, #104]	@ 0x68
1000a0e8:	1d11      	adds	r1, r2, #4
1000a0ea:	911a      	str	r1, [sp, #104]	@ 0x68
1000a0ec:	6812      	ldr	r2, [r2, #0]
1000a0ee:	e79c      	b.n	1000a02a <_vsnprintf+0x362>
1000a0f0:	9a1a      	ldr	r2, [sp, #104]	@ 0x68
1000a0f2:	3207      	adds	r2, #7
1000a0f4:	f022 0207 	bic.w	r2, r2, #7
1000a0f8:	f102 0108 	add.w	r1, r2, #8
1000a0fc:	911a      	str	r1, [sp, #104]	@ 0x68
1000a0fe:	9508      	str	r5, [sp, #32]
1000a100:	f8cd b01c 	str.w	fp, [sp, #28]
1000a104:	990b      	ldr	r1, [sp, #44]	@ 0x2c
1000a106:	9106      	str	r1, [sp, #24]
1000a108:	2100      	movs	r1, #0
1000a10a:	9304      	str	r3, [sp, #16]
1000a10c:	9105      	str	r1, [sp, #20]
1000a10e:	9102      	str	r1, [sp, #8]
1000a110:	e9d2 2300 	ldrd	r2, r3, [r2]
1000a114:	e9cd 2300 	strd	r2, r3, [sp]
1000a118:	463b      	mov	r3, r7
1000a11a:	4632      	mov	r2, r6
1000a11c:	4649      	mov	r1, r9
1000a11e:	4640      	mov	r0, r8
1000a120:	f7ff f993 	bl	1000944a <_ntoa_long_long>
1000a124:	4606      	mov	r6, r0
1000a126:	e794      	b.n	1000a052 <_vsnprintf+0x38a>
1000a128:	9a1a      	ldr	r2, [sp, #104]	@ 0x68
1000a12a:	1d11      	adds	r1, r2, #4
1000a12c:	911a      	str	r1, [sp, #104]	@ 0x68
1000a12e:	9505      	str	r5, [sp, #20]
1000a130:	f8cd b010 	str.w	fp, [sp, #16]
1000a134:	990b      	ldr	r1, [sp, #44]	@ 0x2c
1000a136:	9103      	str	r1, [sp, #12]
1000a138:	9302      	str	r3, [sp, #8]
1000a13a:	2300      	movs	r3, #0
1000a13c:	9301      	str	r3, [sp, #4]
1000a13e:	6813      	ldr	r3, [r2, #0]
1000a140:	9300      	str	r3, [sp, #0]
1000a142:	463b      	mov	r3, r7
1000a144:	4632      	mov	r2, r6
1000a146:	4649      	mov	r1, r9
1000a148:	4640      	mov	r0, r8
1000a14a:	f7ff f934 	bl	100093b6 <_ntoa_long>
1000a14e:	4606      	mov	r6, r0
1000a150:	e77f      	b.n	1000a052 <_vsnprintf+0x38a>
1000a152:	f015 0f80 	tst.w	r5, #128	@ 0x80
1000a156:	d004      	beq.n	1000a162 <_vsnprintf+0x49a>
1000a158:	9a1a      	ldr	r2, [sp, #104]	@ 0x68
1000a15a:	1d11      	adds	r1, r2, #4
1000a15c:	911a      	str	r1, [sp, #104]	@ 0x68
1000a15e:	8812      	ldrh	r2, [r2, #0]
1000a160:	e73e      	b.n	10009fe0 <_vsnprintf+0x318>
1000a162:	9a1a      	ldr	r2, [sp, #104]	@ 0x68
1000a164:	1d11      	adds	r1, r2, #4
1000a166:	911a      	str	r1, [sp, #104]	@ 0x68
1000a168:	6812      	ldr	r2, [r2, #0]
1000a16a:	e739      	b.n	10009fe0 <_vsnprintf+0x318>
1000a16c:	2846      	cmp	r0, #70	@ 0x46
1000a16e:	d01a      	beq.n	1000a1a6 <_vsnprintf+0x4de>
1000a170:	9b1a      	ldr	r3, [sp, #104]	@ 0x68
1000a172:	3307      	adds	r3, #7
1000a174:	f023 0307 	bic.w	r3, r3, #7
1000a178:	f103 0208 	add.w	r2, r3, #8
1000a17c:	921a      	str	r2, [sp, #104]	@ 0x68
1000a17e:	9504      	str	r5, [sp, #16]
1000a180:	f8cd b00c 	str.w	fp, [sp, #12]
1000a184:	9a0b      	ldr	r2, [sp, #44]	@ 0x2c
1000a186:	9202      	str	r2, [sp, #8]
1000a188:	e9d3 2300 	ldrd	r2, r3, [r3]
1000a18c:	e9cd 2300 	strd	r2, r3, [sp]
1000a190:	463b      	mov	r3, r7
1000a192:	4632      	mov	r2, r6
1000a194:	4649      	mov	r1, r9
1000a196:	4640      	mov	r0, r8
1000a198:	f7ff fbca 	bl	10009930 <_ftoa>
1000a19c:	4606      	mov	r6, r0
1000a19e:	9b0f      	ldr	r3, [sp, #60]	@ 0x3c
1000a1a0:	3301      	adds	r3, #1
1000a1a2:	930f      	str	r3, [sp, #60]	@ 0x3c
1000a1a4:	e59b      	b.n	10009cde <_vsnprintf+0x16>
1000a1a6:	f045 0520 	orr.w	r5, r5, #32
1000a1aa:	e7e1      	b.n	1000a170 <_vsnprintf+0x4a8>
1000a1ac:	2867      	cmp	r0, #103	@ 0x67
1000a1ae:	d001      	beq.n	1000a1b4 <_vsnprintf+0x4ec>
1000a1b0:	2847      	cmp	r0, #71	@ 0x47
1000a1b2:	d101      	bne.n	1000a1b8 <_vsnprintf+0x4f0>
1000a1b4:	f445 6500 	orr.w	r5, r5, #2048	@ 0x800
1000a1b8:	2845      	cmp	r0, #69	@ 0x45
1000a1ba:	d001      	beq.n	1000a1c0 <_vsnprintf+0x4f8>
1000a1bc:	2847      	cmp	r0, #71	@ 0x47
1000a1be:	d101      	bne.n	1000a1c4 <_vsnprintf+0x4fc>
1000a1c0:	f045 0520 	orr.w	r5, r5, #32
1000a1c4:	9b1a      	ldr	r3, [sp, #104]	@ 0x68
1000a1c6:	3307      	adds	r3, #7
1000a1c8:	f023 0307 	bic.w	r3, r3, #7
1000a1cc:	f103 0208 	add.w	r2, r3, #8
1000a1d0:	921a      	str	r2, [sp, #104]	@ 0x68
1000a1d2:	9504      	str	r5, [sp, #16]
1000a1d4:	f8cd b00c 	str.w	fp, [sp, #12]
1000a1d8:	9a0b      	ldr	r2, [sp, #44]	@ 0x2c
1000a1da:	9202      	str	r2, [sp, #8]
1000a1dc:	e9d3 2300 	ldrd	r2, r3, [r3]
1000a1e0:	e9cd 2300 	strd	r2, r3, [sp]
1000a1e4:	463b      	mov	r3, r7
1000a1e6:	4632      	mov	r2, r6
1000a1e8:	4649      	mov	r1, r9
1000a1ea:	4640      	mov	r0, r8
1000a1ec:	f7ff f990 	bl	10009510 <_etoa>
1000a1f0:	4606      	mov	r6, r0
1000a1f2:	9b0f      	ldr	r3, [sp, #60]	@ 0x3c
1000a1f4:	3301      	adds	r3, #1
1000a1f6:	930f      	str	r3, [sp, #60]	@ 0x3c
1000a1f8:	e571      	b.n	10009cde <_vsnprintf+0x16>
1000a1fa:	f015 0502 	ands.w	r5, r5, #2
1000a1fe:	d01d      	beq.n	1000a23c <_vsnprintf+0x574>
1000a200:	2401      	movs	r4, #1
1000a202:	981a      	ldr	r0, [sp, #104]	@ 0x68
1000a204:	1d03      	adds	r3, r0, #4
1000a206:	931a      	str	r3, [sp, #104]	@ 0x68
1000a208:	f106 0a01 	add.w	sl, r6, #1
1000a20c:	463b      	mov	r3, r7
1000a20e:	4632      	mov	r2, r6
1000a210:	4649      	mov	r1, r9
1000a212:	7800      	ldrb	r0, [r0, #0]
1000a214:	47c0      	blx	r8
1000a216:	b9a5      	cbnz	r5, 1000a242 <_vsnprintf+0x57a>
1000a218:	9b0f      	ldr	r3, [sp, #60]	@ 0x3c
1000a21a:	3301      	adds	r3, #1
1000a21c:	930f      	str	r3, [sp, #60]	@ 0x3c
1000a21e:	4656      	mov	r6, sl
1000a220:	e55d      	b.n	10009cde <_vsnprintf+0x16>
1000a222:	f102 0a01 	add.w	sl, r2, #1
1000a226:	463b      	mov	r3, r7
1000a228:	4649      	mov	r1, r9
1000a22a:	2020      	movs	r0, #32
1000a22c:	47c0      	blx	r8
1000a22e:	4623      	mov	r3, r4
1000a230:	4652      	mov	r2, sl
1000a232:	1c5c      	adds	r4, r3, #1
1000a234:	459b      	cmp	fp, r3
1000a236:	d8f4      	bhi.n	1000a222 <_vsnprintf+0x55a>
1000a238:	4616      	mov	r6, r2
1000a23a:	e7e2      	b.n	1000a202 <_vsnprintf+0x53a>
1000a23c:	2301      	movs	r3, #1
1000a23e:	4632      	mov	r2, r6
1000a240:	e7f7      	b.n	1000a232 <_vsnprintf+0x56a>
1000a242:	4652      	mov	r2, sl
1000a244:	e006      	b.n	1000a254 <_vsnprintf+0x58c>
1000a246:	1c56      	adds	r6, r2, #1
1000a248:	463b      	mov	r3, r7
1000a24a:	4649      	mov	r1, r9
1000a24c:	2020      	movs	r0, #32
1000a24e:	47c0      	blx	r8
1000a250:	462c      	mov	r4, r5
1000a252:	4632      	mov	r2, r6
1000a254:	1c65      	adds	r5, r4, #1
1000a256:	45a3      	cmp	fp, r4
1000a258:	d8f5      	bhi.n	1000a246 <_vsnprintf+0x57e>
1000a25a:	4692      	mov	sl, r2
1000a25c:	e7dc      	b.n	1000a218 <_vsnprintf+0x550>
1000a25e:	3301      	adds	r3, #1
1000a260:	460a      	mov	r2, r1
1000a262:	7819      	ldrb	r1, [r3, #0]
1000a264:	b111      	cbz	r1, 1000a26c <_vsnprintf+0x5a4>
1000a266:	1e51      	subs	r1, r2, #1
1000a268:	2a00      	cmp	r2, #0
1000a26a:	d1f8      	bne.n	1000a25e <_vsnprintf+0x596>
1000a26c:	eba3 030a 	sub.w	r3, r3, sl
1000a270:	f415 6280 	ands.w	r2, r5, #1024	@ 0x400
1000a274:	920c      	str	r2, [sp, #48]	@ 0x30
1000a276:	d003      	beq.n	1000a280 <_vsnprintf+0x5b8>
1000a278:	9a0b      	ldr	r2, [sp, #44]	@ 0x2c
1000a27a:	4293      	cmp	r3, r2
1000a27c:	bf28      	it	cs
1000a27e:	4613      	movcs	r3, r2
1000a280:	f015 0402 	ands.w	r4, r5, #2
1000a284:	d009      	beq.n	1000a29a <_vsnprintf+0x5d2>
1000a286:	940d      	str	r4, [sp, #52]	@ 0x34
1000a288:	f8cd b038 	str.w	fp, [sp, #56]	@ 0x38
1000a28c:	9d0b      	ldr	r5, [sp, #44]	@ 0x2c
1000a28e:	4632      	mov	r2, r6
1000a290:	9e0c      	ldr	r6, [sp, #48]	@ 0x30
1000a292:	469b      	mov	fp, r3
1000a294:	e01f      	b.n	1000a2d6 <_vsnprintf+0x60e>
1000a296:	9a0b      	ldr	r2, [sp, #44]	@ 0x2c
1000a298:	e66f      	b.n	10009f7a <_vsnprintf+0x2b2>
1000a29a:	4632      	mov	r2, r6
1000a29c:	4626      	mov	r6, r4
1000a29e:	e006      	b.n	1000a2ae <_vsnprintf+0x5e6>
1000a2a0:	1c54      	adds	r4, r2, #1
1000a2a2:	463b      	mov	r3, r7
1000a2a4:	4649      	mov	r1, r9
1000a2a6:	2020      	movs	r0, #32
1000a2a8:	47c0      	blx	r8
1000a2aa:	462b      	mov	r3, r5
1000a2ac:	4622      	mov	r2, r4
1000a2ae:	1c5d      	adds	r5, r3, #1
1000a2b0:	459b      	cmp	fp, r3
1000a2b2:	d8f5      	bhi.n	1000a2a0 <_vsnprintf+0x5d8>
1000a2b4:	4634      	mov	r4, r6
1000a2b6:	462b      	mov	r3, r5
1000a2b8:	940d      	str	r4, [sp, #52]	@ 0x34
1000a2ba:	f8cd b038 	str.w	fp, [sp, #56]	@ 0x38
1000a2be:	9d0b      	ldr	r5, [sp, #44]	@ 0x2c
1000a2c0:	9e0c      	ldr	r6, [sp, #48]	@ 0x30
1000a2c2:	469b      	mov	fp, r3
1000a2c4:	e007      	b.n	1000a2d6 <_vsnprintf+0x60e>
1000a2c6:	461d      	mov	r5, r3
1000a2c8:	f10a 0a01 	add.w	sl, sl, #1
1000a2cc:	1c54      	adds	r4, r2, #1
1000a2ce:	463b      	mov	r3, r7
1000a2d0:	4649      	mov	r1, r9
1000a2d2:	47c0      	blx	r8
1000a2d4:	4622      	mov	r2, r4
1000a2d6:	f89a 0000 	ldrb.w	r0, [sl]
1000a2da:	b120      	cbz	r0, 1000a2e6 <_vsnprintf+0x61e>
1000a2dc:	2e00      	cmp	r6, #0
1000a2de:	d0f3      	beq.n	1000a2c8 <_vsnprintf+0x600>
1000a2e0:	1e6b      	subs	r3, r5, #1
1000a2e2:	2d00      	cmp	r5, #0
1000a2e4:	d1ef      	bne.n	1000a2c6 <_vsnprintf+0x5fe>
1000a2e6:	9c0d      	ldr	r4, [sp, #52]	@ 0x34
1000a2e8:	4616      	mov	r6, r2
1000a2ea:	465b      	mov	r3, fp
1000a2ec:	f8dd b038 	ldr.w	fp, [sp, #56]	@ 0x38
1000a2f0:	b954      	cbnz	r4, 1000a308 <_vsnprintf+0x640>
1000a2f2:	9b0f      	ldr	r3, [sp, #60]	@ 0x3c
1000a2f4:	3301      	adds	r3, #1
1000a2f6:	930f      	str	r3, [sp, #60]	@ 0x3c
1000a2f8:	e4f1      	b.n	10009cde <_vsnprintf+0x16>
1000a2fa:	1c55      	adds	r5, r2, #1
1000a2fc:	463b      	mov	r3, r7
1000a2fe:	4649      	mov	r1, r9
1000a300:	2020      	movs	r0, #32
1000a302:	47c0      	blx	r8
1000a304:	4623      	mov	r3, r4
1000a306:	462a      	mov	r2, r5
1000a308:	1c5c      	adds	r4, r3, #1
1000a30a:	459b      	cmp	fp, r3
1000a30c:	d8f5      	bhi.n	1000a2fa <_vsnprintf+0x632>
1000a30e:	4616      	mov	r6, r2
1000a310:	e7ef      	b.n	1000a2f2 <_vsnprintf+0x62a>
1000a312:	f045 0521 	orr.w	r5, r5, #33	@ 0x21
1000a316:	9b1a      	ldr	r3, [sp, #104]	@ 0x68
1000a318:	1d1a      	adds	r2, r3, #4
1000a31a:	921a      	str	r2, [sp, #104]	@ 0x68
1000a31c:	681b      	ldr	r3, [r3, #0]
1000a31e:	9505      	str	r5, [sp, #20]
1000a320:	2208      	movs	r2, #8
1000a322:	9204      	str	r2, [sp, #16]
1000a324:	9a0b      	ldr	r2, [sp, #44]	@ 0x2c
1000a326:	9203      	str	r2, [sp, #12]
1000a328:	2210      	movs	r2, #16
1000a32a:	9202      	str	r2, [sp, #8]
1000a32c:	2200      	movs	r2, #0
1000a32e:	9201      	str	r2, [sp, #4]
1000a330:	9300      	str	r3, [sp, #0]
1000a332:	463b      	mov	r3, r7
1000a334:	4632      	mov	r2, r6
1000a336:	4649      	mov	r1, r9
1000a338:	4640      	mov	r0, r8
1000a33a:	f7ff f83c 	bl	100093b6 <_ntoa_long>
1000a33e:	4606      	mov	r6, r0
1000a340:	9b0f      	ldr	r3, [sp, #60]	@ 0x3c
1000a342:	3301      	adds	r3, #1
1000a344:	930f      	str	r3, [sp, #60]	@ 0x3c
1000a346:	e4ca      	b.n	10009cde <_vsnprintf+0x16>
1000a348:	1c74      	adds	r4, r6, #1
1000a34a:	463b      	mov	r3, r7
1000a34c:	4632      	mov	r2, r6
1000a34e:	4649      	mov	r1, r9
1000a350:	2025      	movs	r0, #37	@ 0x25
1000a352:	47c0      	blx	r8
1000a354:	9b0f      	ldr	r3, [sp, #60]	@ 0x3c
1000a356:	3301      	adds	r3, #1
1000a358:	930f      	str	r3, [sp, #60]	@ 0x3c
1000a35a:	4626      	mov	r6, r4
1000a35c:	e4bf      	b.n	10009cde <_vsnprintf+0x16>
1000a35e:	1c74      	adds	r4, r6, #1
1000a360:	463b      	mov	r3, r7
1000a362:	4632      	mov	r2, r6
1000a364:	4649      	mov	r1, r9
1000a366:	47c0      	blx	r8
1000a368:	9b0f      	ldr	r3, [sp, #60]	@ 0x3c
1000a36a:	3301      	adds	r3, #1
1000a36c:	930f      	str	r3, [sp, #60]	@ 0x3c
1000a36e:	4626      	mov	r6, r4
1000a370:	e4b5      	b.n	10009cde <_vsnprintf+0x16>
1000a372:	f8df 8020 	ldr.w	r8, [pc, #32]	@ 1000a394 <_vsnprintf+0x6cc>
1000a376:	e4b1      	b.n	10009cdc <_vsnprintf+0x14>
1000a378:	42be      	cmp	r6, r7
1000a37a:	d308      	bcc.n	1000a38e <_vsnprintf+0x6c6>
1000a37c:	1e7a      	subs	r2, r7, #1
1000a37e:	463b      	mov	r3, r7
1000a380:	4649      	mov	r1, r9
1000a382:	2000      	movs	r0, #0
1000a384:	47c0      	blx	r8
1000a386:	4630      	mov	r0, r6
1000a388:	b011      	add	sp, #68	@ 0x44
1000a38a:	e8bd 8ff0 	ldmia.w	sp!, {r4, r5, r6, r7, r8, r9, sl, fp, pc}
1000a38e:	4632      	mov	r2, r6
1000a390:	e7f5      	b.n	1000a37e <_vsnprintf+0x6b6>
1000a392:	bf00      	nop
1000a394:	100091cd 	.word	0x100091cd

1000a398 <vfctprintf>:
1000a398:	b500      	push	{lr}
1000a39a:	b085      	sub	sp, #20
1000a39c:	9002      	str	r0, [sp, #8]
1000a39e:	9103      	str	r1, [sp, #12]
1000a3a0:	9300      	str	r3, [sp, #0]
1000a3a2:	4613      	mov	r3, r2
1000a3a4:	f04f 32ff 	mov.w	r2, #4294967295
1000a3a8:	a902      	add	r1, sp, #8
1000a3aa:	4803      	ldr	r0, [pc, #12]	@ (1000a3b8 <vfctprintf+0x20>)
1000a3ac:	f7ff fc8c 	bl	10009cc8 <_vsnprintf>
1000a3b0:	b005      	add	sp, #20
1000a3b2:	f85d fb04 	ldr.w	pc, [sp], #4
1000a3b6:	bf00      	nop
1000a3b8:	100091cf 	.word	0x100091cf

1000a3bc <_exit>:
1000a3bc:	be00      	bkpt	0x0000
1000a3be:	e7fd      	b.n	1000a3bc <_exit>

1000a3c0 <exit>:
1000a3c0:	b508      	push	{r3, lr}
1000a3c2:	f7ff fffb 	bl	1000a3bc <_exit>
	...

1000a3c8 <__assert_func>:
1000a3c8:	b500      	push	{lr}
1000a3ca:	b083      	sub	sp, #12
1000a3cc:	468c      	mov	ip, r1
1000a3ce:	4619      	mov	r1, r3
1000a3d0:	b15a      	cbz	r2, 1000a3ea <__assert_func+0x22>
1000a3d2:	4614      	mov	r4, r2
1000a3d4:	4b06      	ldr	r3, [pc, #24]	@ (1000a3f0 <__assert_func+0x28>)
1000a3d6:	9401      	str	r4, [sp, #4]
1000a3d8:	9300      	str	r3, [sp, #0]
1000a3da:	4663      	mov	r3, ip
1000a3dc:	4602      	mov	r2, r0
1000a3de:	4805      	ldr	r0, [pc, #20]	@ (1000a3f4 <__assert_func+0x2c>)
1000a3e0:	f000 f94e 	bl	1000a680 <__wrap_printf>
1000a3e4:	2001      	movs	r0, #1
1000a3e6:	f7ff ffe9 	bl	1000a3bc <_exit>
1000a3ea:	4b03      	ldr	r3, [pc, #12]	@ (1000a3f8 <__assert_func+0x30>)
1000a3ec:	461c      	mov	r4, r3
1000a3ee:	e7f2      	b.n	1000a3d6 <__assert_func+0xe>
1000a3f0:	1000d4b4 	.word	0x1000d4b4
1000a3f4:	1000d4c4 	.word	0x1000d4c4
1000a3f8:	1000cefc 	.word	0x1000cefc

1000a3fc <runtime_init>:
1000a3fc:	b510      	push	{r4, lr}
1000a3fe:	f3ef 8305 	mrs	r3, IPSR
1000a402:	b2db      	uxtb	r3, r3
1000a404:	b103      	cbz	r3, 1000a408 <runtime_init+0xc>
1000a406:	be00      	bkpt	0x0000
1000a408:	f7fe fc94 	bl	10008d34 <runtime_run_initializers>
1000a40c:	4c04      	ldr	r4, [pc, #16]	@ (1000a420 <runtime_init+0x24>)
1000a40e:	e002      	b.n	1000a416 <runtime_init+0x1a>
1000a410:	f854 3b04 	ldr.w	r3, [r4], #4
1000a414:	4798      	blx	r3
1000a416:	4b03      	ldr	r3, [pc, #12]	@ (1000a424 <runtime_init+0x28>)
1000a418:	429c      	cmp	r4, r3
1000a41a:	d3f9      	bcc.n	1000a410 <runtime_init+0x14>
1000a41c:	bd10      	pop	{r4, pc}
1000a41e:	bf00      	nop
1000a420:	1000ce88 	.word	0x1000ce88
1000a424:	1000ce90 	.word	0x1000ce90

1000a428 <stdio_out_chars_no_crlf>:
1000a428:	b508      	push	{r3, lr}
1000a42a:	4603      	mov	r3, r0
1000a42c:	4608      	mov	r0, r1
1000a42e:	681b      	ldr	r3, [r3, #0]
1000a430:	4611      	mov	r1, r2
1000a432:	4798      	blx	r3
1000a434:	bd08      	pop	{r3, pc}
	...

1000a438 <stdio_out_chars_crlf>:
1000a438:	b5f8      	push	{r3, r4, r5, r6, r7, lr}
1000a43a:	4607      	mov	r7, r0
1000a43c:	460d      	mov	r5, r1
1000a43e:	4616      	mov	r6, r2
1000a440:	7d43      	ldrb	r3, [r0, #21]
1000a442:	b113      	cbz	r3, 1000a44a <stdio_out_chars_crlf+0x12>
1000a444:	2400      	movs	r4, #0
1000a446:	4620      	mov	r0, r4
1000a448:	e00c      	b.n	1000a464 <stdio_out_chars_crlf+0x2c>
1000a44a:	6803      	ldr	r3, [r0, #0]
1000a44c:	4611      	mov	r1, r2
1000a44e:	4628      	mov	r0, r5
1000a450:	4798      	blx	r3
1000a452:	e02e      	b.n	1000a4b2 <stdio_out_chars_crlf+0x7a>
1000a454:	7d3b      	ldrb	r3, [r7, #20]
1000a456:	e010      	b.n	1000a47a <stdio_out_chars_crlf+0x42>
1000a458:	683b      	ldr	r3, [r7, #0]
1000a45a:	2102      	movs	r1, #2
1000a45c:	4815      	ldr	r0, [pc, #84]	@ (1000a4b4 <stdio_out_chars_crlf+0x7c>)
1000a45e:	4798      	blx	r3
1000a460:	1c60      	adds	r0, r4, #1
1000a462:	3401      	adds	r4, #1
1000a464:	42b4      	cmp	r4, r6
1000a466:	da14      	bge.n	1000a492 <stdio_out_chars_crlf+0x5a>
1000a468:	2c00      	cmp	r4, #0
1000a46a:	ddf3      	ble.n	1000a454 <stdio_out_chars_crlf+0x1c>
1000a46c:	192b      	adds	r3, r5, r4
1000a46e:	f813 3c01 	ldrb.w	r3, [r3, #-1]
1000a472:	2b0d      	cmp	r3, #13
1000a474:	bf14      	ite	ne
1000a476:	2300      	movne	r3, #0
1000a478:	2301      	moveq	r3, #1
1000a47a:	5d2a      	ldrb	r2, [r5, r4]
1000a47c:	2a0a      	cmp	r2, #10
1000a47e:	d1f0      	bne.n	1000a462 <stdio_out_chars_crlf+0x2a>
1000a480:	2b00      	cmp	r3, #0
1000a482:	d1ee      	bne.n	1000a462 <stdio_out_chars_crlf+0x2a>
1000a484:	42a0      	cmp	r0, r4
1000a486:	dae7      	bge.n	1000a458 <stdio_out_chars_crlf+0x20>
1000a488:	683b      	ldr	r3, [r7, #0]
1000a48a:	1a21      	subs	r1, r4, r0
1000a48c:	4428      	add	r0, r5
1000a48e:	4798      	blx	r3
1000a490:	e7e2      	b.n	1000a458 <stdio_out_chars_crlf+0x20>
1000a492:	42b0      	cmp	r0, r6
1000a494:	da03      	bge.n	1000a49e <stdio_out_chars_crlf+0x66>
1000a496:	683b      	ldr	r3, [r7, #0]
1000a498:	1a31      	subs	r1, r6, r0
1000a49a:	4428      	add	r0, r5
1000a49c:	4798      	blx	r3
1000a49e:	2e00      	cmp	r6, #0
1000a4a0:	dd07      	ble.n	1000a4b2 <stdio_out_chars_crlf+0x7a>
1000a4a2:	4435      	add	r5, r6
1000a4a4:	f815 3c01 	ldrb.w	r3, [r5, #-1]
1000a4a8:	2b0d      	cmp	r3, #13
1000a4aa:	bf14      	ite	ne
1000a4ac:	2300      	movne	r3, #0
1000a4ae:	2301      	moveq	r3, #1
1000a4b0:	753b      	strb	r3, [r7, #20]
1000a4b2:	bdf8      	pop	{r3, r4, r5, r6, r7, pc}
1000a4b4:	1000ef20 	.word	0x1000ef20

1000a4b8 <stdio_stack_buffer_flush>:
1000a4b8:	b538      	push	{r3, r4, r5, lr}
1000a4ba:	6803      	ldr	r3, [r0, #0]
1000a4bc:	b1bb      	cbz	r3, 1000a4ee <stdio_stack_buffer_flush+0x36>
1000a4be:	4605      	mov	r5, r0
1000a4c0:	4b0b      	ldr	r3, [pc, #44]	@ (1000a4f0 <stdio_stack_buffer_flush+0x38>)
1000a4c2:	681c      	ldr	r4, [r3, #0]
1000a4c4:	e006      	b.n	1000a4d4 <stdio_stack_buffer_flush+0x1c>
1000a4c6:	4629      	mov	r1, r5
1000a4c8:	f851 2b04 	ldr.w	r2, [r1], #4
1000a4cc:	4620      	mov	r0, r4
1000a4ce:	f7ff ffb3 	bl	1000a438 <stdio_out_chars_crlf>
1000a4d2:	6924      	ldr	r4, [r4, #16]
1000a4d4:	b14c      	cbz	r4, 1000a4ea <stdio_stack_buffer_flush+0x32>
1000a4d6:	6823      	ldr	r3, [r4, #0]
1000a4d8:	2b00      	cmp	r3, #0
1000a4da:	d0fa      	beq.n	1000a4d2 <stdio_stack_buffer_flush+0x1a>
1000a4dc:	4b05      	ldr	r3, [pc, #20]	@ (1000a4f4 <stdio_stack_buffer_flush+0x3c>)
1000a4de:	681b      	ldr	r3, [r3, #0]
1000a4e0:	2b00      	cmp	r3, #0
1000a4e2:	d0f0      	beq.n	1000a4c6 <stdio_stack_buffer_flush+0xe>
1000a4e4:	42a3      	cmp	r3, r4
1000a4e6:	d1f4      	bne.n	1000a4d2 <stdio_stack_buffer_flush+0x1a>
1000a4e8:	e7ed      	b.n	1000a4c6 <stdio_stack_buffer_flush+0xe>
1000a4ea:	2300      	movs	r3, #0
1000a4ec:	602b      	str	r3, [r5, #0]
1000a4ee:	bd38      	pop	{r3, r4, r5, pc}
1000a4f0:	20001538 	.word	0x20001538
1000a4f4:	20001540 	.word	0x20001540

1000a4f8 <stdio_buffered_printer>:
1000a4f8:	b538      	push	{r3, r4, r5, lr}
1000a4fa:	4605      	mov	r5, r0
1000a4fc:	460c      	mov	r4, r1
1000a4fe:	680b      	ldr	r3, [r1, #0]
1000a500:	2b80      	cmp	r3, #128	@ 0x80
1000a502:	d005      	beq.n	1000a510 <stdio_buffered_printer+0x18>
1000a504:	6823      	ldr	r3, [r4, #0]
1000a506:	1c5a      	adds	r2, r3, #1
1000a508:	6022      	str	r2, [r4, #0]
1000a50a:	441c      	add	r4, r3
1000a50c:	7125      	strb	r5, [r4, #4]
1000a50e:	bd38      	pop	{r3, r4, r5, pc}
1000a510:	4608      	mov	r0, r1
1000a512:	f7ff ffd1 	bl	1000a4b8 <stdio_stack_buffer_flush>
1000a516:	e7f5      	b.n	1000a504 <stdio_buffered_printer+0xc>

1000a518 <stdout_serialize_begin>:
1000a518:	b508      	push	{r3, lr}
1000a51a:	f7fe f9fd 	bl	10008918 <time_us_64>
1000a51e:	4a07      	ldr	r2, [pc, #28]	@ (1000a53c <stdout_serialize_begin+0x24>)
1000a520:	1882      	adds	r2, r0, r2
1000a522:	f141 0300 	adc.w	r3, r1, #0
1000a526:	2b00      	cmp	r3, #0
1000a528:	db03      	blt.n	1000a532 <stdout_serialize_begin+0x1a>
1000a52a:	4805      	ldr	r0, [pc, #20]	@ (1000a540 <stdout_serialize_begin+0x28>)
1000a52c:	f002 fc80 	bl	1000ce30 <__mutex_try_enter_block_until_veneer>
1000a530:	bd08      	pop	{r3, pc}
1000a532:	f04f 32ff 	mov.w	r2, #4294967295
1000a536:	f06f 4300 	mvn.w	r3, #2147483648	@ 0x80000000
1000a53a:	e7f6      	b.n	1000a52a <stdout_serialize_begin+0x12>
1000a53c:	000f4240 	.word	0x000f4240
1000a540:	20000e98 	.word	0x20000e98

1000a544 <stdout_serialize_end>:
1000a544:	b508      	push	{r3, lr}
1000a546:	4802      	ldr	r0, [pc, #8]	@ (1000a550 <stdout_serialize_end+0xc>)
1000a548:	f002 fc6a 	bl	1000ce20 <__mutex_exit_veneer>
1000a54c:	bd08      	pop	{r3, pc}
1000a54e:	bf00      	nop
1000a550:	20000e98 	.word	0x20000e98

1000a554 <stdio_put_string>:
1000a554:	e92d 43f0 	stmdb	sp!, {r4, r5, r6, r7, r8, r9, lr}
1000a558:	b083      	sub	sp, #12
1000a55a:	4606      	mov	r6, r0
1000a55c:	460d      	mov	r5, r1
1000a55e:	4690      	mov	r8, r2
1000a560:	461c      	mov	r4, r3
1000a562:	f7ff ffd9 	bl	1000a518 <stdout_serialize_begin>
1000a566:	4681      	mov	r9, r0
1000a568:	f1b5 3fff 	cmp.w	r5, #4294967295
1000a56c:	d004      	beq.n	1000a578 <stdio_put_string+0x24>
1000a56e:	b144      	cbz	r4, 1000a582 <stdio_put_string+0x2e>
1000a570:	4f17      	ldr	r7, [pc, #92]	@ (1000a5d0 <stdio_put_string+0x7c>)
1000a572:	4b18      	ldr	r3, [pc, #96]	@ (1000a5d4 <stdio_put_string+0x80>)
1000a574:	681c      	ldr	r4, [r3, #0]
1000a576:	e007      	b.n	1000a588 <stdio_put_string+0x34>
1000a578:	4630      	mov	r0, r6
1000a57a:	f002 fc0b 	bl	1000cd94 <strlen>
1000a57e:	4605      	mov	r5, r0
1000a580:	e7f5      	b.n	1000a56e <stdio_put_string+0x1a>
1000a582:	4f15      	ldr	r7, [pc, #84]	@ (1000a5d8 <stdio_put_string+0x84>)
1000a584:	e7f5      	b.n	1000a572 <stdio_put_string+0x1e>
1000a586:	6924      	ldr	r4, [r4, #16]
1000a588:	b1bc      	cbz	r4, 1000a5ba <stdio_put_string+0x66>
1000a58a:	6823      	ldr	r3, [r4, #0]
1000a58c:	2b00      	cmp	r3, #0
1000a58e:	d0fa      	beq.n	1000a586 <stdio_put_string+0x32>
1000a590:	4b12      	ldr	r3, [pc, #72]	@ (1000a5dc <stdio_put_string+0x88>)
1000a592:	681b      	ldr	r3, [r3, #0]
1000a594:	b10b      	cbz	r3, 1000a59a <stdio_put_string+0x46>
1000a596:	42a3      	cmp	r3, r4
1000a598:	d1f5      	bne.n	1000a586 <stdio_put_string+0x32>
1000a59a:	462a      	mov	r2, r5
1000a59c:	4631      	mov	r1, r6
1000a59e:	4620      	mov	r0, r4
1000a5a0:	47b8      	blx	r7
1000a5a2:	f1b8 0f00 	cmp.w	r8, #0
1000a5a6:	d0ee      	beq.n	1000a586 <stdio_put_string+0x32>
1000a5a8:	230a      	movs	r3, #10
1000a5aa:	f88d 3007 	strb.w	r3, [sp, #7]
1000a5ae:	2201      	movs	r2, #1
1000a5b0:	f10d 0107 	add.w	r1, sp, #7
1000a5b4:	4620      	mov	r0, r4
1000a5b6:	47b8      	blx	r7
1000a5b8:	e7e5      	b.n	1000a586 <stdio_put_string+0x32>
1000a5ba:	f1b9 0f00 	cmp.w	r9, #0
1000a5be:	d103      	bne.n	1000a5c8 <stdio_put_string+0x74>
1000a5c0:	4628      	mov	r0, r5
1000a5c2:	b003      	add	sp, #12
1000a5c4:	e8bd 83f0 	ldmia.w	sp!, {r4, r5, r6, r7, r8, r9, pc}
1000a5c8:	f7ff ffbc 	bl	1000a544 <stdout_serialize_end>
1000a5cc:	e7f8      	b.n	1000a5c0 <stdio_put_string+0x6c>
1000a5ce:	bf00      	nop
1000a5d0:	1000a439 	.word	0x1000a439
1000a5d4:	20001538 	.word	0x20001538
1000a5d8:	1000a429 	.word	0x1000a429
1000a5dc:	20001540 	.word	0x20001540

1000a5e0 <stdio_set_driver_enabled>:
1000a5e0:	4a08      	ldr	r2, [pc, #32]	@ (1000a604 <stdio_set_driver_enabled+0x24>)
1000a5e2:	e001      	b.n	1000a5e8 <stdio_set_driver_enabled+0x8>
1000a5e4:	f103 0210 	add.w	r2, r3, #16
1000a5e8:	6813      	ldr	r3, [r2, #0]
1000a5ea:	b13b      	cbz	r3, 1000a5fc <stdio_set_driver_enabled+0x1c>
1000a5ec:	4283      	cmp	r3, r0
1000a5ee:	d1f9      	bne.n	1000a5e4 <stdio_set_driver_enabled+0x4>
1000a5f0:	b931      	cbnz	r1, 1000a600 <stdio_set_driver_enabled+0x20>
1000a5f2:	6903      	ldr	r3, [r0, #16]
1000a5f4:	6013      	str	r3, [r2, #0]
1000a5f6:	2300      	movs	r3, #0
1000a5f8:	6103      	str	r3, [r0, #16]
1000a5fa:	4770      	bx	lr
1000a5fc:	b101      	cbz	r1, 1000a600 <stdio_set_driver_enabled+0x20>
1000a5fe:	6010      	str	r0, [r2, #0]
1000a600:	4770      	bx	lr
1000a602:	bf00      	nop
1000a604:	20001538 	.word	0x20001538

1000a608 <stdio_flush>:
1000a608:	b510      	push	{r4, lr}
1000a60a:	4b05      	ldr	r3, [pc, #20]	@ (1000a620 <stdio_flush+0x18>)
1000a60c:	681c      	ldr	r4, [r3, #0]
1000a60e:	e001      	b.n	1000a614 <stdio_flush+0xc>
1000a610:	4798      	blx	r3
1000a612:	6924      	ldr	r4, [r4, #16]
1000a614:	b11c      	cbz	r4, 1000a61e <stdio_flush+0x16>
1000a616:	6863      	ldr	r3, [r4, #4]
1000a618:	2b00      	cmp	r3, #0
1000a61a:	d1f9      	bne.n	1000a610 <stdio_flush+0x8>
1000a61c:	e7f9      	b.n	1000a612 <stdio_flush+0xa>
1000a61e:	bd10      	pop	{r4, pc}
1000a620:	20001538 	.word	0x20001538

1000a624 <__wrap_puts>:
1000a624:	b538      	push	{r3, r4, r5, lr}
1000a626:	4605      	mov	r5, r0
1000a628:	f002 fbb4 	bl	1000cd94 <strlen>
1000a62c:	4604      	mov	r4, r0
1000a62e:	2301      	movs	r3, #1
1000a630:	461a      	mov	r2, r3
1000a632:	4601      	mov	r1, r0
1000a634:	4628      	mov	r0, r5
1000a636:	f7ff ff8d 	bl	1000a554 <stdio_put_string>
1000a63a:	f7ff ffe5 	bl	1000a608 <stdio_flush>
1000a63e:	4620      	mov	r0, r4
1000a640:	bd38      	pop	{r3, r4, r5, pc}
	...

1000a644 <__wrap_vprintf>:
1000a644:	b570      	push	{r4, r5, r6, lr}
1000a646:	b0a2      	sub	sp, #136	@ 0x88
1000a648:	4604      	mov	r4, r0
1000a64a:	460e      	mov	r6, r1
1000a64c:	f7ff ff64 	bl	1000a518 <stdout_serialize_begin>
1000a650:	4605      	mov	r5, r0
1000a652:	2300      	movs	r3, #0
1000a654:	9301      	str	r3, [sp, #4]
1000a656:	4633      	mov	r3, r6
1000a658:	4622      	mov	r2, r4
1000a65a:	a901      	add	r1, sp, #4
1000a65c:	4807      	ldr	r0, [pc, #28]	@ (1000a67c <__wrap_vprintf+0x38>)
1000a65e:	f7ff fe9b 	bl	1000a398 <vfctprintf>
1000a662:	4604      	mov	r4, r0
1000a664:	a801      	add	r0, sp, #4
1000a666:	f7ff ff27 	bl	1000a4b8 <stdio_stack_buffer_flush>
1000a66a:	f7ff ffcd 	bl	1000a608 <stdio_flush>
1000a66e:	b915      	cbnz	r5, 1000a676 <__wrap_vprintf+0x32>
1000a670:	4620      	mov	r0, r4
1000a672:	b022      	add	sp, #136	@ 0x88
1000a674:	bd70      	pop	{r4, r5, r6, pc}
1000a676:	f7ff ff65 	bl	1000a544 <stdout_serialize_end>
1000a67a:	e7f9      	b.n	1000a670 <__wrap_vprintf+0x2c>
1000a67c:	1000a4f9 	.word	0x1000a4f9

1000a680 <__wrap_printf>:
1000a680:	b40f      	push	{r0, r1, r2, r3}
1000a682:	b500      	push	{lr}
1000a684:	b083      	sub	sp, #12
1000a686:	a904      	add	r1, sp, #16
1000a688:	f851 0b04 	ldr.w	r0, [r1], #4
1000a68c:	9101      	str	r1, [sp, #4]
1000a68e:	f7ff ffd9 	bl	1000a644 <__wrap_vprintf>
1000a692:	b003      	add	sp, #12
1000a694:	f85d eb04 	ldr.w	lr, [sp], #4
1000a698:	b004      	add	sp, #16
1000a69a:	4770      	bx	lr

1000a69c <uart_putc>:
1000a69c:	b082      	sub	sp, #8
1000a69e:	468c      	mov	ip, r1
1000a6a0:	4b18      	ldr	r3, [pc, #96]	@ (1000a704 <uart_putc+0x68>)
1000a6a2:	4298      	cmp	r0, r3
1000a6a4:	bf14      	ite	ne
1000a6a6:	2300      	movne	r3, #0
1000a6a8:	2301      	moveq	r3, #1
1000a6aa:	4a17      	ldr	r2, [pc, #92]	@ (1000a708 <uart_putc+0x6c>)
1000a6ac:	f932 3013 	ldrsh.w	r3, [r2, r3, lsl #1]
1000a6b0:	428b      	cmp	r3, r1
1000a6b2:	d005      	beq.n	1000a6c0 <uart_putc+0x24>
1000a6b4:	f88d c007 	strb.w	ip, [sp, #7]
1000a6b8:	2100      	movs	r1, #0
1000a6ba:	f10d 0207 	add.w	r2, sp, #7
1000a6be:	e01c      	b.n	1000a6fa <uart_putc+0x5e>
1000a6c0:	230d      	movs	r3, #13
1000a6c2:	f88d 3007 	strb.w	r3, [sp, #7]
1000a6c6:	2100      	movs	r1, #0
1000a6c8:	f10d 0207 	add.w	r2, sp, #7
1000a6cc:	2900      	cmp	r1, #0
1000a6ce:	d1f1      	bne.n	1000a6b4 <uart_putc+0x18>
1000a6d0:	6983      	ldr	r3, [r0, #24]
1000a6d2:	f013 0f20 	tst.w	r3, #32
1000a6d6:	d1fb      	bne.n	1000a6d0 <uart_putc+0x34>
1000a6d8:	4613      	mov	r3, r2
1000a6da:	f813 2b01 	ldrb.w	r2, [r3], #1
1000a6de:	6002      	str	r2, [r0, #0]
1000a6e0:	3101      	adds	r1, #1
1000a6e2:	461a      	mov	r2, r3
1000a6e4:	e7f2      	b.n	1000a6cc <uart_putc+0x30>
1000a6e6:	6983      	ldr	r3, [r0, #24]
1000a6e8:	f013 0f20 	tst.w	r3, #32
1000a6ec:	d1fb      	bne.n	1000a6e6 <uart_putc+0x4a>
1000a6ee:	4613      	mov	r3, r2
1000a6f0:	f813 2b01 	ldrb.w	r2, [r3], #1
1000a6f4:	6002      	str	r2, [r0, #0]
1000a6f6:	3101      	adds	r1, #1
1000a6f8:	461a      	mov	r2, r3
1000a6fa:	2900      	cmp	r1, #0
1000a6fc:	d0f3      	beq.n	1000a6e6 <uart_putc+0x4a>
1000a6fe:	b002      	add	sp, #8
1000a700:	4770      	bx	lr
1000a702:	bf00      	nop
1000a704:	40078000 	.word	0x40078000
1000a708:	20005f3c 	.word	0x20005f3c

1000a70c <uart_getc>:
1000a70c:	b410      	push	{r4}
1000a70e:	b083      	sub	sp, #12
1000a710:	2100      	movs	r1, #0
1000a712:	f10d 0207 	add.w	r2, sp, #7
1000a716:	e009      	b.n	1000a72c <uart_getc+0x20>
1000a718:	6983      	ldr	r3, [r0, #24]
1000a71a:	f013 0f10 	tst.w	r3, #16
1000a71e:	d1fb      	bne.n	1000a718 <uart_getc+0xc>
1000a720:	6804      	ldr	r4, [r0, #0]
1000a722:	4613      	mov	r3, r2
1000a724:	f803 4b01 	strb.w	r4, [r3], #1
1000a728:	3101      	adds	r1, #1
1000a72a:	461a      	mov	r2, r3
1000a72c:	2900      	cmp	r1, #0
1000a72e:	d0f3      	beq.n	1000a718 <uart_getc+0xc>
1000a730:	f89d 0007 	ldrb.w	r0, [sp, #7]
1000a734:	b003      	add	sp, #12
1000a736:	f85d 4b04 	ldr.w	r4, [sp], #4
1000a73a:	4770      	bx	lr

1000a73c <stdio_uart_out_chars>:
1000a73c:	b570      	push	{r4, r5, r6, lr}
1000a73e:	4606      	mov	r6, r0
1000a740:	460d      	mov	r5, r1
1000a742:	2400      	movs	r4, #0
1000a744:	e005      	b.n	1000a752 <stdio_uart_out_chars+0x16>
1000a746:	5d31      	ldrb	r1, [r6, r4]
1000a748:	4b03      	ldr	r3, [pc, #12]	@ (1000a758 <stdio_uart_out_chars+0x1c>)
1000a74a:	6818      	ldr	r0, [r3, #0]
1000a74c:	f7ff ffa6 	bl	1000a69c <uart_putc>
1000a750:	3401      	adds	r4, #1
1000a752:	42ac      	cmp	r4, r5
1000a754:	dbf7      	blt.n	1000a746 <stdio_uart_out_chars+0xa>
1000a756:	bd70      	pop	{r4, r5, r6, pc}
1000a758:	20005f44 	.word	0x20005f44

1000a75c <stdio_uart_in_chars>:
1000a75c:	b5f8      	push	{r3, r4, r5, r6, r7, lr}
1000a75e:	4607      	mov	r7, r0
1000a760:	460e      	mov	r6, r1
1000a762:	2400      	movs	r4, #0
1000a764:	e004      	b.n	1000a770 <stdio_uart_in_chars+0x14>
1000a766:	1c65      	adds	r5, r4, #1
1000a768:	f7ff ffd0 	bl	1000a70c <uart_getc>
1000a76c:	5538      	strb	r0, [r7, r4]
1000a76e:	462c      	mov	r4, r5
1000a770:	42b4      	cmp	r4, r6
1000a772:	da05      	bge.n	1000a780 <stdio_uart_in_chars+0x24>
1000a774:	4b0c      	ldr	r3, [pc, #48]	@ (1000a7a8 <stdio_uart_in_chars+0x4c>)
1000a776:	6818      	ldr	r0, [r3, #0]
1000a778:	6983      	ldr	r3, [r0, #24]
1000a77a:	f013 0f10 	tst.w	r3, #16
1000a77e:	d0f2      	beq.n	1000a766 <stdio_uart_in_chars+0xa>
1000a780:	4b0a      	ldr	r3, [pc, #40]	@ (1000a7ac <stdio_uart_in_chars+0x50>)
1000a782:	681b      	ldr	r3, [r3, #0]
1000a784:	b14b      	cbz	r3, 1000a79a <stdio_uart_in_chars+0x3e>
1000a786:	4b08      	ldr	r3, [pc, #32]	@ (1000a7a8 <stdio_uart_in_chars+0x4c>)
1000a788:	681b      	ldr	r3, [r3, #0]
1000a78a:	2250      	movs	r2, #80	@ 0x50
1000a78c:	639a      	str	r2, [r3, #56]	@ 0x38
1000a78e:	6b5a      	ldr	r2, [r3, #52]	@ 0x34
1000a790:	f002 0238 	and.w	r2, r2, #56	@ 0x38
1000a794:	f503 5381 	add.w	r3, r3, #4128	@ 0x1020
1000a798:	615a      	str	r2, [r3, #20]
1000a79a:	b10c      	cbz	r4, 1000a7a0 <stdio_uart_in_chars+0x44>
1000a79c:	4620      	mov	r0, r4
1000a79e:	bdf8      	pop	{r3, r4, r5, r6, r7, pc}
1000a7a0:	f06f 0402 	mvn.w	r4, #2
1000a7a4:	e7fa      	b.n	1000a79c <stdio_uart_in_chars+0x40>
1000a7a6:	bf00      	nop
1000a7a8:	20005f44 	.word	0x20005f44
1000a7ac:	200012f4 	.word	0x200012f4

1000a7b0 <on_uart_rx>:
1000a7b0:	b508      	push	{r3, lr}
1000a7b2:	4b05      	ldr	r3, [pc, #20]	@ (1000a7c8 <on_uart_rx+0x18>)
1000a7b4:	681b      	ldr	r3, [r3, #0]
1000a7b6:	b133      	cbz	r3, 1000a7c6 <on_uart_rx+0x16>
1000a7b8:	4a04      	ldr	r2, [pc, #16]	@ (1000a7cc <on_uart_rx+0x1c>)
1000a7ba:	6812      	ldr	r2, [r2, #0]
1000a7bc:	2100      	movs	r1, #0
1000a7be:	6391      	str	r1, [r2, #56]	@ 0x38
1000a7c0:	4a03      	ldr	r2, [pc, #12]	@ (1000a7d0 <on_uart_rx+0x20>)
1000a7c2:	6810      	ldr	r0, [r2, #0]
1000a7c4:	4798      	blx	r3
1000a7c6:	bd08      	pop	{r3, pc}
1000a7c8:	200012f4 	.word	0x200012f4
1000a7cc:	20005f44 	.word	0x20005f44
1000a7d0:	200012f8 	.word	0x200012f8

1000a7d4 <stdio_uart_out_flush>:
1000a7d4:	4b03      	ldr	r3, [pc, #12]	@ (1000a7e4 <stdio_uart_out_flush+0x10>)
1000a7d6:	681a      	ldr	r2, [r3, #0]
1000a7d8:	6993      	ldr	r3, [r2, #24]
1000a7da:	f013 0f08 	tst.w	r3, #8
1000a7de:	d1fb      	bne.n	1000a7d8 <stdio_uart_out_flush+0x4>
1000a7e0:	4770      	bx	lr
1000a7e2:	bf00      	nop
1000a7e4:	20005f44 	.word	0x20005f44

1000a7e8 <stdio_uart_set_chars_available_callback>:
1000a7e8:	b538      	push	{r3, r4, r5, lr}
1000a7ea:	4b1b      	ldr	r3, [pc, #108]	@ (1000a858 <stdio_uart_set_chars_available_callback+0x70>)
1000a7ec:	681b      	ldr	r3, [r3, #0]
1000a7ee:	4a1b      	ldr	r2, [pc, #108]	@ (1000a85c <stdio_uart_set_chars_available_callback+0x74>)
1000a7f0:	4293      	cmp	r3, r2
1000a7f2:	d005      	beq.n	1000a800 <stdio_uart_set_chars_available_callback+0x18>
1000a7f4:	2421      	movs	r4, #33	@ 0x21
1000a7f6:	b1e0      	cbz	r0, 1000a832 <stdio_uart_set_chars_available_callback+0x4a>
1000a7f8:	4b19      	ldr	r3, [pc, #100]	@ (1000a860 <stdio_uart_set_chars_available_callback+0x78>)
1000a7fa:	681b      	ldr	r3, [r3, #0]
1000a7fc:	b113      	cbz	r3, 1000a804 <stdio_uart_set_chars_available_callback+0x1c>
1000a7fe:	bd38      	pop	{r3, r4, r5, pc}
1000a800:	2422      	movs	r4, #34	@ 0x22
1000a802:	e7f8      	b.n	1000a7f6 <stdio_uart_set_chars_available_callback+0xe>
1000a804:	4b16      	ldr	r3, [pc, #88]	@ (1000a860 <stdio_uart_set_chars_available_callback+0x78>)
1000a806:	6018      	str	r0, [r3, #0]
1000a808:	4b16      	ldr	r3, [pc, #88]	@ (1000a864 <stdio_uart_set_chars_available_callback+0x7c>)
1000a80a:	6019      	str	r1, [r3, #0]
1000a80c:	4916      	ldr	r1, [pc, #88]	@ (1000a868 <stdio_uart_set_chars_available_callback+0x80>)
1000a80e:	4620      	mov	r0, r4
1000a810:	f7fd f9ea 	bl	10007be8 <irq_set_exclusive_handler>
1000a814:	2101      	movs	r1, #1
1000a816:	4620      	mov	r0, r4
1000a818:	f7fd f9d4 	bl	10007bc4 <irq_set_enabled>
1000a81c:	4b0e      	ldr	r3, [pc, #56]	@ (1000a858 <stdio_uart_set_chars_available_callback+0x70>)
1000a81e:	681b      	ldr	r3, [r3, #0]
1000a820:	2250      	movs	r2, #80	@ 0x50
1000a822:	639a      	str	r2, [r3, #56]	@ 0x38
1000a824:	6b5a      	ldr	r2, [r3, #52]	@ 0x34
1000a826:	f002 0238 	and.w	r2, r2, #56	@ 0x38
1000a82a:	f503 5381 	add.w	r3, r3, #4128	@ 0x1020
1000a82e:	615a      	str	r2, [r3, #20]
1000a830:	e7e5      	b.n	1000a7fe <stdio_uart_set_chars_available_callback+0x16>
1000a832:	4a0b      	ldr	r2, [pc, #44]	@ (1000a860 <stdio_uart_set_chars_available_callback+0x78>)
1000a834:	6812      	ldr	r2, [r2, #0]
1000a836:	2a00      	cmp	r2, #0
1000a838:	d0e1      	beq.n	1000a7fe <stdio_uart_set_chars_available_callback+0x16>
1000a83a:	2500      	movs	r5, #0
1000a83c:	639d      	str	r5, [r3, #56]	@ 0x38
1000a83e:	4629      	mov	r1, r5
1000a840:	4620      	mov	r0, r4
1000a842:	f7fd f9bf 	bl	10007bc4 <irq_set_enabled>
1000a846:	4908      	ldr	r1, [pc, #32]	@ (1000a868 <stdio_uart_set_chars_available_callback+0x80>)
1000a848:	4620      	mov	r0, r4
1000a84a:	f7fd fb17 	bl	10007e7c <irq_remove_handler>
1000a84e:	4b04      	ldr	r3, [pc, #16]	@ (1000a860 <stdio_uart_set_chars_available_callback+0x78>)
1000a850:	601d      	str	r5, [r3, #0]
1000a852:	4b04      	ldr	r3, [pc, #16]	@ (1000a864 <stdio_uart_set_chars_available_callback+0x7c>)
1000a854:	601d      	str	r5, [r3, #0]
1000a856:	e7d2      	b.n	1000a7fe <stdio_uart_set_chars_available_callback+0x16>
1000a858:	20005f44 	.word	0x20005f44
1000a85c:	40078000 	.word	0x40078000
1000a860:	200012f4 	.word	0x200012f4
1000a864:	200012f8 	.word	0x200012f8
1000a868:	1000a7b1 	.word	0x1000a7b1

1000a86c <stdio_uart_init_full>:
1000a86c:	b538      	push	{r3, r4, r5, lr}
1000a86e:	460d      	mov	r5, r1
1000a870:	461c      	mov	r4, r3
1000a872:	4b10      	ldr	r3, [pc, #64]	@ (1000a8b4 <stdio_uart_init_full+0x48>)
1000a874:	6018      	str	r0, [r3, #0]
1000a876:	1e10      	subs	r0, r2, #0
1000a878:	db05      	blt.n	1000a886 <stdio_uart_init_full+0x1a>
1000a87a:	f010 0f02 	tst.w	r0, #2
1000a87e:	d015      	beq.n	1000a8ac <stdio_uart_init_full+0x40>
1000a880:	210b      	movs	r1, #11
1000a882:	f7fd f82d 	bl	100078e0 <gpio_set_function>
1000a886:	2c00      	cmp	r4, #0
1000a888:	db06      	blt.n	1000a898 <stdio_uart_init_full+0x2c>
1000a88a:	f014 0f02 	tst.w	r4, #2
1000a88e:	d00f      	beq.n	1000a8b0 <stdio_uart_init_full+0x44>
1000a890:	210b      	movs	r1, #11
1000a892:	4620      	mov	r0, r4
1000a894:	f7fd f824 	bl	100078e0 <gpio_set_function>
1000a898:	4629      	mov	r1, r5
1000a89a:	4b06      	ldr	r3, [pc, #24]	@ (1000a8b4 <stdio_uart_init_full+0x48>)
1000a89c:	6818      	ldr	r0, [r3, #0]
1000a89e:	f7fe f8cd 	bl	10008a3c <uart_init>
1000a8a2:	2101      	movs	r1, #1
1000a8a4:	4804      	ldr	r0, [pc, #16]	@ (1000a8b8 <stdio_uart_init_full+0x4c>)
1000a8a6:	f7ff fe9b 	bl	1000a5e0 <stdio_set_driver_enabled>
1000a8aa:	bd38      	pop	{r3, r4, r5, pc}
1000a8ac:	2102      	movs	r1, #2
1000a8ae:	e7e8      	b.n	1000a882 <stdio_uart_init_full+0x16>
1000a8b0:	2102      	movs	r1, #2
1000a8b2:	e7ee      	b.n	1000a892 <stdio_uart_init_full+0x26>
1000a8b4:	20005f44 	.word	0x20005f44
1000a8b8:	20000e40 	.word	0x20000e40

1000a8bc <board_init>:
1000a8bc:	b508      	push	{r3, lr}
1000a8be:	2019      	movs	r0, #25
1000a8c0:	f7fd f82a 	bl	10007918 <gpio_init>
1000a8c4:	2301      	movs	r3, #1
1000a8c6:	2219      	movs	r2, #25
1000a8c8:	ec43 2044 	gpioc_bit_oe_put r2, r3
1000a8cc:	4804      	ldr	r0, [pc, #16]	@ (1000a8e0 <board_init+0x24>)
1000a8ce:	4a05      	ldr	r2, [pc, #20]	@ (1000a8e4 <board_init+0x28>)
1000a8d0:	6010      	str	r0, [r2, #0]
1000a8d2:	2200      	movs	r2, #0
1000a8d4:	f44f 31e1 	mov.w	r1, #115200	@ 0x1c200
1000a8d8:	f7ff ffc8 	bl	1000a86c <stdio_uart_init_full>
1000a8dc:	bd08      	pop	{r3, pc}
1000a8de:	bf00      	nop
1000a8e0:	40070000 	.word	0x40070000
1000a8e4:	20005f40 	.word	0x20005f40

1000a8e8 <board_get_unique_id>:
1000a8e8:	b530      	push	{r4, r5, lr}
1000a8ea:	b083      	sub	sp, #12
1000a8ec:	4605      	mov	r5, r0
1000a8ee:	460c      	mov	r4, r1
1000a8f0:	4668      	mov	r0, sp
1000a8f2:	f000 f839 	bl	1000a968 <pico_get_unique_board_id>
1000a8f6:	2c07      	cmp	r4, #7
1000a8f8:	d807      	bhi.n	1000a90a <board_get_unique_id+0x22>
1000a8fa:	4622      	mov	r2, r4
1000a8fc:	4669      	mov	r1, sp
1000a8fe:	4628      	mov	r0, r5
1000a900:	f002 f9d2 	bl	1000cca8 <memcpy>
1000a904:	4620      	mov	r0, r4
1000a906:	b003      	add	sp, #12
1000a908:	bd30      	pop	{r4, r5, pc}
1000a90a:	2408      	movs	r4, #8
1000a90c:	e7f5      	b.n	1000a8fa <board_get_unique_id+0x12>
	...

1000a910 <_retrieve_unique_id_on_boot>:
1000a910:	b500      	push	{lr}
1000a912:	b08b      	sub	sp, #44	@ 0x2c
1000a914:	f245 3047 	movw	r0, #21319	@ 0x5347
1000a918:	f7fe f9bc 	bl	10008c94 <rom_func_lookup>
1000a91c:	4603      	mov	r3, r0
1000a91e:	2201      	movs	r2, #1
1000a920:	2109      	movs	r1, #9
1000a922:	a801      	add	r0, sp, #4
1000a924:	4798      	blx	r3
1000a926:	2804      	cmp	r0, #4
1000a928:	d101      	bne.n	1000a92e <_retrieve_unique_id_on_boot+0x1e>
1000a92a:	2300      	movs	r3, #0
1000a92c:	e00e      	b.n	1000a94c <_retrieve_unique_id_on_boot+0x3c>
1000a92e:	4b0a      	ldr	r3, [pc, #40]	@ (1000a958 <_retrieve_unique_id_on_boot+0x48>)
1000a930:	4a0a      	ldr	r2, [pc, #40]	@ (1000a95c <_retrieve_unique_id_on_boot+0x4c>)
1000a932:	2129      	movs	r1, #41	@ 0x29
1000a934:	480a      	ldr	r0, [pc, #40]	@ (1000a960 <_retrieve_unique_id_on_boot+0x50>)
1000a936:	f7ff fd47 	bl	1000a3c8 <__assert_func>
1000a93a:	f1c3 020f 	rsb	r2, r3, #15
1000a93e:	3228      	adds	r2, #40	@ 0x28
1000a940:	446a      	add	r2, sp
1000a942:	f812 1c24 	ldrb.w	r1, [r2, #-36]
1000a946:	4a07      	ldr	r2, [pc, #28]	@ (1000a964 <_retrieve_unique_id_on_boot+0x54>)
1000a948:	54d1      	strb	r1, [r2, r3]
1000a94a:	3301      	adds	r3, #1
1000a94c:	2b07      	cmp	r3, #7
1000a94e:	ddf4      	ble.n	1000a93a <_retrieve_unique_id_on_boot+0x2a>
1000a950:	b00b      	add	sp, #44	@ 0x2c
1000a952:	f85d fb04 	ldr.w	pc, [sp], #4
1000a956:	bf00      	nop
1000a958:	1000d4f8 	.word	0x1000d4f8
1000a95c:	1000ef38 	.word	0x1000ef38
1000a960:	1000d500 	.word	0x1000d500
1000a964:	20005f08 	.word	0x20005f08

1000a968 <pico_get_unique_board_id>:
1000a968:	4603      	mov	r3, r0
1000a96a:	4a02      	ldr	r2, [pc, #8]	@ (1000a974 <pico_get_unique_board_id+0xc>)
1000a96c:	ca03      	ldmia	r2!, {r0, r1}
1000a96e:	6018      	str	r0, [r3, #0]
1000a970:	6059      	str	r1, [r3, #4]
1000a972:	4770      	bx	lr
1000a974:	20005f08 	.word	0x20005f08

1000a978 <_hw_endpoint_alloc>:
1000a978:	b510      	push	{r4, lr}
1000a97a:	8b03      	ldrh	r3, [r0, #24]
1000a97c:	333f      	adds	r3, #63	@ 0x3f
1000a97e:	f023 033f 	bic.w	r3, r3, #63	@ 0x3f
1000a982:	2902      	cmp	r1, #2
1000a984:	d019      	beq.n	1000a9ba <_hw_endpoint_alloc+0x42>
1000a986:	4c14      	ldr	r4, [pc, #80]	@ (1000a9d8 <_hw_endpoint_alloc+0x60>)
1000a988:	6822      	ldr	r2, [r4, #0]
1000a98a:	60c2      	str	r2, [r0, #12]
1000a98c:	4413      	add	r3, r2
1000a98e:	6023      	str	r3, [r4, #0]
1000a990:	f013 0f3f 	tst.w	r3, #63	@ 0x3f
1000a994:	d113      	bne.n	1000a9be <_hw_endpoint_alloc+0x46>
1000a996:	f082 42a0 	eor.w	r2, r2, #1342177280	@ 0x50000000
1000a99a:	f482 1280 	eor.w	r2, r2, #1048576	@ 0x100000
1000a99e:	f083 43a0 	eor.w	r3, r3, #1342177280	@ 0x50000000
1000a9a2:	f483 1380 	eor.w	r3, r3, #1048576	@ 0x100000
1000a9a6:	f5b3 5f80 	cmp.w	r3, #4096	@ 0x1000
1000a9aa:	d80e      	bhi.n	1000a9ca <_hw_endpoint_alloc+0x52>
1000a9ac:	ea42 6281 	orr.w	r2, r2, r1, lsl #26
1000a9b0:	f042 4200 	orr.w	r2, r2, #2147483648	@ 0x80000000
1000a9b4:	6843      	ldr	r3, [r0, #4]
1000a9b6:	601a      	str	r2, [r3, #0]
1000a9b8:	bd10      	pop	{r4, pc}
1000a9ba:	005b      	lsls	r3, r3, #1
1000a9bc:	e7e3      	b.n	1000a986 <_hw_endpoint_alloc+0xe>
1000a9be:	4b07      	ldr	r3, [pc, #28]	@ (1000a9dc <_hw_endpoint_alloc+0x64>)
1000a9c0:	4a07      	ldr	r2, [pc, #28]	@ (1000a9e0 <_hw_endpoint_alloc+0x68>)
1000a9c2:	2151      	movs	r1, #81	@ 0x51
1000a9c4:	4807      	ldr	r0, [pc, #28]	@ (1000a9e4 <_hw_endpoint_alloc+0x6c>)
1000a9c6:	f7ff fcff 	bl	1000a3c8 <__assert_func>
1000a9ca:	4b07      	ldr	r3, [pc, #28]	@ (1000a9e8 <_hw_endpoint_alloc+0x70>)
1000a9cc:	4a04      	ldr	r2, [pc, #16]	@ (1000a9e0 <_hw_endpoint_alloc+0x68>)
1000a9ce:	2153      	movs	r1, #83	@ 0x53
1000a9d0:	4804      	ldr	r0, [pc, #16]	@ (1000a9e4 <_hw_endpoint_alloc+0x6c>)
1000a9d2:	f7ff fcf9 	bl	1000a3c8 <__assert_func>
1000a9d6:	bf00      	nop
1000a9d8:	200057d0 	.word	0x200057d0
1000a9dc:	1000d550 	.word	0x1000d550
1000a9e0:	1000ef94 	.word	0x1000ef94
1000a9e4:	1000d580 	.word	0x1000d580
1000a9e8:	1000d5dc 	.word	0x1000d5dc

1000a9ec <hw_endpoint_init>:
1000a9ec:	b538      	push	{r3, r4, r5, lr}
1000a9ee:	4603      	mov	r3, r0
1000a9f0:	f000 047f 	and.w	r4, r0, #127	@ 0x7f
1000a9f4:	ea4f 0c44 	mov.w	ip, r4, lsl #1
1000a9f8:	eb0c 1cd0 	add.w	ip, ip, r0, lsr #7
1000a9fc:	4822      	ldr	r0, [pc, #136]	@ (1000aa88 <hw_endpoint_init+0x9c>)
1000a9fe:	eb00 104c 	add.w	r0, r0, ip, lsl #5
1000aa02:	7083      	strb	r3, [r0, #2]
1000aa04:	09db      	lsrs	r3, r3, #7
1000aa06:	bf0c      	ite	eq
1000aa08:	2501      	moveq	r5, #1
1000aa0a:	2500      	movne	r5, #0
1000aa0c:	7045      	strb	r5, [r0, #1]
1000aa0e:	2500      	movs	r5, #0
1000aa10:	70c5      	strb	r5, [r0, #3]
1000aa12:	8301      	strh	r1, [r0, #24]
1000aa14:	76c2      	strb	r2, [r0, #27]
1000aa16:	b9c3      	cbnz	r3, 1000aa4a <hw_endpoint_init+0x5e>
1000aa18:	00e1      	lsls	r1, r4, #3
1000aa1a:	4d1c      	ldr	r5, [pc, #112]	@ (1000aa8c <hw_endpoint_init+0xa0>)
1000aa1c:	440d      	add	r5, r1
1000aa1e:	eb03 0c44 	add.w	ip, r3, r4, lsl #1
1000aa22:	4919      	ldr	r1, [pc, #100]	@ (1000aa88 <hw_endpoint_init+0x9c>)
1000aa24:	eb01 114c 	add.w	r1, r1, ip, lsl #5
1000aa28:	608d      	str	r5, [r1, #8]
1000aa2a:	eb03 0c44 	add.w	ip, r3, r4, lsl #1
1000aa2e:	4916      	ldr	r1, [pc, #88]	@ (1000aa88 <hw_endpoint_init+0x9c>)
1000aa30:	eb01 114c 	add.w	r1, r1, ip, lsl #5
1000aa34:	6889      	ldr	r1, [r1, #8]
1000aa36:	2500      	movs	r5, #0
1000aa38:	600d      	str	r5, [r1, #0]
1000aa3a:	b95c      	cbnz	r4, 1000aa54 <hw_endpoint_init+0x68>
1000aa3c:	4a12      	ldr	r2, [pc, #72]	@ (1000aa88 <hw_endpoint_init+0x9c>)
1000aa3e:	eb02 134c 	add.w	r3, r2, ip, lsl #5
1000aa42:	605d      	str	r5, [r3, #4]
1000aa44:	4a12      	ldr	r2, [pc, #72]	@ (1000aa90 <hw_endpoint_init+0xa4>)
1000aa46:	60da      	str	r2, [r3, #12]
1000aa48:	bd38      	pop	{r3, r4, r5, pc}
1000aa4a:	4d12      	ldr	r5, [pc, #72]	@ (1000aa94 <hw_endpoint_init+0xa8>)
1000aa4c:	eb05 05c4 	add.w	r5, r5, r4, lsl #3
1000aa50:	6085      	str	r5, [r0, #8]
1000aa52:	e7ea      	b.n	1000aa2a <hw_endpoint_init+0x3e>
1000aa54:	b96b      	cbnz	r3, 1000aa72 <hw_endpoint_init+0x86>
1000aa56:	1e61      	subs	r1, r4, #1
1000aa58:	00c9      	lsls	r1, r1, #3
1000aa5a:	4d0f      	ldr	r5, [pc, #60]	@ (1000aa98 <hw_endpoint_init+0xac>)
1000aa5c:	440d      	add	r5, r1
1000aa5e:	eb03 0344 	add.w	r3, r3, r4, lsl #1
1000aa62:	4909      	ldr	r1, [pc, #36]	@ (1000aa88 <hw_endpoint_init+0x9c>)
1000aa64:	eb01 1343 	add.w	r3, r1, r3, lsl #5
1000aa68:	605d      	str	r5, [r3, #4]
1000aa6a:	4611      	mov	r1, r2
1000aa6c:	f7ff ff84 	bl	1000a978 <_hw_endpoint_alloc>
1000aa70:	e7ea      	b.n	1000aa48 <hw_endpoint_init+0x5c>
1000aa72:	1e61      	subs	r1, r4, #1
1000aa74:	4d09      	ldr	r5, [pc, #36]	@ (1000aa9c <hw_endpoint_init+0xb0>)
1000aa76:	eb05 05c1 	add.w	r5, r5, r1, lsl #3
1000aa7a:	eb03 0344 	add.w	r3, r3, r4, lsl #1
1000aa7e:	4902      	ldr	r1, [pc, #8]	@ (1000aa88 <hw_endpoint_init+0x9c>)
1000aa80:	eb01 1343 	add.w	r3, r1, r3, lsl #5
1000aa84:	605d      	str	r5, [r3, #4]
1000aa86:	e7f0      	b.n	1000aa6a <hw_endpoint_init+0x7e>
1000aa88:	20001984 	.word	0x20001984
1000aa8c:	50100084 	.word	0x50100084
1000aa90:	50100100 	.word	0x50100100
1000aa94:	50100080 	.word	0x50100080
1000aa98:	5010000c 	.word	0x5010000c
1000aa9c:	50100008 	.word	0x50100008

1000aaa0 <hw_endpoint_xfer>:
1000aaa0:	b508      	push	{r3, lr}
1000aaa2:	f000 037f 	and.w	r3, r0, #127	@ 0x7f
1000aaa6:	005b      	lsls	r3, r3, #1
1000aaa8:	eb03 10d0 	add.w	r0, r3, r0, lsr #7
1000aaac:	4b02      	ldr	r3, [pc, #8]	@ (1000aab8 <hw_endpoint_xfer+0x18>)
1000aaae:	eb03 1040 	add.w	r0, r3, r0, lsl #5
1000aab2:	f000 f923 	bl	1000acfc <hw_endpoint_xfer_start>
1000aab6:	bd08      	pop	{r3, pc}
1000aab8:	20001984 	.word	0x20001984

1000aabc <dcd_int_enable>:
1000aabc:	b508      	push	{r3, lr}
1000aabe:	b920      	cbnz	r0, 1000aaca <dcd_int_enable+0xe>
1000aac0:	2101      	movs	r1, #1
1000aac2:	200e      	movs	r0, #14
1000aac4:	f7fd f87e 	bl	10007bc4 <irq_set_enabled>
1000aac8:	bd08      	pop	{r3, pc}
1000aaca:	4b03      	ldr	r3, [pc, #12]	@ (1000aad8 <dcd_int_enable+0x1c>)
1000aacc:	4a03      	ldr	r2, [pc, #12]	@ (1000aadc <dcd_int_enable+0x20>)
1000aace:	f44f 71d4 	mov.w	r1, #424	@ 0x1a8
1000aad2:	4803      	ldr	r0, [pc, #12]	@ (1000aae0 <dcd_int_enable+0x24>)
1000aad4:	f7ff fc78 	bl	1000a3c8 <__assert_func>
1000aad8:	1000d624 	.word	0x1000d624
1000aadc:	1000ef84 	.word	0x1000ef84
1000aae0:	1000d580 	.word	0x1000d580

1000aae4 <dcd_set_address>:
1000aae4:	b508      	push	{r3, lr}
1000aae6:	b928      	cbnz	r0, 1000aaf4 <dcd_set_address+0x10>
1000aae8:	2200      	movs	r2, #0
1000aaea:	4611      	mov	r1, r2
1000aaec:	2080      	movs	r0, #128	@ 0x80
1000aaee:	f7ff ffd7 	bl	1000aaa0 <hw_endpoint_xfer>
1000aaf2:	bd08      	pop	{r3, pc}
1000aaf4:	4b03      	ldr	r3, [pc, #12]	@ (1000ab04 <dcd_set_address+0x20>)
1000aaf6:	4a04      	ldr	r2, [pc, #16]	@ (1000ab08 <dcd_set_address+0x24>)
1000aaf8:	f44f 71d9 	mov.w	r1, #434	@ 0x1b2
1000aafc:	4803      	ldr	r0, [pc, #12]	@ (1000ab0c <dcd_set_address+0x28>)
1000aafe:	f7ff fc63 	bl	1000a3c8 <__assert_func>
1000ab02:	bf00      	nop
1000ab04:	1000d624 	.word	0x1000d624
1000ab08:	1000ef74 	.word	0x1000ef74
1000ab0c:	1000d580 	.word	0x1000d580

1000ab10 <dcd_connect>:
1000ab10:	4b02      	ldr	r3, [pc, #8]	@ (1000ab1c <dcd_connect+0xc>)
1000ab12:	f44f 3280 	mov.w	r2, #65536	@ 0x10000
1000ab16:	64da      	str	r2, [r3, #76]	@ 0x4c
1000ab18:	4770      	bx	lr
1000ab1a:	bf00      	nop
1000ab1c:	50112000 	.word	0x50112000

1000ab20 <dcd_init>:
1000ab20:	b570      	push	{r4, r5, r6, lr}
1000ab22:	bb40      	cbnz	r0, 1000ab76 <dcd_init+0x56>
1000ab24:	4606      	mov	r6, r0
1000ab26:	f000 f8c9 	bl	1000acbc <rp2040_usb_init>
1000ab2a:	4c16      	ldr	r4, [pc, #88]	@ (1000ab84 <dcd_init+0x64>)
1000ab2c:	230c      	movs	r3, #12
1000ab2e:	67a3      	str	r3, [r4, #120]	@ 0x78
1000ab30:	22ff      	movs	r2, #255	@ 0xff
1000ab32:	4915      	ldr	r1, [pc, #84]	@ (1000ab88 <dcd_init+0x68>)
1000ab34:	200e      	movs	r0, #14
1000ab36:	f7fd f887 	bl	10007c48 <irq_add_shared_handler>
1000ab3a:	2540      	movs	r5, #64	@ 0x40
1000ab3c:	462a      	mov	r2, r5
1000ab3e:	2100      	movs	r1, #0
1000ab40:	4812      	ldr	r0, [pc, #72]	@ (1000ab8c <dcd_init+0x6c>)
1000ab42:	f001 fed9 	bl	1000c8f8 <memset>
1000ab46:	2200      	movs	r2, #0
1000ab48:	4629      	mov	r1, r5
1000ab4a:	4610      	mov	r0, r2
1000ab4c:	f7ff ff4e 	bl	1000a9ec <hw_endpoint_init>
1000ab50:	2200      	movs	r2, #0
1000ab52:	4629      	mov	r1, r5
1000ab54:	2080      	movs	r0, #128	@ 0x80
1000ab56:	f7ff ff49 	bl	1000a9ec <hw_endpoint_init>
1000ab5a:	f002 f971 	bl	1000ce40 <__reset_non_control_endpoints_veneer>
1000ab5e:	2301      	movs	r3, #1
1000ab60:	6423      	str	r3, [r4, #64]	@ 0x40
1000ab62:	f04f 5300 	mov.w	r3, #536870912	@ 0x20000000
1000ab66:	64e3      	str	r3, [r4, #76]	@ 0x4c
1000ab68:	4b09      	ldr	r3, [pc, #36]	@ (1000ab90 <dcd_init+0x70>)
1000ab6a:	f8c4 3090 	str.w	r3, [r4, #144]	@ 0x90
1000ab6e:	4630      	mov	r0, r6
1000ab70:	f7ff ffce 	bl	1000ab10 <dcd_connect>
1000ab74:	bd70      	pop	{r4, r5, r6, pc}
1000ab76:	4b07      	ldr	r3, [pc, #28]	@ (1000ab94 <dcd_init+0x74>)
1000ab78:	4a07      	ldr	r2, [pc, #28]	@ (1000ab98 <dcd_init+0x78>)
1000ab7a:	f240 1175 	movw	r1, #373	@ 0x175
1000ab7e:	4807      	ldr	r0, [pc, #28]	@ (1000ab9c <dcd_init+0x7c>)
1000ab80:	f7ff fc22 	bl	1000a3c8 <__assert_func>
1000ab84:	50110000 	.word	0x50110000
1000ab88:	20000399 	.word	0x20000399
1000ab8c:	20001984 	.word	0x20001984
1000ab90:	0001d010 	.word	0x0001d010
1000ab94:	1000d624 	.word	0x1000d624
1000ab98:	1000efa8 	.word	0x1000efa8
1000ab9c:	1000d580 	.word	0x1000d580

1000aba0 <dcd_sof_enable>:
1000aba0:	4b04      	ldr	r3, [pc, #16]	@ (1000abb4 <dcd_sof_enable+0x14>)
1000aba2:	7019      	strb	r1, [r3, #0]
1000aba4:	b121      	cbz	r1, 1000abb0 <dcd_sof_enable+0x10>
1000aba6:	4b04      	ldr	r3, [pc, #16]	@ (1000abb8 <dcd_sof_enable+0x18>)
1000aba8:	f44f 3200 	mov.w	r2, #131072	@ 0x20000
1000abac:	f8c3 2090 	str.w	r2, [r3, #144]	@ 0x90
1000abb0:	4770      	bx	lr
1000abb2:	bf00      	nop
1000abb4:	20005f5b 	.word	0x20005f5b
1000abb8:	50112000 	.word	0x50112000

1000abbc <dcd_edpt0_status_complete>:
1000abbc:	780b      	ldrb	r3, [r1, #0]
1000abbe:	f013 0f7f 	tst.w	r3, #127	@ 0x7f
1000abc2:	d102      	bne.n	1000abca <dcd_edpt0_status_complete+0xe>
1000abc4:	784b      	ldrb	r3, [r1, #1]
1000abc6:	2b05      	cmp	r3, #5
1000abc8:	d000      	beq.n	1000abcc <dcd_edpt0_status_complete+0x10>
1000abca:	4770      	bx	lr
1000abcc:	884b      	ldrh	r3, [r1, #2]
1000abce:	b2db      	uxtb	r3, r3
1000abd0:	4a01      	ldr	r2, [pc, #4]	@ (1000abd8 <dcd_edpt0_status_complete+0x1c>)
1000abd2:	6013      	str	r3, [r2, #0]
1000abd4:	e7f9      	b.n	1000abca <dcd_edpt0_status_complete+0xe>
1000abd6:	bf00      	nop
1000abd8:	50110000 	.word	0x50110000

1000abdc <dcd_edpt_open>:
1000abdc:	b508      	push	{r3, lr}
1000abde:	b958      	cbnz	r0, 1000abf8 <dcd_edpt_open+0x1c>
1000abe0:	460b      	mov	r3, r1
1000abe2:	8889      	ldrh	r1, [r1, #4]
1000abe4:	78da      	ldrb	r2, [r3, #3]
1000abe6:	f002 0203 	and.w	r2, r2, #3
1000abea:	f3c1 010a 	ubfx	r1, r1, #0, #11
1000abee:	7898      	ldrb	r0, [r3, #2]
1000abf0:	f7ff fefc 	bl	1000a9ec <hw_endpoint_init>
1000abf4:	2001      	movs	r0, #1
1000abf6:	bd08      	pop	{r3, pc}
1000abf8:	4b03      	ldr	r3, [pc, #12]	@ (1000ac08 <dcd_edpt_open+0x2c>)
1000abfa:	4a04      	ldr	r2, [pc, #16]	@ (1000ac0c <dcd_edpt_open+0x30>)
1000abfc:	f240 11ef 	movw	r1, #495	@ 0x1ef
1000ac00:	4803      	ldr	r0, [pc, #12]	@ (1000ac10 <dcd_edpt_open+0x34>)
1000ac02:	f7ff fbe1 	bl	1000a3c8 <__assert_func>
1000ac06:	bf00      	nop
1000ac08:	1000d624 	.word	0x1000d624
1000ac0c:	1000ef64 	.word	0x1000ef64
1000ac10:	1000d580 	.word	0x1000d580

1000ac14 <dcd_edpt_close_all>:
1000ac14:	b508      	push	{r3, lr}
1000ac16:	f002 f913 	bl	1000ce40 <__reset_non_control_endpoints_veneer>
1000ac1a:	bd08      	pop	{r3, pc}

1000ac1c <dcd_edpt_xfer>:
1000ac1c:	b510      	push	{r4, lr}
1000ac1e:	b930      	cbnz	r0, 1000ac2e <dcd_edpt_xfer+0x12>
1000ac20:	4608      	mov	r0, r1
1000ac22:	4611      	mov	r1, r2
1000ac24:	461a      	mov	r2, r3
1000ac26:	f7ff ff3b 	bl	1000aaa0 <hw_endpoint_xfer>
1000ac2a:	2001      	movs	r0, #1
1000ac2c:	bd10      	pop	{r4, pc}
1000ac2e:	4b03      	ldr	r3, [pc, #12]	@ (1000ac3c <dcd_edpt_xfer+0x20>)
1000ac30:	4a03      	ldr	r2, [pc, #12]	@ (1000ac40 <dcd_edpt_xfer+0x24>)
1000ac32:	f44f 71fe 	mov.w	r1, #508	@ 0x1fc
1000ac36:	4803      	ldr	r0, [pc, #12]	@ (1000ac44 <dcd_edpt_xfer+0x28>)
1000ac38:	f7ff fbc6 	bl	1000a3c8 <__assert_func>
1000ac3c:	1000d624 	.word	0x1000d624
1000ac40:	1000ef54 	.word	0x1000ef54
1000ac44:	1000d580 	.word	0x1000d580

1000ac48 <dcd_edpt_stall>:
1000ac48:	b508      	push	{r3, lr}
1000ac4a:	f011 037f 	ands.w	r3, r1, #127	@ 0x7f
1000ac4e:	d104      	bne.n	1000ac5a <dcd_edpt_stall+0x12>
1000ac50:	09ca      	lsrs	r2, r1, #7
1000ac52:	d10e      	bne.n	1000ac72 <dcd_edpt_stall+0x2a>
1000ac54:	2002      	movs	r0, #2
1000ac56:	4a08      	ldr	r2, [pc, #32]	@ (1000ac78 <dcd_edpt_stall+0x30>)
1000ac58:	6690      	str	r0, [r2, #104]	@ 0x68
1000ac5a:	005b      	lsls	r3, r3, #1
1000ac5c:	eb03 13d1 	add.w	r3, r3, r1, lsr #7
1000ac60:	f44f 6200 	mov.w	r2, #2048	@ 0x800
1000ac64:	2100      	movs	r1, #0
1000ac66:	4805      	ldr	r0, [pc, #20]	@ (1000ac7c <dcd_edpt_stall+0x34>)
1000ac68:	eb00 1043 	add.w	r0, r0, r3, lsl #5
1000ac6c:	f002 f8dc 	bl	1000ce28 <___hw_endpoint_buffer_control_update32_veneer>
1000ac70:	bd08      	pop	{r3, pc}
1000ac72:	2001      	movs	r0, #1
1000ac74:	e7ef      	b.n	1000ac56 <dcd_edpt_stall+0xe>
1000ac76:	bf00      	nop
1000ac78:	50112000 	.word	0x50112000
1000ac7c:	20001984 	.word	0x20001984

1000ac80 <dcd_edpt_clear_stall>:
1000ac80:	b508      	push	{r3, lr}
1000ac82:	f011 037f 	ands.w	r3, r1, #127	@ 0x7f
1000ac86:	d100      	bne.n	1000ac8a <dcd_edpt_clear_stall+0xa>
1000ac88:	bd08      	pop	{r3, pc}
1000ac8a:	005b      	lsls	r3, r3, #1
1000ac8c:	eb03 13d1 	add.w	r3, r3, r1, lsr #7
1000ac90:	4804      	ldr	r0, [pc, #16]	@ (1000aca4 <dcd_edpt_clear_stall+0x24>)
1000ac92:	eb00 1043 	add.w	r0, r0, r3, lsl #5
1000ac96:	2200      	movs	r2, #0
1000ac98:	70c2      	strb	r2, [r0, #3]
1000ac9a:	f46f 6100 	mvn.w	r1, #2048	@ 0x800
1000ac9e:	f002 f8c3 	bl	1000ce28 <___hw_endpoint_buffer_control_update32_veneer>
1000aca2:	e7f1      	b.n	1000ac88 <dcd_edpt_clear_stall+0x8>
1000aca4:	20001984 	.word	0x20001984

1000aca8 <unaligned_memcpy>:
1000aca8:	e004      	b.n	1000acb4 <unaligned_memcpy+0xc>
1000acaa:	f811 2b01 	ldrb.w	r2, [r1], #1
1000acae:	f800 2b01 	strb.w	r2, [r0], #1
1000acb2:	461a      	mov	r2, r3
1000acb4:	1e53      	subs	r3, r2, #1
1000acb6:	2a00      	cmp	r2, #0
1000acb8:	d1f7      	bne.n	1000acaa <unaligned_memcpy+0x2>
1000acba:	4770      	bx	lr

1000acbc <rp2040_usb_init>:
1000acbc:	b508      	push	{r3, lr}
1000acbe:	f04f 5380 	mov.w	r3, #268435456	@ 0x10000000
1000acc2:	4a0a      	ldr	r2, [pc, #40]	@ (1000acec <rp2040_usb_init+0x30>)
1000acc4:	6013      	str	r3, [r2, #0]
1000acc6:	f502 5280 	add.w	r2, r2, #4096	@ 0x1000
1000acca:	6013      	str	r3, [r2, #0]
1000accc:	4b08      	ldr	r3, [pc, #32]	@ (1000acf0 <rp2040_usb_init+0x34>)
1000acce:	689b      	ldr	r3, [r3, #8]
1000acd0:	f013 5f80 	tst.w	r3, #268435456	@ 0x10000000
1000acd4:	d0fa      	beq.n	1000accc <rp2040_usb_init+0x10>
1000acd6:	f44f 5280 	mov.w	r2, #4096	@ 0x1000
1000acda:	2100      	movs	r1, #0
1000acdc:	4805      	ldr	r0, [pc, #20]	@ (1000acf4 <rp2040_usb_init+0x38>)
1000acde:	f001 fe0b 	bl	1000c8f8 <memset>
1000ace2:	4b05      	ldr	r3, [pc, #20]	@ (1000acf8 <rp2040_usb_init+0x3c>)
1000ace4:	2209      	movs	r2, #9
1000ace6:	675a      	str	r2, [r3, #116]	@ 0x74
1000ace8:	bd08      	pop	{r3, pc}
1000acea:	bf00      	nop
1000acec:	40022000 	.word	0x40022000
1000acf0:	40020000 	.word	0x40020000
1000acf4:	50100000 	.word	0x50100000
1000acf8:	50110000 	.word	0x50110000

1000acfc <hw_endpoint_xfer_start>:
1000acfc:	b570      	push	{r4, r5, r6, lr}
1000acfe:	4604      	mov	r4, r0
1000ad00:	460d      	mov	r5, r1
1000ad02:	4616      	mov	r6, r2
1000ad04:	7e83      	ldrb	r3, [r0, #26]
1000ad06:	b9ab      	cbnz	r3, 1000ad34 <hw_endpoint_xfer_start+0x38>
1000ad08:	82a6      	strh	r6, [r4, #20]
1000ad0a:	2300      	movs	r3, #0
1000ad0c:	82e3      	strh	r3, [r4, #22]
1000ad0e:	2301      	movs	r3, #1
1000ad10:	76a3      	strb	r3, [r4, #26]
1000ad12:	6125      	str	r5, [r4, #16]
1000ad14:	4620      	mov	r0, r4
1000ad16:	f002 f87b 	bl	1000ce10 <__e15_is_bulkin_ep_veneer>
1000ad1a:	b120      	cbz	r0, 1000ad26 <hw_endpoint_xfer_start+0x2a>
1000ad1c:	4b0b      	ldr	r3, [pc, #44]	@ (1000ad4c <hw_endpoint_xfer_start+0x50>)
1000ad1e:	f44f 3200 	mov.w	r2, #131072	@ 0x20000
1000ad22:	f8c3 2090 	str.w	r2, [r3, #144]	@ 0x90
1000ad26:	4620      	mov	r0, r4
1000ad28:	f002 f886 	bl	1000ce38 <__e15_is_critical_frame_period_veneer>
1000ad2c:	b150      	cbz	r0, 1000ad44 <hw_endpoint_xfer_start+0x48>
1000ad2e:	2301      	movs	r3, #1
1000ad30:	7723      	strb	r3, [r4, #28]
1000ad32:	bd70      	pop	{r4, r5, r6, pc}
1000ad34:	7881      	ldrb	r1, [r0, #2]
1000ad36:	4806      	ldr	r0, [pc, #24]	@ (1000ad50 <hw_endpoint_xfer_start+0x54>)
1000ad38:	f7ff fca2 	bl	1000a680 <__wrap_printf>
1000ad3c:	4620      	mov	r0, r4
1000ad3e:	f002 f85b 	bl	1000cdf8 <__hw_endpoint_reset_transfer_veneer>
1000ad42:	e7e1      	b.n	1000ad08 <hw_endpoint_xfer_start+0xc>
1000ad44:	4620      	mov	r0, r4
1000ad46:	f002 f85f 	bl	1000ce08 <__hw_endpoint_start_next_buffer_veneer>
1000ad4a:	e7f2      	b.n	1000ad32 <hw_endpoint_xfer_start+0x36>
1000ad4c:	50112000 	.word	0x50112000
1000ad50:	1000d714 	.word	0x1000d714

1000ad54 <critical_section_enter_blocking>:
1000ad54:	6803      	ldr	r3, [r0, #0]
1000ad56:	f3ef 8210 	mrs	r2, PRIMASK
1000ad5a:	b672      	cpsid	i
1000ad5c:	e8d3 cfcf 	ldaexb	ip, [r3]
1000ad60:	2101      	movs	r1, #1
1000ad62:	f1bc 0f00 	cmp.w	ip, #0
1000ad66:	d1f9      	bne.n	1000ad5c <critical_section_enter_blocking+0x8>
1000ad68:	e8c3 1f4c 	strexb	ip, r1, [r3]
1000ad6c:	f1bc 0f00 	cmp.w	ip, #0
1000ad70:	d1f4      	bne.n	1000ad5c <critical_section_enter_blocking+0x8>
1000ad72:	f3bf 8f5f 	dmb	sy
1000ad76:	6042      	str	r2, [r0, #4]
1000ad78:	4770      	bx	lr

1000ad7a <tud_vendor_control_xfer_cb>:
1000ad7a:	2000      	movs	r0, #0
1000ad7c:	4770      	bx	lr
	...

1000ad80 <configuration_reset>:
1000ad80:	b538      	push	{r3, r4, r5, lr}
1000ad82:	4605      	mov	r5, r0
1000ad84:	2400      	movs	r4, #0
1000ad86:	e008      	b.n	1000ad9a <configuration_reset+0x1a>
1000ad88:	1ae3      	subs	r3, r4, r3
1000ad8a:	4a1a      	ldr	r2, [pc, #104]	@ (1000adf4 <configuration_reset+0x74>)
1000ad8c:	eb02 1343 	add.w	r3, r2, r3, lsl #5
1000ad90:	68db      	ldr	r3, [r3, #12]
1000ad92:	4628      	mov	r0, r5
1000ad94:	4798      	blx	r3
1000ad96:	3401      	adds	r4, #1
1000ad98:	b2e4      	uxtb	r4, r4
1000ad9a:	4b17      	ldr	r3, [pc, #92]	@ (1000adf8 <configuration_reset+0x78>)
1000ad9c:	781b      	ldrb	r3, [r3, #0]
1000ad9e:	42a3      	cmp	r3, r4
1000ada0:	d315      	bcc.n	1000adce <configuration_reset+0x4e>
1000ada2:	42a3      	cmp	r3, r4
1000ada4:	d9f0      	bls.n	1000ad88 <configuration_reset+0x8>
1000ada6:	4b15      	ldr	r3, [pc, #84]	@ (1000adfc <configuration_reset+0x7c>)
1000ada8:	681b      	ldr	r3, [r3, #0]
1000adaa:	eb13 1344 	adds.w	r3, r3, r4, lsl #5
1000adae:	d1ef      	bne.n	1000ad90 <configuration_reset+0x10>
1000adb0:	f240 2216 	movw	r2, #534	@ 0x216
1000adb4:	4912      	ldr	r1, [pc, #72]	@ (1000ae00 <configuration_reset+0x80>)
1000adb6:	4813      	ldr	r0, [pc, #76]	@ (1000ae04 <configuration_reset+0x84>)
1000adb8:	f7ff fc62 	bl	1000a680 <__wrap_printf>
1000adbc:	f04f 23e0 	mov.w	r3, #3758153728	@ 0xe000e000
1000adc0:	f8d3 3df0 	ldr.w	r3, [r3, #3568]	@ 0xdf0
1000adc4:	f013 0f01 	tst.w	r3, #1
1000adc8:	d013      	beq.n	1000adf2 <configuration_reset+0x72>
1000adca:	be00      	bkpt	0x0000
1000adcc:	e011      	b.n	1000adf2 <configuration_reset+0x72>
1000adce:	4c0e      	ldr	r4, [pc, #56]	@ (1000ae08 <configuration_reset+0x88>)
1000add0:	2254      	movs	r2, #84	@ 0x54
1000add2:	2100      	movs	r1, #0
1000add4:	4620      	mov	r0, r4
1000add6:	f001 fd8f 	bl	1000c8f8 <memset>
1000adda:	f04f 33ff 	mov.w	r3, #4294967295
1000adde:	6063      	str	r3, [r4, #4]
1000ade0:	60a3      	str	r3, [r4, #8]
1000ade2:	60e3      	str	r3, [r4, #12]
1000ade4:	6123      	str	r3, [r4, #16]
1000ade6:	2220      	movs	r2, #32
1000ade8:	21ff      	movs	r1, #255	@ 0xff
1000adea:	f104 0014 	add.w	r0, r4, #20
1000adee:	f001 fd83 	bl	1000c8f8 <memset>
1000adf2:	bd38      	pop	{r3, r4, r5, pc}
1000adf4:	1000f078 	.word	0x1000f078
1000adf8:	20005f5a 	.word	0x20005f5a
1000adfc:	20001020 	.word	0x20001020
1000ae00:	1000f048 	.word	0x1000f048
1000ae04:	1000d74c 	.word	0x1000d74c
1000ae08:	200010e4 	.word	0x200010e4

1000ae0c <usbd_reset>:
1000ae0c:	b508      	push	{r3, lr}
1000ae0e:	f7ff ffb7 	bl	1000ad80 <configuration_reset>
1000ae12:	f000 fedd 	bl	1000bbd0 <usbd_control_reset>
1000ae16:	bd08      	pop	{r3, pc}

1000ae18 <invoke_class_control>:
1000ae18:	b570      	push	{r4, r5, r6, lr}
1000ae1a:	4605      	mov	r5, r0
1000ae1c:	460c      	mov	r4, r1
1000ae1e:	4616      	mov	r6, r2
1000ae20:	6948      	ldr	r0, [r1, #20]
1000ae22:	f000 fedf 	bl	1000bbe4 <usbd_control_set_complete_callback>
1000ae26:	6963      	ldr	r3, [r4, #20]
1000ae28:	4632      	mov	r2, r6
1000ae2a:	2101      	movs	r1, #1
1000ae2c:	4628      	mov	r0, r5
1000ae2e:	4798      	blx	r3
1000ae30:	bd70      	pop	{r4, r5, r6, pc}
	...

1000ae34 <process_set_config>:
1000ae34:	e92d 47f0 	stmdb	sp!, {r4, r5, r6, r7, r8, r9, sl, lr}
1000ae38:	4607      	mov	r7, r0
1000ae3a:	1e48      	subs	r0, r1, #1
1000ae3c:	b2c0      	uxtb	r0, r0
1000ae3e:	f7f5 fb57 	bl	100004f0 <tud_descriptor_configuration_cb>
1000ae42:	b118      	cbz	r0, 1000ae4c <process_set_config+0x18>
1000ae44:	4680      	mov	r8, r0
1000ae46:	7843      	ldrb	r3, [r0, #1]
1000ae48:	2b02      	cmp	r3, #2
1000ae4a:	d010      	beq.n	1000ae6e <process_set_config+0x3a>
1000ae4c:	f240 32c7 	movw	r2, #967	@ 0x3c7
1000ae50:	4957      	ldr	r1, [pc, #348]	@ (1000afb0 <process_set_config+0x17c>)
1000ae52:	4858      	ldr	r0, [pc, #352]	@ (1000afb4 <process_set_config+0x180>)
1000ae54:	f7ff fc14 	bl	1000a680 <__wrap_printf>
1000ae58:	f04f 23e0 	mov.w	r3, #3758153728	@ 0xe000e000
1000ae5c:	f8d3 3df0 	ldr.w	r3, [r3, #3568]	@ 0xdf0
1000ae60:	f013 0f01 	tst.w	r3, #1
1000ae64:	d000      	beq.n	1000ae68 <process_set_config+0x34>
1000ae66:	be00      	bkpt	0x0000
1000ae68:	2000      	movs	r0, #0
1000ae6a:	e8bd 87f0 	ldmia.w	sp!, {r4, r5, r6, r7, r8, r9, sl, pc}
1000ae6e:	79c2      	ldrb	r2, [r0, #7]
1000ae70:	f3c2 1040 	ubfx	r0, r2, #5, #1
1000ae74:	4b50      	ldr	r3, [pc, #320]	@ (1000afb8 <process_set_config+0x184>)
1000ae76:	7819      	ldrb	r1, [r3, #0]
1000ae78:	f360 1104 	bfi	r1, r0, #4, #1
1000ae7c:	7019      	strb	r1, [r3, #0]
1000ae7e:	f3c2 1280 	ubfx	r2, r2, #6, #1
1000ae82:	b2c9      	uxtb	r1, r1
1000ae84:	f362 1145 	bfi	r1, r2, #5, #1
1000ae88:	7019      	strb	r1, [r3, #0]
1000ae8a:	f108 0609 	add.w	r6, r8, #9
1000ae8e:	f8b8 3002 	ldrh.w	r3, [r8, #2]
1000ae92:	4498      	add	r8, r3
1000ae94:	e06b      	b.n	1000af6e <process_set_config+0x13a>
1000ae96:	f896 9003 	ldrb.w	r9, [r6, #3]
1000ae9a:	7833      	ldrb	r3, [r6, #0]
1000ae9c:	441e      	add	r6, r3
1000ae9e:	e06d      	b.n	1000af7c <process_set_config+0x148>
1000aea0:	f240 32e2 	movw	r2, #994	@ 0x3e2
1000aea4:	4942      	ldr	r1, [pc, #264]	@ (1000afb0 <process_set_config+0x17c>)
1000aea6:	4843      	ldr	r0, [pc, #268]	@ (1000afb4 <process_set_config+0x180>)
1000aea8:	f7ff fbea 	bl	1000a680 <__wrap_printf>
1000aeac:	f04f 23e0 	mov.w	r3, #3758153728	@ 0xe000e000
1000aeb0:	f8d3 3df0 	ldr.w	r3, [r3, #3568]	@ 0xdf0
1000aeb4:	f013 0f01 	tst.w	r3, #1
1000aeb8:	d000      	beq.n	1000aebc <process_set_config+0x88>
1000aeba:	be00      	bkpt	0x0000
1000aebc:	2000      	movs	r0, #0
1000aebe:	e7d4      	b.n	1000ae6a <process_set_config+0x36>
1000aec0:	1ae3      	subs	r3, r4, r3
1000aec2:	4a3e      	ldr	r2, [pc, #248]	@ (1000afbc <process_set_config+0x188>)
1000aec4:	eb02 1343 	add.w	r3, r2, r3, lsl #5
1000aec8:	691b      	ldr	r3, [r3, #16]
1000aeca:	462a      	mov	r2, r5
1000aecc:	4631      	mov	r1, r6
1000aece:	4638      	mov	r0, r7
1000aed0:	4798      	blx	r3
1000aed2:	4682      	mov	sl, r0
1000aed4:	2808      	cmp	r0, #8
1000aed6:	d901      	bls.n	1000aedc <process_set_config+0xa8>
1000aed8:	4285      	cmp	r5, r0
1000aeda:	d22c      	bcs.n	1000af36 <process_set_config+0x102>
1000aedc:	3401      	adds	r4, #1
1000aede:	b2e4      	uxtb	r4, r4
1000aee0:	4b37      	ldr	r3, [pc, #220]	@ (1000afc0 <process_set_config+0x18c>)
1000aee2:	781b      	ldrb	r3, [r3, #0]
1000aee4:	42a3      	cmp	r3, r4
1000aee6:	d33e      	bcc.n	1000af66 <process_set_config+0x132>
1000aee8:	42a3      	cmp	r3, r4
1000aeea:	d9e9      	bls.n	1000aec0 <process_set_config+0x8c>
1000aeec:	4b35      	ldr	r3, [pc, #212]	@ (1000afc4 <process_set_config+0x190>)
1000aeee:	681b      	ldr	r3, [r3, #0]
1000aef0:	eb13 1344 	adds.w	r3, r3, r4, lsl #5
1000aef4:	d1e8      	bne.n	1000aec8 <process_set_config+0x94>
1000aef6:	f240 32eb 	movw	r2, #1003	@ 0x3eb
1000aefa:	492d      	ldr	r1, [pc, #180]	@ (1000afb0 <process_set_config+0x17c>)
1000aefc:	482d      	ldr	r0, [pc, #180]	@ (1000afb4 <process_set_config+0x180>)
1000aefe:	f7ff fbbf 	bl	1000a680 <__wrap_printf>
1000af02:	f04f 23e0 	mov.w	r3, #3758153728	@ 0xe000e000
1000af06:	f8d3 3df0 	ldr.w	r3, [r3, #3568]	@ 0xdf0
1000af0a:	f013 0f01 	tst.w	r3, #1
1000af0e:	d000      	beq.n	1000af12 <process_set_config+0xde>
1000af10:	be00      	bkpt	0x0000
1000af12:	2000      	movs	r0, #0
1000af14:	e7a9      	b.n	1000ae6a <process_set_config+0x36>
1000af16:	f240 420a 	movw	r2, #1034	@ 0x40a
1000af1a:	4925      	ldr	r1, [pc, #148]	@ (1000afb0 <process_set_config+0x17c>)
1000af1c:	4825      	ldr	r0, [pc, #148]	@ (1000afb4 <process_set_config+0x180>)
1000af1e:	f7ff fbaf 	bl	1000a680 <__wrap_printf>
1000af22:	f04f 23e0 	mov.w	r3, #3758153728	@ 0xe000e000
1000af26:	f8d3 3df0 	ldr.w	r3, [r3, #3568]	@ 0xdf0
1000af2a:	f013 0f01 	tst.w	r3, #1
1000af2e:	d000      	beq.n	1000af32 <process_set_config+0xfe>
1000af30:	be00      	bkpt	0x0000
1000af32:	2000      	movs	r0, #0
1000af34:	e799      	b.n	1000ae6a <process_set_config+0x36>
1000af36:	2200      	movs	r2, #0
1000af38:	4591      	cmp	r9, r2
1000af3a:	d90d      	bls.n	1000af58 <process_set_config+0x124>
1000af3c:	78b3      	ldrb	r3, [r6, #2]
1000af3e:	4413      	add	r3, r2
1000af40:	b2db      	uxtb	r3, r3
1000af42:	491d      	ldr	r1, [pc, #116]	@ (1000afb8 <process_set_config+0x184>)
1000af44:	4419      	add	r1, r3
1000af46:	7909      	ldrb	r1, [r1, #4]
1000af48:	29ff      	cmp	r1, #255	@ 0xff
1000af4a:	d1e4      	bne.n	1000af16 <process_set_config+0xe2>
1000af4c:	491a      	ldr	r1, [pc, #104]	@ (1000afb8 <process_set_config+0x184>)
1000af4e:	440b      	add	r3, r1
1000af50:	711c      	strb	r4, [r3, #4]
1000af52:	3201      	adds	r2, #1
1000af54:	b2d2      	uxtb	r2, r2
1000af56:	e7ef      	b.n	1000af38 <process_set_config+0x104>
1000af58:	4623      	mov	r3, r4
1000af5a:	4652      	mov	r2, sl
1000af5c:	4631      	mov	r1, r6
1000af5e:	481a      	ldr	r0, [pc, #104]	@ (1000afc8 <process_set_config+0x194>)
1000af60:	f001 fbba 	bl	1000c6d8 <tu_edpt_bind_driver>
1000af64:	4456      	add	r6, sl
1000af66:	4b16      	ldr	r3, [pc, #88]	@ (1000afc0 <process_set_config+0x18c>)
1000af68:	781b      	ldrb	r3, [r3, #0]
1000af6a:	42a3      	cmp	r3, r4
1000af6c:	d30e      	bcc.n	1000af8c <process_set_config+0x158>
1000af6e:	4546      	cmp	r6, r8
1000af70:	d21c      	bcs.n	1000afac <process_set_config+0x178>
1000af72:	7873      	ldrb	r3, [r6, #1]
1000af74:	2b0b      	cmp	r3, #11
1000af76:	d08e      	beq.n	1000ae96 <process_set_config+0x62>
1000af78:	f04f 0901 	mov.w	r9, #1
1000af7c:	7873      	ldrb	r3, [r6, #1]
1000af7e:	2b04      	cmp	r3, #4
1000af80:	d18e      	bne.n	1000aea0 <process_set_config+0x6c>
1000af82:	eba8 0506 	sub.w	r5, r8, r6
1000af86:	b2ad      	uxth	r5, r5
1000af88:	2400      	movs	r4, #0
1000af8a:	e7a9      	b.n	1000aee0 <process_set_config+0xac>
1000af8c:	f240 4219 	movw	r2, #1049	@ 0x419
1000af90:	4907      	ldr	r1, [pc, #28]	@ (1000afb0 <process_set_config+0x17c>)
1000af92:	4808      	ldr	r0, [pc, #32]	@ (1000afb4 <process_set_config+0x180>)
1000af94:	f7ff fb74 	bl	1000a680 <__wrap_printf>
1000af98:	f04f 23e0 	mov.w	r3, #3758153728	@ 0xe000e000
1000af9c:	f8d3 3df0 	ldr.w	r3, [r3, #3568]	@ 0xdf0
1000afa0:	f013 0f01 	tst.w	r3, #1
1000afa4:	d000      	beq.n	1000afa8 <process_set_config+0x174>
1000afa6:	be00      	bkpt	0x0000
1000afa8:	2000      	movs	r0, #0
1000afaa:	e75e      	b.n	1000ae6a <process_set_config+0x36>
1000afac:	2001      	movs	r0, #1
1000afae:	e75c      	b.n	1000ae6a <process_set_config+0x36>
1000afb0:	1000f01c 	.word	0x1000f01c
1000afb4:	1000d74c 	.word	0x1000d74c
1000afb8:	200010e4 	.word	0x200010e4
1000afbc:	1000f078 	.word	0x1000f078
1000afc0:	20005f5a 	.word	0x20005f5a
1000afc4:	20001020 	.word	0x20001020
1000afc8:	200010f8 	.word	0x200010f8

1000afcc <tud_event_hook_cb>:
1000afcc:	4770      	bx	lr

1000afce <tud_sof_cb>:
1000afce:	4770      	bx	lr

1000afd0 <tud_descriptor_bos_cb>:
1000afd0:	2000      	movs	r0, #0
1000afd2:	4770      	bx	lr

1000afd4 <tud_descriptor_device_qualifier_cb>:
1000afd4:	2000      	movs	r0, #0
1000afd6:	4770      	bx	lr

1000afd8 <tud_descriptor_other_speed_configuration_cb>:
1000afd8:	2000      	movs	r0, #0
1000afda:	4770      	bx	lr

1000afdc <process_get_descriptor>:
1000afdc:	b538      	push	{r3, r4, r5, lr}
1000afde:	4605      	mov	r5, r0
1000afe0:	460c      	mov	r4, r1
1000afe2:	884b      	ldrh	r3, [r1, #2]
1000afe4:	0a1a      	lsrs	r2, r3, #8
1000afe6:	b2d8      	uxtb	r0, r3
1000afe8:	1e53      	subs	r3, r2, #1
1000afea:	2b0e      	cmp	r3, #14
1000afec:	d864      	bhi.n	1000b0b8 <process_get_descriptor+0xdc>
1000afee:	e8df f003 	tbb	[pc, r3]
1000aff2:	2d08      	.short	0x2d08
1000aff4:	5963634e 	.word	0x5963634e
1000aff8:	6363632d 	.word	0x6363632d
1000affc:	63636363 	.word	0x63636363
1000b000:	22          	.byte	0x22
1000b001:	00          	.byte	0x00
1000b002:	f7f5 fa71 	bl	100004e8 <tud_descriptor_device_cb>
1000b006:	4602      	mov	r2, r0
1000b008:	b128      	cbz	r0, 1000b016 <process_get_descriptor+0x3a>
1000b00a:	2312      	movs	r3, #18
1000b00c:	4621      	mov	r1, r4
1000b00e:	4628      	mov	r0, r5
1000b010:	f000 fd88 	bl	1000bb24 <tud_control_xfer>
1000b014:	e051      	b.n	1000b0ba <process_get_descriptor+0xde>
1000b016:	f240 422b 	movw	r2, #1067	@ 0x42b
1000b01a:	492c      	ldr	r1, [pc, #176]	@ (1000b0cc <process_get_descriptor+0xf0>)
1000b01c:	482c      	ldr	r0, [pc, #176]	@ (1000b0d0 <process_get_descriptor+0xf4>)
1000b01e:	f7ff fb2f 	bl	1000a680 <__wrap_printf>
1000b022:	f04f 23e0 	mov.w	r3, #3758153728	@ 0xe000e000
1000b026:	f8d3 3df0 	ldr.w	r3, [r3, #3568]	@ 0xdf0
1000b02a:	f013 0f01 	tst.w	r3, #1
1000b02e:	d000      	beq.n	1000b032 <process_get_descriptor+0x56>
1000b030:	be00      	bkpt	0x0000
1000b032:	2000      	movs	r0, #0
1000b034:	e041      	b.n	1000b0ba <process_get_descriptor+0xde>
1000b036:	f7ff ffcb 	bl	1000afd0 <tud_descriptor_bos_cb>
1000b03a:	4602      	mov	r2, r0
1000b03c:	2800      	cmp	r0, #0
1000b03e:	d03d      	beq.n	1000b0bc <process_get_descriptor+0xe0>
1000b040:	8843      	ldrh	r3, [r0, #2]
1000b042:	4621      	mov	r1, r4
1000b044:	4628      	mov	r0, r5
1000b046:	f000 fd6d 	bl	1000bb24 <tud_control_xfer>
1000b04a:	e036      	b.n	1000b0ba <process_get_descriptor+0xde>
1000b04c:	2a02      	cmp	r2, #2
1000b04e:	d009      	beq.n	1000b064 <process_get_descriptor+0x88>
1000b050:	f7ff ffc2 	bl	1000afd8 <tud_descriptor_other_speed_configuration_cb>
1000b054:	4602      	mov	r2, r0
1000b056:	b398      	cbz	r0, 1000b0c0 <process_get_descriptor+0xe4>
1000b058:	8853      	ldrh	r3, [r2, #2]
1000b05a:	4621      	mov	r1, r4
1000b05c:	4628      	mov	r0, r5
1000b05e:	f000 fd61 	bl	1000bb24 <tud_control_xfer>
1000b062:	e02a      	b.n	1000b0ba <process_get_descriptor+0xde>
1000b064:	f7f5 fa44 	bl	100004f0 <tud_descriptor_configuration_cb>
1000b068:	4602      	mov	r2, r0
1000b06a:	2800      	cmp	r0, #0
1000b06c:	d1f4      	bne.n	1000b058 <process_get_descriptor+0x7c>
1000b06e:	f240 4252 	movw	r2, #1106	@ 0x452
1000b072:	4916      	ldr	r1, [pc, #88]	@ (1000b0cc <process_get_descriptor+0xf0>)
1000b074:	4816      	ldr	r0, [pc, #88]	@ (1000b0d0 <process_get_descriptor+0xf4>)
1000b076:	f7ff fb03 	bl	1000a680 <__wrap_printf>
1000b07a:	f04f 23e0 	mov.w	r3, #3758153728	@ 0xe000e000
1000b07e:	f8d3 3df0 	ldr.w	r3, [r3, #3568]	@ 0xdf0
1000b082:	f013 0f01 	tst.w	r3, #1
1000b086:	d000      	beq.n	1000b08a <process_get_descriptor+0xae>
1000b088:	be00      	bkpt	0x0000
1000b08a:	2000      	movs	r0, #0
1000b08c:	e015      	b.n	1000b0ba <process_get_descriptor+0xde>
1000b08e:	88a1      	ldrh	r1, [r4, #4]
1000b090:	f7f5 fa38 	bl	10000504 <tud_descriptor_string_cb>
1000b094:	4602      	mov	r2, r0
1000b096:	b1a8      	cbz	r0, 1000b0c4 <process_get_descriptor+0xe8>
1000b098:	7803      	ldrb	r3, [r0, #0]
1000b09a:	4621      	mov	r1, r4
1000b09c:	4628      	mov	r0, r5
1000b09e:	f000 fd41 	bl	1000bb24 <tud_control_xfer>
1000b0a2:	e00a      	b.n	1000b0ba <process_get_descriptor+0xde>
1000b0a4:	f7ff ff96 	bl	1000afd4 <tud_descriptor_device_qualifier_cb>
1000b0a8:	4602      	mov	r2, r0
1000b0aa:	b168      	cbz	r0, 1000b0c8 <process_get_descriptor+0xec>
1000b0ac:	7803      	ldrb	r3, [r0, #0]
1000b0ae:	4621      	mov	r1, r4
1000b0b0:	4628      	mov	r0, r5
1000b0b2:	f000 fd37 	bl	1000bb24 <tud_control_xfer>
1000b0b6:	e000      	b.n	1000b0ba <process_get_descriptor+0xde>
1000b0b8:	2000      	movs	r0, #0
1000b0ba:	bd38      	pop	{r3, r4, r5, pc}
1000b0bc:	2000      	movs	r0, #0
1000b0be:	e7fc      	b.n	1000b0ba <process_get_descriptor+0xde>
1000b0c0:	2000      	movs	r0, #0
1000b0c2:	e7fa      	b.n	1000b0ba <process_get_descriptor+0xde>
1000b0c4:	2000      	movs	r0, #0
1000b0c6:	e7f8      	b.n	1000b0ba <process_get_descriptor+0xde>
1000b0c8:	2000      	movs	r0, #0
1000b0ca:	e7f6      	b.n	1000b0ba <process_get_descriptor+0xde>
1000b0cc:	1000f004 	.word	0x1000f004
1000b0d0:	1000d74c 	.word	0x1000d74c

1000b0d4 <tud_mount_cb>:
1000b0d4:	4770      	bx	lr

1000b0d6 <tud_umount_cb>:
1000b0d6:	4770      	bx	lr

1000b0d8 <tud_suspend_cb>:
1000b0d8:	4770      	bx	lr

1000b0da <tud_resume_cb>:
1000b0da:	4770      	bx	lr

1000b0dc <tud_mounted>:
1000b0dc:	4b02      	ldr	r3, [pc, #8]	@ (1000b0e8 <tud_mounted+0xc>)
1000b0de:	7858      	ldrb	r0, [r3, #1]
1000b0e0:	3800      	subs	r0, #0
1000b0e2:	bf18      	it	ne
1000b0e4:	2001      	movne	r0, #1
1000b0e6:	4770      	bx	lr
1000b0e8:	200010e4 	.word	0x200010e4

1000b0ec <tud_suspended>:
1000b0ec:	4b02      	ldr	r3, [pc, #8]	@ (1000b0f8 <tud_suspended+0xc>)
1000b0ee:	7818      	ldrb	r0, [r3, #0]
1000b0f0:	f3c0 0080 	ubfx	r0, r0, #2, #1
1000b0f4:	4770      	bx	lr
1000b0f6:	bf00      	nop
1000b0f8:	200010e4 	.word	0x200010e4

1000b0fc <tud_inited>:
1000b0fc:	4b02      	ldr	r3, [pc, #8]	@ (1000b108 <tud_inited+0xc>)
1000b0fe:	7818      	ldrb	r0, [r3, #0]
1000b100:	38ff      	subs	r0, #255	@ 0xff
1000b102:	bf18      	it	ne
1000b104:	2001      	movne	r0, #1
1000b106:	4770      	bx	lr
1000b108:	20000e74 	.word	0x20000e74

1000b10c <tud_init>:
1000b10c:	b570      	push	{r4, r5, r6, lr}
1000b10e:	4605      	mov	r5, r0
1000b110:	f7ff fff4 	bl	1000b0fc <tud_inited>
1000b114:	4606      	mov	r6, r0
1000b116:	b108      	cbz	r0, 1000b11c <tud_init+0x10>
1000b118:	4630      	mov	r0, r6
1000b11a:	bd70      	pop	{r4, r5, r6, pc}
1000b11c:	2254      	movs	r2, #84	@ 0x54
1000b11e:	2100      	movs	r1, #0
1000b120:	4825      	ldr	r0, [pc, #148]	@ (1000b1b8 <tud_init+0xac>)
1000b122:	f001 fbe9 	bl	1000c8f8 <memset>
1000b126:	4b25      	ldr	r3, [pc, #148]	@ (1000b1bc <tud_init+0xb0>)
1000b128:	2200      	movs	r2, #0
1000b12a:	701a      	strb	r2, [r3, #0]
1000b12c:	4c24      	ldr	r4, [pc, #144]	@ (1000b1c0 <tud_init+0xb4>)
1000b12e:	4620      	mov	r0, r4
1000b130:	f7fc ffe2 	bl	100080f8 <mutex_init>
1000b134:	4b23      	ldr	r3, [pc, #140]	@ (1000b1c4 <tud_init+0xb8>)
1000b136:	601c      	str	r4, [r3, #0]
1000b138:	4c23      	ldr	r4, [pc, #140]	@ (1000b1c8 <tud_init+0xbc>)
1000b13a:	4620      	mov	r0, r4
1000b13c:	f7fd f826 	bl	1000818c <critical_section_init>
1000b140:	3c14      	subs	r4, #20
1000b142:	4620      	mov	r0, r4
1000b144:	f001 fb8d 	bl	1000c862 <tu_fifo_clear>
1000b148:	4b20      	ldr	r3, [pc, #128]	@ (1000b1cc <tud_init+0xc0>)
1000b14a:	601c      	str	r4, [r3, #0]
1000b14c:	4b20      	ldr	r3, [pc, #128]	@ (1000b1d0 <tud_init+0xc4>)
1000b14e:	b123      	cbz	r3, 1000b15a <tud_init+0x4e>
1000b150:	4820      	ldr	r0, [pc, #128]	@ (1000b1d4 <tud_init+0xc8>)
1000b152:	f3af 8000 	nop.w
1000b156:	4b20      	ldr	r3, [pc, #128]	@ (1000b1d8 <tud_init+0xcc>)
1000b158:	6018      	str	r0, [r3, #0]
1000b15a:	2400      	movs	r4, #0
1000b15c:	e008      	b.n	1000b170 <tud_init+0x64>
1000b15e:	1ae3      	subs	r3, r4, r3
1000b160:	4a1e      	ldr	r2, [pc, #120]	@ (1000b1dc <tud_init+0xd0>)
1000b162:	eb02 1343 	add.w	r3, r2, r3, lsl #5
1000b166:	685b      	ldr	r3, [r3, #4]
1000b168:	b16b      	cbz	r3, 1000b186 <tud_init+0x7a>
1000b16a:	4798      	blx	r3
1000b16c:	3401      	adds	r4, #1
1000b16e:	b2e4      	uxtb	r4, r4
1000b170:	4b18      	ldr	r3, [pc, #96]	@ (1000b1d4 <tud_init+0xc8>)
1000b172:	781b      	ldrb	r3, [r3, #0]
1000b174:	42a3      	cmp	r3, r4
1000b176:	d315      	bcc.n	1000b1a4 <tud_init+0x98>
1000b178:	42a3      	cmp	r3, r4
1000b17a:	d9f0      	bls.n	1000b15e <tud_init+0x52>
1000b17c:	4b16      	ldr	r3, [pc, #88]	@ (1000b1d8 <tud_init+0xcc>)
1000b17e:	681b      	ldr	r3, [r3, #0]
1000b180:	eb13 1344 	adds.w	r3, r3, r4, lsl #5
1000b184:	d1ef      	bne.n	1000b166 <tud_init+0x5a>
1000b186:	f44f 72f1 	mov.w	r2, #482	@ 0x1e2
1000b18a:	4915      	ldr	r1, [pc, #84]	@ (1000b1e0 <tud_init+0xd4>)
1000b18c:	4815      	ldr	r0, [pc, #84]	@ (1000b1e4 <tud_init+0xd8>)
1000b18e:	f7ff fa77 	bl	1000a680 <__wrap_printf>
1000b192:	f04f 23e0 	mov.w	r3, #3758153728	@ 0xe000e000
1000b196:	f8d3 3df0 	ldr.w	r3, [r3, #3568]	@ 0xdf0
1000b19a:	f013 0f01 	tst.w	r3, #1
1000b19e:	d0bb      	beq.n	1000b118 <tud_init+0xc>
1000b1a0:	be00      	bkpt	0x0000
1000b1a2:	e7b9      	b.n	1000b118 <tud_init+0xc>
1000b1a4:	4b10      	ldr	r3, [pc, #64]	@ (1000b1e8 <tud_init+0xdc>)
1000b1a6:	701d      	strb	r5, [r3, #0]
1000b1a8:	4628      	mov	r0, r5
1000b1aa:	f7ff fcb9 	bl	1000ab20 <dcd_init>
1000b1ae:	4628      	mov	r0, r5
1000b1b0:	f7ff fc84 	bl	1000aabc <dcd_int_enable>
1000b1b4:	2601      	movs	r6, #1
1000b1b6:	e7af      	b.n	1000b118 <tud_init+0xc>
1000b1b8:	200010e4 	.word	0x200010e4
1000b1bc:	20005f5c 	.word	0x20005f5c
1000b1c0:	2000109c 	.word	0x2000109c
1000b1c4:	20001138 	.word	0x20001138
1000b1c8:	20000e6c 	.word	0x20000e6c
1000b1cc:	2000113c 	.word	0x2000113c
1000b1d0:	00000000 	.word	0x00000000
1000b1d4:	20005f5a 	.word	0x20005f5a
1000b1d8:	20001020 	.word	0x20001020
1000b1dc:	1000f078 	.word	0x1000f078
1000b1e0:	1000f06c 	.word	0x1000f06c
1000b1e4:	1000d74c 	.word	0x1000d74c
1000b1e8:	20000e74 	.word	0x20000e74

1000b1ec <usbd_edpt_open>:
1000b1ec:	b570      	push	{r4, r5, r6, lr}
1000b1ee:	4b1a      	ldr	r3, [pc, #104]	@ (1000b258 <usbd_edpt_open+0x6c>)
1000b1f0:	781e      	ldrb	r6, [r3, #0]
1000b1f2:	788b      	ldrb	r3, [r1, #2]
1000b1f4:	f013 0f70 	tst.w	r3, #112	@ 0x70
1000b1f8:	d10e      	bne.n	1000b218 <usbd_edpt_open+0x2c>
1000b1fa:	460c      	mov	r4, r1
1000b1fc:	4b17      	ldr	r3, [pc, #92]	@ (1000b25c <usbd_edpt_open+0x70>)
1000b1fe:	7899      	ldrb	r1, [r3, #2]
1000b200:	4620      	mov	r0, r4
1000b202:	f001 f9f9 	bl	1000c5f8 <tu_edpt_validate>
1000b206:	4605      	mov	r5, r0
1000b208:	b1b0      	cbz	r0, 1000b238 <usbd_edpt_open+0x4c>
1000b20a:	4621      	mov	r1, r4
1000b20c:	4630      	mov	r0, r6
1000b20e:	f7ff fce5 	bl	1000abdc <dcd_edpt_open>
1000b212:	4605      	mov	r5, r0
1000b214:	4628      	mov	r0, r5
1000b216:	bd70      	pop	{r4, r5, r6, pc}
1000b218:	f240 42fc 	movw	r2, #1276	@ 0x4fc
1000b21c:	4910      	ldr	r1, [pc, #64]	@ (1000b260 <usbd_edpt_open+0x74>)
1000b21e:	4811      	ldr	r0, [pc, #68]	@ (1000b264 <usbd_edpt_open+0x78>)
1000b220:	f7ff fa2e 	bl	1000a680 <__wrap_printf>
1000b224:	f04f 23e0 	mov.w	r3, #3758153728	@ 0xe000e000
1000b228:	f8d3 3df0 	ldr.w	r3, [r3, #3568]	@ 0xdf0
1000b22c:	f013 0f01 	tst.w	r3, #1
1000b230:	d000      	beq.n	1000b234 <usbd_edpt_open+0x48>
1000b232:	be00      	bkpt	0x0000
1000b234:	2500      	movs	r5, #0
1000b236:	e7ed      	b.n	1000b214 <usbd_edpt_open+0x28>
1000b238:	f240 42fd 	movw	r2, #1277	@ 0x4fd
1000b23c:	4908      	ldr	r1, [pc, #32]	@ (1000b260 <usbd_edpt_open+0x74>)
1000b23e:	4809      	ldr	r0, [pc, #36]	@ (1000b264 <usbd_edpt_open+0x78>)
1000b240:	f7ff fa1e 	bl	1000a680 <__wrap_printf>
1000b244:	f04f 23e0 	mov.w	r3, #3758153728	@ 0xe000e000
1000b248:	f8d3 3df0 	ldr.w	r3, [r3, #3568]	@ 0xdf0
1000b24c:	f013 0f01 	tst.w	r3, #1
1000b250:	d0e0      	beq.n	1000b214 <usbd_edpt_open+0x28>
1000b252:	be00      	bkpt	0x0000
1000b254:	e7de      	b.n	1000b214 <usbd_edpt_open+0x28>
1000b256:	bf00      	nop
1000b258:	20000e74 	.word	0x20000e74
1000b25c:	200010e4 	.word	0x200010e4
1000b260:	1000efd4 	.word	0x1000efd4
1000b264:	1000d74c 	.word	0x1000d74c

1000b268 <usbd_open_edpt_pair>:
1000b268:	e92d 4ff8 	stmdb	sp!, {r3, r4, r5, r6, r7, r8, r9, sl, fp, lr}
1000b26c:	4680      	mov	r8, r0
1000b26e:	460c      	mov	r4, r1
1000b270:	4616      	mov	r6, r2
1000b272:	461f      	mov	r7, r3
1000b274:	f8dd 9028 	ldr.w	r9, [sp, #40]	@ 0x28
1000b278:	f8dd a02c 	ldr.w	sl, [sp, #44]	@ 0x2c
1000b27c:	2500      	movs	r5, #0
1000b27e:	e026      	b.n	1000b2ce <usbd_open_edpt_pair+0x66>
1000b280:	f44f 629b 	mov.w	r2, #1240	@ 0x4d8
1000b284:	491f      	ldr	r1, [pc, #124]	@ (1000b304 <usbd_open_edpt_pair+0x9c>)
1000b286:	4820      	ldr	r0, [pc, #128]	@ (1000b308 <usbd_open_edpt_pair+0xa0>)
1000b288:	f7ff f9fa 	bl	1000a680 <__wrap_printf>
1000b28c:	f04f 23e0 	mov.w	r3, #3758153728	@ 0xe000e000
1000b290:	f8d3 3df0 	ldr.w	r3, [r3, #3568]	@ 0xdf0
1000b294:	f013 0f01 	tst.w	r3, #1
1000b298:	d000      	beq.n	1000b29c <usbd_open_edpt_pair+0x34>
1000b29a:	be00      	bkpt	0x0000
1000b29c:	f04f 0b00 	mov.w	fp, #0
1000b2a0:	4658      	mov	r0, fp
1000b2a2:	e8bd 8ff8 	ldmia.w	sp!, {r3, r4, r5, r6, r7, r8, r9, sl, fp, pc}
1000b2a6:	f240 42d9 	movw	r2, #1241	@ 0x4d9
1000b2aa:	4916      	ldr	r1, [pc, #88]	@ (1000b304 <usbd_open_edpt_pair+0x9c>)
1000b2ac:	4816      	ldr	r0, [pc, #88]	@ (1000b308 <usbd_open_edpt_pair+0xa0>)
1000b2ae:	f7ff f9e7 	bl	1000a680 <__wrap_printf>
1000b2b2:	f04f 23e0 	mov.w	r3, #3758153728	@ 0xe000e000
1000b2b6:	f8d3 3df0 	ldr.w	r3, [r3, #3568]	@ 0xdf0
1000b2ba:	f013 0f01 	tst.w	r3, #1
1000b2be:	d0ef      	beq.n	1000b2a0 <usbd_open_edpt_pair+0x38>
1000b2c0:	be00      	bkpt	0x0000
1000b2c2:	e7ed      	b.n	1000b2a0 <usbd_open_edpt_pair+0x38>
1000b2c4:	f88a 3000 	strb.w	r3, [sl]
1000b2c8:	7823      	ldrb	r3, [r4, #0]
1000b2ca:	441c      	add	r4, r3
1000b2cc:	3501      	adds	r5, #1
1000b2ce:	42ae      	cmp	r6, r5
1000b2d0:	dd14      	ble.n	1000b2fc <usbd_open_edpt_pair+0x94>
1000b2d2:	7863      	ldrb	r3, [r4, #1]
1000b2d4:	2b05      	cmp	r3, #5
1000b2d6:	d1d3      	bne.n	1000b280 <usbd_open_edpt_pair+0x18>
1000b2d8:	78e1      	ldrb	r1, [r4, #3]
1000b2da:	f001 0103 	and.w	r1, r1, #3
1000b2de:	42b9      	cmp	r1, r7
1000b2e0:	d1ce      	bne.n	1000b280 <usbd_open_edpt_pair+0x18>
1000b2e2:	4621      	mov	r1, r4
1000b2e4:	4640      	mov	r0, r8
1000b2e6:	f7ff ff81 	bl	1000b1ec <usbd_edpt_open>
1000b2ea:	4683      	mov	fp, r0
1000b2ec:	2800      	cmp	r0, #0
1000b2ee:	d0da      	beq.n	1000b2a6 <usbd_open_edpt_pair+0x3e>
1000b2f0:	78a3      	ldrb	r3, [r4, #2]
1000b2f2:	09da      	lsrs	r2, r3, #7
1000b2f4:	d1e6      	bne.n	1000b2c4 <usbd_open_edpt_pair+0x5c>
1000b2f6:	f889 3000 	strb.w	r3, [r9]
1000b2fa:	e7e5      	b.n	1000b2c8 <usbd_open_edpt_pair+0x60>
1000b2fc:	f04f 0b01 	mov.w	fp, #1
1000b300:	e7ce      	b.n	1000b2a0 <usbd_open_edpt_pair+0x38>
1000b302:	bf00      	nop
1000b304:	1000efe4 	.word	0x1000efe4
1000b308:	1000d74c 	.word	0x1000d74c

1000b30c <usbd_edpt_xfer>:
1000b30c:	b570      	push	{r4, r5, r6, lr}
1000b30e:	481f      	ldr	r0, [pc, #124]	@ (1000b38c <usbd_edpt_xfer+0x80>)
1000b310:	7800      	ldrb	r0, [r0, #0]
1000b312:	f001 057f 	and.w	r5, r1, #127	@ 0x7f
1000b316:	4c1e      	ldr	r4, [pc, #120]	@ (1000b390 <usbd_edpt_xfer+0x84>)
1000b318:	eb04 0c45 	add.w	ip, r4, r5, lsl #1
1000b31c:	eb0c 1cd1 	add.w	ip, ip, r1, lsr #7
1000b320:	f89c 4034 	ldrb.w	r4, [ip, #52]	@ 0x34
1000b324:	f014 0f01 	tst.w	r4, #1
1000b328:	d11f      	bne.n	1000b36a <usbd_edpt_xfer+0x5e>
1000b32a:	09ce      	lsrs	r6, r1, #7
1000b32c:	4c18      	ldr	r4, [pc, #96]	@ (1000b390 <usbd_edpt_xfer+0x84>)
1000b32e:	eb04 0445 	add.w	r4, r4, r5, lsl #1
1000b332:	4434      	add	r4, r6
1000b334:	f894 c034 	ldrb.w	ip, [r4, #52]	@ 0x34
1000b338:	f04c 0c01 	orr.w	ip, ip, #1
1000b33c:	f884 c034 	strb.w	ip, [r4, #52]	@ 0x34
1000b340:	3430      	adds	r4, #48	@ 0x30
1000b342:	f7ff fc6b 	bl	1000ac1c <dcd_edpt_xfer>
1000b346:	b9f8      	cbnz	r0, 1000b388 <usbd_edpt_xfer+0x7c>
1000b348:	7922      	ldrb	r2, [r4, #4]
1000b34a:	f022 0201 	bic.w	r2, r2, #1
1000b34e:	7122      	strb	r2, [r4, #4]
1000b350:	7922      	ldrb	r2, [r4, #4]
1000b352:	f022 0204 	bic.w	r2, r2, #4
1000b356:	7122      	strb	r2, [r4, #4]
1000b358:	f04f 23e0 	mov.w	r3, #3758153728	@ 0xe000e000
1000b35c:	f8d3 3df0 	ldr.w	r3, [r3, #3568]	@ 0xdf0
1000b360:	f013 0f01 	tst.w	r3, #1
1000b364:	d010      	beq.n	1000b388 <usbd_edpt_xfer+0x7c>
1000b366:	be00      	bkpt	0x0000
1000b368:	e00e      	b.n	1000b388 <usbd_edpt_xfer+0x7c>
1000b36a:	f240 522a 	movw	r2, #1322	@ 0x52a
1000b36e:	4909      	ldr	r1, [pc, #36]	@ (1000b394 <usbd_edpt_xfer+0x88>)
1000b370:	4809      	ldr	r0, [pc, #36]	@ (1000b398 <usbd_edpt_xfer+0x8c>)
1000b372:	f7ff f985 	bl	1000a680 <__wrap_printf>
1000b376:	f04f 23e0 	mov.w	r3, #3758153728	@ 0xe000e000
1000b37a:	f8d3 3df0 	ldr.w	r3, [r3, #3568]	@ 0xdf0
1000b37e:	f013 0f01 	tst.w	r3, #1
1000b382:	d000      	beq.n	1000b386 <usbd_edpt_xfer+0x7a>
1000b384:	be00      	bkpt	0x0000
1000b386:	2000      	movs	r0, #0
1000b388:	bd70      	pop	{r4, r5, r6, pc}
1000b38a:	bf00      	nop
1000b38c:	20000e74 	.word	0x20000e74
1000b390:	200010e4 	.word	0x200010e4
1000b394:	1000efc4 	.word	0x1000efc4
1000b398:	1000d74c 	.word	0x1000d74c

1000b39c <usbd_edpt_busy>:
1000b39c:	f001 027f 	and.w	r2, r1, #127	@ 0x7f
1000b3a0:	4b04      	ldr	r3, [pc, #16]	@ (1000b3b4 <usbd_edpt_busy+0x18>)
1000b3a2:	eb03 0342 	add.w	r3, r3, r2, lsl #1
1000b3a6:	eb03 11d1 	add.w	r1, r3, r1, lsr #7
1000b3aa:	f891 0034 	ldrb.w	r0, [r1, #52]	@ 0x34
1000b3ae:	f000 0001 	and.w	r0, r0, #1
1000b3b2:	4770      	bx	lr
1000b3b4:	200010e4 	.word	0x200010e4

1000b3b8 <usbd_edpt_stall>:
1000b3b8:	b538      	push	{r3, r4, r5, lr}
1000b3ba:	f001 057f 	and.w	r5, r1, #127	@ 0x7f
1000b3be:	09cc      	lsrs	r4, r1, #7
1000b3c0:	4b0a      	ldr	r3, [pc, #40]	@ (1000b3ec <usbd_edpt_stall+0x34>)
1000b3c2:	7818      	ldrb	r0, [r3, #0]
1000b3c4:	f7ff fc40 	bl	1000ac48 <dcd_edpt_stall>
1000b3c8:	4b09      	ldr	r3, [pc, #36]	@ (1000b3f0 <usbd_edpt_stall+0x38>)
1000b3ca:	eb03 0345 	add.w	r3, r3, r5, lsl #1
1000b3ce:	4423      	add	r3, r4
1000b3d0:	f893 2034 	ldrb.w	r2, [r3, #52]	@ 0x34
1000b3d4:	f042 0202 	orr.w	r2, r2, #2
1000b3d8:	f883 2034 	strb.w	r2, [r3, #52]	@ 0x34
1000b3dc:	f893 2034 	ldrb.w	r2, [r3, #52]	@ 0x34
1000b3e0:	f042 0201 	orr.w	r2, r2, #1
1000b3e4:	f883 2034 	strb.w	r2, [r3, #52]	@ 0x34
1000b3e8:	bd38      	pop	{r3, r4, r5, pc}
1000b3ea:	bf00      	nop
1000b3ec:	20000e74 	.word	0x20000e74
1000b3f0:	200010e4 	.word	0x200010e4

1000b3f4 <usbd_edpt_clear_stall>:
1000b3f4:	b538      	push	{r3, r4, r5, lr}
1000b3f6:	f001 057f 	and.w	r5, r1, #127	@ 0x7f
1000b3fa:	09cc      	lsrs	r4, r1, #7
1000b3fc:	4b0a      	ldr	r3, [pc, #40]	@ (1000b428 <usbd_edpt_clear_stall+0x34>)
1000b3fe:	7818      	ldrb	r0, [r3, #0]
1000b400:	f7ff fc3e 	bl	1000ac80 <dcd_edpt_clear_stall>
1000b404:	4b09      	ldr	r3, [pc, #36]	@ (1000b42c <usbd_edpt_clear_stall+0x38>)
1000b406:	eb03 0345 	add.w	r3, r3, r5, lsl #1
1000b40a:	4423      	add	r3, r4
1000b40c:	f893 2034 	ldrb.w	r2, [r3, #52]	@ 0x34
1000b410:	f022 0202 	bic.w	r2, r2, #2
1000b414:	f883 2034 	strb.w	r2, [r3, #52]	@ 0x34
1000b418:	f893 2034 	ldrb.w	r2, [r3, #52]	@ 0x34
1000b41c:	f022 0201 	bic.w	r2, r2, #1
1000b420:	f883 2034 	strb.w	r2, [r3, #52]	@ 0x34
1000b424:	bd38      	pop	{r3, r4, r5, pc}
1000b426:	bf00      	nop
1000b428:	20000e74 	.word	0x20000e74
1000b42c:	200010e4 	.word	0x200010e4

1000b430 <usbd_edpt_stalled>:
1000b430:	f001 027f 	and.w	r2, r1, #127	@ 0x7f
1000b434:	4b04      	ldr	r3, [pc, #16]	@ (1000b448 <usbd_edpt_stalled+0x18>)
1000b436:	eb03 0342 	add.w	r3, r3, r2, lsl #1
1000b43a:	eb03 11d1 	add.w	r1, r3, r1, lsr #7
1000b43e:	f891 0034 	ldrb.w	r0, [r1, #52]	@ 0x34
1000b442:	f3c0 0040 	ubfx	r0, r0, #1, #1
1000b446:	4770      	bx	lr
1000b448:	200010e4 	.word	0x200010e4

1000b44c <process_control_request>:
1000b44c:	e92d 41f0 	stmdb	sp!, {r4, r5, r6, r7, r8, lr}
1000b450:	b082      	sub	sp, #8
1000b452:	4606      	mov	r6, r0
1000b454:	460c      	mov	r4, r1
1000b456:	2000      	movs	r0, #0
1000b458:	f000 fbc4 	bl	1000bbe4 <usbd_control_set_complete_callback>
1000b45c:	7823      	ldrb	r3, [r4, #0]
1000b45e:	f003 0360 	and.w	r3, r3, #96	@ 0x60
1000b462:	2b60      	cmp	r3, #96	@ 0x60
1000b464:	d021      	beq.n	1000b4aa <process_control_request+0x5e>
1000b466:	2b40      	cmp	r3, #64	@ 0x40
1000b468:	d032      	beq.n	1000b4d0 <process_control_request+0x84>
1000b46a:	7822      	ldrb	r2, [r4, #0]
1000b46c:	f002 021f 	and.w	r2, r2, #31
1000b470:	2a01      	cmp	r2, #1
1000b472:	f000 8101 	beq.w	1000b678 <process_control_request+0x22c>
1000b476:	2a02      	cmp	r2, #2
1000b478:	f000 8141 	beq.w	1000b6fe <process_control_request+0x2b2>
1000b47c:	2a00      	cmp	r2, #0
1000b47e:	f040 81c7 	bne.w	1000b810 <process_control_request+0x3c4>
1000b482:	2b20      	cmp	r3, #32
1000b484:	d02e      	beq.n	1000b4e4 <process_control_request+0x98>
1000b486:	2b00      	cmp	r3, #0
1000b488:	d14c      	bne.n	1000b524 <process_control_request+0xd8>
1000b48a:	7863      	ldrb	r3, [r4, #1]
1000b48c:	2b09      	cmp	r3, #9
1000b48e:	f200 80e8 	bhi.w	1000b662 <process_control_request+0x216>
1000b492:	e8df f013 	tbh	[pc, r3, lsl #1]
1000b496:	00d3      	.short	0x00d3
1000b498:	00e600c3 	.word	0x00e600c3
1000b49c:	00e600b3 	.word	0x00e600b3
1000b4a0:	00ad0051 	.word	0x00ad0051
1000b4a4:	006000e6 	.word	0x006000e6
1000b4a8:	006d      	.short	0x006d
1000b4aa:	f240 22c5 	movw	r2, #709	@ 0x2c5
1000b4ae:	49b1      	ldr	r1, [pc, #708]	@ (1000b774 <process_control_request+0x328>)
1000b4b0:	48b1      	ldr	r0, [pc, #708]	@ (1000b778 <process_control_request+0x32c>)
1000b4b2:	f7ff f8e5 	bl	1000a680 <__wrap_printf>
1000b4b6:	f04f 23e0 	mov.w	r3, #3758153728	@ 0xe000e000
1000b4ba:	f8d3 3df0 	ldr.w	r3, [r3, #3568]	@ 0xdf0
1000b4be:	f013 0f01 	tst.w	r3, #1
1000b4c2:	d000      	beq.n	1000b4c6 <process_control_request+0x7a>
1000b4c4:	be00      	bkpt	0x0000
1000b4c6:	2500      	movs	r5, #0
1000b4c8:	4628      	mov	r0, r5
1000b4ca:	b002      	add	sp, #8
1000b4cc:	e8bd 81f0 	ldmia.w	sp!, {r4, r5, r6, r7, r8, pc}
1000b4d0:	48aa      	ldr	r0, [pc, #680]	@ (1000b77c <process_control_request+0x330>)
1000b4d2:	f000 fb87 	bl	1000bbe4 <usbd_control_set_complete_callback>
1000b4d6:	4622      	mov	r2, r4
1000b4d8:	2101      	movs	r1, #1
1000b4da:	4630      	mov	r0, r6
1000b4dc:	f7ff fc4d 	bl	1000ad7a <tud_vendor_control_xfer_cb>
1000b4e0:	4605      	mov	r5, r0
1000b4e2:	e7f1      	b.n	1000b4c8 <process_control_request+0x7c>
1000b4e4:	88a3      	ldrh	r3, [r4, #4]
1000b4e6:	b2db      	uxtb	r3, r3
1000b4e8:	2b0f      	cmp	r3, #15
1000b4ea:	f200 819b 	bhi.w	1000b824 <process_control_request+0x3d8>
1000b4ee:	4aa4      	ldr	r2, [pc, #656]	@ (1000b780 <process_control_request+0x334>)
1000b4f0:	4413      	add	r3, r2
1000b4f2:	791b      	ldrb	r3, [r3, #4]
1000b4f4:	4aa3      	ldr	r2, [pc, #652]	@ (1000b784 <process_control_request+0x338>)
1000b4f6:	7812      	ldrb	r2, [r2, #0]
1000b4f8:	4293      	cmp	r3, r2
1000b4fa:	d206      	bcs.n	1000b50a <process_control_request+0xbe>
1000b4fc:	4aa2      	ldr	r2, [pc, #648]	@ (1000b788 <process_control_request+0x33c>)
1000b4fe:	6811      	ldr	r1, [r2, #0]
1000b500:	eb11 1143 	adds.w	r1, r1, r3, lsl #5
1000b504:	d108      	bne.n	1000b518 <process_control_request+0xcc>
1000b506:	2500      	movs	r5, #0
1000b508:	e7de      	b.n	1000b4c8 <process_control_request+0x7c>
1000b50a:	4293      	cmp	r3, r2
1000b50c:	f200 818c 	bhi.w	1000b828 <process_control_request+0x3dc>
1000b510:	1a9b      	subs	r3, r3, r2
1000b512:	499e      	ldr	r1, [pc, #632]	@ (1000b78c <process_control_request+0x340>)
1000b514:	eb01 1143 	add.w	r1, r1, r3, lsl #5
1000b518:	4622      	mov	r2, r4
1000b51a:	4630      	mov	r0, r6
1000b51c:	f7ff fc7c 	bl	1000ae18 <invoke_class_control>
1000b520:	4605      	mov	r5, r0
1000b522:	e7d1      	b.n	1000b4c8 <process_control_request+0x7c>
1000b524:	f04f 23e0 	mov.w	r3, #3758153728	@ 0xe000e000
1000b528:	f8d3 3df0 	ldr.w	r3, [r3, #3568]	@ 0xdf0
1000b52c:	f013 0f01 	tst.w	r3, #1
1000b530:	d000      	beq.n	1000b534 <process_control_request+0xe8>
1000b532:	be00      	bkpt	0x0000
1000b534:	2500      	movs	r5, #0
1000b536:	e7c7      	b.n	1000b4c8 <process_control_request+0x7c>
1000b538:	4620      	mov	r0, r4
1000b53a:	f000 fb59 	bl	1000bbf0 <usbd_control_set_request>
1000b53e:	8861      	ldrh	r1, [r4, #2]
1000b540:	b2c9      	uxtb	r1, r1
1000b542:	4630      	mov	r0, r6
1000b544:	f7ff face 	bl	1000aae4 <dcd_set_address>
1000b548:	4a8d      	ldr	r2, [pc, #564]	@ (1000b780 <process_control_request+0x334>)
1000b54a:	7813      	ldrb	r3, [r2, #0]
1000b54c:	f043 0302 	orr.w	r3, r3, #2
1000b550:	7013      	strb	r3, [r2, #0]
1000b552:	2501      	movs	r5, #1
1000b554:	e7b8      	b.n	1000b4c8 <process_control_request+0x7c>
1000b556:	4b8a      	ldr	r3, [pc, #552]	@ (1000b780 <process_control_request+0x334>)
1000b558:	785b      	ldrb	r3, [r3, #1]
1000b55a:	f88d 3006 	strb.w	r3, [sp, #6]
1000b55e:	2301      	movs	r3, #1
1000b560:	f10d 0206 	add.w	r2, sp, #6
1000b564:	4621      	mov	r1, r4
1000b566:	4630      	mov	r0, r6
1000b568:	f000 fadc 	bl	1000bb24 <tud_control_xfer>
1000b56c:	2501      	movs	r5, #1
1000b56e:	e7ab      	b.n	1000b4c8 <process_control_request+0x7c>
1000b570:	8865      	ldrh	r5, [r4, #2]
1000b572:	b2ed      	uxtb	r5, r5
1000b574:	4b82      	ldr	r3, [pc, #520]	@ (1000b780 <process_control_request+0x334>)
1000b576:	785b      	ldrb	r3, [r3, #1]
1000b578:	b2db      	uxtb	r3, r3
1000b57a:	42ab      	cmp	r3, r5
1000b57c:	d032      	beq.n	1000b5e4 <process_control_request+0x198>
1000b57e:	4b80      	ldr	r3, [pc, #512]	@ (1000b780 <process_control_request+0x334>)
1000b580:	785b      	ldrb	r3, [r3, #1]
1000b582:	b95b      	cbnz	r3, 1000b59c <process_control_request+0x150>
1000b584:	4b7e      	ldr	r3, [pc, #504]	@ (1000b780 <process_control_request+0x334>)
1000b586:	705d      	strb	r5, [r3, #1]
1000b588:	b355      	cbz	r5, 1000b5e0 <process_control_request+0x194>
1000b58a:	4629      	mov	r1, r5
1000b58c:	4630      	mov	r0, r6
1000b58e:	f7ff fc51 	bl	1000ae34 <process_set_config>
1000b592:	4605      	mov	r5, r0
1000b594:	b190      	cbz	r0, 1000b5bc <process_control_request+0x170>
1000b596:	f7ff fd9d 	bl	1000b0d4 <tud_mount_cb>
1000b59a:	e023      	b.n	1000b5e4 <process_control_request+0x198>
1000b59c:	2100      	movs	r1, #0
1000b59e:	4630      	mov	r0, r6
1000b5a0:	f7ff fafe 	bl	1000aba0 <dcd_sof_enable>
1000b5a4:	4630      	mov	r0, r6
1000b5a6:	f7ff fb35 	bl	1000ac14 <dcd_edpt_close_all>
1000b5aa:	4f75      	ldr	r7, [pc, #468]	@ (1000b780 <process_control_request+0x334>)
1000b5ac:	f897 8002 	ldrb.w	r8, [r7, #2]
1000b5b0:	4630      	mov	r0, r6
1000b5b2:	f7ff fbe5 	bl	1000ad80 <configuration_reset>
1000b5b6:	f887 8002 	strb.w	r8, [r7, #2]
1000b5ba:	e7e3      	b.n	1000b584 <process_control_request+0x138>
1000b5bc:	f240 3215 	movw	r2, #789	@ 0x315
1000b5c0:	496c      	ldr	r1, [pc, #432]	@ (1000b774 <process_control_request+0x328>)
1000b5c2:	486d      	ldr	r0, [pc, #436]	@ (1000b778 <process_control_request+0x32c>)
1000b5c4:	f7ff f85c 	bl	1000a680 <__wrap_printf>
1000b5c8:	f04f 23e0 	mov.w	r3, #3758153728	@ 0xe000e000
1000b5cc:	f8d3 3df0 	ldr.w	r3, [r3, #3568]	@ 0xdf0
1000b5d0:	f013 0f01 	tst.w	r3, #1
1000b5d4:	d000      	beq.n	1000b5d8 <process_control_request+0x18c>
1000b5d6:	be00      	bkpt	0x0000
1000b5d8:	4b69      	ldr	r3, [pc, #420]	@ (1000b780 <process_control_request+0x334>)
1000b5da:	2200      	movs	r2, #0
1000b5dc:	705a      	strb	r2, [r3, #1]
1000b5de:	e773      	b.n	1000b4c8 <process_control_request+0x7c>
1000b5e0:	f7ff fd79 	bl	1000b0d6 <tud_umount_cb>
1000b5e4:	4621      	mov	r1, r4
1000b5e6:	4630      	mov	r0, r6
1000b5e8:	f000 fa88 	bl	1000bafc <tud_control_status>
1000b5ec:	2501      	movs	r5, #1
1000b5ee:	e76b      	b.n	1000b4c8 <process_control_request+0x7c>
1000b5f0:	4621      	mov	r1, r4
1000b5f2:	4630      	mov	r0, r6
1000b5f4:	f7ff fcf2 	bl	1000afdc <process_get_descriptor>
1000b5f8:	4605      	mov	r5, r0
1000b5fa:	e765      	b.n	1000b4c8 <process_control_request+0x7c>
1000b5fc:	8863      	ldrh	r3, [r4, #2]
1000b5fe:	2b01      	cmp	r3, #1
1000b600:	d001      	beq.n	1000b606 <process_control_request+0x1ba>
1000b602:	2500      	movs	r5, #0
1000b604:	e760      	b.n	1000b4c8 <process_control_request+0x7c>
1000b606:	4a5e      	ldr	r2, [pc, #376]	@ (1000b780 <process_control_request+0x334>)
1000b608:	7813      	ldrb	r3, [r2, #0]
1000b60a:	f043 0308 	orr.w	r3, r3, #8
1000b60e:	7013      	strb	r3, [r2, #0]
1000b610:	4621      	mov	r1, r4
1000b612:	4630      	mov	r0, r6
1000b614:	f000 fa72 	bl	1000bafc <tud_control_status>
1000b618:	2501      	movs	r5, #1
1000b61a:	e755      	b.n	1000b4c8 <process_control_request+0x7c>
1000b61c:	8863      	ldrh	r3, [r4, #2]
1000b61e:	2b01      	cmp	r3, #1
1000b620:	d001      	beq.n	1000b626 <process_control_request+0x1da>
1000b622:	2500      	movs	r5, #0
1000b624:	e750      	b.n	1000b4c8 <process_control_request+0x7c>
1000b626:	4a56      	ldr	r2, [pc, #344]	@ (1000b780 <process_control_request+0x334>)
1000b628:	7813      	ldrb	r3, [r2, #0]
1000b62a:	f023 0308 	bic.w	r3, r3, #8
1000b62e:	7013      	strb	r3, [r2, #0]
1000b630:	4621      	mov	r1, r4
1000b632:	4630      	mov	r0, r6
1000b634:	f000 fa62 	bl	1000bafc <tud_control_status>
1000b638:	2501      	movs	r5, #1
1000b63a:	e745      	b.n	1000b4c8 <process_control_request+0x7c>
1000b63c:	4b50      	ldr	r3, [pc, #320]	@ (1000b780 <process_control_request+0x334>)
1000b63e:	781b      	ldrb	r3, [r3, #0]
1000b640:	089a      	lsrs	r2, r3, #2
1000b642:	f3c3 1340 	ubfx	r3, r3, #5, #1
1000b646:	f002 0202 	and.w	r2, r2, #2
1000b64a:	4313      	orrs	r3, r2
1000b64c:	f8ad 3006 	strh.w	r3, [sp, #6]
1000b650:	2302      	movs	r3, #2
1000b652:	f10d 0206 	add.w	r2, sp, #6
1000b656:	4621      	mov	r1, r4
1000b658:	4630      	mov	r0, r6
1000b65a:	f000 fa63 	bl	1000bb24 <tud_control_xfer>
1000b65e:	2501      	movs	r5, #1
1000b660:	e732      	b.n	1000b4c8 <process_control_request+0x7c>
1000b662:	f04f 23e0 	mov.w	r3, #3758153728	@ 0xe000e000
1000b666:	f8d3 3df0 	ldr.w	r3, [r3, #3568]	@ 0xdf0
1000b66a:	f013 0f01 	tst.w	r3, #1
1000b66e:	f000 80dd 	beq.w	1000b82c <process_control_request+0x3e0>
1000b672:	be00      	bkpt	0x0000
1000b674:	2500      	movs	r5, #0
1000b676:	e727      	b.n	1000b4c8 <process_control_request+0x7c>
1000b678:	88a3      	ldrh	r3, [r4, #4]
1000b67a:	b2db      	uxtb	r3, r3
1000b67c:	2b0f      	cmp	r3, #15
1000b67e:	f200 80d7 	bhi.w	1000b830 <process_control_request+0x3e4>
1000b682:	4a3f      	ldr	r2, [pc, #252]	@ (1000b780 <process_control_request+0x334>)
1000b684:	4413      	add	r3, r2
1000b686:	791b      	ldrb	r3, [r3, #4]
1000b688:	4a3e      	ldr	r2, [pc, #248]	@ (1000b784 <process_control_request+0x338>)
1000b68a:	7812      	ldrb	r2, [r2, #0]
1000b68c:	4293      	cmp	r3, r2
1000b68e:	d222      	bcs.n	1000b6d6 <process_control_request+0x28a>
1000b690:	4a3d      	ldr	r2, [pc, #244]	@ (1000b788 <process_control_request+0x33c>)
1000b692:	6811      	ldr	r1, [r2, #0]
1000b694:	eb11 1143 	adds.w	r1, r1, r3, lsl #5
1000b698:	f000 80cc 	beq.w	1000b834 <process_control_request+0x3e8>
1000b69c:	4622      	mov	r2, r4
1000b69e:	4630      	mov	r0, r6
1000b6a0:	f7ff fbba 	bl	1000ae18 <invoke_class_control>
1000b6a4:	4605      	mov	r5, r0
1000b6a6:	2800      	cmp	r0, #0
1000b6a8:	f47f af0e 	bne.w	1000b4c8 <process_control_request+0x7c>
1000b6ac:	7823      	ldrb	r3, [r4, #0]
1000b6ae:	f013 0f60 	tst.w	r3, #96	@ 0x60
1000b6b2:	f47f af09 	bne.w	1000b4c8 <process_control_request+0x7c>
1000b6b6:	7863      	ldrb	r3, [r4, #1]
1000b6b8:	3b0a      	subs	r3, #10
1000b6ba:	2b01      	cmp	r3, #1
1000b6bc:	f63f af04 	bhi.w	1000b4c8 <process_control_request+0x7c>
1000b6c0:	f000 fa90 	bl	1000bbe4 <usbd_control_set_complete_callback>
1000b6c4:	7863      	ldrb	r3, [r4, #1]
1000b6c6:	2b0a      	cmp	r3, #10
1000b6c8:	d00d      	beq.n	1000b6e6 <process_control_request+0x29a>
1000b6ca:	4621      	mov	r1, r4
1000b6cc:	4630      	mov	r0, r6
1000b6ce:	f000 fa15 	bl	1000bafc <tud_control_status>
1000b6d2:	2501      	movs	r5, #1
1000b6d4:	e6f8      	b.n	1000b4c8 <process_control_request+0x7c>
1000b6d6:	4293      	cmp	r3, r2
1000b6d8:	f200 80ae 	bhi.w	1000b838 <process_control_request+0x3ec>
1000b6dc:	1a9b      	subs	r3, r3, r2
1000b6de:	492b      	ldr	r1, [pc, #172]	@ (1000b78c <process_control_request+0x340>)
1000b6e0:	eb01 1143 	add.w	r1, r1, r3, lsl #5
1000b6e4:	e7da      	b.n	1000b69c <process_control_request+0x250>
1000b6e6:	2300      	movs	r3, #0
1000b6e8:	f88d 3006 	strb.w	r3, [sp, #6]
1000b6ec:	2301      	movs	r3, #1
1000b6ee:	f10d 0206 	add.w	r2, sp, #6
1000b6f2:	4621      	mov	r1, r4
1000b6f4:	4630      	mov	r0, r6
1000b6f6:	f000 fa15 	bl	1000bb24 <tud_control_xfer>
1000b6fa:	2501      	movs	r5, #1
1000b6fc:	e6e4      	b.n	1000b4c8 <process_control_request+0x7c>
1000b6fe:	88a2      	ldrh	r2, [r4, #4]
1000b700:	b2d1      	uxtb	r1, r2
1000b702:	f002 057f 	and.w	r5, r2, #127	@ 0x7f
1000b706:	f3c2 10c0 	ubfx	r0, r2, #7, #1
1000b70a:	f012 0f70 	tst.w	r2, #112	@ 0x70
1000b70e:	d117      	bne.n	1000b740 <process_control_request+0x2f4>
1000b710:	4a1b      	ldr	r2, [pc, #108]	@ (1000b780 <process_control_request+0x334>)
1000b712:	eb02 0245 	add.w	r2, r2, r5, lsl #1
1000b716:	4402      	add	r2, r0
1000b718:	7d12      	ldrb	r2, [r2, #20]
1000b71a:	481a      	ldr	r0, [pc, #104]	@ (1000b784 <process_control_request+0x338>)
1000b71c:	7800      	ldrb	r0, [r0, #0]
1000b71e:	4282      	cmp	r2, r0
1000b720:	d21e      	bcs.n	1000b760 <process_control_request+0x314>
1000b722:	4819      	ldr	r0, [pc, #100]	@ (1000b788 <process_control_request+0x33c>)
1000b724:	6805      	ldr	r5, [r0, #0]
1000b726:	eb05 1542 	add.w	r5, r5, r2, lsl #5
1000b72a:	b38b      	cbz	r3, 1000b790 <process_control_request+0x344>
1000b72c:	2d00      	cmp	r5, #0
1000b72e:	f000 8085 	beq.w	1000b83c <process_control_request+0x3f0>
1000b732:	4622      	mov	r2, r4
1000b734:	4629      	mov	r1, r5
1000b736:	4630      	mov	r0, r6
1000b738:	f7ff fb6e 	bl	1000ae18 <invoke_class_control>
1000b73c:	4605      	mov	r5, r0
1000b73e:	e6c3      	b.n	1000b4c8 <process_control_request+0x7c>
1000b740:	f240 3286 	movw	r2, #902	@ 0x386
1000b744:	490b      	ldr	r1, [pc, #44]	@ (1000b774 <process_control_request+0x328>)
1000b746:	480c      	ldr	r0, [pc, #48]	@ (1000b778 <process_control_request+0x32c>)
1000b748:	f7fe ff9a 	bl	1000a680 <__wrap_printf>
1000b74c:	f04f 23e0 	mov.w	r3, #3758153728	@ 0xe000e000
1000b750:	f8d3 3df0 	ldr.w	r3, [r3, #3568]	@ 0xdf0
1000b754:	f013 0f01 	tst.w	r3, #1
1000b758:	d000      	beq.n	1000b75c <process_control_request+0x310>
1000b75a:	be00      	bkpt	0x0000
1000b75c:	2500      	movs	r5, #0
1000b75e:	e6b3      	b.n	1000b4c8 <process_control_request+0x7c>
1000b760:	4282      	cmp	r2, r0
1000b762:	d804      	bhi.n	1000b76e <process_control_request+0x322>
1000b764:	1a12      	subs	r2, r2, r0
1000b766:	4d09      	ldr	r5, [pc, #36]	@ (1000b78c <process_control_request+0x340>)
1000b768:	eb05 1542 	add.w	r5, r5, r2, lsl #5
1000b76c:	e7dd      	b.n	1000b72a <process_control_request+0x2de>
1000b76e:	2500      	movs	r5, #0
1000b770:	e7db      	b.n	1000b72a <process_control_request+0x2de>
1000b772:	bf00      	nop
1000b774:	1000f030 	.word	0x1000f030
1000b778:	1000d74c 	.word	0x1000d74c
1000b77c:	1000ad7b 	.word	0x1000ad7b
1000b780:	200010e4 	.word	0x200010e4
1000b784:	20005f5a 	.word	0x20005f5a
1000b788:	20001020 	.word	0x20001020
1000b78c:	1000f078 	.word	0x1000f078
1000b790:	7863      	ldrb	r3, [r4, #1]
1000b792:	2b01      	cmp	r3, #1
1000b794:	d010      	beq.n	1000b7b8 <process_control_request+0x36c>
1000b796:	2b03      	cmp	r3, #3
1000b798:	d00e      	beq.n	1000b7b8 <process_control_request+0x36c>
1000b79a:	bb7b      	cbnz	r3, 1000b7fc <process_control_request+0x3b0>
1000b79c:	4630      	mov	r0, r6
1000b79e:	f7ff fe47 	bl	1000b430 <usbd_edpt_stalled>
1000b7a2:	f8ad 0006 	strh.w	r0, [sp, #6]
1000b7a6:	2302      	movs	r3, #2
1000b7a8:	f10d 0206 	add.w	r2, sp, #6
1000b7ac:	4621      	mov	r1, r4
1000b7ae:	4630      	mov	r0, r6
1000b7b0:	f000 f9b8 	bl	1000bb24 <tud_control_xfer>
1000b7b4:	2501      	movs	r5, #1
1000b7b6:	e687      	b.n	1000b4c8 <process_control_request+0x7c>
1000b7b8:	8862      	ldrh	r2, [r4, #2]
1000b7ba:	b922      	cbnz	r2, 1000b7c6 <process_control_request+0x37a>
1000b7bc:	2b01      	cmp	r3, #1
1000b7be:	d019      	beq.n	1000b7f4 <process_control_request+0x3a8>
1000b7c0:	4630      	mov	r0, r6
1000b7c2:	f7ff fdf9 	bl	1000b3b8 <usbd_edpt_stall>
1000b7c6:	2d00      	cmp	r5, #0
1000b7c8:	d03a      	beq.n	1000b840 <process_control_request+0x3f4>
1000b7ca:	4622      	mov	r2, r4
1000b7cc:	4629      	mov	r1, r5
1000b7ce:	4630      	mov	r0, r6
1000b7d0:	f7ff fb22 	bl	1000ae18 <invoke_class_control>
1000b7d4:	2000      	movs	r0, #0
1000b7d6:	f000 fa05 	bl	1000bbe4 <usbd_control_set_complete_callback>
1000b7da:	4b1b      	ldr	r3, [pc, #108]	@ (1000b848 <process_control_request+0x3fc>)
1000b7dc:	f893 5035 	ldrb.w	r5, [r3, #53]	@ 0x35
1000b7e0:	f015 0501 	ands.w	r5, r5, #1
1000b7e4:	f47f ae70 	bne.w	1000b4c8 <process_control_request+0x7c>
1000b7e8:	4621      	mov	r1, r4
1000b7ea:	4630      	mov	r0, r6
1000b7ec:	f000 f986 	bl	1000bafc <tud_control_status>
1000b7f0:	2501      	movs	r5, #1
1000b7f2:	e669      	b.n	1000b4c8 <process_control_request+0x7c>
1000b7f4:	4630      	mov	r0, r6
1000b7f6:	f7ff fdfd 	bl	1000b3f4 <usbd_edpt_clear_stall>
1000b7fa:	e7e4      	b.n	1000b7c6 <process_control_request+0x37a>
1000b7fc:	f04f 23e0 	mov.w	r3, #3758153728	@ 0xe000e000
1000b800:	f8d3 3df0 	ldr.w	r3, [r3, #3568]	@ 0xdf0
1000b804:	f013 0f01 	tst.w	r3, #1
1000b808:	d000      	beq.n	1000b80c <process_control_request+0x3c0>
1000b80a:	be00      	bkpt	0x0000
1000b80c:	2500      	movs	r5, #0
1000b80e:	e65b      	b.n	1000b4c8 <process_control_request+0x7c>
1000b810:	f04f 23e0 	mov.w	r3, #3758153728	@ 0xe000e000
1000b814:	f8d3 3df0 	ldr.w	r3, [r3, #3568]	@ 0xdf0
1000b818:	f013 0f01 	tst.w	r3, #1
1000b81c:	d012      	beq.n	1000b844 <process_control_request+0x3f8>
1000b81e:	be00      	bkpt	0x0000
1000b820:	2500      	movs	r5, #0
1000b822:	e651      	b.n	1000b4c8 <process_control_request+0x7c>
1000b824:	2500      	movs	r5, #0
1000b826:	e64f      	b.n	1000b4c8 <process_control_request+0x7c>
1000b828:	2500      	movs	r5, #0
1000b82a:	e64d      	b.n	1000b4c8 <process_control_request+0x7c>
1000b82c:	2500      	movs	r5, #0
1000b82e:	e64b      	b.n	1000b4c8 <process_control_request+0x7c>
1000b830:	2500      	movs	r5, #0
1000b832:	e649      	b.n	1000b4c8 <process_control_request+0x7c>
1000b834:	2500      	movs	r5, #0
1000b836:	e647      	b.n	1000b4c8 <process_control_request+0x7c>
1000b838:	2500      	movs	r5, #0
1000b83a:	e645      	b.n	1000b4c8 <process_control_request+0x7c>
1000b83c:	2500      	movs	r5, #0
1000b83e:	e643      	b.n	1000b4c8 <process_control_request+0x7c>
1000b840:	2501      	movs	r5, #1
1000b842:	e641      	b.n	1000b4c8 <process_control_request+0x7c>
1000b844:	2500      	movs	r5, #0
1000b846:	e63f      	b.n	1000b4c8 <process_control_request+0x7c>
1000b848:	200010e4 	.word	0x200010e4

1000b84c <tud_task_ext>:
1000b84c:	b510      	push	{r4, lr}
1000b84e:	b084      	sub	sp, #16
1000b850:	f7ff fc54 	bl	1000b0fc <tud_inited>
1000b854:	b948      	cbnz	r0, 1000b86a <tud_task_ext+0x1e>
1000b856:	b004      	add	sp, #16
1000b858:	bd10      	pop	{r4, pc}
1000b85a:	f89d 0004 	ldrb.w	r0, [sp, #4]
1000b85e:	f7ff fad5 	bl	1000ae0c <usbd_reset>
1000b862:	f89d 2008 	ldrb.w	r2, [sp, #8]
1000b866:	4b7f      	ldr	r3, [pc, #508]	@ (1000ba64 <tud_task_ext+0x218>)
1000b868:	709a      	strb	r2, [r3, #2]
1000b86a:	4b7f      	ldr	r3, [pc, #508]	@ (1000ba68 <tud_task_ext+0x21c>)
1000b86c:	681c      	ldr	r4, [r3, #0]
1000b86e:	f104 0014 	add.w	r0, r4, #20
1000b872:	f7ff fa6f 	bl	1000ad54 <critical_section_enter_blocking>
1000b876:	a901      	add	r1, sp, #4
1000b878:	4620      	mov	r0, r4
1000b87a:	f000 ffa4 	bl	1000c7c6 <tu_fifo_read>
1000b87e:	6961      	ldr	r1, [r4, #20]
1000b880:	69a3      	ldr	r3, [r4, #24]
1000b882:	2200      	movs	r2, #0
1000b884:	e8c1 2f8f 	stlb	r2, [r1]
1000b888:	f383 8810 	msr	PRIMASK, r3
1000b88c:	2800      	cmp	r0, #0
1000b88e:	d0e2      	beq.n	1000b856 <tud_task_ext+0xa>
1000b890:	f89d 3005 	ldrb.w	r3, [sp, #5]
1000b894:	3b01      	subs	r3, #1
1000b896:	2b07      	cmp	r3, #7
1000b898:	f200 80d9 	bhi.w	1000ba4e <tud_task_ext+0x202>
1000b89c:	a201      	add	r2, pc, #4	@ (adr r2, 1000b8a4 <tud_task_ext+0x58>)
1000b89e:	f852 f023 	ldr.w	pc, [r2, r3, lsl #2]
1000b8a2:	bf00      	nop
1000b8a4:	1000b85b 	.word	0x1000b85b
1000b8a8:	1000b8c5 	.word	0x1000b8c5
1000b8ac:	1000ba3b 	.word	0x1000ba3b
1000b8b0:	1000ba01 	.word	0x1000ba01
1000b8b4:	1000ba1b 	.word	0x1000ba1b
1000b8b8:	1000b8d3 	.word	0x1000b8d3
1000b8bc:	1000b969 	.word	0x1000b969
1000b8c0:	1000ba2d 	.word	0x1000ba2d
1000b8c4:	f89d 0004 	ldrb.w	r0, [sp, #4]
1000b8c8:	f7ff faa0 	bl	1000ae0c <usbd_reset>
1000b8cc:	f7ff fc03 	bl	1000b0d6 <tud_umount_cb>
1000b8d0:	e7cb      	b.n	1000b86a <tud_task_ext+0x1e>
1000b8d2:	4b66      	ldr	r3, [pc, #408]	@ (1000ba6c <tud_task_ext+0x220>)
1000b8d4:	781b      	ldrb	r3, [r3, #0]
1000b8d6:	2b00      	cmp	r3, #0
1000b8d8:	d036      	beq.n	1000b948 <tud_task_ext+0xfc>
1000b8da:	4a64      	ldr	r2, [pc, #400]	@ (1000ba6c <tud_task_ext+0x220>)
1000b8dc:	7813      	ldrb	r3, [r2, #0]
1000b8de:	3b01      	subs	r3, #1
1000b8e0:	b2db      	uxtb	r3, r3
1000b8e2:	7013      	strb	r3, [r2, #0]
1000b8e4:	7813      	ldrb	r3, [r2, #0]
1000b8e6:	2b00      	cmp	r3, #0
1000b8e8:	d1bf      	bne.n	1000b86a <tud_task_ext+0x1e>
1000b8ea:	4b5e      	ldr	r3, [pc, #376]	@ (1000ba64 <tud_task_ext+0x218>)
1000b8ec:	781a      	ldrb	r2, [r3, #0]
1000b8ee:	f042 0201 	orr.w	r2, r2, #1
1000b8f2:	701a      	strb	r2, [r3, #0]
1000b8f4:	f893 2034 	ldrb.w	r2, [r3, #52]	@ 0x34
1000b8f8:	f022 0201 	bic.w	r2, r2, #1
1000b8fc:	f883 2034 	strb.w	r2, [r3, #52]	@ 0x34
1000b900:	f893 2034 	ldrb.w	r2, [r3, #52]	@ 0x34
1000b904:	f022 0204 	bic.w	r2, r2, #4
1000b908:	f883 2034 	strb.w	r2, [r3, #52]	@ 0x34
1000b90c:	f893 2035 	ldrb.w	r2, [r3, #53]	@ 0x35
1000b910:	f022 0201 	bic.w	r2, r2, #1
1000b914:	f883 2035 	strb.w	r2, [r3, #53]	@ 0x35
1000b918:	f893 2035 	ldrb.w	r2, [r3, #53]	@ 0x35
1000b91c:	f022 0204 	bic.w	r2, r2, #4
1000b920:	f883 2035 	strb.w	r2, [r3, #53]	@ 0x35
1000b924:	a902      	add	r1, sp, #8
1000b926:	f89d 0004 	ldrb.w	r0, [sp, #4]
1000b92a:	f7ff fd8f 	bl	1000b44c <process_control_request>
1000b92e:	2800      	cmp	r0, #0
1000b930:	d19b      	bne.n	1000b86a <tud_task_ext+0x1e>
1000b932:	2100      	movs	r1, #0
1000b934:	f89d 0004 	ldrb.w	r0, [sp, #4]
1000b938:	f7ff f986 	bl	1000ac48 <dcd_edpt_stall>
1000b93c:	2180      	movs	r1, #128	@ 0x80
1000b93e:	f89d 0004 	ldrb.w	r0, [sp, #4]
1000b942:	f7ff f981 	bl	1000ac48 <dcd_edpt_stall>
1000b946:	e790      	b.n	1000b86a <tud_task_ext+0x1e>
1000b948:	f240 2256 	movw	r2, #598	@ 0x256
1000b94c:	4948      	ldr	r1, [pc, #288]	@ (1000ba70 <tud_task_ext+0x224>)
1000b94e:	4849      	ldr	r0, [pc, #292]	@ (1000ba74 <tud_task_ext+0x228>)
1000b950:	f7fe fe96 	bl	1000a680 <__wrap_printf>
1000b954:	f04f 23e0 	mov.w	r3, #3758153728	@ 0xe000e000
1000b958:	f8d3 3df0 	ldr.w	r3, [r3, #3568]	@ 0xdf0
1000b95c:	f013 0f01 	tst.w	r3, #1
1000b960:	f43f af79 	beq.w	1000b856 <tud_task_ext+0xa>
1000b964:	be00      	bkpt	0x0000
1000b966:	e776      	b.n	1000b856 <tud_task_ext+0xa>
1000b968:	f89d 1008 	ldrb.w	r1, [sp, #8]
1000b96c:	f001 007f 	and.w	r0, r1, #127	@ 0x7f
1000b970:	09cc      	lsrs	r4, r1, #7
1000b972:	4b3c      	ldr	r3, [pc, #240]	@ (1000ba64 <tud_task_ext+0x218>)
1000b974:	eb03 0340 	add.w	r3, r3, r0, lsl #1
1000b978:	eb03 13d1 	add.w	r3, r3, r1, lsr #7
1000b97c:	f893 2034 	ldrb.w	r2, [r3, #52]	@ 0x34
1000b980:	f022 0201 	bic.w	r2, r2, #1
1000b984:	f883 2034 	strb.w	r2, [r3, #52]	@ 0x34
1000b988:	f893 2034 	ldrb.w	r2, [r3, #52]	@ 0x34
1000b98c:	f022 0204 	bic.w	r2, r2, #4
1000b990:	f883 2034 	strb.w	r2, [r3, #52]	@ 0x34
1000b994:	b1a8      	cbz	r0, 1000b9c2 <tud_task_ext+0x176>
1000b996:	4b33      	ldr	r3, [pc, #204]	@ (1000ba64 <tud_task_ext+0x218>)
1000b998:	eb03 0340 	add.w	r3, r3, r0, lsl #1
1000b99c:	4423      	add	r3, r4
1000b99e:	7d1b      	ldrb	r3, [r3, #20]
1000b9a0:	4a35      	ldr	r2, [pc, #212]	@ (1000ba78 <tud_task_ext+0x22c>)
1000b9a2:	7812      	ldrb	r2, [r2, #0]
1000b9a4:	4293      	cmp	r3, r2
1000b9a6:	d214      	bcs.n	1000b9d2 <tud_task_ext+0x186>
1000b9a8:	4a34      	ldr	r2, [pc, #208]	@ (1000ba7c <tud_task_ext+0x230>)
1000b9aa:	6812      	ldr	r2, [r2, #0]
1000b9ac:	eb12 1343 	adds.w	r3, r2, r3, lsl #5
1000b9b0:	d016      	beq.n	1000b9e0 <tud_task_ext+0x194>
1000b9b2:	699c      	ldr	r4, [r3, #24]
1000b9b4:	9b03      	ldr	r3, [sp, #12]
1000b9b6:	f89d 2009 	ldrb.w	r2, [sp, #9]
1000b9ba:	f89d 0004 	ldrb.w	r0, [sp, #4]
1000b9be:	47a0      	blx	r4
1000b9c0:	e753      	b.n	1000b86a <tud_task_ext+0x1e>
1000b9c2:	9b03      	ldr	r3, [sp, #12]
1000b9c4:	f89d 2009 	ldrb.w	r2, [sp, #9]
1000b9c8:	f89d 0004 	ldrb.w	r0, [sp, #4]
1000b9cc:	f000 f91e 	bl	1000bc0c <usbd_control_xfer_cb>
1000b9d0:	e74b      	b.n	1000b86a <tud_task_ext+0x1e>
1000b9d2:	4293      	cmp	r3, r2
1000b9d4:	d804      	bhi.n	1000b9e0 <tud_task_ext+0x194>
1000b9d6:	1a9b      	subs	r3, r3, r2
1000b9d8:	4a29      	ldr	r2, [pc, #164]	@ (1000ba80 <tud_task_ext+0x234>)
1000b9da:	eb02 1343 	add.w	r3, r2, r3, lsl #5
1000b9de:	e7e8      	b.n	1000b9b2 <tud_task_ext+0x166>
1000b9e0:	f240 2281 	movw	r2, #641	@ 0x281
1000b9e4:	4922      	ldr	r1, [pc, #136]	@ (1000ba70 <tud_task_ext+0x224>)
1000b9e6:	4823      	ldr	r0, [pc, #140]	@ (1000ba74 <tud_task_ext+0x228>)
1000b9e8:	f7fe fe4a 	bl	1000a680 <__wrap_printf>
1000b9ec:	f04f 23e0 	mov.w	r3, #3758153728	@ 0xe000e000
1000b9f0:	f8d3 3df0 	ldr.w	r3, [r3, #3568]	@ 0xdf0
1000b9f4:	f013 0f01 	tst.w	r3, #1
1000b9f8:	f43f af2d 	beq.w	1000b856 <tud_task_ext+0xa>
1000b9fc:	be00      	bkpt	0x0000
1000b9fe:	e72a      	b.n	1000b856 <tud_task_ext+0xa>
1000ba00:	4b18      	ldr	r3, [pc, #96]	@ (1000ba64 <tud_task_ext+0x218>)
1000ba02:	781b      	ldrb	r3, [r3, #0]
1000ba04:	f013 0f01 	tst.w	r3, #1
1000ba08:	f43f af2f 	beq.w	1000b86a <tud_task_ext+0x1e>
1000ba0c:	4b15      	ldr	r3, [pc, #84]	@ (1000ba64 <tud_task_ext+0x218>)
1000ba0e:	7818      	ldrb	r0, [r3, #0]
1000ba10:	f3c0 00c0 	ubfx	r0, r0, #3, #1
1000ba14:	f7ff fb60 	bl	1000b0d8 <tud_suspend_cb>
1000ba18:	e727      	b.n	1000b86a <tud_task_ext+0x1e>
1000ba1a:	4b12      	ldr	r3, [pc, #72]	@ (1000ba64 <tud_task_ext+0x218>)
1000ba1c:	781b      	ldrb	r3, [r3, #0]
1000ba1e:	f013 0f01 	tst.w	r3, #1
1000ba22:	f43f af22 	beq.w	1000b86a <tud_task_ext+0x1e>
1000ba26:	f7ff fb58 	bl	1000b0da <tud_resume_cb>
1000ba2a:	e71e      	b.n	1000b86a <tud_task_ext+0x1e>
1000ba2c:	9b02      	ldr	r3, [sp, #8]
1000ba2e:	2b00      	cmp	r3, #0
1000ba30:	f43f af1b 	beq.w	1000b86a <tud_task_ext+0x1e>
1000ba34:	9803      	ldr	r0, [sp, #12]
1000ba36:	4798      	blx	r3
1000ba38:	e717      	b.n	1000b86a <tud_task_ext+0x1e>
1000ba3a:	4b0a      	ldr	r3, [pc, #40]	@ (1000ba64 <tud_task_ext+0x218>)
1000ba3c:	78db      	ldrb	r3, [r3, #3]
1000ba3e:	f013 0f01 	tst.w	r3, #1
1000ba42:	f43f af12 	beq.w	1000b86a <tud_task_ext+0x1e>
1000ba46:	9802      	ldr	r0, [sp, #8]
1000ba48:	f7ff fac1 	bl	1000afce <tud_sof_cb>
1000ba4c:	e70d      	b.n	1000b86a <tud_task_ext+0x1e>
1000ba4e:	f04f 23e0 	mov.w	r3, #3758153728	@ 0xe000e000
1000ba52:	f8d3 3df0 	ldr.w	r3, [r3, #3568]	@ 0xdf0
1000ba56:	f013 0f01 	tst.w	r3, #1
1000ba5a:	f43f af06 	beq.w	1000b86a <tud_task_ext+0x1e>
1000ba5e:	be00      	bkpt	0x0000
1000ba60:	e703      	b.n	1000b86a <tud_task_ext+0x1e>
1000ba62:	bf00      	nop
1000ba64:	200010e4 	.word	0x200010e4
1000ba68:	2000113c 	.word	0x2000113c
1000ba6c:	20005f5c 	.word	0x20005f5c
1000ba70:	1000f05c 	.word	0x1000f05c
1000ba74:	1000d74c 	.word	0x1000d74c
1000ba78:	20005f5a 	.word	0x20005f5a
1000ba7c:	20001020 	.word	0x20001020
1000ba80:	1000f078 	.word	0x1000f078

1000ba84 <_status_stage_xact>:
1000ba84:	b508      	push	{r3, lr}
1000ba86:	f991 3000 	ldrsb.w	r3, [r1]
1000ba8a:	2b00      	cmp	r3, #0
1000ba8c:	db05      	blt.n	1000ba9a <_status_stage_xact+0x16>
1000ba8e:	2180      	movs	r1, #128	@ 0x80
1000ba90:	2300      	movs	r3, #0
1000ba92:	461a      	mov	r2, r3
1000ba94:	f7ff fc3a 	bl	1000b30c <usbd_edpt_xfer>
1000ba98:	bd08      	pop	{r3, pc}
1000ba9a:	2100      	movs	r1, #0
1000ba9c:	e7f8      	b.n	1000ba90 <_status_stage_xact+0xc>
	...

1000baa0 <_data_stage_xact>:
1000baa0:	b5f8      	push	{r3, r4, r5, r6, r7, lr}
1000baa2:	4607      	mov	r7, r0
1000baa4:	4b13      	ldr	r3, [pc, #76]	@ (1000baf4 <_data_stage_xact+0x54>)
1000baa6:	899e      	ldrh	r6, [r3, #12]
1000baa8:	89dd      	ldrh	r5, [r3, #14]
1000baaa:	1b74      	subs	r4, r6, r5
1000baac:	b2a4      	uxth	r4, r4
1000baae:	2c40      	cmp	r4, #64	@ 0x40
1000bab0:	bf28      	it	cs
1000bab2:	2440      	movcs	r4, #64	@ 0x40
1000bab4:	f993 3000 	ldrsb.w	r3, [r3]
1000bab8:	2b00      	cmp	r3, #0
1000baba:	db08      	blt.n	1000bace <_data_stage_xact+0x2e>
1000babc:	2100      	movs	r1, #0
1000babe:	42ae      	cmp	r6, r5
1000bac0:	d013      	beq.n	1000baea <_data_stage_xact+0x4a>
1000bac2:	4a0d      	ldr	r2, [pc, #52]	@ (1000baf8 <_data_stage_xact+0x58>)
1000bac4:	4623      	mov	r3, r4
1000bac6:	4638      	mov	r0, r7
1000bac8:	f7ff fc20 	bl	1000b30c <usbd_edpt_xfer>
1000bacc:	bdf8      	pop	{r3, r4, r5, r6, r7, pc}
1000bace:	42ae      	cmp	r6, r5
1000bad0:	d009      	beq.n	1000bae6 <_data_stage_xact+0x46>
1000bad2:	4b08      	ldr	r3, [pc, #32]	@ (1000baf4 <_data_stage_xact+0x54>)
1000bad4:	6899      	ldr	r1, [r3, #8]
1000bad6:	2c40      	cmp	r4, #64	@ 0x40
1000bad8:	d809      	bhi.n	1000baee <_data_stage_xact+0x4e>
1000bada:	4622      	mov	r2, r4
1000badc:	4806      	ldr	r0, [pc, #24]	@ (1000baf8 <_data_stage_xact+0x58>)
1000bade:	f001 f8e3 	bl	1000cca8 <memcpy>
1000bae2:	2180      	movs	r1, #128	@ 0x80
1000bae4:	e7eb      	b.n	1000babe <_data_stage_xact+0x1e>
1000bae6:	2180      	movs	r1, #128	@ 0x80
1000bae8:	e7e9      	b.n	1000babe <_data_stage_xact+0x1e>
1000baea:	2200      	movs	r2, #0
1000baec:	e7ea      	b.n	1000bac4 <_data_stage_xact+0x24>
1000baee:	2000      	movs	r0, #0
1000baf0:	e7ec      	b.n	1000bacc <_data_stage_xact+0x2c>
1000baf2:	bf00      	nop
1000baf4:	20001024 	.word	0x20001024
1000baf8:	200010a4 	.word	0x200010a4

1000bafc <tud_control_status>:
1000bafc:	b508      	push	{r3, lr}
1000bafe:	4686      	mov	lr, r0
1000bb00:	460b      	mov	r3, r1
1000bb02:	4a07      	ldr	r2, [pc, #28]	@ (1000bb20 <tud_control_status+0x24>)
1000bb04:	4694      	mov	ip, r2
1000bb06:	6808      	ldr	r0, [r1, #0]
1000bb08:	6849      	ldr	r1, [r1, #4]
1000bb0a:	e8ac 0003 	stmia.w	ip!, {r0, r1}
1000bb0e:	2100      	movs	r1, #0
1000bb10:	6091      	str	r1, [r2, #8]
1000bb12:	81d1      	strh	r1, [r2, #14]
1000bb14:	8191      	strh	r1, [r2, #12]
1000bb16:	4619      	mov	r1, r3
1000bb18:	4670      	mov	r0, lr
1000bb1a:	f7ff ffb3 	bl	1000ba84 <_status_stage_xact>
1000bb1e:	bd08      	pop	{r3, pc}
1000bb20:	20001024 	.word	0x20001024

1000bb24 <tud_control_xfer>:
1000bb24:	b538      	push	{r3, r4, r5, lr}
1000bb26:	4605      	mov	r5, r0
1000bb28:	468c      	mov	ip, r1
1000bb2a:	4c26      	ldr	r4, [pc, #152]	@ (1000bbc4 <tud_control_xfer+0xa0>)
1000bb2c:	46a6      	mov	lr, r4
1000bb2e:	6808      	ldr	r0, [r1, #0]
1000bb30:	6849      	ldr	r1, [r1, #4]
1000bb32:	e8ae 0003 	stmia.w	lr!, {r0, r1}
1000bb36:	60a2      	str	r2, [r4, #8]
1000bb38:	2100      	movs	r1, #0
1000bb3a:	81e1      	strh	r1, [r4, #14]
1000bb3c:	f8bc 1006 	ldrh.w	r1, [ip, #6]
1000bb40:	428b      	cmp	r3, r1
1000bb42:	bf28      	it	cs
1000bb44:	460b      	movcs	r3, r1
1000bb46:	81a3      	strh	r3, [r4, #12]
1000bb48:	f8bc 1006 	ldrh.w	r1, [ip, #6]
1000bb4c:	b329      	cbz	r1, 1000bb9a <tud_control_xfer+0x76>
1000bb4e:	b103      	cbz	r3, 1000bb52 <tud_control_xfer+0x2e>
1000bb50:	b132      	cbz	r2, 1000bb60 <tud_control_xfer+0x3c>
1000bb52:	4628      	mov	r0, r5
1000bb54:	f7ff ffa4 	bl	1000baa0 <_data_stage_xact>
1000bb58:	4604      	mov	r4, r0
1000bb5a:	b180      	cbz	r0, 1000bb7e <tud_control_xfer+0x5a>
1000bb5c:	4620      	mov	r0, r4
1000bb5e:	bd38      	pop	{r3, r4, r5, pc}
1000bb60:	2277      	movs	r2, #119	@ 0x77
1000bb62:	4919      	ldr	r1, [pc, #100]	@ (1000bbc8 <tud_control_xfer+0xa4>)
1000bb64:	4819      	ldr	r0, [pc, #100]	@ (1000bbcc <tud_control_xfer+0xa8>)
1000bb66:	f7fe fd8b 	bl	1000a680 <__wrap_printf>
1000bb6a:	f04f 23e0 	mov.w	r3, #3758153728	@ 0xe000e000
1000bb6e:	f8d3 3df0 	ldr.w	r3, [r3, #3568]	@ 0xdf0
1000bb72:	f013 0f01 	tst.w	r3, #1
1000bb76:	d000      	beq.n	1000bb7a <tud_control_xfer+0x56>
1000bb78:	be00      	bkpt	0x0000
1000bb7a:	2400      	movs	r4, #0
1000bb7c:	e7ee      	b.n	1000bb5c <tud_control_xfer+0x38>
1000bb7e:	227d      	movs	r2, #125	@ 0x7d
1000bb80:	4911      	ldr	r1, [pc, #68]	@ (1000bbc8 <tud_control_xfer+0xa4>)
1000bb82:	4812      	ldr	r0, [pc, #72]	@ (1000bbcc <tud_control_xfer+0xa8>)
1000bb84:	f7fe fd7c 	bl	1000a680 <__wrap_printf>
1000bb88:	f04f 23e0 	mov.w	r3, #3758153728	@ 0xe000e000
1000bb8c:	f8d3 3df0 	ldr.w	r3, [r3, #3568]	@ 0xdf0
1000bb90:	f013 0f01 	tst.w	r3, #1
1000bb94:	d0e2      	beq.n	1000bb5c <tud_control_xfer+0x38>
1000bb96:	be00      	bkpt	0x0000
1000bb98:	e7e0      	b.n	1000bb5c <tud_control_xfer+0x38>
1000bb9a:	4661      	mov	r1, ip
1000bb9c:	4628      	mov	r0, r5
1000bb9e:	f7ff ff71 	bl	1000ba84 <_status_stage_xact>
1000bba2:	4604      	mov	r4, r0
1000bba4:	2800      	cmp	r0, #0
1000bba6:	d1d9      	bne.n	1000bb5c <tud_control_xfer+0x38>
1000bba8:	2280      	movs	r2, #128	@ 0x80
1000bbaa:	4907      	ldr	r1, [pc, #28]	@ (1000bbc8 <tud_control_xfer+0xa4>)
1000bbac:	4807      	ldr	r0, [pc, #28]	@ (1000bbcc <tud_control_xfer+0xa8>)
1000bbae:	f7fe fd67 	bl	1000a680 <__wrap_printf>
1000bbb2:	f04f 23e0 	mov.w	r3, #3758153728	@ 0xe000e000
1000bbb6:	f8d3 3df0 	ldr.w	r3, [r3, #3568]	@ 0xdf0
1000bbba:	f013 0f01 	tst.w	r3, #1
1000bbbe:	d0cd      	beq.n	1000bb5c <tud_control_xfer+0x38>
1000bbc0:	be00      	bkpt	0x0000
1000bbc2:	e7cb      	b.n	1000bb5c <tud_control_xfer+0x38>
1000bbc4:	20001024 	.word	0x20001024
1000bbc8:	1000f0b0 	.word	0x1000f0b0
1000bbcc:	1000d74c 	.word	0x1000d74c

1000bbd0 <usbd_control_reset>:
1000bbd0:	4b03      	ldr	r3, [pc, #12]	@ (1000bbe0 <usbd_control_reset+0x10>)
1000bbd2:	2200      	movs	r2, #0
1000bbd4:	601a      	str	r2, [r3, #0]
1000bbd6:	605a      	str	r2, [r3, #4]
1000bbd8:	609a      	str	r2, [r3, #8]
1000bbda:	60da      	str	r2, [r3, #12]
1000bbdc:	611a      	str	r2, [r3, #16]
1000bbde:	4770      	bx	lr
1000bbe0:	20001024 	.word	0x20001024

1000bbe4 <usbd_control_set_complete_callback>:
1000bbe4:	4b01      	ldr	r3, [pc, #4]	@ (1000bbec <usbd_control_set_complete_callback+0x8>)
1000bbe6:	6118      	str	r0, [r3, #16]
1000bbe8:	4770      	bx	lr
1000bbea:	bf00      	nop
1000bbec:	20001024 	.word	0x20001024

1000bbf0 <usbd_control_set_request>:
1000bbf0:	4601      	mov	r1, r0
1000bbf2:	4b05      	ldr	r3, [pc, #20]	@ (1000bc08 <usbd_control_set_request+0x18>)
1000bbf4:	461a      	mov	r2, r3
1000bbf6:	6800      	ldr	r0, [r0, #0]
1000bbf8:	6849      	ldr	r1, [r1, #4]
1000bbfa:	c203      	stmia	r2!, {r0, r1}
1000bbfc:	2200      	movs	r2, #0
1000bbfe:	609a      	str	r2, [r3, #8]
1000bc00:	81da      	strh	r2, [r3, #14]
1000bc02:	819a      	strh	r2, [r3, #12]
1000bc04:	4770      	bx	lr
1000bc06:	bf00      	nop
1000bc08:	20001024 	.word	0x20001024

1000bc0c <usbd_control_xfer_cb>:
1000bc0c:	b538      	push	{r3, r4, r5, lr}
1000bc0e:	4605      	mov	r5, r0
1000bc10:	461c      	mov	r4, r3
1000bc12:	4b3d      	ldr	r3, [pc, #244]	@ (1000bd08 <usbd_control_xfer_cb+0xfc>)
1000bc14:	781b      	ldrb	r3, [r3, #0]
1000bc16:	09db      	lsrs	r3, r3, #7
1000bc18:	ebb3 1fd1 	cmp.w	r3, r1, lsr #7
1000bc1c:	d01c      	beq.n	1000bc58 <usbd_control_xfer_cb+0x4c>
1000bc1e:	b17c      	cbz	r4, 1000bc40 <usbd_control_xfer_cb+0x34>
1000bc20:	22a7      	movs	r2, #167	@ 0xa7
1000bc22:	493a      	ldr	r1, [pc, #232]	@ (1000bd0c <usbd_control_xfer_cb+0x100>)
1000bc24:	483a      	ldr	r0, [pc, #232]	@ (1000bd10 <usbd_control_xfer_cb+0x104>)
1000bc26:	f7fe fd2b 	bl	1000a680 <__wrap_printf>
1000bc2a:	f04f 23e0 	mov.w	r3, #3758153728	@ 0xe000e000
1000bc2e:	f8d3 3df0 	ldr.w	r3, [r3, #3568]	@ 0xdf0
1000bc32:	f013 0f01 	tst.w	r3, #1
1000bc36:	d000      	beq.n	1000bc3a <usbd_control_xfer_cb+0x2e>
1000bc38:	be00      	bkpt	0x0000
1000bc3a:	2400      	movs	r4, #0
1000bc3c:	4620      	mov	r0, r4
1000bc3e:	bd38      	pop	{r3, r4, r5, pc}
1000bc40:	4c31      	ldr	r4, [pc, #196]	@ (1000bd08 <usbd_control_xfer_cb+0xfc>)
1000bc42:	4621      	mov	r1, r4
1000bc44:	f7fe ffba 	bl	1000abbc <dcd_edpt0_status_complete>
1000bc48:	6923      	ldr	r3, [r4, #16]
1000bc4a:	b11b      	cbz	r3, 1000bc54 <usbd_control_xfer_cb+0x48>
1000bc4c:	4622      	mov	r2, r4
1000bc4e:	2103      	movs	r1, #3
1000bc50:	4628      	mov	r0, r5
1000bc52:	4798      	blx	r3
1000bc54:	2401      	movs	r4, #1
1000bc56:	e7f1      	b.n	1000bc3c <usbd_control_xfer_cb+0x30>
1000bc58:	4b2b      	ldr	r3, [pc, #172]	@ (1000bd08 <usbd_control_xfer_cb+0xfc>)
1000bc5a:	f993 3000 	ldrsb.w	r3, [r3]
1000bc5e:	2b00      	cmp	r3, #0
1000bc60:	db07      	blt.n	1000bc72 <usbd_control_xfer_cb+0x66>
1000bc62:	4b29      	ldr	r3, [pc, #164]	@ (1000bd08 <usbd_control_xfer_cb+0xfc>)
1000bc64:	6898      	ldr	r0, [r3, #8]
1000bc66:	2800      	cmp	r0, #0
1000bc68:	d04c      	beq.n	1000bd04 <usbd_control_xfer_cb+0xf8>
1000bc6a:	4622      	mov	r2, r4
1000bc6c:	4929      	ldr	r1, [pc, #164]	@ (1000bd14 <usbd_control_xfer_cb+0x108>)
1000bc6e:	f001 f81b 	bl	1000cca8 <memcpy>
1000bc72:	4a25      	ldr	r2, [pc, #148]	@ (1000bd08 <usbd_control_xfer_cb+0xfc>)
1000bc74:	89d3      	ldrh	r3, [r2, #14]
1000bc76:	fa13 f384 	uxtah	r3, r3, r4
1000bc7a:	b29b      	uxth	r3, r3
1000bc7c:	81d3      	strh	r3, [r2, #14]
1000bc7e:	6891      	ldr	r1, [r2, #8]
1000bc80:	4421      	add	r1, r4
1000bc82:	6091      	str	r1, [r2, #8]
1000bc84:	88d2      	ldrh	r2, [r2, #6]
1000bc86:	4293      	cmp	r3, r2
1000bc88:	d001      	beq.n	1000bc8e <usbd_control_xfer_cb+0x82>
1000bc8a:	2c3f      	cmp	r4, #63	@ 0x3f
1000bc8c:	d826      	bhi.n	1000bcdc <usbd_control_xfer_cb+0xd0>
1000bc8e:	4b1e      	ldr	r3, [pc, #120]	@ (1000bd08 <usbd_control_xfer_cb+0xfc>)
1000bc90:	691b      	ldr	r3, [r3, #16]
1000bc92:	b123      	cbz	r3, 1000bc9e <usbd_control_xfer_cb+0x92>
1000bc94:	4a1c      	ldr	r2, [pc, #112]	@ (1000bd08 <usbd_control_xfer_cb+0xfc>)
1000bc96:	2102      	movs	r1, #2
1000bc98:	4628      	mov	r0, r5
1000bc9a:	4798      	blx	r3
1000bc9c:	b1a0      	cbz	r0, 1000bcc8 <usbd_control_xfer_cb+0xbc>
1000bc9e:	491a      	ldr	r1, [pc, #104]	@ (1000bd08 <usbd_control_xfer_cb+0xfc>)
1000bca0:	4628      	mov	r0, r5
1000bca2:	f7ff feef 	bl	1000ba84 <_status_stage_xact>
1000bca6:	4604      	mov	r4, r0
1000bca8:	2800      	cmp	r0, #0
1000bcaa:	d1c7      	bne.n	1000bc3c <usbd_control_xfer_cb+0x30>
1000bcac:	22d0      	movs	r2, #208	@ 0xd0
1000bcae:	4917      	ldr	r1, [pc, #92]	@ (1000bd0c <usbd_control_xfer_cb+0x100>)
1000bcb0:	4817      	ldr	r0, [pc, #92]	@ (1000bd10 <usbd_control_xfer_cb+0x104>)
1000bcb2:	f7fe fce5 	bl	1000a680 <__wrap_printf>
1000bcb6:	f04f 23e0 	mov.w	r3, #3758153728	@ 0xe000e000
1000bcba:	f8d3 3df0 	ldr.w	r3, [r3, #3568]	@ 0xdf0
1000bcbe:	f013 0f01 	tst.w	r3, #1
1000bcc2:	d0bb      	beq.n	1000bc3c <usbd_control_xfer_cb+0x30>
1000bcc4:	be00      	bkpt	0x0000
1000bcc6:	e7b9      	b.n	1000bc3c <usbd_control_xfer_cb+0x30>
1000bcc8:	2100      	movs	r1, #0
1000bcca:	4628      	mov	r0, r5
1000bccc:	f7fe ffbc 	bl	1000ac48 <dcd_edpt_stall>
1000bcd0:	2180      	movs	r1, #128	@ 0x80
1000bcd2:	4628      	mov	r0, r5
1000bcd4:	f7fe ffb8 	bl	1000ac48 <dcd_edpt_stall>
1000bcd8:	2401      	movs	r4, #1
1000bcda:	e7af      	b.n	1000bc3c <usbd_control_xfer_cb+0x30>
1000bcdc:	4628      	mov	r0, r5
1000bcde:	f7ff fedf 	bl	1000baa0 <_data_stage_xact>
1000bce2:	4604      	mov	r4, r0
1000bce4:	2800      	cmp	r0, #0
1000bce6:	d1a9      	bne.n	1000bc3c <usbd_control_xfer_cb+0x30>
1000bce8:	22d8      	movs	r2, #216	@ 0xd8
1000bcea:	4908      	ldr	r1, [pc, #32]	@ (1000bd0c <usbd_control_xfer_cb+0x100>)
1000bcec:	4808      	ldr	r0, [pc, #32]	@ (1000bd10 <usbd_control_xfer_cb+0x104>)
1000bcee:	f7fe fcc7 	bl	1000a680 <__wrap_printf>
1000bcf2:	f04f 23e0 	mov.w	r3, #3758153728	@ 0xe000e000
1000bcf6:	f8d3 3df0 	ldr.w	r3, [r3, #3568]	@ 0xdf0
1000bcfa:	f013 0f01 	tst.w	r3, #1
1000bcfe:	d09d      	beq.n	1000bc3c <usbd_control_xfer_cb+0x30>
1000bd00:	be00      	bkpt	0x0000
1000bd02:	e79b      	b.n	1000bc3c <usbd_control_xfer_cb+0x30>
1000bd04:	2400      	movs	r4, #0
1000bd06:	e799      	b.n	1000bc3c <usbd_control_xfer_cb+0x30>
1000bd08:	20001024 	.word	0x20001024
1000bd0c:	1000f098 	.word	0x1000f098
1000bd10:	1000d74c 	.word	0x1000d74c
1000bd14:	200010a4 	.word	0x200010a4

1000bd18 <xmit_put_ntb_into_free_list>:
1000bd18:	b900      	cbnz	r0, 1000bd1c <xmit_put_ntb_into_free_list+0x4>
1000bd1a:	4770      	bx	lr
1000bd1c:	b410      	push	{r4}
1000bd1e:	4604      	mov	r4, r0
1000bd20:	2300      	movs	r3, #0
1000bd22:	2b00      	cmp	r3, #0
1000bd24:	dd02      	ble.n	1000bd2c <xmit_put_ntb_into_free_list+0x14>
1000bd26:	f85d 4b04 	ldr.w	r4, [sp], #4
1000bd2a:	4770      	bx	lr
1000bd2c:	f203 51ec 	addw	r1, r3, #1516	@ 0x5ec
1000bd30:	4a05      	ldr	r2, [pc, #20]	@ (1000bd48 <xmit_put_ntb_into_free_list+0x30>)
1000bd32:	eb02 0281 	add.w	r2, r2, r1, lsl #2
1000bd36:	6852      	ldr	r2, [r2, #4]
1000bd38:	b10a      	cbz	r2, 1000bd3e <xmit_put_ntb_into_free_list+0x26>
1000bd3a:	3301      	adds	r3, #1
1000bd3c:	e7f1      	b.n	1000bd22 <xmit_put_ntb_into_free_list+0xa>
1000bd3e:	4a02      	ldr	r2, [pc, #8]	@ (1000bd48 <xmit_put_ntb_into_free_list+0x30>)
1000bd40:	eb02 0381 	add.w	r3, r2, r1, lsl #2
1000bd44:	605c      	str	r4, [r3, #4]
1000bd46:	e7ee      	b.n	1000bd26 <xmit_put_ntb_into_free_list+0xe>
1000bd48:	20003fd4 	.word	0x20003fd4

1000bd4c <xmit_get_free_ntb>:
1000bd4c:	2300      	movs	r3, #0
1000bd4e:	2b00      	cmp	r3, #0
1000bd50:	dd01      	ble.n	1000bd56 <xmit_get_free_ntb+0xa>
1000bd52:	2000      	movs	r0, #0
1000bd54:	4770      	bx	lr
1000bd56:	f203 51ec 	addw	r1, r3, #1516	@ 0x5ec
1000bd5a:	4a06      	ldr	r2, [pc, #24]	@ (1000bd74 <xmit_get_free_ntb+0x28>)
1000bd5c:	eb02 0281 	add.w	r2, r2, r1, lsl #2
1000bd60:	6850      	ldr	r0, [r2, #4]
1000bd62:	b908      	cbnz	r0, 1000bd68 <xmit_get_free_ntb+0x1c>
1000bd64:	3301      	adds	r3, #1
1000bd66:	e7f2      	b.n	1000bd4e <xmit_get_free_ntb+0x2>
1000bd68:	4a02      	ldr	r2, [pc, #8]	@ (1000bd74 <xmit_get_free_ntb+0x28>)
1000bd6a:	eb02 0381 	add.w	r3, r2, r1, lsl #2
1000bd6e:	2200      	movs	r2, #0
1000bd70:	605a      	str	r2, [r3, #4]
1000bd72:	4770      	bx	lr
1000bd74:	20003fd4 	.word	0x20003fd4

1000bd78 <xmit_put_ntb_into_ready_list>:
1000bd78:	2300      	movs	r3, #0
1000bd7a:	2b00      	cmp	r3, #0
1000bd7c:	dd00      	ble.n	1000bd80 <xmit_put_ntb_into_ready_list+0x8>
1000bd7e:	4770      	bx	lr
1000bd80:	f203 52ee 	addw	r2, r3, #1518	@ 0x5ee
1000bd84:	4905      	ldr	r1, [pc, #20]	@ (1000bd9c <xmit_put_ntb_into_ready_list+0x24>)
1000bd86:	f851 2022 	ldr.w	r2, [r1, r2, lsl #2]
1000bd8a:	b10a      	cbz	r2, 1000bd90 <xmit_put_ntb_into_ready_list+0x18>
1000bd8c:	3301      	adds	r3, #1
1000bd8e:	e7f4      	b.n	1000bd7a <xmit_put_ntb_into_ready_list+0x2>
1000bd90:	f203 53ee 	addw	r3, r3, #1518	@ 0x5ee
1000bd94:	f841 0023 	str.w	r0, [r1, r3, lsl #2]
1000bd98:	4770      	bx	lr
1000bd9a:	bf00      	nop
1000bd9c:	20003fd4 	.word	0x20003fd4

1000bda0 <xmit_get_next_ready_ntb>:
1000bda0:	4b03      	ldr	r3, [pc, #12]	@ (1000bdb0 <xmit_get_next_ready_ntb+0x10>)
1000bda2:	f8d3 07b8 	ldr.w	r0, [r3, #1976]	@ 0x7b8
1000bda6:	2200      	movs	r2, #0
1000bda8:	f8c3 27b8 	str.w	r2, [r3, #1976]	@ 0x7b8
1000bdac:	4770      	bx	lr
1000bdae:	bf00      	nop
1000bdb0:	20004fd4 	.word	0x20004fd4

1000bdb4 <xmit_requested_datagram_fits_into_current_ntb>:
1000bdb4:	4b0d      	ldr	r3, [pc, #52]	@ (1000bdec <xmit_requested_datagram_fits_into_current_ntb+0x38>)
1000bdb6:	f8d3 37c0 	ldr.w	r3, [r3, #1984]	@ 0x7c0
1000bdba:	b183      	cbz	r3, 1000bdde <xmit_requested_datagram_fits_into_current_ntb+0x2a>
1000bdbc:	4a0b      	ldr	r2, [pc, #44]	@ (1000bdec <xmit_requested_datagram_fits_into_current_ntb+0x38>)
1000bdbe:	f8b2 27c6 	ldrh.w	r2, [r2, #1990]	@ 0x7c6
1000bdc2:	2a07      	cmp	r2, #7
1000bdc4:	d80d      	bhi.n	1000bde2 <xmit_requested_datagram_fits_into_current_ntb+0x2e>
1000bdc6:	891b      	ldrh	r3, [r3, #8]
1000bdc8:	4403      	add	r3, r0
1000bdca:	4240      	negs	r0, r0
1000bdcc:	f000 0003 	and.w	r0, r0, #3
1000bdd0:	4403      	add	r3, r0
1000bdd2:	f640 32cc 	movw	r2, #3020	@ 0xbcc
1000bdd6:	4293      	cmp	r3, r2
1000bdd8:	dc05      	bgt.n	1000bde6 <xmit_requested_datagram_fits_into_current_ntb+0x32>
1000bdda:	2001      	movs	r0, #1
1000bddc:	4770      	bx	lr
1000bdde:	2000      	movs	r0, #0
1000bde0:	4770      	bx	lr
1000bde2:	2000      	movs	r0, #0
1000bde4:	4770      	bx	lr
1000bde6:	2000      	movs	r0, #0
1000bde8:	4770      	bx	lr
1000bdea:	bf00      	nop
1000bdec:	20004fd4 	.word	0x20004fd4

1000bdf0 <recv_get_free_ntb>:
1000bdf0:	2300      	movs	r3, #0
1000bdf2:	2b00      	cmp	r3, #0
1000bdf4:	dd01      	ble.n	1000bdfa <recv_get_free_ntb+0xa>
1000bdf6:	2000      	movs	r0, #0
1000bdf8:	4770      	bx	lr
1000bdfa:	f503 713d 	add.w	r1, r3, #756	@ 0x2f4
1000bdfe:	4a06      	ldr	r2, [pc, #24]	@ (1000be18 <recv_get_free_ntb+0x28>)
1000be00:	eb02 0281 	add.w	r2, r2, r1, lsl #2
1000be04:	6850      	ldr	r0, [r2, #4]
1000be06:	b908      	cbnz	r0, 1000be0c <recv_get_free_ntb+0x1c>
1000be08:	3301      	adds	r3, #1
1000be0a:	e7f2      	b.n	1000bdf2 <recv_get_free_ntb+0x2>
1000be0c:	4a02      	ldr	r2, [pc, #8]	@ (1000be18 <recv_get_free_ntb+0x28>)
1000be0e:	eb02 0381 	add.w	r3, r2, r1, lsl #2
1000be12:	2200      	movs	r2, #0
1000be14:	605a      	str	r2, [r3, #4]
1000be16:	4770      	bx	lr
1000be18:	20003fd4 	.word	0x20003fd4

1000be1c <recv_get_next_ready_ntb>:
1000be1c:	4b03      	ldr	r3, [pc, #12]	@ (1000be2c <recv_get_next_ready_ntb+0x10>)
1000be1e:	f8d3 0bd8 	ldr.w	r0, [r3, #3032]	@ 0xbd8
1000be22:	2200      	movs	r2, #0
1000be24:	f8c3 2bd8 	str.w	r2, [r3, #3032]	@ 0xbd8
1000be28:	4770      	bx	lr
1000be2a:	bf00      	nop
1000be2c:	20003fd4 	.word	0x20003fd4

1000be30 <recv_put_ntb_into_free_list>:
1000be30:	2300      	movs	r3, #0
1000be32:	2b00      	cmp	r3, #0
1000be34:	dd00      	ble.n	1000be38 <recv_put_ntb_into_free_list+0x8>
1000be36:	4770      	bx	lr
1000be38:	f503 713d 	add.w	r1, r3, #756	@ 0x2f4
1000be3c:	4a05      	ldr	r2, [pc, #20]	@ (1000be54 <recv_put_ntb_into_free_list+0x24>)
1000be3e:	eb02 0281 	add.w	r2, r2, r1, lsl #2
1000be42:	6852      	ldr	r2, [r2, #4]
1000be44:	b10a      	cbz	r2, 1000be4a <recv_put_ntb_into_free_list+0x1a>
1000be46:	3301      	adds	r3, #1
1000be48:	e7f3      	b.n	1000be32 <recv_put_ntb_into_free_list+0x2>
1000be4a:	4a02      	ldr	r2, [pc, #8]	@ (1000be54 <recv_put_ntb_into_free_list+0x24>)
1000be4c:	eb02 0381 	add.w	r3, r2, r1, lsl #2
1000be50:	6058      	str	r0, [r3, #4]
1000be52:	4770      	bx	lr
1000be54:	20003fd4 	.word	0x20003fd4

1000be58 <recv_put_ntb_into_ready_list>:
1000be58:	2300      	movs	r3, #0
1000be5a:	2b00      	cmp	r3, #0
1000be5c:	dd00      	ble.n	1000be60 <recv_put_ntb_into_ready_list+0x8>
1000be5e:	4770      	bx	lr
1000be60:	f203 22f6 	addw	r2, r3, #758	@ 0x2f6
1000be64:	4905      	ldr	r1, [pc, #20]	@ (1000be7c <recv_put_ntb_into_ready_list+0x24>)
1000be66:	f851 2022 	ldr.w	r2, [r1, r2, lsl #2]
1000be6a:	b10a      	cbz	r2, 1000be70 <recv_put_ntb_into_ready_list+0x18>
1000be6c:	3301      	adds	r3, #1
1000be6e:	e7f4      	b.n	1000be5a <recv_put_ntb_into_ready_list+0x2>
1000be70:	f203 23f6 	addw	r3, r3, #758	@ 0x2f6
1000be74:	f841 0023 	str.w	r0, [r1, r3, lsl #2]
1000be78:	4770      	bx	lr
1000be7a:	bf00      	nop
1000be7c:	20003fd4 	.word	0x20003fd4

1000be80 <recv_validate_datagram>:
1000be80:	8883      	ldrh	r3, [r0, #4]
1000be82:	2b0c      	cmp	r3, #12
1000be84:	d144      	bne.n	1000bf10 <recv_validate_datagram+0x90>
1000be86:	6802      	ldr	r2, [r0, #0]
1000be88:	4b31      	ldr	r3, [pc, #196]	@ (1000bf50 <recv_validate_datagram+0xd0>)
1000be8a:	429a      	cmp	r2, r3
1000be8c:	d142      	bne.n	1000bf14 <recv_validate_datagram+0x94>
1000be8e:	291b      	cmp	r1, #27
1000be90:	d942      	bls.n	1000bf18 <recv_validate_datagram+0x98>
1000be92:	8903      	ldrh	r3, [r0, #8]
1000be94:	428b      	cmp	r3, r1
1000be96:	d841      	bhi.n	1000bf1c <recv_validate_datagram+0x9c>
1000be98:	f640 32cc 	movw	r2, #3020	@ 0xbcc
1000be9c:	4293      	cmp	r3, r2
1000be9e:	d83f      	bhi.n	1000bf20 <recv_validate_datagram+0xa0>
1000bea0:	8943      	ldrh	r3, [r0, #10]
1000bea2:	2b03      	cmp	r3, #3
1000bea4:	d93e      	bls.n	1000bf24 <recv_validate_datagram+0xa4>
1000bea6:	f1a1 0210 	sub.w	r2, r1, #16
1000beaa:	4293      	cmp	r3, r2
1000beac:	d83c      	bhi.n	1000bf28 <recv_validate_datagram+0xa8>
1000beae:	b430      	push	{r4, r5}
1000beb0:	18c4      	adds	r4, r0, r3
1000beb2:	88a2      	ldrh	r2, [r4, #4]
1000beb4:	2a0f      	cmp	r2, #15
1000beb6:	d939      	bls.n	1000bf2c <recv_validate_datagram+0xac>
1000beb8:	f850 c003 	ldr.w	ip, [r0, r3]
1000bebc:	4d25      	ldr	r5, [pc, #148]	@ (1000bf54 <recv_validate_datagram+0xd4>)
1000bebe:	45ac      	cmp	ip, r5
1000bec0:	d003      	beq.n	1000beca <recv_validate_datagram+0x4a>
1000bec2:	f105 7580 	add.w	r5, r5, #16777216	@ 0x1000000
1000bec6:	45ac      	cmp	ip, r5
1000bec8:	d133      	bne.n	1000bf32 <recv_validate_datagram+0xb2>
1000beca:	88e4      	ldrh	r4, [r4, #6]
1000becc:	bb9c      	cbnz	r4, 1000bf36 <recv_validate_datagram+0xb6>
1000bece:	3308      	adds	r3, #8
1000bed0:	4418      	add	r0, r3
1000bed2:	f1a2 0308 	sub.w	r3, r2, #8
1000bed6:	f3c3 038f 	ubfx	r3, r3, #2, #16
1000beda:	f103 4380 	add.w	r3, r3, #1073741824	@ 0x40000000
1000bede:	3b01      	subs	r3, #1
1000bee0:	eb00 0283 	add.w	r2, r0, r3, lsl #2
1000bee4:	f830 3023 	ldrh.w	r3, [r0, r3, lsl #2]
1000bee8:	bb3b      	cbnz	r3, 1000bf3a <recv_validate_datagram+0xba>
1000beea:	8853      	ldrh	r3, [r2, #2]
1000beec:	bb3b      	cbnz	r3, 1000bf3e <recv_validate_datagram+0xbe>
1000beee:	2200      	movs	r2, #0
1000bef0:	eb00 0482 	add.w	r4, r0, r2, lsl #2
1000bef4:	f830 3022 	ldrh.w	r3, [r0, r2, lsl #2]
1000bef8:	b33b      	cbz	r3, 1000bf4a <recv_validate_datagram+0xca>
1000befa:	8864      	ldrh	r4, [r4, #2]
1000befc:	b134      	cbz	r4, 1000bf0c <recv_validate_datagram+0x8c>
1000befe:	428b      	cmp	r3, r1
1000bf00:	d81f      	bhi.n	1000bf42 <recv_validate_datagram+0xc2>
1000bf02:	4423      	add	r3, r4
1000bf04:	428b      	cmp	r3, r1
1000bf06:	d81e      	bhi.n	1000bf46 <recv_validate_datagram+0xc6>
1000bf08:	3201      	adds	r2, #1
1000bf0a:	e7f1      	b.n	1000bef0 <recv_validate_datagram+0x70>
1000bf0c:	2001      	movs	r0, #1
1000bf0e:	e00e      	b.n	1000bf2e <recv_validate_datagram+0xae>
1000bf10:	2000      	movs	r0, #0
1000bf12:	4770      	bx	lr
1000bf14:	2000      	movs	r0, #0
1000bf16:	4770      	bx	lr
1000bf18:	2000      	movs	r0, #0
1000bf1a:	4770      	bx	lr
1000bf1c:	2000      	movs	r0, #0
1000bf1e:	4770      	bx	lr
1000bf20:	2000      	movs	r0, #0
1000bf22:	4770      	bx	lr
1000bf24:	2000      	movs	r0, #0
1000bf26:	4770      	bx	lr
1000bf28:	2000      	movs	r0, #0
1000bf2a:	4770      	bx	lr
1000bf2c:	2000      	movs	r0, #0
1000bf2e:	bc30      	pop	{r4, r5}
1000bf30:	4770      	bx	lr
1000bf32:	2000      	movs	r0, #0
1000bf34:	e7fb      	b.n	1000bf2e <recv_validate_datagram+0xae>
1000bf36:	2000      	movs	r0, #0
1000bf38:	e7f9      	b.n	1000bf2e <recv_validate_datagram+0xae>
1000bf3a:	2000      	movs	r0, #0
1000bf3c:	e7f7      	b.n	1000bf2e <recv_validate_datagram+0xae>
1000bf3e:	2000      	movs	r0, #0
1000bf40:	e7f5      	b.n	1000bf2e <recv_validate_datagram+0xae>
1000bf42:	2000      	movs	r0, #0
1000bf44:	e7f3      	b.n	1000bf2e <recv_validate_datagram+0xae>
1000bf46:	2000      	movs	r0, #0
1000bf48:	e7f1      	b.n	1000bf2e <recv_validate_datagram+0xae>
1000bf4a:	2001      	movs	r0, #1
1000bf4c:	e7ef      	b.n	1000bf2e <recv_validate_datagram+0xae>
1000bf4e:	bf00      	nop
1000bf50:	484d434e 	.word	0x484d434e
1000bf54:	304d434e 	.word	0x304d434e

1000bf58 <xmit_setup_next_glue_ntb>:
1000bf58:	b570      	push	{r4, r5, r6, lr}
1000bf5a:	4b1e      	ldr	r3, [pc, #120]	@ (1000bfd4 <xmit_setup_next_glue_ntb+0x7c>)
1000bf5c:	f8d3 07c0 	ldr.w	r0, [r3, #1984]	@ 0x7c0
1000bf60:	b108      	cbz	r0, 1000bf66 <xmit_setup_next_glue_ntb+0xe>
1000bf62:	f7ff ff09 	bl	1000bd78 <xmit_put_ntb_into_ready_list>
1000bf66:	f7ff fef1 	bl	1000bd4c <xmit_get_free_ntb>
1000bf6a:	4b1a      	ldr	r3, [pc, #104]	@ (1000bfd4 <xmit_setup_next_glue_ntb+0x7c>)
1000bf6c:	f8c3 07c0 	str.w	r0, [r3, #1984]	@ 0x7c0
1000bf70:	b370      	cbz	r0, 1000bfd0 <xmit_setup_next_glue_ntb+0x78>
1000bf72:	2100      	movs	r1, #0
1000bf74:	f8a3 17c6 	strh.w	r1, [r3, #1990]	@ 0x7c6
1000bf78:	f04f 0e4e 	mov.w	lr, #78	@ 0x4e
1000bf7c:	f880 e000 	strb.w	lr, [r0]
1000bf80:	f04f 0c43 	mov.w	ip, #67	@ 0x43
1000bf84:	f880 c001 	strb.w	ip, [r0, #1]
1000bf88:	224d      	movs	r2, #77	@ 0x4d
1000bf8a:	7082      	strb	r2, [r0, #2]
1000bf8c:	2448      	movs	r4, #72	@ 0x48
1000bf8e:	70c4      	strb	r4, [r0, #3]
1000bf90:	240c      	movs	r4, #12
1000bf92:	7104      	strb	r4, [r0, #4]
1000bf94:	7141      	strb	r1, [r0, #5]
1000bf96:	f8b3 57c4 	ldrh.w	r5, [r3, #1988]	@ 0x7c4
1000bf9a:	1c6e      	adds	r6, r5, #1
1000bf9c:	f8a3 67c4 	strh.w	r6, [r3, #1988]	@ 0x7c4
1000bfa0:	80c5      	strh	r5, [r0, #6]
1000bfa2:	2338      	movs	r3, #56	@ 0x38
1000bfa4:	7203      	strb	r3, [r0, #8]
1000bfa6:	7241      	strb	r1, [r0, #9]
1000bfa8:	7284      	strb	r4, [r0, #10]
1000bfaa:	72c1      	strb	r1, [r0, #11]
1000bfac:	f880 e00c 	strb.w	lr, [r0, #12]
1000bfb0:	f880 c00d 	strb.w	ip, [r0, #13]
1000bfb4:	7382      	strb	r2, [r0, #14]
1000bfb6:	2330      	movs	r3, #48	@ 0x30
1000bfb8:	73c3      	strb	r3, [r0, #15]
1000bfba:	232c      	movs	r3, #44	@ 0x2c
1000bfbc:	7403      	strb	r3, [r0, #16]
1000bfbe:	7441      	strb	r1, [r0, #17]
1000bfc0:	7481      	strb	r1, [r0, #18]
1000bfc2:	74c1      	strb	r1, [r0, #19]
1000bfc4:	2224      	movs	r2, #36	@ 0x24
1000bfc6:	3014      	adds	r0, #20
1000bfc8:	f000 fc96 	bl	1000c8f8 <memset>
1000bfcc:	2001      	movs	r0, #1
1000bfce:	bd70      	pop	{r4, r5, r6, pc}
1000bfd0:	2000      	movs	r0, #0
1000bfd2:	e7fc      	b.n	1000bfce <xmit_setup_next_glue_ntb+0x76>
1000bfd4:	20004fd4 	.word	0x20004fd4

1000bfd8 <xmit_start_if_possible>:
1000bfd8:	b508      	push	{r3, lr}
1000bfda:	4b18      	ldr	r3, [pc, #96]	@ (1000c03c <xmit_start_if_possible+0x64>)
1000bfdc:	f8d3 37bc 	ldr.w	r3, [r3, #1980]	@ 0x7bc
1000bfe0:	b103      	cbz	r3, 1000bfe4 <xmit_start_if_possible+0xc>
1000bfe2:	bd08      	pop	{r3, pc}
1000bfe4:	4b16      	ldr	r3, [pc, #88]	@ (1000c040 <xmit_start_if_possible+0x68>)
1000bfe6:	791b      	ldrb	r3, [r3, #4]
1000bfe8:	2b01      	cmp	r3, #1
1000bfea:	d1fa      	bne.n	1000bfe2 <xmit_start_if_possible+0xa>
1000bfec:	4b14      	ldr	r3, [pc, #80]	@ (1000c040 <xmit_start_if_possible+0x68>)
1000bfee:	7819      	ldrb	r1, [r3, #0]
1000bff0:	f7ff f9d4 	bl	1000b39c <usbd_edpt_busy>
1000bff4:	2800      	cmp	r0, #0
1000bff6:	d1f4      	bne.n	1000bfe2 <xmit_start_if_possible+0xa>
1000bff8:	f7ff fed2 	bl	1000bda0 <xmit_get_next_ready_ntb>
1000bffc:	4b0f      	ldr	r3, [pc, #60]	@ (1000c03c <xmit_start_if_possible+0x64>)
1000bffe:	f8c3 07bc 	str.w	r0, [r3, #1980]	@ 0x7bc
1000c002:	b150      	cbz	r0, 1000c01a <xmit_start_if_possible+0x42>
1000c004:	490e      	ldr	r1, [pc, #56]	@ (1000c040 <xmit_start_if_possible+0x68>)
1000c006:	f501 5380 	add.w	r3, r1, #4096	@ 0x1000
1000c00a:	f8d3 27bc 	ldr.w	r2, [r3, #1980]	@ 0x7bc
1000c00e:	8913      	ldrh	r3, [r2, #8]
1000c010:	7809      	ldrb	r1, [r1, #0]
1000c012:	2000      	movs	r0, #0
1000c014:	f7ff f97a 	bl	1000b30c <usbd_edpt_xfer>
1000c018:	e7e3      	b.n	1000bfe2 <xmit_start_if_possible+0xa>
1000c01a:	f8d3 37c0 	ldr.w	r3, [r3, #1984]	@ 0x7c0
1000c01e:	2b00      	cmp	r3, #0
1000c020:	d0df      	beq.n	1000bfe2 <xmit_start_if_possible+0xa>
1000c022:	4a06      	ldr	r2, [pc, #24]	@ (1000c03c <xmit_start_if_possible+0x64>)
1000c024:	f8b2 27c6 	ldrh.w	r2, [r2, #1990]	@ 0x7c6
1000c028:	2a00      	cmp	r2, #0
1000c02a:	d0da      	beq.n	1000bfe2 <xmit_start_if_possible+0xa>
1000c02c:	4a03      	ldr	r2, [pc, #12]	@ (1000c03c <xmit_start_if_possible+0x64>)
1000c02e:	f8c2 37bc 	str.w	r3, [r2, #1980]	@ 0x7bc
1000c032:	2300      	movs	r3, #0
1000c034:	f8c2 37c0 	str.w	r3, [r2, #1984]	@ 0x7c0
1000c038:	e7e4      	b.n	1000c004 <xmit_start_if_possible+0x2c>
1000c03a:	bf00      	nop
1000c03c:	20004fd4 	.word	0x20004fd4
1000c040:	20003fd4 	.word	0x20003fd4

1000c044 <recv_try_to_start_new_reception>:
1000c044:	4b15      	ldr	r3, [pc, #84]	@ (1000c09c <recv_try_to_start_new_reception+0x58>)
1000c046:	791b      	ldrb	r3, [r3, #4]
1000c048:	2b01      	cmp	r3, #1
1000c04a:	d126      	bne.n	1000c09a <recv_try_to_start_new_reception+0x56>
1000c04c:	b510      	push	{r4, lr}
1000c04e:	4604      	mov	r4, r0
1000c050:	4b12      	ldr	r3, [pc, #72]	@ (1000c09c <recv_try_to_start_new_reception+0x58>)
1000c052:	f8d3 3bdc 	ldr.w	r3, [r3, #3036]	@ 0xbdc
1000c056:	b103      	cbz	r3, 1000c05a <recv_try_to_start_new_reception+0x16>
1000c058:	bd10      	pop	{r4, pc}
1000c05a:	4b10      	ldr	r3, [pc, #64]	@ (1000c09c <recv_try_to_start_new_reception+0x58>)
1000c05c:	7859      	ldrb	r1, [r3, #1]
1000c05e:	f7ff f99d 	bl	1000b39c <usbd_edpt_busy>
1000c062:	2800      	cmp	r0, #0
1000c064:	d1f8      	bne.n	1000c058 <recv_try_to_start_new_reception+0x14>
1000c066:	f7ff fec3 	bl	1000bdf0 <recv_get_free_ntb>
1000c06a:	4602      	mov	r2, r0
1000c06c:	4b0b      	ldr	r3, [pc, #44]	@ (1000c09c <recv_try_to_start_new_reception+0x58>)
1000c06e:	f8c3 0bdc 	str.w	r0, [r3, #3036]	@ 0xbdc
1000c072:	2800      	cmp	r0, #0
1000c074:	d0f0      	beq.n	1000c058 <recv_try_to_start_new_reception+0x14>
1000c076:	f640 33cc 	movw	r3, #3020	@ 0xbcc
1000c07a:	4908      	ldr	r1, [pc, #32]	@ (1000c09c <recv_try_to_start_new_reception+0x58>)
1000c07c:	7849      	ldrb	r1, [r1, #1]
1000c07e:	4620      	mov	r0, r4
1000c080:	f7ff f944 	bl	1000b30c <usbd_edpt_xfer>
1000c084:	2800      	cmp	r0, #0
1000c086:	d1e7      	bne.n	1000c058 <recv_try_to_start_new_reception+0x14>
1000c088:	4c04      	ldr	r4, [pc, #16]	@ (1000c09c <recv_try_to_start_new_reception+0x58>)
1000c08a:	f8d4 0bdc 	ldr.w	r0, [r4, #3036]	@ 0xbdc
1000c08e:	f7ff fecf 	bl	1000be30 <recv_put_ntb_into_free_list>
1000c092:	2300      	movs	r3, #0
1000c094:	f8c4 3bdc 	str.w	r3, [r4, #3036]	@ 0xbdc
1000c098:	e7de      	b.n	1000c058 <recv_try_to_start_new_reception+0x14>
1000c09a:	4770      	bx	lr
1000c09c:	20003fd4 	.word	0x20003fd4

1000c0a0 <xmit_insert_required_zlp>:
1000c0a0:	2900      	cmp	r1, #0
1000c0a2:	d036      	beq.n	1000c112 <xmit_insert_required_zlp+0x72>
1000c0a4:	b510      	push	{r4, lr}
1000c0a6:	4604      	mov	r4, r0
1000c0a8:	f011 0f3f 	tst.w	r1, #63	@ 0x3f
1000c0ac:	d133      	bne.n	1000c116 <xmit_insert_required_zlp+0x76>
1000c0ae:	4b1b      	ldr	r3, [pc, #108]	@ (1000c11c <xmit_insert_required_zlp+0x7c>)
1000c0b0:	791b      	ldrb	r3, [r3, #4]
1000c0b2:	2b01      	cmp	r3, #1
1000c0b4:	d00f      	beq.n	1000c0d6 <xmit_insert_required_zlp+0x36>
1000c0b6:	f44f 7294 	mov.w	r2, #296	@ 0x128
1000c0ba:	4919      	ldr	r1, [pc, #100]	@ (1000c120 <xmit_insert_required_zlp+0x80>)
1000c0bc:	4819      	ldr	r0, [pc, #100]	@ (1000c124 <xmit_insert_required_zlp+0x84>)
1000c0be:	f7fe fadf 	bl	1000a680 <__wrap_printf>
1000c0c2:	f04f 23e0 	mov.w	r3, #3758153728	@ 0xe000e000
1000c0c6:	f8d3 3df0 	ldr.w	r3, [r3, #3568]	@ 0xdf0
1000c0ca:	f013 0f01 	tst.w	r3, #1
1000c0ce:	d000      	beq.n	1000c0d2 <xmit_insert_required_zlp+0x32>
1000c0d0:	be00      	bkpt	0x0000
1000c0d2:	2000      	movs	r0, #0
1000c0d4:	e020      	b.n	1000c118 <xmit_insert_required_zlp+0x78>
1000c0d6:	4b11      	ldr	r3, [pc, #68]	@ (1000c11c <xmit_insert_required_zlp+0x7c>)
1000c0d8:	7819      	ldrb	r1, [r3, #0]
1000c0da:	f7ff f95f 	bl	1000b39c <usbd_edpt_busy>
1000c0de:	b940      	cbnz	r0, 1000c0f2 <xmit_insert_required_zlp+0x52>
1000c0e0:	2300      	movs	r3, #0
1000c0e2:	461a      	mov	r2, r3
1000c0e4:	490d      	ldr	r1, [pc, #52]	@ (1000c11c <xmit_insert_required_zlp+0x7c>)
1000c0e6:	7809      	ldrb	r1, [r1, #0]
1000c0e8:	4620      	mov	r0, r4
1000c0ea:	f7ff f90f 	bl	1000b30c <usbd_edpt_xfer>
1000c0ee:	2001      	movs	r0, #1
1000c0f0:	e012      	b.n	1000c118 <xmit_insert_required_zlp+0x78>
1000c0f2:	f240 1229 	movw	r2, #297	@ 0x129
1000c0f6:	490a      	ldr	r1, [pc, #40]	@ (1000c120 <xmit_insert_required_zlp+0x80>)
1000c0f8:	480a      	ldr	r0, [pc, #40]	@ (1000c124 <xmit_insert_required_zlp+0x84>)
1000c0fa:	f7fe fac1 	bl	1000a680 <__wrap_printf>
1000c0fe:	f04f 23e0 	mov.w	r3, #3758153728	@ 0xe000e000
1000c102:	f8d3 3df0 	ldr.w	r3, [r3, #3568]	@ 0xdf0
1000c106:	f013 0f01 	tst.w	r3, #1
1000c10a:	d000      	beq.n	1000c10e <xmit_insert_required_zlp+0x6e>
1000c10c:	be00      	bkpt	0x0000
1000c10e:	2000      	movs	r0, #0
1000c110:	e002      	b.n	1000c118 <xmit_insert_required_zlp+0x78>
1000c112:	2000      	movs	r0, #0
1000c114:	4770      	bx	lr
1000c116:	2000      	movs	r0, #0
1000c118:	bd10      	pop	{r4, pc}
1000c11a:	bf00      	nop
1000c11c:	20003fd4 	.word	0x20003fd4
1000c120:	1000f0c4 	.word	0x1000f0c4
1000c124:	1000d74c 	.word	0x1000d74c

1000c128 <notification_xmit>:
1000c128:	b919      	cbnz	r1, 1000c132 <notification_xmit+0xa>
1000c12a:	4b17      	ldr	r3, [pc, #92]	@ (1000c188 <notification_xmit+0x60>)
1000c12c:	f893 37c9 	ldrb.w	r3, [r3, #1993]	@ 0x7c9
1000c130:	bb43      	cbnz	r3, 1000c184 <notification_xmit+0x5c>
1000c132:	b510      	push	{r4, lr}
1000c134:	4b14      	ldr	r3, [pc, #80]	@ (1000c188 <notification_xmit+0x60>)
1000c136:	f893 37c8 	ldrb.w	r3, [r3, #1992]	@ 0x7c8
1000c13a:	b113      	cbz	r3, 1000c142 <notification_xmit+0x1a>
1000c13c:	2b01      	cmp	r3, #1
1000c13e:	d010      	beq.n	1000c162 <notification_xmit+0x3a>
1000c140:	bd10      	pop	{r4, pc}
1000c142:	4c12      	ldr	r4, [pc, #72]	@ (1000c18c <notification_xmit+0x64>)
1000c144:	78e3      	ldrb	r3, [r4, #3]
1000c146:	4a12      	ldr	r2, [pc, #72]	@ (1000c190 <notification_xmit+0x68>)
1000c148:	8093      	strh	r3, [r2, #4]
1000c14a:	2310      	movs	r3, #16
1000c14c:	78a1      	ldrb	r1, [r4, #2]
1000c14e:	f7ff f8dd 	bl	1000b30c <usbd_edpt_xfer>
1000c152:	f504 5480 	add.w	r4, r4, #4096	@ 0x1000
1000c156:	2301      	movs	r3, #1
1000c158:	f884 37c8 	strb.w	r3, [r4, #1992]	@ 0x7c8
1000c15c:	f884 37c9 	strb.w	r3, [r4, #1993]	@ 0x7c9
1000c160:	e7ee      	b.n	1000c140 <notification_xmit+0x18>
1000c162:	4c0a      	ldr	r4, [pc, #40]	@ (1000c18c <notification_xmit+0x64>)
1000c164:	78e3      	ldrb	r3, [r4, #3]
1000c166:	4a0b      	ldr	r2, [pc, #44]	@ (1000c194 <notification_xmit+0x6c>)
1000c168:	8093      	strh	r3, [r2, #4]
1000c16a:	2310      	movs	r3, #16
1000c16c:	78a1      	ldrb	r1, [r4, #2]
1000c16e:	f7ff f8cd 	bl	1000b30c <usbd_edpt_xfer>
1000c172:	f504 5480 	add.w	r4, r4, #4096	@ 0x1000
1000c176:	2302      	movs	r3, #2
1000c178:	f884 37c8 	strb.w	r3, [r4, #1992]	@ 0x7c8
1000c17c:	2301      	movs	r3, #1
1000c17e:	f884 37c9 	strb.w	r3, [r4, #1993]	@ 0x7c9
1000c182:	e7dd      	b.n	1000c140 <notification_xmit+0x18>
1000c184:	4770      	bx	lr
1000c186:	bf00      	nop
1000c188:	20004fd4 	.word	0x20004fd4
1000c18c:	20003fd4 	.word	0x20003fd4
1000c190:	20000e78 	.word	0x20000e78
1000c194:	20000e88 	.word	0x20000e88

1000c198 <recv_transfer_datagram_to_glue_logic>:
1000c198:	b510      	push	{r4, lr}
1000c19a:	4b1e      	ldr	r3, [pc, #120]	@ (1000c214 <recv_transfer_datagram_to_glue_logic+0x7c>)
1000c19c:	f8d3 3be0 	ldr.w	r3, [r3, #3040]	@ 0xbe0
1000c1a0:	b18b      	cbz	r3, 1000c1c6 <recv_transfer_datagram_to_glue_logic+0x2e>
1000c1a2:	4b1c      	ldr	r3, [pc, #112]	@ (1000c214 <recv_transfer_datagram_to_glue_logic+0x7c>)
1000c1a4:	f8d3 3be0 	ldr.w	r3, [r3, #3040]	@ 0xbe0
1000c1a8:	b163      	cbz	r3, 1000c1c4 <recv_transfer_datagram_to_glue_logic+0x2c>
1000c1aa:	895c      	ldrh	r4, [r3, #10]
1000c1ac:	3408      	adds	r4, #8
1000c1ae:	441c      	add	r4, r3
1000c1b0:	4a18      	ldr	r2, [pc, #96]	@ (1000c214 <recv_transfer_datagram_to_glue_logic+0x7c>)
1000c1b2:	f8b2 2be4 	ldrh.w	r2, [r2, #3044]	@ 0xbe4
1000c1b6:	eb04 0182 	add.w	r1, r4, r2, lsl #2
1000c1ba:	f834 0022 	ldrh.w	r0, [r4, r2, lsl #2]
1000c1be:	b108      	cbz	r0, 1000c1c4 <recv_transfer_datagram_to_glue_logic+0x2c>
1000c1c0:	8849      	ldrh	r1, [r1, #2]
1000c1c2:	b949      	cbnz	r1, 1000c1d8 <recv_transfer_datagram_to_glue_logic+0x40>
1000c1c4:	bd10      	pop	{r4, pc}
1000c1c6:	f7ff fe29 	bl	1000be1c <recv_get_next_ready_ntb>
1000c1ca:	4b12      	ldr	r3, [pc, #72]	@ (1000c214 <recv_transfer_datagram_to_glue_logic+0x7c>)
1000c1cc:	f8c3 0be0 	str.w	r0, [r3, #3040]	@ 0xbe0
1000c1d0:	2200      	movs	r2, #0
1000c1d2:	f8a3 2be4 	strh.w	r2, [r3, #3044]	@ 0xbe4
1000c1d6:	e7e4      	b.n	1000c1a2 <recv_transfer_datagram_to_glue_logic+0xa>
1000c1d8:	4418      	add	r0, r3
1000c1da:	f7f4 f8d7 	bl	1000038c <tud_network_recv_cb>
1000c1de:	2800      	cmp	r0, #0
1000c1e0:	d0f0      	beq.n	1000c1c4 <recv_transfer_datagram_to_glue_logic+0x2c>
1000c1e2:	4b0c      	ldr	r3, [pc, #48]	@ (1000c214 <recv_transfer_datagram_to_glue_logic+0x7c>)
1000c1e4:	f8b3 3be4 	ldrh.w	r3, [r3, #3044]	@ 0xbe4
1000c1e8:	1c5a      	adds	r2, r3, #1
1000c1ea:	eb04 0182 	add.w	r1, r4, r2, lsl #2
1000c1ee:	f834 2022 	ldrh.w	r2, [r4, r2, lsl #2]
1000c1f2:	8849      	ldrh	r1, [r1, #2]
1000c1f4:	b12a      	cbz	r2, 1000c202 <recv_transfer_datagram_to_glue_logic+0x6a>
1000c1f6:	b121      	cbz	r1, 1000c202 <recv_transfer_datagram_to_glue_logic+0x6a>
1000c1f8:	3301      	adds	r3, #1
1000c1fa:	4a06      	ldr	r2, [pc, #24]	@ (1000c214 <recv_transfer_datagram_to_glue_logic+0x7c>)
1000c1fc:	f8a2 3be4 	strh.w	r3, [r2, #3044]	@ 0xbe4
1000c200:	e7e0      	b.n	1000c1c4 <recv_transfer_datagram_to_glue_logic+0x2c>
1000c202:	4c04      	ldr	r4, [pc, #16]	@ (1000c214 <recv_transfer_datagram_to_glue_logic+0x7c>)
1000c204:	f8d4 0be0 	ldr.w	r0, [r4, #3040]	@ 0xbe0
1000c208:	f7ff fe12 	bl	1000be30 <recv_put_ntb_into_free_list>
1000c20c:	2300      	movs	r3, #0
1000c20e:	f8c4 3be0 	str.w	r3, [r4, #3040]	@ 0xbe0
1000c212:	e7d7      	b.n	1000c1c4 <recv_transfer_datagram_to_glue_logic+0x2c>
1000c214:	20003fd4 	.word	0x20003fd4

1000c218 <tud_network_can_xmit>:
1000c218:	b510      	push	{r4, lr}
1000c21a:	f5b0 6f3b 	cmp.w	r0, #2992	@ 0xbb0
1000c21e:	d805      	bhi.n	1000c22c <tud_network_can_xmit+0x14>
1000c220:	f7ff fdc8 	bl	1000bdb4 <xmit_requested_datagram_fits_into_current_ntb>
1000c224:	b190      	cbz	r0, 1000c24c <tud_network_can_xmit+0x34>
1000c226:	2401      	movs	r4, #1
1000c228:	4620      	mov	r0, r4
1000c22a:	bd10      	pop	{r4, pc}
1000c22c:	f240 2287 	movw	r2, #647	@ 0x287
1000c230:	490b      	ldr	r1, [pc, #44]	@ (1000c260 <tud_network_can_xmit+0x48>)
1000c232:	480c      	ldr	r0, [pc, #48]	@ (1000c264 <tud_network_can_xmit+0x4c>)
1000c234:	f7fe fa24 	bl	1000a680 <__wrap_printf>
1000c238:	f04f 23e0 	mov.w	r3, #3758153728	@ 0xe000e000
1000c23c:	f8d3 3df0 	ldr.w	r3, [r3, #3568]	@ 0xdf0
1000c240:	f013 0f01 	tst.w	r3, #1
1000c244:	d000      	beq.n	1000c248 <tud_network_can_xmit+0x30>
1000c246:	be00      	bkpt	0x0000
1000c248:	2400      	movs	r4, #0
1000c24a:	e7ed      	b.n	1000c228 <tud_network_can_xmit+0x10>
1000c24c:	f7ff fe84 	bl	1000bf58 <xmit_setup_next_glue_ntb>
1000c250:	4604      	mov	r4, r0
1000c252:	2800      	cmp	r0, #0
1000c254:	d1e7      	bne.n	1000c226 <tud_network_can_xmit+0xe>
1000c256:	4b04      	ldr	r3, [pc, #16]	@ (1000c268 <tud_network_can_xmit+0x50>)
1000c258:	7958      	ldrb	r0, [r3, #5]
1000c25a:	f7ff febd 	bl	1000bfd8 <xmit_start_if_possible>
1000c25e:	e7e3      	b.n	1000c228 <tud_network_can_xmit+0x10>
1000c260:	1000f0ec 	.word	0x1000f0ec
1000c264:	1000d74c 	.word	0x1000d74c
1000c268:	20003fd4 	.word	0x20003fd4

1000c26c <tud_network_xmit>:
1000c26c:	b510      	push	{r4, lr}
1000c26e:	4b18      	ldr	r3, [pc, #96]	@ (1000c2d0 <tud_network_xmit+0x64>)
1000c270:	f8d3 47c0 	ldr.w	r4, [r3, #1984]	@ 0x7c0
1000c274:	b32c      	cbz	r4, 1000c2c2 <tud_network_xmit+0x56>
1000c276:	460a      	mov	r2, r1
1000c278:	8923      	ldrh	r3, [r4, #8]
1000c27a:	4601      	mov	r1, r0
1000c27c:	18e0      	adds	r0, r4, r3
1000c27e:	f7f4 f8a5 	bl	100003cc <tud_network_xmit_cb>
1000c282:	4a13      	ldr	r2, [pc, #76]	@ (1000c2d0 <tud_network_xmit+0x64>)
1000c284:	f8b2 37c6 	ldrh.w	r3, [r2, #1990]	@ 0x7c6
1000c288:	8921      	ldrh	r1, [r4, #8]
1000c28a:	3304      	adds	r3, #4
1000c28c:	eb04 0383 	add.w	r3, r4, r3, lsl #2
1000c290:	8099      	strh	r1, [r3, #4]
1000c292:	f8b2 37c6 	ldrh.w	r3, [r2, #1990]	@ 0x7c6
1000c296:	3304      	adds	r3, #4
1000c298:	eb04 0383 	add.w	r3, r4, r3, lsl #2
1000c29c:	80d8      	strh	r0, [r3, #6]
1000c29e:	f8b2 37c6 	ldrh.w	r3, [r2, #1990]	@ 0x7c6
1000c2a2:	3301      	adds	r3, #1
1000c2a4:	f8a2 37c6 	strh.w	r3, [r2, #1990]	@ 0x7c6
1000c2a8:	8922      	ldrh	r2, [r4, #8]
1000c2aa:	4243      	negs	r3, r0
1000c2ac:	f003 0303 	and.w	r3, r3, #3
1000c2b0:	4418      	add	r0, r3
1000c2b2:	fa12 f080 	uxtah	r0, r2, r0
1000c2b6:	b282      	uxth	r2, r0
1000c2b8:	8120      	strh	r0, [r4, #8]
1000c2ba:	f640 33cc 	movw	r3, #3020	@ 0xbcc
1000c2be:	429a      	cmp	r2, r3
1000c2c0:	d900      	bls.n	1000c2c4 <tud_network_xmit+0x58>
1000c2c2:	bd10      	pop	{r4, pc}
1000c2c4:	4b03      	ldr	r3, [pc, #12]	@ (1000c2d4 <tud_network_xmit+0x68>)
1000c2c6:	7958      	ldrb	r0, [r3, #5]
1000c2c8:	f7ff fe86 	bl	1000bfd8 <xmit_start_if_possible>
1000c2cc:	e7f9      	b.n	1000c2c2 <tud_network_xmit+0x56>
1000c2ce:	bf00      	nop
1000c2d0:	20004fd4 	.word	0x20004fd4
1000c2d4:	20003fd4 	.word	0x20003fd4

1000c2d8 <tud_network_recv_renew>:
1000c2d8:	b508      	push	{r3, lr}
1000c2da:	f7ff ff5d 	bl	1000c198 <recv_transfer_datagram_to_glue_logic>
1000c2de:	4b02      	ldr	r3, [pc, #8]	@ (1000c2e8 <tud_network_recv_renew+0x10>)
1000c2e0:	7958      	ldrb	r0, [r3, #5]
1000c2e2:	f7ff feaf 	bl	1000c044 <recv_try_to_start_new_reception>
1000c2e6:	bd08      	pop	{r3, pc}
1000c2e8:	20003fd4 	.word	0x20003fd4

1000c2ec <tud_network_recv_renew_r>:
1000c2ec:	b508      	push	{r3, lr}
1000c2ee:	4b02      	ldr	r3, [pc, #8]	@ (1000c2f8 <tud_network_recv_renew_r+0xc>)
1000c2f0:	7158      	strb	r0, [r3, #5]
1000c2f2:	f7ff fff1 	bl	1000c2d8 <tud_network_recv_renew>
1000c2f6:	bd08      	pop	{r3, pc}
1000c2f8:	20003fd4 	.word	0x20003fd4

1000c2fc <netd_init>:
1000c2fc:	b508      	push	{r3, lr}
1000c2fe:	f241 72cc 	movw	r2, #6092	@ 0x17cc
1000c302:	2100      	movs	r1, #0
1000c304:	4812      	ldr	r0, [pc, #72]	@ (1000c350 <netd_init+0x54>)
1000c306:	f000 faf7 	bl	1000c8f8 <memset>
1000c30a:	2200      	movs	r2, #0
1000c30c:	e00c      	b.n	1000c328 <netd_init+0x2c>
1000c30e:	4b11      	ldr	r3, [pc, #68]	@ (1000c354 <netd_init+0x58>)
1000c310:	f640 31cc 	movw	r1, #3020	@ 0xbcc
1000c314:	fb01 3102 	mla	r1, r1, r2, r3
1000c318:	f6a3 33e8 	subw	r3, r3, #3048	@ 0xbe8
1000c31c:	f202 50ec 	addw	r0, r2, #1516	@ 0x5ec
1000c320:	eb03 0380 	add.w	r3, r3, r0, lsl #2
1000c324:	6059      	str	r1, [r3, #4]
1000c326:	3201      	adds	r2, #1
1000c328:	2a00      	cmp	r2, #0
1000c32a:	ddf0      	ble.n	1000c30e <netd_init+0x12>
1000c32c:	2300      	movs	r3, #0
1000c32e:	2b00      	cmp	r3, #0
1000c330:	dd00      	ble.n	1000c334 <netd_init+0x38>
1000c332:	bd08      	pop	{r3, pc}
1000c334:	4a08      	ldr	r2, [pc, #32]	@ (1000c358 <netd_init+0x5c>)
1000c336:	f640 31cc 	movw	r1, #3020	@ 0xbcc
1000c33a:	fb01 2103 	mla	r1, r1, r3, r2
1000c33e:	3a08      	subs	r2, #8
1000c340:	f503 703d 	add.w	r0, r3, #756	@ 0x2f4
1000c344:	eb02 0280 	add.w	r2, r2, r0, lsl #2
1000c348:	6051      	str	r1, [r2, #4]
1000c34a:	3301      	adds	r3, #1
1000c34c:	e7ef      	b.n	1000c32e <netd_init+0x32>
1000c34e:	bf00      	nop
1000c350:	20003fd4 	.word	0x20003fd4
1000c354:	20004bbc 	.word	0x20004bbc
1000c358:	20003fdc 	.word	0x20003fdc

1000c35c <netd_deinit>:
1000c35c:	2001      	movs	r0, #1
1000c35e:	4770      	bx	lr

1000c360 <netd_reset>:
1000c360:	b508      	push	{r3, lr}
1000c362:	f7ff ffcb 	bl	1000c2fc <netd_init>
1000c366:	bd08      	pop	{r3, pc}

1000c368 <netd_open>:
1000c368:	b5f0      	push	{r4, r5, r6, r7, lr}
1000c36a:	b083      	sub	sp, #12
1000c36c:	4b4f      	ldr	r3, [pc, #316]	@ (1000c4ac <netd_open+0x144>)
1000c36e:	789b      	ldrb	r3, [r3, #2]
1000c370:	b943      	cbnz	r3, 1000c384 <netd_open+0x1c>
1000c372:	4606      	mov	r6, r0
1000c374:	4615      	mov	r5, r2
1000c376:	788a      	ldrb	r2, [r1, #2]
1000c378:	4b4c      	ldr	r3, [pc, #304]	@ (1000c4ac <netd_open+0x144>)
1000c37a:	70da      	strb	r2, [r3, #3]
1000c37c:	780b      	ldrb	r3, [r1, #0]
1000c37e:	18cf      	adds	r7, r1, r3
1000c380:	2409      	movs	r4, #9
1000c382:	e013      	b.n	1000c3ac <netd_open+0x44>
1000c384:	f240 22fb 	movw	r2, #763	@ 0x2fb
1000c388:	4949      	ldr	r1, [pc, #292]	@ (1000c4b0 <netd_open+0x148>)
1000c38a:	484a      	ldr	r0, [pc, #296]	@ (1000c4b4 <netd_open+0x14c>)
1000c38c:	f7fe f978 	bl	1000a680 <__wrap_printf>
1000c390:	f04f 23e0 	mov.w	r3, #3758153728	@ 0xe000e000
1000c394:	f8d3 3df0 	ldr.w	r3, [r3, #3568]	@ 0xdf0
1000c398:	f013 0f01 	tst.w	r3, #1
1000c39c:	d000      	beq.n	1000c3a0 <netd_open+0x38>
1000c39e:	be00      	bkpt	0x0000
1000c3a0:	2000      	movs	r0, #0
1000c3a2:	e019      	b.n	1000c3d8 <netd_open+0x70>
1000c3a4:	783b      	ldrb	r3, [r7, #0]
1000c3a6:	441c      	add	r4, r3
1000c3a8:	b2a4      	uxth	r4, r4
1000c3aa:	441f      	add	r7, r3
1000c3ac:	787b      	ldrb	r3, [r7, #1]
1000c3ae:	2b24      	cmp	r3, #36	@ 0x24
1000c3b0:	d101      	bne.n	1000c3b6 <netd_open+0x4e>
1000c3b2:	42ac      	cmp	r4, r5
1000c3b4:	d9f6      	bls.n	1000c3a4 <netd_open+0x3c>
1000c3b6:	2b05      	cmp	r3, #5
1000c3b8:	d010      	beq.n	1000c3dc <netd_open+0x74>
1000c3ba:	f44f 7242 	mov.w	r2, #776	@ 0x308
1000c3be:	493c      	ldr	r1, [pc, #240]	@ (1000c4b0 <netd_open+0x148>)
1000c3c0:	483c      	ldr	r0, [pc, #240]	@ (1000c4b4 <netd_open+0x14c>)
1000c3c2:	f7fe f95d 	bl	1000a680 <__wrap_printf>
1000c3c6:	f04f 23e0 	mov.w	r3, #3758153728	@ 0xe000e000
1000c3ca:	f8d3 3df0 	ldr.w	r3, [r3, #3568]	@ 0xdf0
1000c3ce:	f013 0f01 	tst.w	r3, #1
1000c3d2:	d000      	beq.n	1000c3d6 <netd_open+0x6e>
1000c3d4:	be00      	bkpt	0x0000
1000c3d6:	2000      	movs	r0, #0
1000c3d8:	b003      	add	sp, #12
1000c3da:	bdf0      	pop	{r4, r5, r6, r7, pc}
1000c3dc:	4639      	mov	r1, r7
1000c3de:	4630      	mov	r0, r6
1000c3e0:	f7fe ff04 	bl	1000b1ec <usbd_edpt_open>
1000c3e4:	b198      	cbz	r0, 1000c40e <netd_open+0xa6>
1000c3e6:	78ba      	ldrb	r2, [r7, #2]
1000c3e8:	4b30      	ldr	r3, [pc, #192]	@ (1000c4ac <netd_open+0x144>)
1000c3ea:	709a      	strb	r2, [r3, #2]
1000c3ec:	783b      	ldrb	r3, [r7, #0]
1000c3ee:	441c      	add	r4, r3
1000c3f0:	b2a4      	uxth	r4, r4
1000c3f2:	18f9      	adds	r1, r7, r3
1000c3f4:	784b      	ldrb	r3, [r1, #1]
1000c3f6:	2b04      	cmp	r3, #4
1000c3f8:	d129      	bne.n	1000c44e <netd_open+0xe6>
1000c3fa:	42ac      	cmp	r4, r5
1000c3fc:	d827      	bhi.n	1000c44e <netd_open+0xe6>
1000c3fe:	794b      	ldrb	r3, [r1, #5]
1000c400:	2b0a      	cmp	r3, #10
1000c402:	d114      	bne.n	1000c42e <netd_open+0xc6>
1000c404:	780b      	ldrb	r3, [r1, #0]
1000c406:	441c      	add	r4, r3
1000c408:	b2a4      	uxth	r4, r4
1000c40a:	4419      	add	r1, r3
1000c40c:	e7f2      	b.n	1000c3f4 <netd_open+0x8c>
1000c40e:	f240 3209 	movw	r2, #777	@ 0x309
1000c412:	4927      	ldr	r1, [pc, #156]	@ (1000c4b0 <netd_open+0x148>)
1000c414:	4827      	ldr	r0, [pc, #156]	@ (1000c4b4 <netd_open+0x14c>)
1000c416:	f7fe f933 	bl	1000a680 <__wrap_printf>
1000c41a:	f04f 23e0 	mov.w	r3, #3758153728	@ 0xe000e000
1000c41e:	f8d3 3df0 	ldr.w	r3, [r3, #3568]	@ 0xdf0
1000c422:	f013 0f01 	tst.w	r3, #1
1000c426:	d000      	beq.n	1000c42a <netd_open+0xc2>
1000c428:	be00      	bkpt	0x0000
1000c42a:	2000      	movs	r0, #0
1000c42c:	e7d4      	b.n	1000c3d8 <netd_open+0x70>
1000c42e:	f240 3211 	movw	r2, #785	@ 0x311
1000c432:	491f      	ldr	r1, [pc, #124]	@ (1000c4b0 <netd_open+0x148>)
1000c434:	481f      	ldr	r0, [pc, #124]	@ (1000c4b4 <netd_open+0x14c>)
1000c436:	f7fe f923 	bl	1000a680 <__wrap_printf>
1000c43a:	f04f 23e0 	mov.w	r3, #3758153728	@ 0xe000e000
1000c43e:	f8d3 3df0 	ldr.w	r3, [r3, #3568]	@ 0xdf0
1000c442:	f013 0f01 	tst.w	r3, #1
1000c446:	d000      	beq.n	1000c44a <netd_open+0xe2>
1000c448:	be00      	bkpt	0x0000
1000c44a:	2000      	movs	r0, #0
1000c44c:	e7c4      	b.n	1000c3d8 <netd_open+0x70>
1000c44e:	2b05      	cmp	r3, #5
1000c450:	d00f      	beq.n	1000c472 <netd_open+0x10a>
1000c452:	f44f 7246 	mov.w	r2, #792	@ 0x318
1000c456:	4916      	ldr	r1, [pc, #88]	@ (1000c4b0 <netd_open+0x148>)
1000c458:	4816      	ldr	r0, [pc, #88]	@ (1000c4b4 <netd_open+0x14c>)
1000c45a:	f7fe f911 	bl	1000a680 <__wrap_printf>
1000c45e:	f04f 23e0 	mov.w	r3, #3758153728	@ 0xe000e000
1000c462:	f8d3 3df0 	ldr.w	r3, [r3, #3568]	@ 0xdf0
1000c466:	f013 0f01 	tst.w	r3, #1
1000c46a:	d000      	beq.n	1000c46e <netd_open+0x106>
1000c46c:	be00      	bkpt	0x0000
1000c46e:	2000      	movs	r0, #0
1000c470:	e7b2      	b.n	1000c3d8 <netd_open+0x70>
1000c472:	4b0e      	ldr	r3, [pc, #56]	@ (1000c4ac <netd_open+0x144>)
1000c474:	9301      	str	r3, [sp, #4]
1000c476:	3301      	adds	r3, #1
1000c478:	9300      	str	r3, [sp, #0]
1000c47a:	2302      	movs	r3, #2
1000c47c:	461a      	mov	r2, r3
1000c47e:	4630      	mov	r0, r6
1000c480:	f7fe fef2 	bl	1000b268 <usbd_open_edpt_pair>
1000c484:	b110      	cbz	r0, 1000c48c <netd_open+0x124>
1000c486:	340e      	adds	r4, #14
1000c488:	b2a0      	uxth	r0, r4
1000c48a:	e7a5      	b.n	1000c3d8 <netd_open+0x70>
1000c48c:	f240 3219 	movw	r2, #793	@ 0x319
1000c490:	4907      	ldr	r1, [pc, #28]	@ (1000c4b0 <netd_open+0x148>)
1000c492:	4808      	ldr	r0, [pc, #32]	@ (1000c4b4 <netd_open+0x14c>)
1000c494:	f7fe f8f4 	bl	1000a680 <__wrap_printf>
1000c498:	f04f 23e0 	mov.w	r3, #3758153728	@ 0xe000e000
1000c49c:	f8d3 3df0 	ldr.w	r3, [r3, #3568]	@ 0xdf0
1000c4a0:	f013 0f01 	tst.w	r3, #1
1000c4a4:	d000      	beq.n	1000c4a8 <netd_open+0x140>
1000c4a6:	be00      	bkpt	0x0000
1000c4a8:	2000      	movs	r0, #0
1000c4aa:	e795      	b.n	1000c3d8 <netd_open+0x70>
1000c4ac:	20003fd4 	.word	0x20003fd4
1000c4b0:	1000f0e0 	.word	0x1000f0e0
1000c4b4:	1000d74c 	.word	0x1000d74c

1000c4b8 <netd_xfer_cb>:
1000c4b8:	b570      	push	{r4, r5, r6, lr}
1000c4ba:	4605      	mov	r5, r0
1000c4bc:	461c      	mov	r4, r3
1000c4be:	4a1c      	ldr	r2, [pc, #112]	@ (1000c530 <netd_xfer_cb+0x78>)
1000c4c0:	7852      	ldrb	r2, [r2, #1]
1000c4c2:	428a      	cmp	r2, r1
1000c4c4:	d009      	beq.n	1000c4da <netd_xfer_cb+0x22>
1000c4c6:	4b1a      	ldr	r3, [pc, #104]	@ (1000c530 <netd_xfer_cb+0x78>)
1000c4c8:	781b      	ldrb	r3, [r3, #0]
1000c4ca:	428b      	cmp	r3, r1
1000c4cc:	d019      	beq.n	1000c502 <netd_xfer_cb+0x4a>
1000c4ce:	4b18      	ldr	r3, [pc, #96]	@ (1000c530 <netd_xfer_cb+0x78>)
1000c4d0:	789b      	ldrb	r3, [r3, #2]
1000c4d2:	428b      	cmp	r3, r1
1000c4d4:	d027      	beq.n	1000c526 <netd_xfer_cb+0x6e>
1000c4d6:	2001      	movs	r0, #1
1000c4d8:	bd70      	pop	{r4, r5, r6, pc}
1000c4da:	4b15      	ldr	r3, [pc, #84]	@ (1000c530 <netd_xfer_cb+0x78>)
1000c4dc:	f8d3 6bdc 	ldr.w	r6, [r3, #3036]	@ 0xbdc
1000c4e0:	4621      	mov	r1, r4
1000c4e2:	4630      	mov	r0, r6
1000c4e4:	f7ff fccc 	bl	1000be80 <recv_validate_datagram>
1000c4e8:	b938      	cbnz	r0, 1000c4fa <netd_xfer_cb+0x42>
1000c4ea:	4b11      	ldr	r3, [pc, #68]	@ (1000c530 <netd_xfer_cb+0x78>)
1000c4ec:	2200      	movs	r2, #0
1000c4ee:	f8c3 2bdc 	str.w	r2, [r3, #3036]	@ 0xbdc
1000c4f2:	4628      	mov	r0, r5
1000c4f4:	f7ff fefa 	bl	1000c2ec <tud_network_recv_renew_r>
1000c4f8:	e7ed      	b.n	1000c4d6 <netd_xfer_cb+0x1e>
1000c4fa:	4630      	mov	r0, r6
1000c4fc:	f7ff fcac 	bl	1000be58 <recv_put_ntb_into_ready_list>
1000c500:	e7f3      	b.n	1000c4ea <netd_xfer_cb+0x32>
1000c502:	4e0c      	ldr	r6, [pc, #48]	@ (1000c534 <netd_xfer_cb+0x7c>)
1000c504:	f8d6 07bc 	ldr.w	r0, [r6, #1980]	@ 0x7bc
1000c508:	f7ff fc06 	bl	1000bd18 <xmit_put_ntb_into_free_list>
1000c50c:	2300      	movs	r3, #0
1000c50e:	f8c6 37bc 	str.w	r3, [r6, #1980]	@ 0x7bc
1000c512:	4621      	mov	r1, r4
1000c514:	4628      	mov	r0, r5
1000c516:	f7ff fdc3 	bl	1000c0a0 <xmit_insert_required_zlp>
1000c51a:	2800      	cmp	r0, #0
1000c51c:	d1db      	bne.n	1000c4d6 <netd_xfer_cb+0x1e>
1000c51e:	4628      	mov	r0, r5
1000c520:	f7ff fd5a 	bl	1000bfd8 <xmit_start_if_possible>
1000c524:	e7d7      	b.n	1000c4d6 <netd_xfer_cb+0x1e>
1000c526:	2101      	movs	r1, #1
1000c528:	f7ff fdfe 	bl	1000c128 <notification_xmit>
1000c52c:	e7d3      	b.n	1000c4d6 <netd_xfer_cb+0x1e>
1000c52e:	bf00      	nop
1000c530:	20003fd4 	.word	0x20003fd4
1000c534:	20004fd4 	.word	0x20004fd4

1000c538 <netd_control_xfer_cb>:
1000c538:	2901      	cmp	r1, #1
1000c53a:	d14e      	bne.n	1000c5da <netd_control_xfer_cb+0xa2>
1000c53c:	b538      	push	{r3, r4, r5, lr}
1000c53e:	4605      	mov	r5, r0
1000c540:	4614      	mov	r4, r2
1000c542:	7813      	ldrb	r3, [r2, #0]
1000c544:	f3c3 1241 	ubfx	r2, r3, #5, #2
1000c548:	f013 0f60 	tst.w	r3, #96	@ 0x60
1000c54c:	d003      	beq.n	1000c556 <netd_control_xfer_cb+0x1e>
1000c54e:	2a01      	cmp	r2, #1
1000c550:	d032      	beq.n	1000c5b8 <netd_control_xfer_cb+0x80>
1000c552:	2000      	movs	r0, #0
1000c554:	bd38      	pop	{r3, r4, r5, pc}
1000c556:	7863      	ldrb	r3, [r4, #1]
1000c558:	2b0a      	cmp	r3, #10
1000c55a:	d003      	beq.n	1000c564 <netd_control_xfer_cb+0x2c>
1000c55c:	2b0b      	cmp	r3, #11
1000c55e:	d010      	beq.n	1000c582 <netd_control_xfer_cb+0x4a>
1000c560:	2000      	movs	r0, #0
1000c562:	e7f7      	b.n	1000c554 <netd_control_xfer_cb+0x1c>
1000c564:	4b21      	ldr	r3, [pc, #132]	@ (1000c5ec <netd_control_xfer_cb+0xb4>)
1000c566:	78db      	ldrb	r3, [r3, #3]
1000c568:	3301      	adds	r3, #1
1000c56a:	88a2      	ldrh	r2, [r4, #4]
1000c56c:	4293      	cmp	r3, r2
1000c56e:	d001      	beq.n	1000c574 <netd_control_xfer_cb+0x3c>
1000c570:	2000      	movs	r0, #0
1000c572:	e7ef      	b.n	1000c554 <netd_control_xfer_cb+0x1c>
1000c574:	2301      	movs	r3, #1
1000c576:	4a1e      	ldr	r2, [pc, #120]	@ (1000c5f0 <netd_control_xfer_cb+0xb8>)
1000c578:	4621      	mov	r1, r4
1000c57a:	f7ff fad3 	bl	1000bb24 <tud_control_xfer>
1000c57e:	2001      	movs	r0, #1
1000c580:	e7e8      	b.n	1000c554 <netd_control_xfer_cb+0x1c>
1000c582:	4b1a      	ldr	r3, [pc, #104]	@ (1000c5ec <netd_control_xfer_cb+0xb4>)
1000c584:	78db      	ldrb	r3, [r3, #3]
1000c586:	3301      	adds	r3, #1
1000c588:	88a2      	ldrh	r2, [r4, #4]
1000c58a:	4293      	cmp	r3, r2
1000c58c:	d127      	bne.n	1000c5de <netd_control_xfer_cb+0xa6>
1000c58e:	8863      	ldrh	r3, [r4, #2]
1000c590:	2b01      	cmp	r3, #1
1000c592:	d826      	bhi.n	1000c5e2 <netd_control_xfer_cb+0xaa>
1000c594:	b2db      	uxtb	r3, r3
1000c596:	4a15      	ldr	r2, [pc, #84]	@ (1000c5ec <netd_control_xfer_cb+0xb4>)
1000c598:	7113      	strb	r3, [r2, #4]
1000c59a:	2b01      	cmp	r3, #1
1000c59c:	d005      	beq.n	1000c5aa <netd_control_xfer_cb+0x72>
1000c59e:	4621      	mov	r1, r4
1000c5a0:	4628      	mov	r0, r5
1000c5a2:	f7ff faab 	bl	1000bafc <tud_control_status>
1000c5a6:	2001      	movs	r0, #1
1000c5a8:	e7d4      	b.n	1000c554 <netd_control_xfer_cb+0x1c>
1000c5aa:	f7ff fe9f 	bl	1000c2ec <tud_network_recv_renew_r>
1000c5ae:	2100      	movs	r1, #0
1000c5b0:	4628      	mov	r0, r5
1000c5b2:	f7ff fdb9 	bl	1000c128 <notification_xmit>
1000c5b6:	e7f2      	b.n	1000c59e <netd_control_xfer_cb+0x66>
1000c5b8:	4b0c      	ldr	r3, [pc, #48]	@ (1000c5ec <netd_control_xfer_cb+0xb4>)
1000c5ba:	78da      	ldrb	r2, [r3, #3]
1000c5bc:	88a3      	ldrh	r3, [r4, #4]
1000c5be:	429a      	cmp	r2, r3
1000c5c0:	d111      	bne.n	1000c5e6 <netd_control_xfer_cb+0xae>
1000c5c2:	7863      	ldrb	r3, [r4, #1]
1000c5c4:	2b80      	cmp	r3, #128	@ 0x80
1000c5c6:	d001      	beq.n	1000c5cc <netd_control_xfer_cb+0x94>
1000c5c8:	2000      	movs	r0, #0
1000c5ca:	e7c3      	b.n	1000c554 <netd_control_xfer_cb+0x1c>
1000c5cc:	231c      	movs	r3, #28
1000c5ce:	4a09      	ldr	r2, [pc, #36]	@ (1000c5f4 <netd_control_xfer_cb+0xbc>)
1000c5d0:	4621      	mov	r1, r4
1000c5d2:	f7ff faa7 	bl	1000bb24 <tud_control_xfer>
1000c5d6:	2001      	movs	r0, #1
1000c5d8:	e7bc      	b.n	1000c554 <netd_control_xfer_cb+0x1c>
1000c5da:	2001      	movs	r0, #1
1000c5dc:	4770      	bx	lr
1000c5de:	2000      	movs	r0, #0
1000c5e0:	e7b8      	b.n	1000c554 <netd_control_xfer_cb+0x1c>
1000c5e2:	2000      	movs	r0, #0
1000c5e4:	e7b6      	b.n	1000c554 <netd_control_xfer_cb+0x1c>
1000c5e6:	2000      	movs	r0, #0
1000c5e8:	e7b4      	b.n	1000c554 <netd_control_xfer_cb+0x1c>
1000c5ea:	bf00      	nop
1000c5ec:	20003fd4 	.word	0x20003fd4
1000c5f0:	20003fd8 	.word	0x20003fd8
1000c5f4:	1000f104 	.word	0x1000f104

1000c5f8 <tu_edpt_validate>:
1000c5f8:	b508      	push	{r3, lr}
1000c5fa:	8883      	ldrh	r3, [r0, #4]
1000c5fc:	f3c3 020a 	ubfx	r2, r3, #0, #11
1000c600:	78c3      	ldrb	r3, [r0, #3]
1000c602:	f003 0303 	and.w	r3, r3, #3
1000c606:	2b02      	cmp	r3, #2
1000c608:	d01d      	beq.n	1000c646 <tu_edpt_validate+0x4e>
1000c60a:	2b03      	cmp	r3, #3
1000c60c:	d044      	beq.n	1000c698 <tu_edpt_validate+0xa0>
1000c60e:	2b01      	cmp	r3, #1
1000c610:	d15b      	bne.n	1000c6ca <tu_edpt_validate+0xd2>
1000c612:	2902      	cmp	r1, #2
1000c614:	d005      	beq.n	1000c622 <tu_edpt_validate+0x2a>
1000c616:	f240 33ff 	movw	r3, #1023	@ 0x3ff
1000c61a:	4293      	cmp	r3, r2
1000c61c:	d304      	bcc.n	1000c628 <tu_edpt_validate+0x30>
1000c61e:	2001      	movs	r0, #1
1000c620:	e054      	b.n	1000c6cc <tu_edpt_validate+0xd4>
1000c622:	f44f 6380 	mov.w	r3, #1024	@ 0x400
1000c626:	e7f8      	b.n	1000c61a <tu_edpt_validate+0x22>
1000c628:	2290      	movs	r2, #144	@ 0x90
1000c62a:	4929      	ldr	r1, [pc, #164]	@ (1000c6d0 <tu_edpt_validate+0xd8>)
1000c62c:	4829      	ldr	r0, [pc, #164]	@ (1000c6d4 <tu_edpt_validate+0xdc>)
1000c62e:	f7fe f827 	bl	1000a680 <__wrap_printf>
1000c632:	f04f 23e0 	mov.w	r3, #3758153728	@ 0xe000e000
1000c636:	f8d3 3df0 	ldr.w	r3, [r3, #3568]	@ 0xdf0
1000c63a:	f013 0f01 	tst.w	r3, #1
1000c63e:	d000      	beq.n	1000c642 <tu_edpt_validate+0x4a>
1000c640:	be00      	bkpt	0x0000
1000c642:	2000      	movs	r0, #0
1000c644:	e042      	b.n	1000c6cc <tu_edpt_validate+0xd4>
1000c646:	2902      	cmp	r1, #2
1000c648:	d003      	beq.n	1000c652 <tu_edpt_validate+0x5a>
1000c64a:	2a40      	cmp	r2, #64	@ 0x40
1000c64c:	d815      	bhi.n	1000c67a <tu_edpt_validate+0x82>
1000c64e:	2001      	movs	r0, #1
1000c650:	e03c      	b.n	1000c6cc <tu_edpt_validate+0xd4>
1000c652:	f5b2 7f00 	cmp.w	r2, #512	@ 0x200
1000c656:	d101      	bne.n	1000c65c <tu_edpt_validate+0x64>
1000c658:	2001      	movs	r0, #1
1000c65a:	e037      	b.n	1000c6cc <tu_edpt_validate+0xd4>
1000c65c:	2297      	movs	r2, #151	@ 0x97
1000c65e:	491c      	ldr	r1, [pc, #112]	@ (1000c6d0 <tu_edpt_validate+0xd8>)
1000c660:	481c      	ldr	r0, [pc, #112]	@ (1000c6d4 <tu_edpt_validate+0xdc>)
1000c662:	f7fe f80d 	bl	1000a680 <__wrap_printf>
1000c666:	f04f 23e0 	mov.w	r3, #3758153728	@ 0xe000e000
1000c66a:	f8d3 3df0 	ldr.w	r3, [r3, #3568]	@ 0xdf0
1000c66e:	f013 0f01 	tst.w	r3, #1
1000c672:	d000      	beq.n	1000c676 <tu_edpt_validate+0x7e>
1000c674:	be00      	bkpt	0x0000
1000c676:	2000      	movs	r0, #0
1000c678:	e028      	b.n	1000c6cc <tu_edpt_validate+0xd4>
1000c67a:	229a      	movs	r2, #154	@ 0x9a
1000c67c:	4914      	ldr	r1, [pc, #80]	@ (1000c6d0 <tu_edpt_validate+0xd8>)
1000c67e:	4815      	ldr	r0, [pc, #84]	@ (1000c6d4 <tu_edpt_validate+0xdc>)
1000c680:	f7fd fffe 	bl	1000a680 <__wrap_printf>
1000c684:	f04f 23e0 	mov.w	r3, #3758153728	@ 0xe000e000
1000c688:	f8d3 3df0 	ldr.w	r3, [r3, #3568]	@ 0xdf0
1000c68c:	f013 0f01 	tst.w	r3, #1
1000c690:	d000      	beq.n	1000c694 <tu_edpt_validate+0x9c>
1000c692:	be00      	bkpt	0x0000
1000c694:	2000      	movs	r0, #0
1000c696:	e019      	b.n	1000c6cc <tu_edpt_validate+0xd4>
1000c698:	2902      	cmp	r1, #2
1000c69a:	d004      	beq.n	1000c6a6 <tu_edpt_validate+0xae>
1000c69c:	2340      	movs	r3, #64	@ 0x40
1000c69e:	4293      	cmp	r3, r2
1000c6a0:	d304      	bcc.n	1000c6ac <tu_edpt_validate+0xb4>
1000c6a2:	2001      	movs	r0, #1
1000c6a4:	e012      	b.n	1000c6cc <tu_edpt_validate+0xd4>
1000c6a6:	f44f 6380 	mov.w	r3, #1024	@ 0x400
1000c6aa:	e7f8      	b.n	1000c69e <tu_edpt_validate+0xa6>
1000c6ac:	22a0      	movs	r2, #160	@ 0xa0
1000c6ae:	4908      	ldr	r1, [pc, #32]	@ (1000c6d0 <tu_edpt_validate+0xd8>)
1000c6b0:	4808      	ldr	r0, [pc, #32]	@ (1000c6d4 <tu_edpt_validate+0xdc>)
1000c6b2:	f7fd ffe5 	bl	1000a680 <__wrap_printf>
1000c6b6:	f04f 23e0 	mov.w	r3, #3758153728	@ 0xe000e000
1000c6ba:	f8d3 3df0 	ldr.w	r3, [r3, #3568]	@ 0xdf0
1000c6be:	f013 0f01 	tst.w	r3, #1
1000c6c2:	d000      	beq.n	1000c6c6 <tu_edpt_validate+0xce>
1000c6c4:	be00      	bkpt	0x0000
1000c6c6:	2000      	movs	r0, #0
1000c6c8:	e000      	b.n	1000c6cc <tu_edpt_validate+0xd4>
1000c6ca:	2000      	movs	r0, #0
1000c6cc:	bd08      	pop	{r3, pc}
1000c6ce:	bf00      	nop
1000c6d0:	1000f120 	.word	0x1000f120
1000c6d4:	1000d74c 	.word	0x1000d74c

1000c6d8 <tu_edpt_bind_driver>:
1000c6d8:	440a      	add	r2, r1
1000c6da:	e004      	b.n	1000c6e6 <tu_edpt_bind_driver+0xe>
1000c6dc:	f85d fb04 	ldr.w	pc, [sp], #4
1000c6e0:	f891 c000 	ldrb.w	ip, [r1]
1000c6e4:	4461      	add	r1, ip
1000c6e6:	4291      	cmp	r1, r2
1000c6e8:	d21a      	bcs.n	1000c720 <tu_edpt_bind_driver+0x48>
1000c6ea:	f891 c001 	ldrb.w	ip, [r1, #1]
1000c6ee:	f1bc 0f05 	cmp.w	ip, #5
1000c6f2:	d1f5      	bne.n	1000c6e0 <tu_edpt_bind_driver+0x8>
1000c6f4:	b500      	push	{lr}
1000c6f6:	f891 c002 	ldrb.w	ip, [r1, #2]
1000c6fa:	f00c 0e7f 	and.w	lr, ip, #127	@ 0x7f
1000c6fe:	eb00 0e4e 	add.w	lr, r0, lr, lsl #1
1000c702:	ea4f 1cdc 	mov.w	ip, ip, lsr #7
1000c706:	f80e 300c 	strb.w	r3, [lr, ip]
1000c70a:	f891 c000 	ldrb.w	ip, [r1]
1000c70e:	4461      	add	r1, ip
1000c710:	4291      	cmp	r1, r2
1000c712:	d2e3      	bcs.n	1000c6dc <tu_edpt_bind_driver+0x4>
1000c714:	f891 c001 	ldrb.w	ip, [r1, #1]
1000c718:	f1bc 0f05 	cmp.w	ip, #5
1000c71c:	d1f5      	bne.n	1000c70a <tu_edpt_bind_driver+0x32>
1000c71e:	e7ea      	b.n	1000c6f6 <tu_edpt_bind_driver+0x1e>
1000c720:	4770      	bx	lr

1000c722 <advance_index>:
1000c722:	4603      	mov	r3, r0
1000c724:	440a      	add	r2, r1
1000c726:	b290      	uxth	r0, r2
1000c728:	4281      	cmp	r1, r0
1000c72a:	d802      	bhi.n	1000c732 <advance_index+0x10>
1000c72c:	ebb0 0f43 	cmp.w	r0, r3, lsl #1
1000c730:	db03      	blt.n	1000c73a <advance_index+0x18>
1000c732:	005b      	lsls	r3, r3, #1
1000c734:	b29b      	uxth	r3, r3
1000c736:	1ac0      	subs	r0, r0, r3
1000c738:	b280      	uxth	r0, r0
1000c73a:	4770      	bx	lr

1000c73c <_tu_fifo_peek>:
1000c73c:	b510      	push	{r4, lr}
1000c73e:	4686      	mov	lr, r0
1000c740:	4608      	mov	r0, r1
1000c742:	f8be c004 	ldrh.w	ip, [lr, #4]
1000c746:	429a      	cmp	r2, r3
1000c748:	d30c      	bcc.n	1000c764 <_tu_fifo_peek+0x28>
1000c74a:	1ad4      	subs	r4, r2, r3
1000c74c:	b2a4      	uxth	r4, r4
1000c74e:	b324      	cbz	r4, 1000c79a <_tu_fifo_peek+0x5e>
1000c750:	45a4      	cmp	ip, r4
1000c752:	d214      	bcs.n	1000c77e <_tu_fifo_peek+0x42>
1000c754:	4594      	cmp	ip, r2
1000c756:	d80c      	bhi.n	1000c772 <_tu_fifo_peek+0x36>
1000c758:	eba2 020c 	sub.w	r2, r2, ip
1000c75c:	b293      	uxth	r3, r2
1000c75e:	f8ae 300a 	strh.w	r3, [lr, #10]
1000c762:	e00c      	b.n	1000c77e <_tu_fifo_peek+0x42>
1000c764:	1ad4      	subs	r4, r2, r3
1000c766:	ea4f 014c 	mov.w	r1, ip, lsl #1
1000c76a:	fa11 f484 	uxtah	r4, r1, r4
1000c76e:	b2a4      	uxth	r4, r4
1000c770:	e7ed      	b.n	1000c74e <_tu_fifo_peek+0x12>
1000c772:	4462      	add	r2, ip
1000c774:	b293      	uxth	r3, r2
1000c776:	e7f2      	b.n	1000c75e <_tu_fifo_peek+0x22>
1000c778:	eba3 030c 	sub.w	r3, r3, ip
1000c77c:	b29b      	uxth	r3, r3
1000c77e:	459c      	cmp	ip, r3
1000c780:	d9fa      	bls.n	1000c778 <_tu_fifo_peek+0x3c>
1000c782:	f8de 1000 	ldr.w	r1, [lr]
1000c786:	f8be 2006 	ldrh.w	r2, [lr, #6]
1000c78a:	f3c2 020e 	ubfx	r2, r2, #0, #15
1000c78e:	fb02 1103 	mla	r1, r2, r3, r1
1000c792:	f000 fa89 	bl	1000cca8 <memcpy>
1000c796:	2001      	movs	r0, #1
1000c798:	bd10      	pop	{r4, pc}
1000c79a:	2000      	movs	r0, #0
1000c79c:	e7fc      	b.n	1000c798 <_tu_fifo_peek+0x5c>

1000c79e <tu_fifo_full>:
1000c79e:	8881      	ldrh	r1, [r0, #4]
1000c7a0:	8903      	ldrh	r3, [r0, #8]
1000c7a2:	b29b      	uxth	r3, r3
1000c7a4:	8942      	ldrh	r2, [r0, #10]
1000c7a6:	b292      	uxth	r2, r2
1000c7a8:	4293      	cmp	r3, r2
1000c7aa:	d306      	bcc.n	1000c7ba <tu_fifo_full+0x1c>
1000c7ac:	1a9b      	subs	r3, r3, r2
1000c7ae:	b298      	uxth	r0, r3
1000c7b0:	4281      	cmp	r1, r0
1000c7b2:	bf8c      	ite	hi
1000c7b4:	2000      	movhi	r0, #0
1000c7b6:	2001      	movls	r0, #1
1000c7b8:	4770      	bx	lr
1000c7ba:	1a9b      	subs	r3, r3, r2
1000c7bc:	004a      	lsls	r2, r1, #1
1000c7be:	fa12 f383 	uxtah	r3, r2, r3
1000c7c2:	b298      	uxth	r0, r3
1000c7c4:	e7f4      	b.n	1000c7b0 <tu_fifo_full+0x12>

1000c7c6 <tu_fifo_read>:
1000c7c6:	b538      	push	{r3, r4, r5, lr}
1000c7c8:	4604      	mov	r4, r0
1000c7ca:	460d      	mov	r5, r1
1000c7cc:	6900      	ldr	r0, [r0, #16]
1000c7ce:	b118      	cbz	r0, 1000c7d8 <tu_fifo_read+0x12>
1000c7d0:	f04f 31ff 	mov.w	r1, #4294967295
1000c7d4:	f000 fb14 	bl	1000ce00 <__mutex_enter_timeout_ms_veneer>
1000c7d8:	8922      	ldrh	r2, [r4, #8]
1000c7da:	8963      	ldrh	r3, [r4, #10]
1000c7dc:	b29b      	uxth	r3, r3
1000c7de:	b292      	uxth	r2, r2
1000c7e0:	4629      	mov	r1, r5
1000c7e2:	4620      	mov	r0, r4
1000c7e4:	f7ff ffaa 	bl	1000c73c <_tu_fifo_peek>
1000c7e8:	4605      	mov	r5, r0
1000c7ea:	8961      	ldrh	r1, [r4, #10]
1000c7ec:	4602      	mov	r2, r0
1000c7ee:	b289      	uxth	r1, r1
1000c7f0:	88a0      	ldrh	r0, [r4, #4]
1000c7f2:	f7ff ff96 	bl	1000c722 <advance_index>
1000c7f6:	8160      	strh	r0, [r4, #10]
1000c7f8:	6920      	ldr	r0, [r4, #16]
1000c7fa:	b108      	cbz	r0, 1000c800 <tu_fifo_read+0x3a>
1000c7fc:	f000 fb10 	bl	1000ce20 <__mutex_exit_veneer>
1000c800:	4628      	mov	r0, r5
1000c802:	bd38      	pop	{r3, r4, r5, pc}

1000c804 <tu_fifo_write>:
1000c804:	b5f8      	push	{r3, r4, r5, r6, r7, lr}
1000c806:	4604      	mov	r4, r0
1000c808:	460e      	mov	r6, r1
1000c80a:	68c0      	ldr	r0, [r0, #12]
1000c80c:	b118      	cbz	r0, 1000c816 <tu_fifo_write+0x12>
1000c80e:	f04f 31ff 	mov.w	r1, #4294967295
1000c812:	f000 faf5 	bl	1000ce00 <__mutex_enter_timeout_ms_veneer>
1000c816:	8925      	ldrh	r5, [r4, #8]
1000c818:	b2ad      	uxth	r5, r5
1000c81a:	4620      	mov	r0, r4
1000c81c:	f7ff ffbf 	bl	1000c79e <tu_fifo_full>
1000c820:	b110      	cbz	r0, 1000c828 <tu_fifo_write+0x24>
1000c822:	79e7      	ldrb	r7, [r4, #7]
1000c824:	09ff      	lsrs	r7, r7, #7
1000c826:	d016      	beq.n	1000c856 <tu_fifo_write+0x52>
1000c828:	88a2      	ldrh	r2, [r4, #4]
1000c82a:	462b      	mov	r3, r5
1000c82c:	e001      	b.n	1000c832 <tu_fifo_write+0x2e>
1000c82e:	1a9b      	subs	r3, r3, r2
1000c830:	b29b      	uxth	r3, r3
1000c832:	429a      	cmp	r2, r3
1000c834:	d9fb      	bls.n	1000c82e <tu_fifo_write+0x2a>
1000c836:	6820      	ldr	r0, [r4, #0]
1000c838:	88e2      	ldrh	r2, [r4, #6]
1000c83a:	f3c2 020e 	ubfx	r2, r2, #0, #15
1000c83e:	4631      	mov	r1, r6
1000c840:	fb02 0003 	mla	r0, r2, r3, r0
1000c844:	f000 fa30 	bl	1000cca8 <memcpy>
1000c848:	2201      	movs	r2, #1
1000c84a:	4629      	mov	r1, r5
1000c84c:	88a0      	ldrh	r0, [r4, #4]
1000c84e:	f7ff ff68 	bl	1000c722 <advance_index>
1000c852:	8120      	strh	r0, [r4, #8]
1000c854:	2701      	movs	r7, #1
1000c856:	68e0      	ldr	r0, [r4, #12]
1000c858:	b108      	cbz	r0, 1000c85e <tu_fifo_write+0x5a>
1000c85a:	f000 fae1 	bl	1000ce20 <__mutex_exit_veneer>
1000c85e:	4638      	mov	r0, r7
1000c860:	bdf8      	pop	{r3, r4, r5, r6, r7, pc}

1000c862 <tu_fifo_clear>:
1000c862:	b510      	push	{r4, lr}
1000c864:	4604      	mov	r4, r0
1000c866:	68c0      	ldr	r0, [r0, #12]
1000c868:	b118      	cbz	r0, 1000c872 <tu_fifo_clear+0x10>
1000c86a:	f04f 31ff 	mov.w	r1, #4294967295
1000c86e:	f000 fac7 	bl	1000ce00 <__mutex_enter_timeout_ms_veneer>
1000c872:	6920      	ldr	r0, [r4, #16]
1000c874:	b118      	cbz	r0, 1000c87e <tu_fifo_clear+0x1c>
1000c876:	f04f 31ff 	mov.w	r1, #4294967295
1000c87a:	f000 fac1 	bl	1000ce00 <__mutex_enter_timeout_ms_veneer>
1000c87e:	2300      	movs	r3, #0
1000c880:	8163      	strh	r3, [r4, #10]
1000c882:	8123      	strh	r3, [r4, #8]
1000c884:	68e0      	ldr	r0, [r4, #12]
1000c886:	b108      	cbz	r0, 1000c88c <tu_fifo_clear+0x2a>
1000c888:	f000 faca 	bl	1000ce20 <__mutex_exit_veneer>
1000c88c:	6920      	ldr	r0, [r4, #16]
1000c88e:	b108      	cbz	r0, 1000c894 <tu_fifo_clear+0x32>
1000c890:	f000 fac6 	bl	1000ce20 <__mutex_exit_veneer>
1000c894:	2001      	movs	r0, #1
1000c896:	bd10      	pop	{r4, pc}

1000c898 <rp2040_usb_device_enumeration_fix>:
1000c898:	4770      	bx	lr
	...

1000c89c <memcmp>:
1000c89c:	2a03      	cmp	r2, #3
1000c89e:	b430      	push	{r4, r5}
1000c8a0:	d915      	bls.n	1000c8ce <memcmp+0x32>
1000c8a2:	ea41 0400 	orr.w	r4, r1, r0
1000c8a6:	4684      	mov	ip, r0
1000c8a8:	460b      	mov	r3, r1
1000c8aa:	07a4      	lsls	r4, r4, #30
1000c8ac:	d004      	beq.n	1000c8b8 <memcmp+0x1c>
1000c8ae:	1e54      	subs	r4, r2, #1
1000c8b0:	e00f      	b.n	1000c8d2 <memcmp+0x36>
1000c8b2:	3a04      	subs	r2, #4
1000c8b4:	2a03      	cmp	r2, #3
1000c8b6:	d908      	bls.n	1000c8ca <memcmp+0x2e>
1000c8b8:	4619      	mov	r1, r3
1000c8ba:	4660      	mov	r0, ip
1000c8bc:	f853 4b04 	ldr.w	r4, [r3], #4
1000c8c0:	f85c 5b04 	ldr.w	r5, [ip], #4
1000c8c4:	42a5      	cmp	r5, r4
1000c8c6:	d0f4      	beq.n	1000c8b2 <memcmp+0x16>
1000c8c8:	e7f1      	b.n	1000c8ae <memcmp+0x12>
1000c8ca:	4660      	mov	r0, ip
1000c8cc:	4619      	mov	r1, r3
1000c8ce:	1e54      	subs	r4, r2, #1
1000c8d0:	b17a      	cbz	r2, 1000c8f2 <memcmp+0x56>
1000c8d2:	1e43      	subs	r3, r0, #1
1000c8d4:	3901      	subs	r1, #1
1000c8d6:	1902      	adds	r2, r0, r4
1000c8d8:	e001      	b.n	1000c8de <memcmp+0x42>
1000c8da:	429a      	cmp	r2, r3
1000c8dc:	d009      	beq.n	1000c8f2 <memcmp+0x56>
1000c8de:	f813 0f01 	ldrb.w	r0, [r3, #1]!
1000c8e2:	f811 cf01 	ldrb.w	ip, [r1, #1]!
1000c8e6:	4560      	cmp	r0, ip
1000c8e8:	d0f7      	beq.n	1000c8da <memcmp+0x3e>
1000c8ea:	eba0 000c 	sub.w	r0, r0, ip
1000c8ee:	bc30      	pop	{r4, r5}
1000c8f0:	4770      	bx	lr
1000c8f2:	2000      	movs	r0, #0
1000c8f4:	bc30      	pop	{r4, r5}
1000c8f6:	4770      	bx	lr

1000c8f8 <memset>:
1000c8f8:	b570      	push	{r4, r5, r6, lr}
1000c8fa:	0786      	lsls	r6, r0, #30
1000c8fc:	d047      	beq.n	1000c98e <memset+0x96>
1000c8fe:	1e54      	subs	r4, r2, #1
1000c900:	2a00      	cmp	r2, #0
1000c902:	d03e      	beq.n	1000c982 <memset+0x8a>
1000c904:	b2ca      	uxtb	r2, r1
1000c906:	4603      	mov	r3, r0
1000c908:	e001      	b.n	1000c90e <memset+0x16>
1000c90a:	3c01      	subs	r4, #1
1000c90c:	d339      	bcc.n	1000c982 <memset+0x8a>
1000c90e:	f803 2b01 	strb.w	r2, [r3], #1
1000c912:	079d      	lsls	r5, r3, #30
1000c914:	d1f9      	bne.n	1000c90a <memset+0x12>
1000c916:	2c03      	cmp	r4, #3
1000c918:	d92c      	bls.n	1000c974 <memset+0x7c>
1000c91a:	b2cd      	uxtb	r5, r1
1000c91c:	2c0f      	cmp	r4, #15
1000c91e:	eb05 2505 	add.w	r5, r5, r5, lsl #8
1000c922:	eb05 4505 	add.w	r5, r5, r5, lsl #16
1000c926:	d935      	bls.n	1000c994 <memset+0x9c>
1000c928:	f1a4 0c10 	sub.w	ip, r4, #16
1000c92c:	f103 0e10 	add.w	lr, r3, #16
1000c930:	461a      	mov	r2, r3
1000c932:	f02c 060f 	bic.w	r6, ip, #15
1000c936:	ea4f 1c1c 	mov.w	ip, ip, lsr #4
1000c93a:	44b6      	add	lr, r6
1000c93c:	e9c2 5500 	strd	r5, r5, [r2]
1000c940:	e9c2 5502 	strd	r5, r5, [r2, #8]
1000c944:	3210      	adds	r2, #16
1000c946:	4572      	cmp	r2, lr
1000c948:	d1f8      	bne.n	1000c93c <memset+0x44>
1000c94a:	f10c 0201 	add.w	r2, ip, #1
1000c94e:	f014 0f0c 	tst.w	r4, #12
1000c952:	f004 0c0f 	and.w	ip, r4, #15
1000c956:	eb03 1202 	add.w	r2, r3, r2, lsl #4
1000c95a:	d013      	beq.n	1000c984 <memset+0x8c>
1000c95c:	f1ac 0304 	sub.w	r3, ip, #4
1000c960:	f023 0303 	bic.w	r3, r3, #3
1000c964:	3304      	adds	r3, #4
1000c966:	4413      	add	r3, r2
1000c968:	f842 5b04 	str.w	r5, [r2], #4
1000c96c:	4293      	cmp	r3, r2
1000c96e:	d1fb      	bne.n	1000c968 <memset+0x70>
1000c970:	f00c 0403 	and.w	r4, ip, #3
1000c974:	b12c      	cbz	r4, 1000c982 <memset+0x8a>
1000c976:	b2c9      	uxtb	r1, r1
1000c978:	441c      	add	r4, r3
1000c97a:	f803 1b01 	strb.w	r1, [r3], #1
1000c97e:	42a3      	cmp	r3, r4
1000c980:	d1fb      	bne.n	1000c97a <memset+0x82>
1000c982:	bd70      	pop	{r4, r5, r6, pc}
1000c984:	4664      	mov	r4, ip
1000c986:	4613      	mov	r3, r2
1000c988:	2c00      	cmp	r4, #0
1000c98a:	d1f4      	bne.n	1000c976 <memset+0x7e>
1000c98c:	e7f9      	b.n	1000c982 <memset+0x8a>
1000c98e:	4603      	mov	r3, r0
1000c990:	4614      	mov	r4, r2
1000c992:	e7c0      	b.n	1000c916 <memset+0x1e>
1000c994:	461a      	mov	r2, r3
1000c996:	46a4      	mov	ip, r4
1000c998:	e7e0      	b.n	1000c95c <memset+0x64>
1000c99a:	bf00      	nop

1000c99c <strchr>:
1000c99c:	f011 01ff 	ands.w	r1, r1, #255	@ 0xff
1000c9a0:	4603      	mov	r3, r0
1000c9a2:	f000 0203 	and.w	r2, r0, #3
1000c9a6:	d039      	beq.n	1000ca1c <strchr+0x80>
1000c9a8:	bb8a      	cbnz	r2, 1000ca0e <strchr+0x72>
1000c9aa:	b510      	push	{r4, lr}
1000c9ac:	eb01 2e01 	add.w	lr, r1, r1, lsl #8
1000c9b0:	6802      	ldr	r2, [r0, #0]
1000c9b2:	eb0e 4e0e 	add.w	lr, lr, lr, lsl #16
1000c9b6:	f1a2 3301 	sub.w	r3, r2, #16843009	@ 0x1010101
1000c9ba:	ea8e 0402 	eor.w	r4, lr, r2
1000c9be:	ea23 0302 	bic.w	r3, r3, r2
1000c9c2:	f1a4 3201 	sub.w	r2, r4, #16843009	@ 0x1010101
1000c9c6:	ea22 0204 	bic.w	r2, r2, r4
1000c9ca:	4313      	orrs	r3, r2
1000c9cc:	f013 3f80 	tst.w	r3, #2155905152	@ 0x80808080
1000c9d0:	d10f      	bne.n	1000c9f2 <strchr+0x56>
1000c9d2:	f850 4f04 	ldr.w	r4, [r0, #4]!
1000c9d6:	ea84 0c0e 	eor.w	ip, r4, lr
1000c9da:	f1a4 3301 	sub.w	r3, r4, #16843009	@ 0x1010101
1000c9de:	f1ac 3201 	sub.w	r2, ip, #16843009	@ 0x1010101
1000c9e2:	ea23 0304 	bic.w	r3, r3, r4
1000c9e6:	ea22 020c 	bic.w	r2, r2, ip
1000c9ea:	4313      	orrs	r3, r2
1000c9ec:	f013 3f80 	tst.w	r3, #2155905152	@ 0x80808080
1000c9f0:	d0ef      	beq.n	1000c9d2 <strchr+0x36>
1000c9f2:	7803      	ldrb	r3, [r0, #0]
1000c9f4:	b923      	cbnz	r3, 1000ca00 <strchr+0x64>
1000c9f6:	e036      	b.n	1000ca66 <strchr+0xca>
1000c9f8:	f810 3f01 	ldrb.w	r3, [r0, #1]!
1000c9fc:	2b00      	cmp	r3, #0
1000c9fe:	d032      	beq.n	1000ca66 <strchr+0xca>
1000ca00:	4299      	cmp	r1, r3
1000ca02:	d1f9      	bne.n	1000c9f8 <strchr+0x5c>
1000ca04:	bd10      	pop	{r4, pc}
1000ca06:	428a      	cmp	r2, r1
1000ca08:	d028      	beq.n	1000ca5c <strchr+0xc0>
1000ca0a:	079a      	lsls	r2, r3, #30
1000ca0c:	d029      	beq.n	1000ca62 <strchr+0xc6>
1000ca0e:	781a      	ldrb	r2, [r3, #0]
1000ca10:	4618      	mov	r0, r3
1000ca12:	3301      	adds	r3, #1
1000ca14:	2a00      	cmp	r2, #0
1000ca16:	d1f6      	bne.n	1000ca06 <strchr+0x6a>
1000ca18:	4610      	mov	r0, r2
1000ca1a:	4770      	bx	lr
1000ca1c:	b9ca      	cbnz	r2, 1000ca52 <strchr+0xb6>
1000ca1e:	6802      	ldr	r2, [r0, #0]
1000ca20:	f1a2 3301 	sub.w	r3, r2, #16843009	@ 0x1010101
1000ca24:	ea23 0302 	bic.w	r3, r3, r2
1000ca28:	f013 3f80 	tst.w	r3, #2155905152	@ 0x80808080
1000ca2c:	d108      	bne.n	1000ca40 <strchr+0xa4>
1000ca2e:	f850 2f04 	ldr.w	r2, [r0, #4]!
1000ca32:	f1a2 3301 	sub.w	r3, r2, #16843009	@ 0x1010101
1000ca36:	ea23 0302 	bic.w	r3, r3, r2
1000ca3a:	f013 3f80 	tst.w	r3, #2155905152	@ 0x80808080
1000ca3e:	d0f6      	beq.n	1000ca2e <strchr+0x92>
1000ca40:	7803      	ldrb	r3, [r0, #0]
1000ca42:	b15b      	cbz	r3, 1000ca5c <strchr+0xc0>
1000ca44:	f810 3f01 	ldrb.w	r3, [r0, #1]!
1000ca48:	2b00      	cmp	r3, #0
1000ca4a:	d1fb      	bne.n	1000ca44 <strchr+0xa8>
1000ca4c:	4770      	bx	lr
1000ca4e:	0799      	lsls	r1, r3, #30
1000ca50:	d005      	beq.n	1000ca5e <strchr+0xc2>
1000ca52:	4618      	mov	r0, r3
1000ca54:	f813 2b01 	ldrb.w	r2, [r3], #1
1000ca58:	2a00      	cmp	r2, #0
1000ca5a:	d1f8      	bne.n	1000ca4e <strchr+0xb2>
1000ca5c:	4770      	bx	lr
1000ca5e:	4618      	mov	r0, r3
1000ca60:	e7dd      	b.n	1000ca1e <strchr+0x82>
1000ca62:	4618      	mov	r0, r3
1000ca64:	e7a1      	b.n	1000c9aa <strchr+0xe>
1000ca66:	4618      	mov	r0, r3
1000ca68:	bd10      	pop	{r4, pc}
1000ca6a:	bf00      	nop

1000ca6c <strncmp>:
1000ca6c:	b3ca      	cbz	r2, 1000cae2 <strncmp+0x76>
1000ca6e:	4684      	mov	ip, r0
1000ca70:	460b      	mov	r3, r1
1000ca72:	b530      	push	{r4, r5, lr}
1000ca74:	4604      	mov	r4, r0
1000ca76:	4308      	orrs	r0, r1
1000ca78:	0780      	lsls	r0, r0, #30
1000ca7a:	d019      	beq.n	1000cab0 <strncmp+0x44>
1000ca7c:	f89c 0000 	ldrb.w	r0, [ip]
1000ca80:	780c      	ldrb	r4, [r1, #0]
1000ca82:	42a0      	cmp	r0, r4
1000ca84:	d112      	bne.n	1000caac <strncmp+0x40>
1000ca86:	b350      	cbz	r0, 1000cade <strncmp+0x72>
1000ca88:	2a01      	cmp	r2, #1
1000ca8a:	d028      	beq.n	1000cade <strncmp+0x72>
1000ca8c:	46e6      	mov	lr, ip
1000ca8e:	e003      	b.n	1000ca98 <strncmp+0x2c>
1000ca90:	eb1c 0f03 	cmn.w	ip, r3
1000ca94:	d023      	beq.n	1000cade <strncmp+0x72>
1000ca96:	b310      	cbz	r0, 1000cade <strncmp+0x72>
1000ca98:	f81e 0f01 	ldrb.w	r0, [lr, #1]!
1000ca9c:	f811 4f01 	ldrb.w	r4, [r1, #1]!
1000caa0:	eba2 030e 	sub.w	r3, r2, lr
1000caa4:	42a0      	cmp	r0, r4
1000caa6:	f103 33ff 	add.w	r3, r3, #4294967295
1000caaa:	d0f1      	beq.n	1000ca90 <strncmp+0x24>
1000caac:	1b00      	subs	r0, r0, r4
1000caae:	bd30      	pop	{r4, r5, pc}
1000cab0:	2a03      	cmp	r2, #3
1000cab2:	d807      	bhi.n	1000cac4 <strncmp+0x58>
1000cab4:	e7e2      	b.n	1000ca7c <strncmp+0x10>
1000cab6:	3a04      	subs	r2, #4
1000cab8:	d011      	beq.n	1000cade <strncmp+0x72>
1000caba:	f01e 3f80 	tst.w	lr, #2155905152	@ 0x80808080
1000cabe:	d10e      	bne.n	1000cade <strncmp+0x72>
1000cac0:	2a03      	cmp	r2, #3
1000cac2:	d910      	bls.n	1000cae6 <strncmp+0x7a>
1000cac4:	6820      	ldr	r0, [r4, #0]
1000cac6:	4619      	mov	r1, r3
1000cac8:	f853 5b04 	ldr.w	r5, [r3], #4
1000cacc:	46a4      	mov	ip, r4
1000cace:	f1a0 3e01 	sub.w	lr, r0, #16843009	@ 0x1010101
1000cad2:	3404      	adds	r4, #4
1000cad4:	42a8      	cmp	r0, r5
1000cad6:	ea2e 0e00 	bic.w	lr, lr, r0
1000cada:	d0ec      	beq.n	1000cab6 <strncmp+0x4a>
1000cadc:	e7ce      	b.n	1000ca7c <strncmp+0x10>
1000cade:	2000      	movs	r0, #0
1000cae0:	bd30      	pop	{r4, r5, pc}
1000cae2:	4610      	mov	r0, r2
1000cae4:	4770      	bx	lr
1000cae6:	46a4      	mov	ip, r4
1000cae8:	4619      	mov	r1, r3
1000caea:	e7c7      	b.n	1000ca7c <strncmp+0x10>

1000caec <strcmp>:
1000caec:	ea80 0c01 	eor.w	ip, r0, r1
1000caf0:	f01c 0f03 	tst.w	ip, #3
1000caf4:	d137      	bne.n	1000cb66 <strcmp+0x7a>
1000caf6:	f010 0c03 	ands.w	ip, r0, #3
1000cafa:	f020 0003 	bic.w	r0, r0, #3
1000cafe:	f021 0103 	bic.w	r1, r1, #3
1000cb02:	f850 2b04 	ldr.w	r2, [r0], #4
1000cb06:	bf08      	it	eq
1000cb08:	f851 3b04 	ldreq.w	r3, [r1], #4
1000cb0c:	d00e      	beq.n	1000cb2c <strcmp+0x40>
1000cb0e:	f08c 0c03 	eor.w	ip, ip, #3
1000cb12:	f06f 437f 	mvn.w	r3, #4278190080	@ 0xff000000
1000cb16:	ea4f 0ccc 	mov.w	ip, ip, lsl #3
1000cb1a:	fa23 fc0c 	lsr.w	ip, r3, ip
1000cb1e:	f851 3b04 	ldr.w	r3, [r1], #4
1000cb22:	ea42 020c 	orr.w	r2, r2, ip
1000cb26:	ea43 030c 	orr.w	r3, r3, ip
1000cb2a:	bf00      	nop
1000cb2c:	f1a2 3c01 	sub.w	ip, r2, #16843009	@ 0x1010101
1000cb30:	429a      	cmp	r2, r3
1000cb32:	bf01      	itttt	eq
1000cb34:	ea2c 0c02 	biceq.w	ip, ip, r2
1000cb38:	f01c 3f80 	tsteq.w	ip, #2155905152	@ 0x80808080
1000cb3c:	f850 2b04 	ldreq.w	r2, [r0], #4
1000cb40:	f851 3b04 	ldreq.w	r3, [r1], #4
1000cb44:	d0f2      	beq.n	1000cb2c <strcmp+0x40>
1000cb46:	ea4f 6002 	mov.w	r0, r2, lsl #24
1000cb4a:	ea4f 2212 	mov.w	r2, r2, lsr #8
1000cb4e:	2801      	cmp	r0, #1
1000cb50:	bf28      	it	cs
1000cb52:	ebb0 6f03 	cmpcs.w	r0, r3, lsl #24
1000cb56:	bf08      	it	eq
1000cb58:	0a1b      	lsreq	r3, r3, #8
1000cb5a:	d0f4      	beq.n	1000cb46 <strcmp+0x5a>
1000cb5c:	f003 03ff 	and.w	r3, r3, #255	@ 0xff
1000cb60:	0e00      	lsrs	r0, r0, #24
1000cb62:	1ac0      	subs	r0, r0, r3
1000cb64:	4770      	bx	lr
1000cb66:	f010 0f03 	tst.w	r0, #3
1000cb6a:	d00a      	beq.n	1000cb82 <strcmp+0x96>
1000cb6c:	f810 2b01 	ldrb.w	r2, [r0], #1
1000cb70:	f811 3b01 	ldrb.w	r3, [r1], #1
1000cb74:	2a01      	cmp	r2, #1
1000cb76:	bf28      	it	cs
1000cb78:	429a      	cmpcs	r2, r3
1000cb7a:	d0f4      	beq.n	1000cb66 <strcmp+0x7a>
1000cb7c:	eba2 0003 	sub.w	r0, r2, r3
1000cb80:	4770      	bx	lr
1000cb82:	f84d 5d04 	str.w	r5, [sp, #-4]!
1000cb86:	f850 2b04 	ldr.w	r2, [r0], #4
1000cb8a:	f001 0503 	and.w	r5, r1, #3
1000cb8e:	f021 0103 	bic.w	r1, r1, #3
1000cb92:	f851 3b04 	ldr.w	r3, [r1], #4
1000cb96:	2d02      	cmp	r5, #2
1000cb98:	d026      	beq.n	1000cbe8 <strcmp+0xfc>
1000cb9a:	d84d      	bhi.n	1000cc38 <strcmp+0x14c>
1000cb9c:	f022 457f 	bic.w	r5, r2, #4278190080	@ 0xff000000
1000cba0:	ebb5 2f13 	cmp.w	r5, r3, lsr #8
1000cba4:	f1a2 3c01 	sub.w	ip, r2, #16843009	@ 0x1010101
1000cba8:	ea2c 0c02 	bic.w	ip, ip, r2
1000cbac:	d10d      	bne.n	1000cbca <strcmp+0xde>
1000cbae:	f01c 3c80 	ands.w	ip, ip, #2155905152	@ 0x80808080
1000cbb2:	bf08      	it	eq
1000cbb4:	f851 3b04 	ldreq.w	r3, [r1], #4
1000cbb8:	d10a      	bne.n	1000cbd0 <strcmp+0xe4>
1000cbba:	ea85 0502 	eor.w	r5, r5, r2
1000cbbe:	ebb5 6f03 	cmp.w	r5, r3, lsl #24
1000cbc2:	d10c      	bne.n	1000cbde <strcmp+0xf2>
1000cbc4:	f850 2b04 	ldr.w	r2, [r0], #4
1000cbc8:	e7e8      	b.n	1000cb9c <strcmp+0xb0>
1000cbca:	ea4f 2313 	mov.w	r3, r3, lsr #8
1000cbce:	e05b      	b.n	1000cc88 <strcmp+0x19c>
1000cbd0:	f03c 4c7f 	bics.w	ip, ip, #4278190080	@ 0xff000000
1000cbd4:	d154      	bne.n	1000cc80 <strcmp+0x194>
1000cbd6:	780b      	ldrb	r3, [r1, #0]
1000cbd8:	ea4f 6512 	mov.w	r5, r2, lsr #24
1000cbdc:	e054      	b.n	1000cc88 <strcmp+0x19c>
1000cbde:	ea4f 6512 	mov.w	r5, r2, lsr #24
1000cbe2:	f003 03ff 	and.w	r3, r3, #255	@ 0xff
1000cbe6:	e04f      	b.n	1000cc88 <strcmp+0x19c>
1000cbe8:	ea4f 4502 	mov.w	r5, r2, lsl #16
1000cbec:	f1a2 3c01 	sub.w	ip, r2, #16843009	@ 0x1010101
1000cbf0:	ea4f 4515 	mov.w	r5, r5, lsr #16
1000cbf4:	ea2c 0c02 	bic.w	ip, ip, r2
1000cbf8:	ebb5 4f13 	cmp.w	r5, r3, lsr #16
1000cbfc:	d118      	bne.n	1000cc30 <strcmp+0x144>
1000cbfe:	f01c 3c80 	ands.w	ip, ip, #2155905152	@ 0x80808080
1000cc02:	bf08      	it	eq
1000cc04:	f851 3b04 	ldreq.w	r3, [r1], #4
1000cc08:	d107      	bne.n	1000cc1a <strcmp+0x12e>
1000cc0a:	ea85 0502 	eor.w	r5, r5, r2
1000cc0e:	ebb5 4f03 	cmp.w	r5, r3, lsl #16
1000cc12:	d109      	bne.n	1000cc28 <strcmp+0x13c>
1000cc14:	f850 2b04 	ldr.w	r2, [r0], #4
1000cc18:	e7e6      	b.n	1000cbe8 <strcmp+0xfc>
1000cc1a:	ea5f 4c0c 	movs.w	ip, ip, lsl #16
1000cc1e:	d12f      	bne.n	1000cc80 <strcmp+0x194>
1000cc20:	880b      	ldrh	r3, [r1, #0]
1000cc22:	ea4f 4512 	mov.w	r5, r2, lsr #16
1000cc26:	e02f      	b.n	1000cc88 <strcmp+0x19c>
1000cc28:	ea4f 4303 	mov.w	r3, r3, lsl #16
1000cc2c:	ea4f 4512 	mov.w	r5, r2, lsr #16
1000cc30:	ea4f 4313 	mov.w	r3, r3, lsr #16
1000cc34:	e028      	b.n	1000cc88 <strcmp+0x19c>
1000cc36:	bf00      	nop
1000cc38:	f002 05ff 	and.w	r5, r2, #255	@ 0xff
1000cc3c:	ebb5 6f13 	cmp.w	r5, r3, lsr #24
1000cc40:	f1a2 3c01 	sub.w	ip, r2, #16843009	@ 0x1010101
1000cc44:	ea2c 0c02 	bic.w	ip, ip, r2
1000cc48:	d10d      	bne.n	1000cc66 <strcmp+0x17a>
1000cc4a:	f01c 3c80 	ands.w	ip, ip, #2155905152	@ 0x80808080
1000cc4e:	bf08      	it	eq
1000cc50:	f851 3b04 	ldreq.w	r3, [r1], #4
1000cc54:	d10a      	bne.n	1000cc6c <strcmp+0x180>
1000cc56:	ea85 0502 	eor.w	r5, r5, r2
1000cc5a:	ebb5 2f03 	cmp.w	r5, r3, lsl #8
1000cc5e:	d10a      	bne.n	1000cc76 <strcmp+0x18a>
1000cc60:	f850 2b04 	ldr.w	r2, [r0], #4
1000cc64:	e7e8      	b.n	1000cc38 <strcmp+0x14c>
1000cc66:	ea4f 6313 	mov.w	r3, r3, lsr #24
1000cc6a:	e00d      	b.n	1000cc88 <strcmp+0x19c>
1000cc6c:	f012 0fff 	tst.w	r2, #255	@ 0xff
1000cc70:	d006      	beq.n	1000cc80 <strcmp+0x194>
1000cc72:	f851 3b04 	ldr.w	r3, [r1], #4
1000cc76:	ea4f 2512 	mov.w	r5, r2, lsr #8
1000cc7a:	f023 437f 	bic.w	r3, r3, #4278190080	@ 0xff000000
1000cc7e:	e003      	b.n	1000cc88 <strcmp+0x19c>
1000cc80:	f04f 0000 	mov.w	r0, #0
1000cc84:	bc20      	pop	{r5}
1000cc86:	4770      	bx	lr
1000cc88:	f005 02ff 	and.w	r2, r5, #255	@ 0xff
1000cc8c:	f003 00ff 	and.w	r0, r3, #255	@ 0xff
1000cc90:	2801      	cmp	r0, #1
1000cc92:	bf28      	it	cs
1000cc94:	4290      	cmpcs	r0, r2
1000cc96:	bf04      	itt	eq
1000cc98:	0a2d      	lsreq	r5, r5, #8
1000cc9a:	0a1b      	lsreq	r3, r3, #8
1000cc9c:	d0f4      	beq.n	1000cc88 <strcmp+0x19c>
1000cc9e:	eba2 0000 	sub.w	r0, r2, r0
1000cca2:	bc20      	pop	{r5}
1000cca4:	4770      	bx	lr
1000cca6:	bf00      	nop

1000cca8 <memcpy>:
1000cca8:	4684      	mov	ip, r0
1000ccaa:	ea41 0300 	orr.w	r3, r1, r0
1000ccae:	f013 0303 	ands.w	r3, r3, #3
1000ccb2:	d149      	bne.n	1000cd48 <memcpy+0xa0>
1000ccb4:	3a40      	subs	r2, #64	@ 0x40
1000ccb6:	d323      	bcc.n	1000cd00 <memcpy+0x58>
1000ccb8:	680b      	ldr	r3, [r1, #0]
1000ccba:	6003      	str	r3, [r0, #0]
1000ccbc:	684b      	ldr	r3, [r1, #4]
1000ccbe:	6043      	str	r3, [r0, #4]
1000ccc0:	688b      	ldr	r3, [r1, #8]
1000ccc2:	6083      	str	r3, [r0, #8]
1000ccc4:	68cb      	ldr	r3, [r1, #12]
1000ccc6:	60c3      	str	r3, [r0, #12]
1000ccc8:	690b      	ldr	r3, [r1, #16]
1000ccca:	6103      	str	r3, [r0, #16]
1000cccc:	694b      	ldr	r3, [r1, #20]
1000ccce:	6143      	str	r3, [r0, #20]
1000ccd0:	698b      	ldr	r3, [r1, #24]
1000ccd2:	6183      	str	r3, [r0, #24]
1000ccd4:	69cb      	ldr	r3, [r1, #28]
1000ccd6:	61c3      	str	r3, [r0, #28]
1000ccd8:	6a0b      	ldr	r3, [r1, #32]
1000ccda:	6203      	str	r3, [r0, #32]
1000ccdc:	6a4b      	ldr	r3, [r1, #36]	@ 0x24
1000ccde:	6243      	str	r3, [r0, #36]	@ 0x24
1000cce0:	6a8b      	ldr	r3, [r1, #40]	@ 0x28
1000cce2:	6283      	str	r3, [r0, #40]	@ 0x28
1000cce4:	6acb      	ldr	r3, [r1, #44]	@ 0x2c
1000cce6:	62c3      	str	r3, [r0, #44]	@ 0x2c
1000cce8:	6b0b      	ldr	r3, [r1, #48]	@ 0x30
1000ccea:	6303      	str	r3, [r0, #48]	@ 0x30
1000ccec:	6b4b      	ldr	r3, [r1, #52]	@ 0x34
1000ccee:	6343      	str	r3, [r0, #52]	@ 0x34
1000ccf0:	6b8b      	ldr	r3, [r1, #56]	@ 0x38
1000ccf2:	6383      	str	r3, [r0, #56]	@ 0x38
1000ccf4:	6bcb      	ldr	r3, [r1, #60]	@ 0x3c
1000ccf6:	63c3      	str	r3, [r0, #60]	@ 0x3c
1000ccf8:	3040      	adds	r0, #64	@ 0x40
1000ccfa:	3140      	adds	r1, #64	@ 0x40
1000ccfc:	3a40      	subs	r2, #64	@ 0x40
1000ccfe:	d2db      	bcs.n	1000ccb8 <memcpy+0x10>
1000cd00:	3230      	adds	r2, #48	@ 0x30
1000cd02:	d30b      	bcc.n	1000cd1c <memcpy+0x74>
1000cd04:	680b      	ldr	r3, [r1, #0]
1000cd06:	6003      	str	r3, [r0, #0]
1000cd08:	684b      	ldr	r3, [r1, #4]
1000cd0a:	6043      	str	r3, [r0, #4]
1000cd0c:	688b      	ldr	r3, [r1, #8]
1000cd0e:	6083      	str	r3, [r0, #8]
1000cd10:	68cb      	ldr	r3, [r1, #12]
1000cd12:	60c3      	str	r3, [r0, #12]
1000cd14:	3010      	adds	r0, #16
1000cd16:	3110      	adds	r1, #16
1000cd18:	3a10      	subs	r2, #16
1000cd1a:	d2f3      	bcs.n	1000cd04 <memcpy+0x5c>
1000cd1c:	320c      	adds	r2, #12
1000cd1e:	d305      	bcc.n	1000cd2c <memcpy+0x84>
1000cd20:	f851 3b04 	ldr.w	r3, [r1], #4
1000cd24:	f840 3b04 	str.w	r3, [r0], #4
1000cd28:	3a04      	subs	r2, #4
1000cd2a:	d2f9      	bcs.n	1000cd20 <memcpy+0x78>
1000cd2c:	3204      	adds	r2, #4
1000cd2e:	d008      	beq.n	1000cd42 <memcpy+0x9a>
1000cd30:	07d2      	lsls	r2, r2, #31
1000cd32:	bf1c      	itt	ne
1000cd34:	f811 3b01 	ldrbne.w	r3, [r1], #1
1000cd38:	f800 3b01 	strbne.w	r3, [r0], #1
1000cd3c:	d301      	bcc.n	1000cd42 <memcpy+0x9a>
1000cd3e:	880b      	ldrh	r3, [r1, #0]
1000cd40:	8003      	strh	r3, [r0, #0]
1000cd42:	4660      	mov	r0, ip
1000cd44:	4770      	bx	lr
1000cd46:	bf00      	nop
1000cd48:	2a08      	cmp	r2, #8
1000cd4a:	d313      	bcc.n	1000cd74 <memcpy+0xcc>
1000cd4c:	078b      	lsls	r3, r1, #30
1000cd4e:	d0b1      	beq.n	1000ccb4 <memcpy+0xc>
1000cd50:	f010 0303 	ands.w	r3, r0, #3
1000cd54:	d0ae      	beq.n	1000ccb4 <memcpy+0xc>
1000cd56:	f1c3 0304 	rsb	r3, r3, #4
1000cd5a:	1ad2      	subs	r2, r2, r3
1000cd5c:	07db      	lsls	r3, r3, #31
1000cd5e:	bf1c      	itt	ne
1000cd60:	f811 3b01 	ldrbne.w	r3, [r1], #1
1000cd64:	f800 3b01 	strbne.w	r3, [r0], #1
1000cd68:	d3a4      	bcc.n	1000ccb4 <memcpy+0xc>
1000cd6a:	f831 3b02 	ldrh.w	r3, [r1], #2
1000cd6e:	f820 3b02 	strh.w	r3, [r0], #2
1000cd72:	e79f      	b.n	1000ccb4 <memcpy+0xc>
1000cd74:	3a04      	subs	r2, #4
1000cd76:	d3d9      	bcc.n	1000cd2c <memcpy+0x84>
1000cd78:	3a01      	subs	r2, #1
1000cd7a:	f811 3b01 	ldrb.w	r3, [r1], #1
1000cd7e:	f800 3b01 	strb.w	r3, [r0], #1
1000cd82:	d2f9      	bcs.n	1000cd78 <memcpy+0xd0>
1000cd84:	780b      	ldrb	r3, [r1, #0]
1000cd86:	7003      	strb	r3, [r0, #0]
1000cd88:	784b      	ldrb	r3, [r1, #1]
1000cd8a:	7043      	strb	r3, [r0, #1]
1000cd8c:	788b      	ldrb	r3, [r1, #2]
1000cd8e:	7083      	strb	r3, [r0, #2]
1000cd90:	4660      	mov	r0, ip
1000cd92:	4770      	bx	lr

1000cd94 <strlen>:
1000cd94:	f020 0103 	bic.w	r1, r0, #3
1000cd98:	f010 0003 	ands.w	r0, r0, #3
1000cd9c:	f1c0 0000 	rsb	r0, r0, #0
1000cda0:	f851 3b04 	ldr.w	r3, [r1], #4
1000cda4:	f100 0c04 	add.w	ip, r0, #4
1000cda8:	ea4f 0ccc 	mov.w	ip, ip, lsl #3
1000cdac:	f06f 0200 	mvn.w	r2, #0
1000cdb0:	bf1c      	itt	ne
1000cdb2:	fa22 f20c 	lsrne.w	r2, r2, ip
1000cdb6:	4313      	orrne	r3, r2
1000cdb8:	f04f 0c01 	mov.w	ip, #1
1000cdbc:	ea4c 2c0c 	orr.w	ip, ip, ip, lsl #8
1000cdc0:	ea4c 4c0c 	orr.w	ip, ip, ip, lsl #16
1000cdc4:	eba3 020c 	sub.w	r2, r3, ip
1000cdc8:	ea22 0203 	bic.w	r2, r2, r3
1000cdcc:	ea12 12cc 	ands.w	r2, r2, ip, lsl #7
1000cdd0:	bf04      	itt	eq
1000cdd2:	f851 3b04 	ldreq.w	r3, [r1], #4
1000cdd6:	3004      	addeq	r0, #4
1000cdd8:	d0f4      	beq.n	1000cdc4 <strlen+0x30>
1000cdda:	f1c2 0100 	rsb	r1, r2, #0
1000cdde:	ea02 0201 	and.w	r2, r2, r1
1000cde2:	fab2 f282 	clz	r2, r2
1000cde6:	f1c2 021f 	rsb	r2, r2, #31
1000cdea:	eb00 00d2 	add.w	r0, r0, r2, lsr #3
1000cdee:	4770      	bx	lr

1000cdf0 <_fini>:
1000cdf0:	b5f8      	push	{r3, r4, r5, r6, r7, lr}
1000cdf2:	bf00      	nop
1000cdf4:	0000      	movs	r0, r0
	...

1000cdf8 <__hw_endpoint_reset_transfer_veneer>:
1000cdf8:	f85f f000 	ldr.w	pc, [pc]	@ 1000cdfc <__hw_endpoint_reset_transfer_veneer+0x4>
1000cdfc:	200006f7 	.word	0x200006f7

1000ce00 <__mutex_enter_timeout_ms_veneer>:
1000ce00:	f85f f000 	ldr.w	pc, [pc]	@ 1000ce04 <__mutex_enter_timeout_ms_veneer+0x4>
1000ce04:	2000021f 	.word	0x2000021f

1000ce08 <__hw_endpoint_start_next_buffer_veneer>:
1000ce08:	f85f f000 	ldr.w	pc, [pc]	@ 1000ce0c <__hw_endpoint_start_next_buffer_veneer+0x4>
1000ce0c:	20000751 	.word	0x20000751

1000ce10 <__e15_is_bulkin_ep_veneer>:
1000ce10:	f85f f000 	ldr.w	pc, [pc]	@ 1000ce14 <__e15_is_bulkin_ep_veneer+0x4>
1000ce14:	200005fd 	.word	0x200005fd

1000ce18 <____aeabi_uldivmod_veneer>:
1000ce18:	f85f f000 	ldr.w	pc, [pc]	@ 1000ce1c <____aeabi_uldivmod_veneer+0x4>
1000ce1c:	20000a09 	.word	0x20000a09

1000ce20 <__mutex_exit_veneer>:
1000ce20:	f85f f000 	ldr.w	pc, [pc]	@ 1000ce24 <__mutex_exit_veneer+0x4>
1000ce24:	20000271 	.word	0x20000271

1000ce28 <___hw_endpoint_buffer_control_update32_veneer>:
1000ce28:	f85f f000 	ldr.w	pc, [pc]	@ 1000ce2c <___hw_endpoint_buffer_control_update32_veneer+0x4>
1000ce2c:	20000705 	.word	0x20000705

1000ce30 <__mutex_try_enter_block_until_veneer>:
1000ce30:	f85f f000 	ldr.w	pc, [pc]	@ 1000ce34 <__mutex_try_enter_block_until_veneer+0x4>
1000ce34:	200001ed 	.word	0x200001ed

1000ce38 <__e15_is_critical_frame_period_veneer>:
1000ce38:	f85f f000 	ldr.w	pc, [pc]	@ 1000ce3c <__e15_is_critical_frame_period_veneer+0x4>
1000ce3c:	20000629 	.word	0x20000629

1000ce40 <__reset_non_control_endpoints_veneer>:
1000ce40:	f85f f000 	ldr.w	pc, [pc]	@ 1000ce44 <__reset_non_control_endpoints_veneer+0x4>
1000ce44:	200002c9 	.word	0x200002c9

1000ce48 <__pre_init_runtime_init_bootrom_reset>:
1000ce48:	10008dcd                                ....

1000ce4c <__pre_init_runtime_init_early_resets>:
1000ce4c:	10008d45                                E...

1000ce50 <__pre_init_runtime_init_usb_power_down>:
1000ce50:	10008d71                                q...

1000ce54 <__pre_init_runtime_init_clocks>:
1000ce54:	10008e41                                A...

1000ce58 <__pre_init_runtime_init_post_clock_resets>:
1000ce58:	10008dad                                ....

1000ce5c <__pre_init_runtime_init_boot_locks_reset>:
1000ce5c:	10008ce9                                ....

1000ce60 <__pre_init_runtime_init_spin_locks_reset>:
1000ce60:	10008df1                                ....

1000ce64 <__pre_init_runtime_init_bootrom_locking_enable>:
1000ce64:	10008cb5                                ....

1000ce68 <__pre_init_runtime_init_mutex>:
1000ce68:	10008131                                1...

1000ce6c <__pre_init_runtime_init_install_ram_vector_table>:
1000ce6c:	10008df9                                ....

1000ce70 <__pre_init_runtime_init_default_alarm_pool>:
1000ce70:	1000886d                                m...

1000ce74 <__pre_init_first_per_core_initializer>:
1000ce74:	10008d31                                1...

1000ce78 <__pre_init_runtime_init_per_core_bootrom_reset>:
1000ce78:	10008ddf                                ....

1000ce7c <__pre_init_runtime_init_per_core_enable_coprocessors>:
1000ce7c:	10008d91                                ....

1000ce80 <__pre_init_spinlock_set_extexclall>:
1000ce80:	10007a59                                Yz..

1000ce84 <__pre_init_runtime_init_per_core_irq_priorities>:
1000ce84:	10007ab1                                .z..

1000ce88 <__frame_dummy_init_array_entry>:
1000ce88:	10000219 1000a911                       ........

Disassembly of section .data:

20000110 <mutex_try_enter>:
20000110:	b500      	push	{lr}
20000112:	4603      	mov	r3, r0
20000114:	6800      	ldr	r0, [r0, #0]
20000116:	f3ef 8210 	mrs	r2, PRIMASK
2000011a:	b672      	cpsid	i
2000011c:	e8d0 efcf 	ldaexb	lr, [r0]
20000120:	f05f 0c01 	movs.w	ip, #1
20000124:	f1be 0f00 	cmp.w	lr, #0
20000128:	d1f8      	bne.n	2000011c <mutex_try_enter+0xc>
2000012a:	e8c0 cf4e 	strexb	lr, ip, [r0]
2000012e:	f1be 0f00 	cmp.w	lr, #0
20000132:	d1f3      	bne.n	2000011c <mutex_try_enter+0xc>
20000134:	f3bf 8f5f 	dmb	sy
20000138:	f993 0004 	ldrsb.w	r0, [r3, #4]
2000013c:	2800      	cmp	r0, #0
2000013e:	db0a      	blt.n	20000156 <mutex_try_enter+0x46>
20000140:	b181      	cbz	r1, 20000164 <mutex_try_enter+0x54>
20000142:	6008      	str	r0, [r1, #0]
20000144:	2000      	movs	r0, #0
20000146:	6819      	ldr	r1, [r3, #0]
20000148:	2300      	movs	r3, #0
2000014a:	e8c1 3f8f 	stlb	r3, [r1]
2000014e:	f382 8810 	msr	PRIMASK, r2
20000152:	f85d fb04 	ldr.w	pc, [sp], #4
20000156:	f04f 4150 	mov.w	r1, #3489660928	@ 0xd0000000
2000015a:	f991 1000 	ldrsb.w	r1, [r1]
2000015e:	7119      	strb	r1, [r3, #4]
20000160:	2001      	movs	r0, #1
20000162:	e7f0      	b.n	20000146 <mutex_try_enter+0x36>
20000164:	2000      	movs	r0, #0
20000166:	e7ee      	b.n	20000146 <mutex_try_enter+0x36>

20000168 <mutex_enter_block_until>:
20000168:	b5f8      	push	{r3, r4, r5, r6, r7, lr}
2000016a:	461e      	mov	r6, r3
2000016c:	6803      	ldr	r3, [r0, #0]
2000016e:	2b00      	cmp	r3, #0
20000170:	d027      	beq.n	200001c2 <mutex_enter_block_until+0x5a>
20000172:	4604      	mov	r4, r0
20000174:	4615      	mov	r5, r2
20000176:	f04f 4350 	mov.w	r3, #3489660928	@ 0xd0000000
2000017a:	f993 7000 	ldrsb.w	r7, [r3]
2000017e:	6821      	ldr	r1, [r4, #0]
20000180:	f3ef 8c10 	mrs	ip, PRIMASK
20000184:	b672      	cpsid	i
20000186:	e8d1 2fcf 	ldaexb	r2, [r1]
2000018a:	2301      	movs	r3, #1
2000018c:	2a00      	cmp	r2, #0
2000018e:	d1fa      	bne.n	20000186 <mutex_enter_block_until+0x1e>
20000190:	e8c1 3f42 	strexb	r2, r3, [r1]
20000194:	2a00      	cmp	r2, #0
20000196:	d1f6      	bne.n	20000186 <mutex_enter_block_until+0x1e>
20000198:	f3bf 8f5f 	dmb	sy
2000019c:	f994 e004 	ldrsb.w	lr, [r4, #4]
200001a0:	f1be 0f00 	cmp.w	lr, #0
200001a4:	db13      	blt.n	200001ce <mutex_enter_block_until+0x66>
200001a6:	6822      	ldr	r2, [r4, #0]
200001a8:	2300      	movs	r3, #0
200001aa:	e8c2 3f8f 	stlb	r3, [r2]
200001ae:	f38c 8810 	msr	PRIMASK, ip
200001b2:	4628      	mov	r0, r5
200001b4:	4631      	mov	r1, r6
200001b6:	f000 fddf 	bl	20000d78 <__best_effort_wfe_or_timeout_veneer>
200001ba:	2800      	cmp	r0, #0
200001bc:	d0df      	beq.n	2000017e <mutex_enter_block_until+0x16>
200001be:	2000      	movs	r0, #0
200001c0:	e00d      	b.n	200001de <mutex_enter_block_until+0x76>
200001c2:	4b07      	ldr	r3, [pc, #28]	@ (200001e0 <mutex_enter_block_until+0x78>)
200001c4:	4a07      	ldr	r2, [pc, #28]	@ (200001e4 <mutex_enter_block_until+0x7c>)
200001c6:	21a6      	movs	r1, #166	@ 0xa6
200001c8:	4807      	ldr	r0, [pc, #28]	@ (200001e8 <mutex_enter_block_until+0x80>)
200001ca:	f000 fddd 	bl	20000d88 <____assert_func_veneer>
200001ce:	7127      	strb	r7, [r4, #4]
200001d0:	6822      	ldr	r2, [r4, #0]
200001d2:	2300      	movs	r3, #0
200001d4:	e8c2 3f8f 	stlb	r3, [r2]
200001d8:	f38c 8810 	msr	PRIMASK, ip
200001dc:	2001      	movs	r0, #1
200001de:	bdf8      	pop	{r3, r4, r5, r6, r7, pc}
200001e0:	1000d22c 	.word	0x1000d22c
200001e4:	1000ee10 	.word	0x1000ee10
200001e8:	1000d1e4 	.word	0x1000d1e4

200001ec <mutex_try_enter_block_until>:
200001ec:	b570      	push	{r4, r5, r6, lr}
200001ee:	b082      	sub	sp, #8
200001f0:	4606      	mov	r6, r0
200001f2:	4615      	mov	r5, r2
200001f4:	461c      	mov	r4, r3
200001f6:	a901      	add	r1, sp, #4
200001f8:	f7ff ff8a 	bl	20000110 <mutex_try_enter>
200001fc:	b938      	cbnz	r0, 2000020e <mutex_try_enter_block_until+0x22>
200001fe:	f99d 2004 	ldrsb.w	r2, [sp, #4]
20000202:	f04f 4350 	mov.w	r3, #3489660928	@ 0xd0000000
20000206:	f993 3000 	ldrsb.w	r3, [r3]
2000020a:	429a      	cmp	r2, r3
2000020c:	d101      	bne.n	20000212 <mutex_try_enter_block_until+0x26>
2000020e:	b002      	add	sp, #8
20000210:	bd70      	pop	{r4, r5, r6, pc}
20000212:	462a      	mov	r2, r5
20000214:	4623      	mov	r3, r4
20000216:	4630      	mov	r0, r6
20000218:	f7ff ffa6 	bl	20000168 <mutex_enter_block_until>
2000021c:	e7f7      	b.n	2000020e <mutex_try_enter_block_until+0x22>

2000021e <mutex_enter_timeout_ms>:
2000021e:	b538      	push	{r3, r4, r5, lr}
20000220:	4604      	mov	r4, r0
20000222:	460d      	mov	r5, r1
20000224:	f000 fda4 	bl	20000d70 <__time_us_64_veneer>
20000228:	0eeb      	lsrs	r3, r5, #27
2000022a:	ea4f 1c45 	mov.w	ip, r5, lsl #5
2000022e:	ebbc 0c05 	subs.w	ip, ip, r5
20000232:	f163 0300 	sbc.w	r3, r3, #0
20000236:	009b      	lsls	r3, r3, #2
20000238:	ea43 739c 	orr.w	r3, r3, ip, lsr #30
2000023c:	ea4f 0c8c 	mov.w	ip, ip, lsl #2
20000240:	eb1c 0c05 	adds.w	ip, ip, r5
20000244:	f143 0300 	adc.w	r3, r3, #0
20000248:	00db      	lsls	r3, r3, #3
2000024a:	ea43 735c 	orr.w	r3, r3, ip, lsr #29
2000024e:	ea4f 0ccc 	mov.w	ip, ip, lsl #3
20000252:	eb10 020c 	adds.w	r2, r0, ip
20000256:	eb43 0301 	adc.w	r3, r3, r1
2000025a:	2b00      	cmp	r3, #0
2000025c:	db03      	blt.n	20000266 <mutex_enter_timeout_ms+0x48>
2000025e:	4620      	mov	r0, r4
20000260:	f7ff ff82 	bl	20000168 <mutex_enter_block_until>
20000264:	bd38      	pop	{r3, r4, r5, pc}
20000266:	f04f 32ff 	mov.w	r2, #4294967295
2000026a:	f06f 4300 	mvn.w	r3, #2147483648	@ 0x80000000
2000026e:	e7f6      	b.n	2000025e <mutex_enter_timeout_ms+0x40>

20000270 <mutex_exit>:
20000270:	b508      	push	{r3, lr}
20000272:	6802      	ldr	r2, [r0, #0]
20000274:	f3ef 8310 	mrs	r3, PRIMASK
20000278:	b672      	cpsid	i
2000027a:	e8d2 cfcf 	ldaexb	ip, [r2]
2000027e:	2101      	movs	r1, #1
20000280:	f1bc 0f00 	cmp.w	ip, #0
20000284:	d1f9      	bne.n	2000027a <mutex_exit+0xa>
20000286:	e8c2 1f4c 	strexb	ip, r1, [r2]
2000028a:	f1bc 0f00 	cmp.w	ip, #0
2000028e:	d1f4      	bne.n	2000027a <mutex_exit+0xa>
20000290:	f3bf 8f5f 	dmb	sy
20000294:	f990 2004 	ldrsb.w	r2, [r0, #4]
20000298:	2a00      	cmp	r2, #0
2000029a:	db09      	blt.n	200002b0 <mutex_exit+0x40>
2000029c:	22ff      	movs	r2, #255	@ 0xff
2000029e:	7102      	strb	r2, [r0, #4]
200002a0:	6801      	ldr	r1, [r0, #0]
200002a2:	2200      	movs	r2, #0
200002a4:	e8c1 2f8f 	stlb	r2, [r1]
200002a8:	f383 8810 	msr	PRIMASK, r3
200002ac:	bf40      	sev
200002ae:	bd08      	pop	{r3, pc}
200002b0:	4b02      	ldr	r3, [pc, #8]	@ (200002bc <mutex_exit+0x4c>)
200002b2:	4a03      	ldr	r2, [pc, #12]	@ (200002c0 <mutex_exit+0x50>)
200002b4:	21d5      	movs	r1, #213	@ 0xd5
200002b6:	4803      	ldr	r0, [pc, #12]	@ (200002c4 <mutex_exit+0x54>)
200002b8:	f000 fd66 	bl	20000d88 <____assert_func_veneer>
200002bc:	1000d240 	.word	0x1000d240
200002c0:	1000ee04 	.word	0x1000ee04
200002c4:	1000d1e4 	.word	0x1000d1e4

200002c8 <reset_non_control_endpoints>:
200002c8:	b508      	push	{r3, lr}
200002ca:	2300      	movs	r3, #0
200002cc:	e008      	b.n	200002e0 <reset_non_control_endpoints+0x18>
200002ce:	4a0a      	ldr	r2, [pc, #40]	@ (200002f8 <reset_non_control_endpoints+0x30>)
200002d0:	3301      	adds	r3, #1
200002d2:	2100      	movs	r1, #0
200002d4:	f842 1033 	str.w	r1, [r2, r3, lsl #3]
200002d8:	eb02 02c3 	add.w	r2, r2, r3, lsl #3
200002dc:	6051      	str	r1, [r2, #4]
200002de:	b2db      	uxtb	r3, r3
200002e0:	2b0e      	cmp	r3, #14
200002e2:	d9f4      	bls.n	200002ce <reset_non_control_endpoints+0x6>
200002e4:	f44f 7270 	mov.w	r2, #960	@ 0x3c0
200002e8:	2100      	movs	r1, #0
200002ea:	4804      	ldr	r0, [pc, #16]	@ (200002fc <reset_non_control_endpoints+0x34>)
200002ec:	f000 fd2c 	bl	20000d48 <__memset_veneer>
200002f0:	4b03      	ldr	r3, [pc, #12]	@ (20000300 <reset_non_control_endpoints+0x38>)
200002f2:	4a04      	ldr	r2, [pc, #16]	@ (20000304 <reset_non_control_endpoints+0x3c>)
200002f4:	601a      	str	r2, [r3, #0]
200002f6:	bd08      	pop	{r3, pc}
200002f8:	50100000 	.word	0x50100000
200002fc:	200019c4 	.word	0x200019c4
20000300:	200057d0 	.word	0x200057d0
20000304:	50100180 	.word	0x50100180

20000308 <hw_handle_buff_status>:
20000308:	e92d 43f0 	stmdb	sp!, {r4, r5, r6, r7, r8, r9, lr}
2000030c:	b085      	sub	sp, #20
2000030e:	4b1f      	ldr	r3, [pc, #124]	@ (2000038c <hw_handle_buff_status+0x84>)
20000310:	6d9e      	ldr	r6, [r3, #88]	@ 0x58
20000312:	2400      	movs	r4, #0
20000314:	2501      	movs	r5, #1
20000316:	e004      	b.n	20000322 <hw_handle_buff_status+0x1a>
20000318:	ea26 0605 	bic.w	r6, r6, r5
2000031c:	006d      	lsls	r5, r5, #1
2000031e:	3401      	adds	r4, #1
20000320:	b2e4      	uxtb	r4, r4
20000322:	b37e      	cbz	r6, 20000384 <hw_handle_buff_status+0x7c>
20000324:	2c1f      	cmp	r4, #31
20000326:	d82d      	bhi.n	20000384 <hw_handle_buff_status+0x7c>
20000328:	422e      	tst	r6, r5
2000032a:	d0f7      	beq.n	2000031c <hw_handle_buff_status+0x14>
2000032c:	4b18      	ldr	r3, [pc, #96]	@ (20000390 <hw_handle_buff_status+0x88>)
2000032e:	659d      	str	r5, [r3, #88]	@ 0x58
20000330:	ea4f 0954 	mov.w	r9, r4, lsr #1
20000334:	f084 0701 	eor.w	r7, r4, #1
20000338:	f007 0701 	and.w	r7, r7, #1
2000033c:	f004 03fe 	and.w	r3, r4, #254	@ 0xfe
20000340:	443b      	add	r3, r7
20000342:	4a14      	ldr	r2, [pc, #80]	@ (20000394 <hw_handle_buff_status+0x8c>)
20000344:	eb02 1843 	add.w	r8, r2, r3, lsl #5
20000348:	4640      	mov	r0, r8
2000034a:	f000 fa39 	bl	200007c0 <hw_endpoint_xfer_continue>
2000034e:	2800      	cmp	r0, #0
20000350:	d0e2      	beq.n	20000318 <hw_handle_buff_status+0x10>
20000352:	eb07 0749 	add.w	r7, r7, r9, lsl #1
20000356:	4b0f      	ldr	r3, [pc, #60]	@ (20000394 <hw_handle_buff_status+0x8c>)
20000358:	eb03 1347 	add.w	r3, r3, r7, lsl #5
2000035c:	7899      	ldrb	r1, [r3, #2]
2000035e:	8ada      	ldrh	r2, [r3, #22]
20000360:	2300      	movs	r3, #0
20000362:	9301      	str	r3, [sp, #4]
20000364:	9302      	str	r3, [sp, #8]
20000366:	9303      	str	r3, [sp, #12]
20000368:	2307      	movs	r3, #7
2000036a:	f88d 3005 	strb.w	r3, [sp, #5]
2000036e:	f88d 1008 	strb.w	r1, [sp, #8]
20000372:	9203      	str	r2, [sp, #12]
20000374:	2101      	movs	r1, #1
20000376:	a801      	add	r0, sp, #4
20000378:	f000 fa40 	bl	200007fc <dcd_event_handler>
2000037c:	4640      	mov	r0, r8
2000037e:	f000 f9ba 	bl	200006f6 <hw_endpoint_reset_transfer>
20000382:	e7c9      	b.n	20000318 <hw_handle_buff_status+0x10>
20000384:	b005      	add	sp, #20
20000386:	e8bd 83f0 	ldmia.w	sp!, {r4, r5, r6, r7, r8, r9, pc}
2000038a:	bf00      	nop
2000038c:	50110000 	.word	0x50110000
20000390:	50113000 	.word	0x50113000
20000394:	20001984 	.word	0x20001984

20000398 <dcd_rp2040_irq>:
20000398:	e92d 43f0 	stmdb	sp!, {r4, r5, r6, r7, r8, r9, lr}
2000039c:	b085      	sub	sp, #20
2000039e:	4b77      	ldr	r3, [pc, #476]	@ (2000057c <dcd_rp2040_irq+0x1e4>)
200003a0:	f8d3 5098 	ldr.w	r5, [r3, #152]	@ 0x98
200003a4:	f415 3700 	ands.w	r7, r5, #131072	@ 0x20000
200003a8:	d048      	beq.n	2000043c <dcd_rp2040_irq+0xa4>
200003aa:	4b75      	ldr	r3, [pc, #468]	@ (20000580 <dcd_rp2040_irq+0x1e8>)
200003ac:	6a9a      	ldr	r2, [r3, #40]	@ 0x28
200003ae:	4b75      	ldr	r3, [pc, #468]	@ (20000584 <dcd_rp2040_irq+0x1ec>)
200003b0:	601a      	str	r2, [r3, #0]
200003b2:	2400      	movs	r4, #0
200003b4:	4627      	mov	r7, r4
200003b6:	e00a      	b.n	200003ce <dcd_rp2040_irq+0x36>
200003b8:	4b73      	ldr	r3, [pc, #460]	@ (20000588 <dcd_rp2040_irq+0x1f0>)
200003ba:	eb03 1384 	add.w	r3, r3, r4, lsl #6
200003be:	2200      	movs	r2, #0
200003c0:	f883 203c 	strb.w	r2, [r3, #60]	@ 0x3c
200003c4:	f000 f9c4 	bl	20000750 <hw_endpoint_start_next_buffer>
200003c8:	4637      	mov	r7, r6
200003ca:	3401      	adds	r4, #1
200003cc:	b2e4      	uxtb	r4, r4
200003ce:	2c0f      	cmp	r4, #15
200003d0:	d819      	bhi.n	20000406 <dcd_rp2040_irq+0x6e>
200003d2:	01a2      	lsls	r2, r4, #6
200003d4:	f102 0020 	add.w	r0, r2, #32
200003d8:	4b6b      	ldr	r3, [pc, #428]	@ (20000588 <dcd_rp2040_irq+0x1f0>)
200003da:	4418      	add	r0, r3
200003dc:	4413      	add	r3, r2
200003de:	f893 303b 	ldrb.w	r3, [r3, #59]	@ 0x3b
200003e2:	2b02      	cmp	r3, #2
200003e4:	d1f1      	bne.n	200003ca <dcd_rp2040_irq+0x32>
200003e6:	4b68      	ldr	r3, [pc, #416]	@ (20000588 <dcd_rp2040_irq+0x1f0>)
200003e8:	eb03 1384 	add.w	r3, r3, r4, lsl #6
200003ec:	f893 603a 	ldrb.w	r6, [r3, #58]	@ 0x3a
200003f0:	2e00      	cmp	r6, #0
200003f2:	d0ea      	beq.n	200003ca <dcd_rp2040_irq+0x32>
200003f4:	4b64      	ldr	r3, [pc, #400]	@ (20000588 <dcd_rp2040_irq+0x1f0>)
200003f6:	eb03 1384 	add.w	r3, r3, r4, lsl #6
200003fa:	f893 303c 	ldrb.w	r3, [r3, #60]	@ 0x3c
200003fe:	2b00      	cmp	r3, #0
20000400:	d1da      	bne.n	200003b8 <dcd_rp2040_irq+0x20>
20000402:	4637      	mov	r7, r6
20000404:	e7e1      	b.n	200003ca <dcd_rp2040_irq+0x32>
20000406:	b93f      	cbnz	r7, 20000418 <dcd_rp2040_irq+0x80>
20000408:	4b60      	ldr	r3, [pc, #384]	@ (2000058c <dcd_rp2040_irq+0x1f4>)
2000040a:	781b      	ldrb	r3, [r3, #0]
2000040c:	b923      	cbnz	r3, 20000418 <dcd_rp2040_irq+0x80>
2000040e:	4b60      	ldr	r3, [pc, #384]	@ (20000590 <dcd_rp2040_irq+0x1f8>)
20000410:	f44f 3200 	mov.w	r2, #131072	@ 0x20000
20000414:	f8c3 2090 	str.w	r2, [r3, #144]	@ 0x90
20000418:	4b58      	ldr	r3, [pc, #352]	@ (2000057c <dcd_rp2040_irq+0x1e4>)
2000041a:	6c9b      	ldr	r3, [r3, #72]	@ 0x48
2000041c:	f3c3 030a 	ubfx	r3, r3, #0, #11
20000420:	2200      	movs	r2, #0
20000422:	9201      	str	r2, [sp, #4]
20000424:	9202      	str	r2, [sp, #8]
20000426:	9203      	str	r2, [sp, #12]
20000428:	2203      	movs	r2, #3
2000042a:	f88d 2005 	strb.w	r2, [sp, #5]
2000042e:	9302      	str	r3, [sp, #8]
20000430:	2101      	movs	r1, #1
20000432:	a801      	add	r0, sp, #4
20000434:	f000 f9e2 	bl	200007fc <dcd_event_handler>
20000438:	f44f 3700 	mov.w	r7, #131072	@ 0x20000
2000043c:	f015 0f10 	tst.w	r5, #16
20000440:	d106      	bne.n	20000450 <dcd_rp2040_irq+0xb8>
20000442:	f415 3f80 	tst.w	r5, #65536	@ 0x10000
20000446:	d046      	beq.n	200004d6 <dcd_rp2040_irq+0x13e>
20000448:	f447 3780 	orr.w	r7, r7, #65536	@ 0x10000
2000044c:	2400      	movs	r4, #0
2000044e:	e01f      	b.n	20000490 <dcd_rp2040_irq+0xf8>
20000450:	f047 0710 	orr.w	r7, r7, #16
20000454:	f7ff ff58 	bl	20000308 <hw_handle_buff_status>
20000458:	e7f3      	b.n	20000442 <dcd_rp2040_irq+0xaa>
2000045a:	2602      	movs	r6, #2
2000045c:	4b4d      	ldr	r3, [pc, #308]	@ (20000594 <dcd_rp2040_irq+0x1fc>)
2000045e:	661e      	str	r6, [r3, #96]	@ 0x60
20000460:	4b46      	ldr	r3, [pc, #280]	@ (2000057c <dcd_rp2040_irq+0x1e4>)
20000462:	6e5b      	ldr	r3, [r3, #100]	@ 0x64
20000464:	ea36 0303 	bics.w	r3, r6, r3
20000468:	d1fa      	bne.n	20000460 <dcd_rp2040_irq+0xc8>
2000046a:	f44f 5240 	mov.w	r2, #12288	@ 0x3000
2000046e:	2100      	movs	r1, #0
20000470:	4640      	mov	r0, r8
20000472:	f000 f947 	bl	20000704 <_hw_endpoint_buffer_control_update32>
20000476:	4640      	mov	r0, r8
20000478:	f000 f93d 	bl	200006f6 <hw_endpoint_reset_transfer>
2000047c:	4b44      	ldr	r3, [pc, #272]	@ (20000590 <dcd_rp2040_irq+0x1f8>)
2000047e:	665e      	str	r6, [r3, #100]	@ 0x64
20000480:	661e      	str	r6, [r3, #96]	@ 0x60
20000482:	4b41      	ldr	r3, [pc, #260]	@ (20000588 <dcd_rp2040_irq+0x1f0>)
20000484:	eb03 1349 	add.w	r3, r3, r9, lsl #5
20000488:	2201      	movs	r2, #1
2000048a:	70da      	strb	r2, [r3, #3]
2000048c:	4414      	add	r4, r2
2000048e:	b2e4      	uxtb	r4, r4
20000490:	2c01      	cmp	r4, #1
20000492:	d80b      	bhi.n	200004ac <dcd_rp2040_irq+0x114>
20000494:	46a1      	mov	r9, r4
20000496:	4b3c      	ldr	r3, [pc, #240]	@ (20000588 <dcd_rp2040_irq+0x1f0>)
20000498:	eb03 1844 	add.w	r8, r3, r4, lsl #5
2000049c:	f898 301a 	ldrb.w	r3, [r8, #26]
200004a0:	2b00      	cmp	r3, #0
200004a2:	d0ee      	beq.n	20000482 <dcd_rp2040_irq+0xea>
200004a4:	2c00      	cmp	r4, #0
200004a6:	d0d8      	beq.n	2000045a <dcd_rp2040_irq+0xc2>
200004a8:	2601      	movs	r6, #1
200004aa:	e7d7      	b.n	2000045c <dcd_rp2040_irq+0xc4>
200004ac:	2300      	movs	r3, #0
200004ae:	9301      	str	r3, [sp, #4]
200004b0:	9302      	str	r3, [sp, #8]
200004b2:	9303      	str	r3, [sp, #12]
200004b4:	2306      	movs	r3, #6
200004b6:	f88d 3005 	strb.w	r3, [sp, #5]
200004ba:	4b37      	ldr	r3, [pc, #220]	@ (20000598 <dcd_rp2040_irq+0x200>)
200004bc:	e893 0003 	ldmia.w	r3, {r0, r1}
200004c0:	ab04      	add	r3, sp, #16
200004c2:	e903 0003 	stmdb	r3, {r0, r1}
200004c6:	2101      	movs	r1, #1
200004c8:	a801      	add	r0, sp, #4
200004ca:	f000 f997 	bl	200007fc <dcd_event_handler>
200004ce:	4b30      	ldr	r3, [pc, #192]	@ (20000590 <dcd_rp2040_irq+0x1f8>)
200004d0:	f44f 3200 	mov.w	r2, #131072	@ 0x20000
200004d4:	651a      	str	r2, [r3, #80]	@ 0x50
200004d6:	f415 5f80 	tst.w	r5, #4096	@ 0x1000
200004da:	d10a      	bne.n	200004f2 <dcd_rp2040_irq+0x15a>
200004dc:	f415 4f80 	tst.w	r5, #16384	@ 0x4000
200004e0:	d122      	bne.n	20000528 <dcd_rp2040_irq+0x190>
200004e2:	f415 4f00 	tst.w	r5, #32768	@ 0x8000
200004e6:	d131      	bne.n	2000054c <dcd_rp2040_irq+0x1b4>
200004e8:	42af      	cmp	r7, r5
200004ea:	d141      	bne.n	20000570 <dcd_rp2040_irq+0x1d8>
200004ec:	b005      	add	sp, #20
200004ee:	e8bd 83f0 	ldmia.w	sp!, {r4, r5, r6, r7, r8, r9, pc}
200004f2:	f447 5780 	orr.w	r7, r7, #4096	@ 0x1000
200004f6:	4e21      	ldr	r6, [pc, #132]	@ (2000057c <dcd_rp2040_irq+0x1e4>)
200004f8:	2400      	movs	r4, #0
200004fa:	6034      	str	r4, [r6, #0]
200004fc:	f7ff fee4 	bl	200002c8 <reset_non_control_endpoints>
20000500:	9401      	str	r4, [sp, #4]
20000502:	9402      	str	r4, [sp, #8]
20000504:	9403      	str	r4, [sp, #12]
20000506:	2101      	movs	r1, #1
20000508:	f88d 1005 	strb.w	r1, [sp, #5]
2000050c:	a801      	add	r0, sp, #4
2000050e:	f000 f975 	bl	200007fc <dcd_event_handler>
20000512:	4b1f      	ldr	r3, [pc, #124]	@ (20000590 <dcd_rp2040_irq+0x1f8>)
20000514:	f44f 2200 	mov.w	r2, #524288	@ 0x80000
20000518:	651a      	str	r2, [r3, #80]	@ 0x50
2000051a:	6cf3      	ldr	r3, [r6, #76]	@ 0x4c
2000051c:	f413 3f80 	tst.w	r3, #65536	@ 0x10000
20000520:	d0dc      	beq.n	200004dc <dcd_rp2040_irq+0x144>
20000522:	f000 fc35 	bl	20000d90 <__rp2040_usb_device_enumeration_fix_veneer>
20000526:	e7d9      	b.n	200004dc <dcd_rp2040_irq+0x144>
20000528:	f447 4780 	orr.w	r7, r7, #16384	@ 0x4000
2000052c:	2300      	movs	r3, #0
2000052e:	9301      	str	r3, [sp, #4]
20000530:	9302      	str	r3, [sp, #8]
20000532:	9303      	str	r3, [sp, #12]
20000534:	2304      	movs	r3, #4
20000536:	f88d 3005 	strb.w	r3, [sp, #5]
2000053a:	2101      	movs	r1, #1
2000053c:	eb0d 0003 	add.w	r0, sp, r3
20000540:	f000 f95c 	bl	200007fc <dcd_event_handler>
20000544:	4b12      	ldr	r3, [pc, #72]	@ (20000590 <dcd_rp2040_irq+0x1f8>)
20000546:	2210      	movs	r2, #16
20000548:	651a      	str	r2, [r3, #80]	@ 0x50
2000054a:	e7ca      	b.n	200004e2 <dcd_rp2040_irq+0x14a>
2000054c:	f447 4700 	orr.w	r7, r7, #32768	@ 0x8000
20000550:	2300      	movs	r3, #0
20000552:	9301      	str	r3, [sp, #4]
20000554:	9302      	str	r3, [sp, #8]
20000556:	9303      	str	r3, [sp, #12]
20000558:	2305      	movs	r3, #5
2000055a:	f88d 3005 	strb.w	r3, [sp, #5]
2000055e:	2101      	movs	r1, #1
20000560:	a801      	add	r0, sp, #4
20000562:	f000 f94b 	bl	200007fc <dcd_event_handler>
20000566:	4b0a      	ldr	r3, [pc, #40]	@ (20000590 <dcd_rp2040_irq+0x1f8>)
20000568:	f44f 6200 	mov.w	r2, #2048	@ 0x800
2000056c:	651a      	str	r2, [r3, #80]	@ 0x50
2000056e:	e7bb      	b.n	200004e8 <dcd_rp2040_irq+0x150>
20000570:	ea87 0105 	eor.w	r1, r7, r5
20000574:	4809      	ldr	r0, [pc, #36]	@ (2000059c <dcd_rp2040_irq+0x204>)
20000576:	f000 fbf7 	bl	20000d68 <__panic_veneer>
2000057a:	bf00      	nop
2000057c:	50110000 	.word	0x50110000
20000580:	400b0000 	.word	0x400b0000
20000584:	2000153c 	.word	0x2000153c
20000588:	20001984 	.word	0x20001984
2000058c:	20005f5b 	.word	0x20005f5b
20000590:	50113000 	.word	0x50113000
20000594:	50112000 	.word	0x50112000
20000598:	50100000 	.word	0x50100000
2000059c:	1000d610 	.word	0x1000d610

200005a0 <prepare_ep_buffer>:
200005a0:	b5f8      	push	{r3, r4, r5, r6, r7, lr}
200005a2:	4604      	mov	r4, r0
200005a4:	460f      	mov	r7, r1
200005a6:	8a83      	ldrh	r3, [r0, #20]
200005a8:	8b06      	ldrh	r6, [r0, #24]
200005aa:	429e      	cmp	r6, r3
200005ac:	bf28      	it	cs
200005ae:	461e      	movcs	r6, r3
200005b0:	1b9b      	subs	r3, r3, r6
200005b2:	8283      	strh	r3, [r0, #20]
200005b4:	f446 6280 	orr.w	r2, r6, #1024	@ 0x400
200005b8:	78c3      	ldrb	r3, [r0, #3]
200005ba:	b17b      	cbz	r3, 200005dc <prepare_ep_buffer+0x3c>
200005bc:	f44f 5500 	mov.w	r5, #8192	@ 0x2000
200005c0:	4315      	orrs	r5, r2
200005c2:	f083 0301 	eor.w	r3, r3, #1
200005c6:	70e3      	strb	r3, [r4, #3]
200005c8:	7863      	ldrb	r3, [r4, #1]
200005ca:	b14b      	cbz	r3, 200005e0 <prepare_ep_buffer+0x40>
200005cc:	8aa3      	ldrh	r3, [r4, #20]
200005ce:	b90b      	cbnz	r3, 200005d4 <prepare_ep_buffer+0x34>
200005d0:	f445 4580 	orr.w	r5, r5, #16384	@ 0x4000
200005d4:	b107      	cbz	r7, 200005d8 <prepare_ep_buffer+0x38>
200005d6:	042d      	lsls	r5, r5, #16
200005d8:	4628      	mov	r0, r5
200005da:	bdf8      	pop	{r3, r4, r5, r6, r7, pc}
200005dc:	2500      	movs	r5, #0
200005de:	e7ef      	b.n	200005c0 <prepare_ep_buffer+0x20>
200005e0:	68e0      	ldr	r0, [r4, #12]
200005e2:	4632      	mov	r2, r6
200005e4:	6921      	ldr	r1, [r4, #16]
200005e6:	eb00 1087 	add.w	r0, r0, r7, lsl #6
200005ea:	f000 fbb5 	bl	20000d58 <__unaligned_memcpy_veneer>
200005ee:	6923      	ldr	r3, [r4, #16]
200005f0:	4433      	add	r3, r6
200005f2:	6123      	str	r3, [r4, #16]
200005f4:	f445 4500 	orr.w	r5, r5, #32768	@ 0x8000
200005f8:	e7e8      	b.n	200005cc <prepare_ep_buffer+0x2c>
	...

200005fc <e15_is_bulkin_ep>:
200005fc:	4b09      	ldr	r3, [pc, #36]	@ (20000624 <e15_is_bulkin_ep+0x28>)
200005fe:	6c1b      	ldr	r3, [r3, #64]	@ 0x40
20000600:	f013 0f02 	tst.w	r3, #2
20000604:	d10b      	bne.n	2000061e <e15_is_bulkin_ep+0x22>
20000606:	7883      	ldrb	r3, [r0, #2]
20000608:	09db      	lsrs	r3, r3, #7
2000060a:	d101      	bne.n	20000610 <e15_is_bulkin_ep+0x14>
2000060c:	2000      	movs	r0, #0
2000060e:	4770      	bx	lr
20000610:	7ec3      	ldrb	r3, [r0, #27]
20000612:	2b02      	cmp	r3, #2
20000614:	d001      	beq.n	2000061a <e15_is_bulkin_ep+0x1e>
20000616:	2000      	movs	r0, #0
20000618:	4770      	bx	lr
2000061a:	2001      	movs	r0, #1
2000061c:	4770      	bx	lr
2000061e:	2000      	movs	r0, #0
20000620:	4770      	bx	lr
20000622:	bf00      	nop
20000624:	50110000 	.word	0x50110000

20000628 <e15_is_critical_frame_period>:
20000628:	b508      	push	{r3, lr}
2000062a:	f7ff ffe7 	bl	200005fc <e15_is_bulkin_ep>
2000062e:	b140      	cbz	r0, 20000642 <e15_is_critical_frame_period+0x1a>
20000630:	4b05      	ldr	r3, [pc, #20]	@ (20000648 <e15_is_critical_frame_period+0x20>)
20000632:	6a9b      	ldr	r3, [r3, #40]	@ 0x28
20000634:	4a05      	ldr	r2, [pc, #20]	@ (2000064c <e15_is_critical_frame_period+0x24>)
20000636:	6812      	ldr	r2, [r2, #0]
20000638:	1a9b      	subs	r3, r3, r2
2000063a:	f5a3 7348 	sub.w	r3, r3, #800	@ 0x320
2000063e:	2bc6      	cmp	r3, #198	@ 0xc6
20000640:	d800      	bhi.n	20000644 <e15_is_critical_frame_period+0x1c>
20000642:	bd08      	pop	{r3, pc}
20000644:	2000      	movs	r0, #0
20000646:	e7fc      	b.n	20000642 <e15_is_critical_frame_period+0x1a>
20000648:	400b0000 	.word	0x400b0000
2000064c:	2000153c 	.word	0x2000153c

20000650 <sync_ep_buffer>:
20000650:	b538      	push	{r3, r4, r5, lr}
20000652:	4604      	mov	r4, r0
20000654:	6883      	ldr	r3, [r0, #8]
20000656:	681b      	ldr	r3, [r3, #0]
20000658:	4608      	mov	r0, r1
2000065a:	b101      	cbz	r1, 2000065e <sync_ep_buffer+0xe>
2000065c:	0c1b      	lsrs	r3, r3, #16
2000065e:	f3c3 0509 	ubfx	r5, r3, #0, #10
20000662:	7862      	ldrb	r2, [r4, #1]
20000664:	b992      	cbnz	r2, 2000068c <sync_ep_buffer+0x3c>
20000666:	f413 4f00 	tst.w	r3, #32768	@ 0x8000
2000066a:	d109      	bne.n	20000680 <sync_ep_buffer+0x30>
2000066c:	8ae3      	ldrh	r3, [r4, #22]
2000066e:	442b      	add	r3, r5
20000670:	82e3      	strh	r3, [r4, #22]
20000672:	8b23      	ldrh	r3, [r4, #24]
20000674:	42ab      	cmp	r3, r5
20000676:	d901      	bls.n	2000067c <sync_ep_buffer+0x2c>
20000678:	2300      	movs	r3, #0
2000067a:	82a3      	strh	r3, [r4, #20]
2000067c:	4628      	mov	r0, r5
2000067e:	bd38      	pop	{r3, r4, r5, pc}
20000680:	4b0e      	ldr	r3, [pc, #56]	@ (200006bc <sync_ep_buffer+0x6c>)
20000682:	4a0f      	ldr	r2, [pc, #60]	@ (200006c0 <sync_ep_buffer+0x70>)
20000684:	21e8      	movs	r1, #232	@ 0xe8
20000686:	480f      	ldr	r0, [pc, #60]	@ (200006c4 <sync_ep_buffer+0x74>)
20000688:	f000 fb7e 	bl	20000d88 <____assert_func_veneer>
2000068c:	f413 4f00 	tst.w	r3, #32768	@ 0x8000
20000690:	d00d      	beq.n	200006ae <sync_ep_buffer+0x5e>
20000692:	68e1      	ldr	r1, [r4, #12]
20000694:	462a      	mov	r2, r5
20000696:	eb01 1180 	add.w	r1, r1, r0, lsl #6
2000069a:	6920      	ldr	r0, [r4, #16]
2000069c:	f000 fb5c 	bl	20000d58 <__unaligned_memcpy_veneer>
200006a0:	8ae3      	ldrh	r3, [r4, #22]
200006a2:	442b      	add	r3, r5
200006a4:	82e3      	strh	r3, [r4, #22]
200006a6:	6923      	ldr	r3, [r4, #16]
200006a8:	442b      	add	r3, r5
200006aa:	6123      	str	r3, [r4, #16]
200006ac:	e7e1      	b.n	20000672 <sync_ep_buffer+0x22>
200006ae:	4b06      	ldr	r3, [pc, #24]	@ (200006c8 <sync_ep_buffer+0x78>)
200006b0:	4a03      	ldr	r2, [pc, #12]	@ (200006c0 <sync_ep_buffer+0x70>)
200006b2:	21ee      	movs	r1, #238	@ 0xee
200006b4:	4803      	ldr	r0, [pc, #12]	@ (200006c4 <sync_ep_buffer+0x74>)
200006b6:	f000 fb67 	bl	20000d88 <____assert_func_veneer>
200006ba:	bf00      	nop
200006bc:	1000d630 	.word	0x1000d630
200006c0:	1000efb4 	.word	0x1000efb4
200006c4:	1000d650 	.word	0x1000d650
200006c8:	1000d6ac 	.word	0x1000d6ac

200006cc <_hw_endpoint_xfer_sync>:
200006cc:	b510      	push	{r4, lr}
200006ce:	4604      	mov	r4, r0
200006d0:	6883      	ldr	r3, [r0, #8]
200006d2:	681b      	ldr	r3, [r3, #0]
200006d4:	2100      	movs	r1, #0
200006d6:	f7ff ffbb 	bl	20000650 <sync_ep_buffer>
200006da:	6863      	ldr	r3, [r4, #4]
200006dc:	681b      	ldr	r3, [r3, #0]
200006de:	f013 4f80 	tst.w	r3, #1073741824	@ 0x40000000
200006e2:	d002      	beq.n	200006ea <_hw_endpoint_xfer_sync+0x1e>
200006e4:	8b23      	ldrh	r3, [r4, #24]
200006e6:	4283      	cmp	r3, r0
200006e8:	d000      	beq.n	200006ec <_hw_endpoint_xfer_sync+0x20>
200006ea:	bd10      	pop	{r4, pc}
200006ec:	2101      	movs	r1, #1
200006ee:	4620      	mov	r0, r4
200006f0:	f7ff ffae 	bl	20000650 <sync_ep_buffer>
200006f4:	e7f9      	b.n	200006ea <_hw_endpoint_xfer_sync+0x1e>

200006f6 <hw_endpoint_reset_transfer>:
200006f6:	2300      	movs	r3, #0
200006f8:	7683      	strb	r3, [r0, #26]
200006fa:	8283      	strh	r3, [r0, #20]
200006fc:	82c3      	strh	r3, [r0, #22]
200006fe:	6103      	str	r3, [r0, #16]
20000700:	4770      	bx	lr
	...

20000704 <_hw_endpoint_buffer_control_update32>:
20000704:	b508      	push	{r3, lr}
20000706:	460b      	mov	r3, r1
20000708:	b111      	cbz	r1, 20000710 <_hw_endpoint_buffer_control_update32+0xc>
2000070a:	6881      	ldr	r1, [r0, #8]
2000070c:	6809      	ldr	r1, [r1, #0]
2000070e:	400b      	ands	r3, r1
20000710:	b19a      	cbz	r2, 2000073a <_hw_endpoint_buffer_control_update32+0x36>
20000712:	4313      	orrs	r3, r2
20000714:	f412 6f80 	tst.w	r2, #1024	@ 0x400
20000718:	d00f      	beq.n	2000073a <_hw_endpoint_buffer_control_update32+0x36>
2000071a:	6882      	ldr	r2, [r0, #8]
2000071c:	6811      	ldr	r1, [r2, #0]
2000071e:	f411 6f80 	tst.w	r1, #1024	@ 0x400
20000722:	d10d      	bne.n	20000740 <_hw_endpoint_buffer_control_update32+0x3c>
20000724:	f423 6180 	bic.w	r1, r3, #1024	@ 0x400
20000728:	6011      	str	r1, [r2, #0]
2000072a:	4a07      	ldr	r2, [pc, #28]	@ (20000748 <_hw_endpoint_buffer_control_update32+0x44>)
2000072c:	6c12      	ldr	r2, [r2, #64]	@ 0x40
2000072e:	f012 0f02 	tst.w	r2, #2
20000732:	d102      	bne.n	2000073a <_hw_endpoint_buffer_control_update32+0x36>
20000734:	220c      	movs	r2, #12
20000736:	3a03      	subs	r2, #3
20000738:	d2fd      	bcs.n	20000736 <_hw_endpoint_buffer_control_update32+0x32>
2000073a:	6882      	ldr	r2, [r0, #8]
2000073c:	6013      	str	r3, [r2, #0]
2000073e:	bd08      	pop	{r3, pc}
20000740:	7881      	ldrb	r1, [r0, #2]
20000742:	4802      	ldr	r0, [pc, #8]	@ (2000074c <_hw_endpoint_buffer_control_update32+0x48>)
20000744:	f000 fb10 	bl	20000d68 <__panic_veneer>
20000748:	50110000 	.word	0x50110000
2000074c:	1000d6cc 	.word	0x1000d6cc

20000750 <hw_endpoint_start_next_buffer>:
20000750:	b570      	push	{r4, r5, r6, lr}
20000752:	4604      	mov	r4, r0
20000754:	6843      	ldr	r3, [r0, #4]
20000756:	681d      	ldr	r5, [r3, #0]
20000758:	2100      	movs	r1, #0
2000075a:	f7ff ff21 	bl	200005a0 <prepare_ep_buffer>
2000075e:	f440 5680 	orr.w	r6, r0, #4096	@ 0x1000
20000762:	4b16      	ldr	r3, [pc, #88]	@ (200007bc <hw_endpoint_start_next_buffer+0x6c>)
20000764:	6c1b      	ldr	r3, [r3, #64]	@ 0x40
20000766:	f013 0302 	ands.w	r3, r3, #2
2000076a:	d103      	bne.n	20000774 <hw_endpoint_start_next_buffer+0x24>
2000076c:	78a2      	ldrb	r2, [r4, #2]
2000076e:	09d2      	lsrs	r2, r2, #7
20000770:	d014      	beq.n	2000079c <hw_endpoint_start_next_buffer+0x4c>
20000772:	b1ab      	cbz	r3, 200007a0 <hw_endpoint_start_next_buffer+0x50>
20000774:	78a3      	ldrb	r3, [r4, #2]
20000776:	f013 0f7f 	tst.w	r3, #127	@ 0x7f
2000077a:	d113      	bne.n	200007a4 <hw_endpoint_start_next_buffer+0x54>
2000077c:	2300      	movs	r3, #0
2000077e:	8aa2      	ldrh	r2, [r4, #20]
20000780:	b102      	cbz	r2, 20000784 <hw_endpoint_start_next_buffer+0x34>
20000782:	b18b      	cbz	r3, 200007a8 <hw_endpoint_start_next_buffer+0x58>
20000784:	f025 45a0 	bic.w	r5, r5, #1342177280	@ 0x50000000
20000788:	f045 5500 	orr.w	r5, r5, #536870912	@ 0x20000000
2000078c:	6863      	ldr	r3, [r4, #4]
2000078e:	601d      	str	r5, [r3, #0]
20000790:	4632      	mov	r2, r6
20000792:	2100      	movs	r1, #0
20000794:	4620      	mov	r0, r4
20000796:	f7ff ffb5 	bl	20000704 <_hw_endpoint_buffer_control_update32>
2000079a:	bd70      	pop	{r4, r5, r6, pc}
2000079c:	2301      	movs	r3, #1
2000079e:	e7ee      	b.n	2000077e <hw_endpoint_start_next_buffer+0x2e>
200007a0:	2300      	movs	r3, #0
200007a2:	e7ec      	b.n	2000077e <hw_endpoint_start_next_buffer+0x2e>
200007a4:	2301      	movs	r3, #1
200007a6:	e7ea      	b.n	2000077e <hw_endpoint_start_next_buffer+0x2e>
200007a8:	2101      	movs	r1, #1
200007aa:	4620      	mov	r0, r4
200007ac:	f7ff fef8 	bl	200005a0 <prepare_ep_buffer>
200007b0:	4306      	orrs	r6, r0
200007b2:	f025 5500 	bic.w	r5, r5, #536870912	@ 0x20000000
200007b6:	f045 45a0 	orr.w	r5, r5, #1342177280	@ 0x50000000
200007ba:	e7e7      	b.n	2000078c <hw_endpoint_start_next_buffer+0x3c>
200007bc:	50110000 	.word	0x50110000

200007c0 <hw_endpoint_xfer_continue>:
200007c0:	b538      	push	{r3, r4, r5, lr}
200007c2:	4604      	mov	r4, r0
200007c4:	7e85      	ldrb	r5, [r0, #26]
200007c6:	b12d      	cbz	r5, 200007d4 <hw_endpoint_xfer_continue+0x14>
200007c8:	f7ff ff80 	bl	200006cc <_hw_endpoint_xfer_sync>
200007cc:	8aa3      	ldrh	r3, [r4, #20]
200007ce:	b92b      	cbnz	r3, 200007dc <hw_endpoint_xfer_continue+0x1c>
200007d0:	4628      	mov	r0, r5
200007d2:	bd38      	pop	{r3, r4, r5, pc}
200007d4:	7881      	ldrb	r1, [r0, #2]
200007d6:	4808      	ldr	r0, [pc, #32]	@ (200007f8 <hw_endpoint_xfer_continue+0x38>)
200007d8:	f000 fac6 	bl	20000d68 <__panic_veneer>
200007dc:	4620      	mov	r0, r4
200007de:	f7ff ff23 	bl	20000628 <e15_is_critical_frame_period>
200007e2:	4605      	mov	r5, r0
200007e4:	b118      	cbz	r0, 200007ee <hw_endpoint_xfer_continue+0x2e>
200007e6:	2301      	movs	r3, #1
200007e8:	7723      	strb	r3, [r4, #28]
200007ea:	2500      	movs	r5, #0
200007ec:	e7f0      	b.n	200007d0 <hw_endpoint_xfer_continue+0x10>
200007ee:	4620      	mov	r0, r4
200007f0:	f7ff ffae 	bl	20000750 <hw_endpoint_start_next_buffer>
200007f4:	e7ec      	b.n	200007d0 <hw_endpoint_xfer_continue+0x10>
200007f6:	bf00      	nop
200007f8:	1000d6ec 	.word	0x1000d6ec

200007fc <dcd_event_handler>:
200007fc:	b5f0      	push	{r4, r5, r6, r7, lr}
200007fe:	b085      	sub	sp, #20
20000800:	4605      	mov	r5, r0
20000802:	460e      	mov	r6, r1
20000804:	7843      	ldrb	r3, [r0, #1]
20000806:	3b02      	subs	r3, #2
20000808:	2b04      	cmp	r3, #4
2000080a:	d815      	bhi.n	20000838 <dcd_event_handler+0x3c>
2000080c:	e8df f013 	tbh	[pc, r3, lsl #1]
20000810:	005c0005 	.word	0x005c0005
20000814:	003a002f 	.word	0x003a002f
20000818:	00d5      	.short	0x00d5
2000081a:	4b73      	ldr	r3, [pc, #460]	@ (200009e8 <dcd_event_handler+0x1ec>)
2000081c:	781a      	ldrb	r2, [r3, #0]
2000081e:	f022 0201 	bic.w	r2, r2, #1
20000822:	701a      	strb	r2, [r3, #0]
20000824:	781a      	ldrb	r2, [r3, #0]
20000826:	f022 0202 	bic.w	r2, r2, #2
2000082a:	701a      	strb	r2, [r3, #0]
2000082c:	2100      	movs	r1, #0
2000082e:	7059      	strb	r1, [r3, #1]
20000830:	781a      	ldrb	r2, [r3, #0]
20000832:	f361 0282 	bfi	r2, r1, #2, #1
20000836:	701a      	strb	r2, [r3, #0]
20000838:	4b6c      	ldr	r3, [pc, #432]	@ (200009ec <dcd_event_handler+0x1f0>)
2000083a:	681c      	ldr	r4, [r3, #0]
2000083c:	f104 0014 	add.w	r0, r4, #20
20000840:	f000 fa8e 	bl	20000d60 <__critical_section_enter_blocking_veneer>
20000844:	4629      	mov	r1, r5
20000846:	4620      	mov	r0, r4
20000848:	f000 fa82 	bl	20000d50 <__tu_fifo_write_veneer>
2000084c:	6961      	ldr	r1, [r4, #20]
2000084e:	69a3      	ldr	r3, [r4, #24]
20000850:	2200      	movs	r2, #0
20000852:	e8c1 2f8f 	stlb	r2, [r1]
20000856:	f383 8810 	msr	PRIMASK, r3
2000085a:	2800      	cmp	r0, #0
2000085c:	f000 80b3 	beq.w	200009c6 <dcd_event_handler+0x1ca>
20000860:	4632      	mov	r2, r6
20000862:	7869      	ldrb	r1, [r5, #1]
20000864:	7828      	ldrb	r0, [r5, #0]
20000866:	f000 fa6b 	bl	20000d40 <__tud_event_hook_cb_veneer>
2000086a:	b005      	add	sp, #20
2000086c:	bdf0      	pop	{r4, r5, r6, r7, pc}
2000086e:	4b5e      	ldr	r3, [pc, #376]	@ (200009e8 <dcd_event_handler+0x1ec>)
20000870:	781b      	ldrb	r3, [r3, #0]
20000872:	f013 0f01 	tst.w	r3, #1
20000876:	d0f8      	beq.n	2000086a <dcd_event_handler+0x6e>
20000878:	4a5b      	ldr	r2, [pc, #364]	@ (200009e8 <dcd_event_handler+0x1ec>)
2000087a:	7813      	ldrb	r3, [r2, #0]
2000087c:	f043 0304 	orr.w	r3, r3, #4
20000880:	7013      	strb	r3, [r2, #0]
20000882:	e7d9      	b.n	20000838 <dcd_event_handler+0x3c>
20000884:	4b58      	ldr	r3, [pc, #352]	@ (200009e8 <dcd_event_handler+0x1ec>)
20000886:	781b      	ldrb	r3, [r3, #0]
20000888:	f013 0f01 	tst.w	r3, #1
2000088c:	d0ed      	beq.n	2000086a <dcd_event_handler+0x6e>
2000088e:	4a56      	ldr	r2, [pc, #344]	@ (200009e8 <dcd_event_handler+0x1ec>)
20000890:	7813      	ldrb	r3, [r2, #0]
20000892:	f023 0304 	bic.w	r3, r3, #4
20000896:	7013      	strb	r3, [r2, #0]
20000898:	e7ce      	b.n	20000838 <dcd_event_handler+0x3c>
2000089a:	1ae3      	subs	r3, r4, r3
2000089c:	4854      	ldr	r0, [pc, #336]	@ (200009f0 <dcd_event_handler+0x1f4>)
2000089e:	eb00 1343 	add.w	r3, r0, r3, lsl #5
200008a2:	69db      	ldr	r3, [r3, #28]
200008a4:	b113      	cbz	r3, 200008ac <dcd_event_handler+0xb0>
200008a6:	6869      	ldr	r1, [r5, #4]
200008a8:	7828      	ldrb	r0, [r5, #0]
200008aa:	4798      	blx	r3
200008ac:	3401      	adds	r4, #1
200008ae:	b2e4      	uxtb	r4, r4
200008b0:	4b50      	ldr	r3, [pc, #320]	@ (200009f4 <dcd_event_handler+0x1f8>)
200008b2:	781b      	ldrb	r3, [r3, #0]
200008b4:	42a3      	cmp	r3, r4
200008b6:	d309      	bcc.n	200008cc <dcd_event_handler+0xd0>
200008b8:	42a3      	cmp	r3, r4
200008ba:	d9ee      	bls.n	2000089a <dcd_event_handler+0x9e>
200008bc:	4b4e      	ldr	r3, [pc, #312]	@ (200009f8 <dcd_event_handler+0x1fc>)
200008be:	681b      	ldr	r3, [r3, #0]
200008c0:	eb13 1344 	adds.w	r3, r3, r4, lsl #5
200008c4:	d1ed      	bne.n	200008a2 <dcd_event_handler+0xa6>
200008c6:	e7f1      	b.n	200008ac <dcd_event_handler+0xb0>
200008c8:	2400      	movs	r4, #0
200008ca:	e7f1      	b.n	200008b0 <dcd_event_handler+0xb4>
200008cc:	4b46      	ldr	r3, [pc, #280]	@ (200009e8 <dcd_event_handler+0x1ec>)
200008ce:	781b      	ldrb	r3, [r3, #0]
200008d0:	f013 0f04 	tst.w	r3, #4
200008d4:	d12a      	bne.n	2000092c <dcd_event_handler+0x130>
200008d6:	4b44      	ldr	r3, [pc, #272]	@ (200009e8 <dcd_event_handler+0x1ec>)
200008d8:	78db      	ldrb	r3, [r3, #3]
200008da:	f013 0f01 	tst.w	r3, #1
200008de:	d0c4      	beq.n	2000086a <dcd_event_handler+0x6e>
200008e0:	2400      	movs	r4, #0
200008e2:	9401      	str	r4, [sp, #4]
200008e4:	9402      	str	r4, [sp, #8]
200008e6:	9403      	str	r4, [sp, #12]
200008e8:	782b      	ldrb	r3, [r5, #0]
200008ea:	f88d 3004 	strb.w	r3, [sp, #4]
200008ee:	2303      	movs	r3, #3
200008f0:	f88d 3005 	strb.w	r3, [sp, #5]
200008f4:	686b      	ldr	r3, [r5, #4]
200008f6:	9302      	str	r3, [sp, #8]
200008f8:	4b3c      	ldr	r3, [pc, #240]	@ (200009ec <dcd_event_handler+0x1f0>)
200008fa:	681d      	ldr	r5, [r3, #0]
200008fc:	f105 0014 	add.w	r0, r5, #20
20000900:	f000 fa2e 	bl	20000d60 <__critical_section_enter_blocking_veneer>
20000904:	a901      	add	r1, sp, #4
20000906:	4628      	mov	r0, r5
20000908:	f000 fa22 	bl	20000d50 <__tu_fifo_write_veneer>
2000090c:	696a      	ldr	r2, [r5, #20]
2000090e:	69ab      	ldr	r3, [r5, #24]
20000910:	e8c2 4f8f 	stlb	r4, [r2]
20000914:	f383 8810 	msr	PRIMASK, r3
20000918:	2800      	cmp	r0, #0
2000091a:	d03e      	beq.n	2000099a <dcd_event_handler+0x19e>
2000091c:	4632      	mov	r2, r6
2000091e:	f89d 1005 	ldrb.w	r1, [sp, #5]
20000922:	f89d 0004 	ldrb.w	r0, [sp, #4]
20000926:	f000 fa0b 	bl	20000d40 <__tud_event_hook_cb_veneer>
2000092a:	e79e      	b.n	2000086a <dcd_event_handler+0x6e>
2000092c:	4a2e      	ldr	r2, [pc, #184]	@ (200009e8 <dcd_event_handler+0x1ec>)
2000092e:	7813      	ldrb	r3, [r2, #0]
20000930:	f023 0304 	bic.w	r3, r3, #4
20000934:	7013      	strb	r3, [r2, #0]
20000936:	2400      	movs	r4, #0
20000938:	9401      	str	r4, [sp, #4]
2000093a:	9402      	str	r4, [sp, #8]
2000093c:	9403      	str	r4, [sp, #12]
2000093e:	782b      	ldrb	r3, [r5, #0]
20000940:	f88d 3004 	strb.w	r3, [sp, #4]
20000944:	2305      	movs	r3, #5
20000946:	f88d 3005 	strb.w	r3, [sp, #5]
2000094a:	4b28      	ldr	r3, [pc, #160]	@ (200009ec <dcd_event_handler+0x1f0>)
2000094c:	681f      	ldr	r7, [r3, #0]
2000094e:	f107 0014 	add.w	r0, r7, #20
20000952:	f000 fa05 	bl	20000d60 <__critical_section_enter_blocking_veneer>
20000956:	a901      	add	r1, sp, #4
20000958:	4638      	mov	r0, r7
2000095a:	f000 f9f9 	bl	20000d50 <__tu_fifo_write_veneer>
2000095e:	697a      	ldr	r2, [r7, #20]
20000960:	69bb      	ldr	r3, [r7, #24]
20000962:	e8c2 4f8f 	stlb	r4, [r2]
20000966:	f383 8810 	msr	PRIMASK, r3
2000096a:	b138      	cbz	r0, 2000097c <dcd_event_handler+0x180>
2000096c:	4632      	mov	r2, r6
2000096e:	f89d 1005 	ldrb.w	r1, [sp, #5]
20000972:	f89d 0004 	ldrb.w	r0, [sp, #4]
20000976:	f000 f9e3 	bl	20000d40 <__tud_event_hook_cb_veneer>
2000097a:	e7ac      	b.n	200008d6 <dcd_event_handler+0xda>
2000097c:	f44f 72ad 	mov.w	r2, #346	@ 0x15a
20000980:	491e      	ldr	r1, [pc, #120]	@ (200009fc <dcd_event_handler+0x200>)
20000982:	481f      	ldr	r0, [pc, #124]	@ (20000a00 <dcd_event_handler+0x204>)
20000984:	f000 f9fc 	bl	20000d80 <____wrap_printf_veneer>
20000988:	f04f 23e0 	mov.w	r3, #3758153728	@ 0xe000e000
2000098c:	f8d3 3df0 	ldr.w	r3, [r3, #3568]	@ 0xdf0
20000990:	f013 0f01 	tst.w	r3, #1
20000994:	d09f      	beq.n	200008d6 <dcd_event_handler+0xda>
20000996:	be00      	bkpt	0x0000
20000998:	e79d      	b.n	200008d6 <dcd_event_handler+0xda>
2000099a:	f44f 72ad 	mov.w	r2, #346	@ 0x15a
2000099e:	4917      	ldr	r1, [pc, #92]	@ (200009fc <dcd_event_handler+0x200>)
200009a0:	4817      	ldr	r0, [pc, #92]	@ (20000a00 <dcd_event_handler+0x204>)
200009a2:	f000 f9ed 	bl	20000d80 <____wrap_printf_veneer>
200009a6:	f04f 23e0 	mov.w	r3, #3758153728	@ 0xe000e000
200009aa:	f8d3 3df0 	ldr.w	r3, [r3, #3568]	@ 0xdf0
200009ae:	f013 0f01 	tst.w	r3, #1
200009b2:	f43f af5a 	beq.w	2000086a <dcd_event_handler+0x6e>
200009b6:	be00      	bkpt	0x0000
200009b8:	e757      	b.n	2000086a <dcd_event_handler+0x6e>
200009ba:	4a12      	ldr	r2, [pc, #72]	@ (20000a04 <dcd_event_handler+0x208>)
200009bc:	7813      	ldrb	r3, [r2, #0]
200009be:	3301      	adds	r3, #1
200009c0:	b2db      	uxtb	r3, r3
200009c2:	7013      	strb	r3, [r2, #0]
200009c4:	e738      	b.n	20000838 <dcd_event_handler+0x3c>
200009c6:	f44f 72ad 	mov.w	r2, #346	@ 0x15a
200009ca:	490c      	ldr	r1, [pc, #48]	@ (200009fc <dcd_event_handler+0x200>)
200009cc:	480c      	ldr	r0, [pc, #48]	@ (20000a00 <dcd_event_handler+0x204>)
200009ce:	f000 f9d7 	bl	20000d80 <____wrap_printf_veneer>
200009d2:	f04f 23e0 	mov.w	r3, #3758153728	@ 0xe000e000
200009d6:	f8d3 3df0 	ldr.w	r3, [r3, #3568]	@ 0xdf0
200009da:	f013 0f01 	tst.w	r3, #1
200009de:	f43f af44 	beq.w	2000086a <dcd_event_handler+0x6e>
200009e2:	be00      	bkpt	0x0000
200009e4:	e741      	b.n	2000086a <dcd_event_handler+0x6e>
200009e6:	bf00      	nop
200009e8:	200010e4 	.word	0x200010e4
200009ec:	2000113c 	.word	0x2000113c
200009f0:	1000f078 	.word	0x1000f078
200009f4:	20005f5a 	.word	0x20005f5a
200009f8:	20001020 	.word	0x20001020
200009fc:	1000eff8 	.word	0x1000eff8
20000a00:	1000d74c 	.word	0x1000d74c
20000a04:	20005f5c 	.word	0x20005f5c

20000a08 <__aeabi_uldivmod>:
20000a08:	b953      	cbnz	r3, 20000a20 <__aeabi_uldivmod+0x18>
20000a0a:	b94a      	cbnz	r2, 20000a20 <__aeabi_uldivmod+0x18>
20000a0c:	2900      	cmp	r1, #0
20000a0e:	bf08      	it	eq
20000a10:	2800      	cmpeq	r0, #0
20000a12:	bf1c      	itt	ne
20000a14:	f04f 31ff 	movne.w	r1, #4294967295
20000a18:	f04f 30ff 	movne.w	r0, #4294967295
20000a1c:	f000 b98c 	b.w	20000d38 <__aeabi_idiv0>
20000a20:	f1ad 0c08 	sub.w	ip, sp, #8
20000a24:	e96d ce04 	strd	ip, lr, [sp, #-16]!
20000a28:	f000 f806 	bl	20000a38 <__udivmoddi4>
20000a2c:	f8dd e004 	ldr.w	lr, [sp, #4]
20000a30:	e9dd 2302 	ldrd	r2, r3, [sp, #8]
20000a34:	b004      	add	sp, #16
20000a36:	4770      	bx	lr

20000a38 <__udivmoddi4>:
20000a38:	e92d 4ff0 	stmdb	sp!, {r4, r5, r6, r7, r8, r9, sl, fp, lr}
20000a3c:	9d09      	ldr	r5, [sp, #36]	@ 0x24
20000a3e:	460e      	mov	r6, r1
20000a40:	4604      	mov	r4, r0
20000a42:	460f      	mov	r7, r1
20000a44:	2b00      	cmp	r3, #0
20000a46:	d147      	bne.n	20000ad8 <__udivmoddi4+0xa0>
20000a48:	428a      	cmp	r2, r1
20000a4a:	4694      	mov	ip, r2
20000a4c:	fab2 f382 	clz	r3, r2
20000a50:	d95a      	bls.n	20000b08 <__udivmoddi4+0xd0>
20000a52:	b143      	cbz	r3, 20000a66 <__udivmoddi4+0x2e>
20000a54:	fa02 fc03 	lsl.w	ip, r2, r3
20000a58:	f1c3 0220 	rsb	r2, r3, #32
20000a5c:	409f      	lsls	r7, r3
20000a5e:	409c      	lsls	r4, r3
20000a60:	fa20 f202 	lsr.w	r2, r0, r2
20000a64:	4317      	orrs	r7, r2
20000a66:	ea4f 461c 	mov.w	r6, ip, lsr #16
20000a6a:	fa1f fe8c 	uxth.w	lr, ip
20000a6e:	0c22      	lsrs	r2, r4, #16
20000a70:	fbb7 f1f6 	udiv	r1, r7, r6
20000a74:	fb06 7711 	mls	r7, r6, r1, r7
20000a78:	fb01 f00e 	mul.w	r0, r1, lr
20000a7c:	ea42 4207 	orr.w	r2, r2, r7, lsl #16
20000a80:	4290      	cmp	r0, r2
20000a82:	d908      	bls.n	20000a96 <__udivmoddi4+0x5e>
20000a84:	eb1c 0202 	adds.w	r2, ip, r2
20000a88:	f101 37ff 	add.w	r7, r1, #4294967295
20000a8c:	d202      	bcs.n	20000a94 <__udivmoddi4+0x5c>
20000a8e:	4290      	cmp	r0, r2
20000a90:	f200 813c 	bhi.w	20000d0c <__udivmoddi4+0x2d4>
20000a94:	4639      	mov	r1, r7
20000a96:	1a12      	subs	r2, r2, r0
20000a98:	b2a4      	uxth	r4, r4
20000a9a:	fbb2 f0f6 	udiv	r0, r2, r6
20000a9e:	fb06 2210 	mls	r2, r6, r0, r2
20000aa2:	fb00 fe0e 	mul.w	lr, r0, lr
20000aa6:	ea44 4402 	orr.w	r4, r4, r2, lsl #16
20000aaa:	45a6      	cmp	lr, r4
20000aac:	d908      	bls.n	20000ac0 <__udivmoddi4+0x88>
20000aae:	eb1c 0404 	adds.w	r4, ip, r4
20000ab2:	f100 32ff 	add.w	r2, r0, #4294967295
20000ab6:	d202      	bcs.n	20000abe <__udivmoddi4+0x86>
20000ab8:	45a6      	cmp	lr, r4
20000aba:	f200 812a 	bhi.w	20000d12 <__udivmoddi4+0x2da>
20000abe:	4610      	mov	r0, r2
20000ac0:	ea40 4001 	orr.w	r0, r0, r1, lsl #16
20000ac4:	eba4 040e 	sub.w	r4, r4, lr
20000ac8:	2100      	movs	r1, #0
20000aca:	b11d      	cbz	r5, 20000ad4 <__udivmoddi4+0x9c>
20000acc:	40dc      	lsrs	r4, r3
20000ace:	2300      	movs	r3, #0
20000ad0:	e9c5 4300 	strd	r4, r3, [r5]
20000ad4:	e8bd 8ff0 	ldmia.w	sp!, {r4, r5, r6, r7, r8, r9, sl, fp, pc}
20000ad8:	428b      	cmp	r3, r1
20000ada:	d905      	bls.n	20000ae8 <__udivmoddi4+0xb0>
20000adc:	b10d      	cbz	r5, 20000ae2 <__udivmoddi4+0xaa>
20000ade:	e9c5 0100 	strd	r0, r1, [r5]
20000ae2:	2100      	movs	r1, #0
20000ae4:	4608      	mov	r0, r1
20000ae6:	e7f5      	b.n	20000ad4 <__udivmoddi4+0x9c>
20000ae8:	fab3 f183 	clz	r1, r3
20000aec:	2900      	cmp	r1, #0
20000aee:	d14f      	bne.n	20000b90 <__udivmoddi4+0x158>
20000af0:	42b3      	cmp	r3, r6
20000af2:	f0c0 8102 	bcc.w	20000cfa <__udivmoddi4+0x2c2>
20000af6:	4282      	cmp	r2, r0
20000af8:	f240 80ff 	bls.w	20000cfa <__udivmoddi4+0x2c2>
20000afc:	4608      	mov	r0, r1
20000afe:	2d00      	cmp	r5, #0
20000b00:	d0e8      	beq.n	20000ad4 <__udivmoddi4+0x9c>
20000b02:	e9c5 4700 	strd	r4, r7, [r5]
20000b06:	e7e5      	b.n	20000ad4 <__udivmoddi4+0x9c>
20000b08:	2b00      	cmp	r3, #0
20000b0a:	f040 80af 	bne.w	20000c6c <__udivmoddi4+0x234>
20000b0e:	1a8a      	subs	r2, r1, r2
20000b10:	ea4f 4e1c 	mov.w	lr, ip, lsr #16
20000b14:	fa1f f78c 	uxth.w	r7, ip
20000b18:	2101      	movs	r1, #1
20000b1a:	fbb2 f6fe 	udiv	r6, r2, lr
20000b1e:	fb0e 2016 	mls	r0, lr, r6, r2
20000b22:	0c22      	lsrs	r2, r4, #16
20000b24:	ea42 4200 	orr.w	r2, r2, r0, lsl #16
20000b28:	fb07 f006 	mul.w	r0, r7, r6
20000b2c:	4290      	cmp	r0, r2
20000b2e:	d90f      	bls.n	20000b50 <__udivmoddi4+0x118>
20000b30:	eb1c 0202 	adds.w	r2, ip, r2
20000b34:	f106 38ff 	add.w	r8, r6, #4294967295
20000b38:	bf2c      	ite	cs
20000b3a:	f04f 0901 	movcs.w	r9, #1
20000b3e:	f04f 0900 	movcc.w	r9, #0
20000b42:	4290      	cmp	r0, r2
20000b44:	d903      	bls.n	20000b4e <__udivmoddi4+0x116>
20000b46:	f1b9 0f00 	cmp.w	r9, #0
20000b4a:	f000 80dc 	beq.w	20000d06 <__udivmoddi4+0x2ce>
20000b4e:	4646      	mov	r6, r8
20000b50:	1a12      	subs	r2, r2, r0
20000b52:	b2a4      	uxth	r4, r4
20000b54:	fbb2 f0fe 	udiv	r0, r2, lr
20000b58:	fb0e 2210 	mls	r2, lr, r0, r2
20000b5c:	fb00 f707 	mul.w	r7, r0, r7
20000b60:	ea44 4402 	orr.w	r4, r4, r2, lsl #16
20000b64:	42a7      	cmp	r7, r4
20000b66:	d90f      	bls.n	20000b88 <__udivmoddi4+0x150>
20000b68:	eb1c 0404 	adds.w	r4, ip, r4
20000b6c:	f100 32ff 	add.w	r2, r0, #4294967295
20000b70:	bf2c      	ite	cs
20000b72:	f04f 0e01 	movcs.w	lr, #1
20000b76:	f04f 0e00 	movcc.w	lr, #0
20000b7a:	42a7      	cmp	r7, r4
20000b7c:	d903      	bls.n	20000b86 <__udivmoddi4+0x14e>
20000b7e:	f1be 0f00 	cmp.w	lr, #0
20000b82:	f000 80c9 	beq.w	20000d18 <__udivmoddi4+0x2e0>
20000b86:	4610      	mov	r0, r2
20000b88:	1be4      	subs	r4, r4, r7
20000b8a:	ea40 4006 	orr.w	r0, r0, r6, lsl #16
20000b8e:	e79c      	b.n	20000aca <__udivmoddi4+0x92>
20000b90:	f1c1 0420 	rsb	r4, r1, #32
20000b94:	408b      	lsls	r3, r1
20000b96:	fa06 fc01 	lsl.w	ip, r6, r1
20000b9a:	fa00 fe01 	lsl.w	lr, r0, r1
20000b9e:	fa22 f704 	lsr.w	r7, r2, r4
20000ba2:	40e6      	lsrs	r6, r4
20000ba4:	408a      	lsls	r2, r1
20000ba6:	431f      	orrs	r7, r3
20000ba8:	fa20 f304 	lsr.w	r3, r0, r4
20000bac:	ea4f 4817 	mov.w	r8, r7, lsr #16
20000bb0:	ea43 030c 	orr.w	r3, r3, ip
20000bb4:	fa1f fc87 	uxth.w	ip, r7
20000bb8:	ea4f 4913 	mov.w	r9, r3, lsr #16
20000bbc:	fbb6 f0f8 	udiv	r0, r6, r8
20000bc0:	fb08 6610 	mls	r6, r8, r0, r6
20000bc4:	ea49 4606 	orr.w	r6, r9, r6, lsl #16
20000bc8:	fb00 f90c 	mul.w	r9, r0, ip
20000bcc:	45b1      	cmp	r9, r6
20000bce:	d90e      	bls.n	20000bee <__udivmoddi4+0x1b6>
20000bd0:	19be      	adds	r6, r7, r6
20000bd2:	f100 3aff 	add.w	sl, r0, #4294967295
20000bd6:	bf2c      	ite	cs
20000bd8:	f04f 0b01 	movcs.w	fp, #1
20000bdc:	f04f 0b00 	movcc.w	fp, #0
20000be0:	45b1      	cmp	r9, r6
20000be2:	d903      	bls.n	20000bec <__udivmoddi4+0x1b4>
20000be4:	f1bb 0f00 	cmp.w	fp, #0
20000be8:	f000 80a2 	beq.w	20000d30 <__udivmoddi4+0x2f8>
20000bec:	4650      	mov	r0, sl
20000bee:	eba6 0609 	sub.w	r6, r6, r9
20000bf2:	fa1f f983 	uxth.w	r9, r3
20000bf6:	fbb6 f3f8 	udiv	r3, r6, r8
20000bfa:	fb08 6613 	mls	r6, r8, r3, r6
20000bfe:	fb03 fc0c 	mul.w	ip, r3, ip
20000c02:	ea49 4606 	orr.w	r6, r9, r6, lsl #16
20000c06:	45b4      	cmp	ip, r6
20000c08:	d90e      	bls.n	20000c28 <__udivmoddi4+0x1f0>
20000c0a:	19be      	adds	r6, r7, r6
20000c0c:	f103 38ff 	add.w	r8, r3, #4294967295
20000c10:	bf2c      	ite	cs
20000c12:	f04f 0901 	movcs.w	r9, #1
20000c16:	f04f 0900 	movcc.w	r9, #0
20000c1a:	45b4      	cmp	ip, r6
20000c1c:	d903      	bls.n	20000c26 <__udivmoddi4+0x1ee>
20000c1e:	f1b9 0f00 	cmp.w	r9, #0
20000c22:	f000 8082 	beq.w	20000d2a <__udivmoddi4+0x2f2>
20000c26:	4643      	mov	r3, r8
20000c28:	ea43 4000 	orr.w	r0, r3, r0, lsl #16
20000c2c:	eba6 060c 	sub.w	r6, r6, ip
20000c30:	fba0 8c02 	umull	r8, ip, r0, r2
20000c34:	4566      	cmp	r6, ip
20000c36:	4643      	mov	r3, r8
20000c38:	46e1      	mov	r9, ip
20000c3a:	d302      	bcc.n	20000c42 <__udivmoddi4+0x20a>
20000c3c:	d107      	bne.n	20000c4e <__udivmoddi4+0x216>
20000c3e:	45c6      	cmp	lr, r8
20000c40:	d205      	bcs.n	20000c4e <__udivmoddi4+0x216>
20000c42:	ebb8 0302 	subs.w	r3, r8, r2
20000c46:	eb6c 0c07 	sbc.w	ip, ip, r7
20000c4a:	3801      	subs	r0, #1
20000c4c:	46e1      	mov	r9, ip
20000c4e:	b15d      	cbz	r5, 20000c68 <__udivmoddi4+0x230>
20000c50:	ebbe 0203 	subs.w	r2, lr, r3
20000c54:	eb66 0609 	sbc.w	r6, r6, r9
20000c58:	fa06 f404 	lsl.w	r4, r6, r4
20000c5c:	fa22 f301 	lsr.w	r3, r2, r1
20000c60:	40ce      	lsrs	r6, r1
20000c62:	431c      	orrs	r4, r3
20000c64:	e9c5 4600 	strd	r4, r6, [r5]
20000c68:	2100      	movs	r1, #0
20000c6a:	e733      	b.n	20000ad4 <__udivmoddi4+0x9c>
20000c6c:	fa02 fc03 	lsl.w	ip, r2, r3
20000c70:	f1c3 0220 	rsb	r2, r3, #32
20000c74:	4099      	lsls	r1, r3
20000c76:	409c      	lsls	r4, r3
20000c78:	40d6      	lsrs	r6, r2
20000c7a:	ea4f 4e1c 	mov.w	lr, ip, lsr #16
20000c7e:	fa20 f202 	lsr.w	r2, r0, r2
20000c82:	fa1f f78c 	uxth.w	r7, ip
20000c86:	fbb6 f0fe 	udiv	r0, r6, lr
20000c8a:	430a      	orrs	r2, r1
20000c8c:	fb0e 6610 	mls	r6, lr, r0, r6
20000c90:	0c11      	lsrs	r1, r2, #16
20000c92:	ea41 4106 	orr.w	r1, r1, r6, lsl #16
20000c96:	fb00 f607 	mul.w	r6, r0, r7
20000c9a:	428e      	cmp	r6, r1
20000c9c:	d90e      	bls.n	20000cbc <__udivmoddi4+0x284>
20000c9e:	eb1c 0101 	adds.w	r1, ip, r1
20000ca2:	f100 38ff 	add.w	r8, r0, #4294967295
20000ca6:	bf2c      	ite	cs
20000ca8:	f04f 0901 	movcs.w	r9, #1
20000cac:	f04f 0900 	movcc.w	r9, #0
20000cb0:	428e      	cmp	r6, r1
20000cb2:	d902      	bls.n	20000cba <__udivmoddi4+0x282>
20000cb4:	f1b9 0f00 	cmp.w	r9, #0
20000cb8:	d034      	beq.n	20000d24 <__udivmoddi4+0x2ec>
20000cba:	4640      	mov	r0, r8
20000cbc:	1b89      	subs	r1, r1, r6
20000cbe:	b292      	uxth	r2, r2
20000cc0:	fbb1 f6fe 	udiv	r6, r1, lr
20000cc4:	fb0e 1116 	mls	r1, lr, r6, r1
20000cc8:	ea42 4201 	orr.w	r2, r2, r1, lsl #16
20000ccc:	fb06 f107 	mul.w	r1, r6, r7
20000cd0:	4291      	cmp	r1, r2
20000cd2:	d90e      	bls.n	20000cf2 <__udivmoddi4+0x2ba>
20000cd4:	eb1c 0202 	adds.w	r2, ip, r2
20000cd8:	f106 38ff 	add.w	r8, r6, #4294967295
20000cdc:	bf2c      	ite	cs
20000cde:	f04f 0901 	movcs.w	r9, #1
20000ce2:	f04f 0900 	movcc.w	r9, #0
20000ce6:	4291      	cmp	r1, r2
20000ce8:	d902      	bls.n	20000cf0 <__udivmoddi4+0x2b8>
20000cea:	f1b9 0f00 	cmp.w	r9, #0
20000cee:	d016      	beq.n	20000d1e <__udivmoddi4+0x2e6>
20000cf0:	4646      	mov	r6, r8
20000cf2:	1a52      	subs	r2, r2, r1
20000cf4:	ea46 4100 	orr.w	r1, r6, r0, lsl #16
20000cf8:	e70f      	b.n	20000b1a <__udivmoddi4+0xe2>
20000cfa:	1a84      	subs	r4, r0, r2
20000cfc:	eb66 0203 	sbc.w	r2, r6, r3
20000d00:	2001      	movs	r0, #1
20000d02:	4617      	mov	r7, r2
20000d04:	e6fb      	b.n	20000afe <__udivmoddi4+0xc6>
20000d06:	3e02      	subs	r6, #2
20000d08:	4462      	add	r2, ip
20000d0a:	e721      	b.n	20000b50 <__udivmoddi4+0x118>
20000d0c:	3902      	subs	r1, #2
20000d0e:	4462      	add	r2, ip
20000d10:	e6c1      	b.n	20000a96 <__udivmoddi4+0x5e>
20000d12:	4464      	add	r4, ip
20000d14:	3802      	subs	r0, #2
20000d16:	e6d3      	b.n	20000ac0 <__udivmoddi4+0x88>
20000d18:	4464      	add	r4, ip
20000d1a:	3802      	subs	r0, #2
20000d1c:	e734      	b.n	20000b88 <__udivmoddi4+0x150>
20000d1e:	3e02      	subs	r6, #2
20000d20:	4462      	add	r2, ip
20000d22:	e7e6      	b.n	20000cf2 <__udivmoddi4+0x2ba>
20000d24:	3802      	subs	r0, #2
20000d26:	4461      	add	r1, ip
20000d28:	e7c8      	b.n	20000cbc <__udivmoddi4+0x284>
20000d2a:	3b02      	subs	r3, #2
20000d2c:	443e      	add	r6, r7
20000d2e:	e77b      	b.n	20000c28 <__udivmoddi4+0x1f0>
20000d30:	3802      	subs	r0, #2
20000d32:	443e      	add	r6, r7
20000d34:	e75b      	b.n	20000bee <__udivmoddi4+0x1b6>
20000d36:	bf00      	nop

20000d38 <__aeabi_idiv0>:
20000d38:	4770      	bx	lr
20000d3a:	bf00      	nop
20000d3c:	0000      	movs	r0, r0
	...

20000d40 <__tud_event_hook_cb_veneer>:
20000d40:	f85f f000 	ldr.w	pc, [pc]	@ 20000d44 <__tud_event_hook_cb_veneer+0x4>
20000d44:	1000afcd 	.word	0x1000afcd

20000d48 <__memset_veneer>:
20000d48:	f85f f000 	ldr.w	pc, [pc]	@ 20000d4c <__memset_veneer+0x4>
20000d4c:	1000c8f9 	.word	0x1000c8f9

20000d50 <__tu_fifo_write_veneer>:
20000d50:	f85f f000 	ldr.w	pc, [pc]	@ 20000d54 <__tu_fifo_write_veneer+0x4>
20000d54:	1000c805 	.word	0x1000c805

20000d58 <__unaligned_memcpy_veneer>:
20000d58:	f85f f000 	ldr.w	pc, [pc]	@ 20000d5c <__unaligned_memcpy_veneer+0x4>
20000d5c:	1000aca9 	.word	0x1000aca9

20000d60 <__critical_section_enter_blocking_veneer>:
20000d60:	f85f f000 	ldr.w	pc, [pc]	@ 20000d64 <__critical_section_enter_blocking_veneer+0x4>
20000d64:	1000ad55 	.word	0x1000ad55

20000d68 <__panic_veneer>:
20000d68:	f85f f000 	ldr.w	pc, [pc]	@ 20000d6c <__panic_veneer+0x4>
20000d6c:	10007931 	.word	0x10007931

20000d70 <__time_us_64_veneer>:
20000d70:	f85f f000 	ldr.w	pc, [pc]	@ 20000d74 <__time_us_64_veneer+0x4>
20000d74:	10008919 	.word	0x10008919

20000d78 <__best_effort_wfe_or_timeout_veneer>:
20000d78:	f85f f000 	ldr.w	pc, [pc]	@ 20000d7c <__best_effort_wfe_or_timeout_veneer+0x4>
20000d7c:	10008765 	.word	0x10008765

20000d80 <____wrap_printf_veneer>:
20000d80:	f85f f000 	ldr.w	pc, [pc]	@ 20000d84 <____wrap_printf_veneer+0x4>
20000d84:	1000a681 	.word	0x1000a681

20000d88 <____assert_func_veneer>:
20000d88:	f85f f000 	ldr.w	pc, [pc]	@ 20000d8c <____assert_func_veneer+0x4>
20000d8c:	1000a3c9 	.word	0x1000a3c9

20000d90 <__rp2040_usb_device_enumeration_fix_veneer>:
20000d90:	f85f f000 	ldr.w	pc, [pc]	@ 20000d94 <__rp2040_usb_device_enumeration_fix_veneer+0x4>
20000d94:	1000c899 	.word	0x1000c899

20000d98 <entries>:
	...
20000da0:	0207a8c0 00015180 00000000 00000000     .....Q..........
20000db0:	0307a8c0 00015180 00000000 00000000     .....Q..........
20000dc0:	0407a8c0 00015180                       .....Q..

20000dc8 <tud_network_mac_address>:
20000dc8:	6a840202 00000096                       ...j....

20000dd0 <magic_cookie>:
20000dd0:	63538263                                c.Sc

20000dd4 <iss.0>:
20000dd4:	0000196e                                n...

20000dd8 <tcp_port>:
20000dd8:	                                         ..

20000dda <udp_port>:
20000dda:	                                         ..

20000ddc <striped_spin_lock_num>:
20000ddc:	00000010                                ....

20000de0 <irq_handler_chain_slots>:
20000de0:	00000000 	.word	0x00000000
20000de4:	00010000 	.word	0x00010000
	...
20000df0:	00020000 	.word	0x00020000
	...
20000dfc:	00030000 	.word	0x00030000
	...
20000e08:	00ff0000 	.word	0x00ff0000
20000e0c:	00000000 	.word	0x00000000

20000e10 <irq_handler_chain_first_slot>:
20000e10:	b501      	push	{r0, lr}
20000e12:	6848      	ldr	r0, [r1, #4]
20000e14:	3101      	adds	r1, #1
20000e16:	468e      	mov	lr, r1
20000e18:	4700      	bx	r0

20000e1a <irq_handler_chain_remove_tail>:
20000e1a:	4670      	mov	r0, lr
20000e1c:	3809      	subs	r0, #9
20000e1e:	4901      	ldr	r1, [pc, #4]	@ (20000e24 <irq_handler_chain_remove_tail+0xa>)
20000e20:	4788      	blx	r1
20000e22:	bd01      	pop	{r0, pc}
20000e24:	10007ff5 	.word	0x10007ff5

20000e28 <default_alarm_pool>:
	...
20000e3c:	20000ea0                                ... 

20000e40 <stdio_uart>:
20000e40:	1000a73d 1000a7d5 1000a75d 1000a7e9     =.......].......
20000e50:	00000000 00000100                       ........

20000e58 <_usbd_qdef>:
20000e58:	20001140 000c0010 00000000 00000000     @.. ............
	...

20000e74 <_usbd_rhport>:
20000e74:	000000ff                                ....

20000e78 <ncm_notify_speed_change>:
20000e78:	00002aa1 00080000 00b71b00 00b71b00     .*..............

20000e88 <ncm_notify_connected>:
20000e88:	000100a1 00000000 00000000 00000000     ................

20000e98 <print_mutex>:
	...
