
C:/Users/agras/pico/pico-examples/build/usb/device/tinyusb_device_examples/uac2_headset/tinyusb_dev_uac2_headset.elf:     file format elf32-littlearm

Sections:
Idx Name          Size      VMA       LMA       File off  Algn
  0 .text         000064f0  10000000  10000000  00001000  2**3
                  CONTENTS, ALLOC, LOAD, READONLY, CODE
  1 .rodata       000010f4  100064f0  100064f0  000074f0  2**3
                  CONTENTS, ALLOC, LOAD, READONLY, DATA
  2 .ARM.exidx    00000008  100075e4  100075e4  000085e4  2**2
                  CONTENTS, ALLOC, LOAD, READONLY, DATA
  3 .binary_info  00000024  100075ec  100075ec  000085ec  2**2
                  CONTENTS, ALLOC, LOAD, READONLY, DATA
  4 .ram_vector_table 00000110  20000000  20000000  0000b000  2**2
                  ALLOC
  5 .uninitialized_data 00000000  20000110  20000110  0000a3c8  2**0
                  CONTENTS
  6 .data         00000da4  20000110  10007610  00009110  2**3
                  CONTENTS, ALLOC, LOAD, READONLY, CODE
  7 .tdata        00000000  20000eb4  20000eb4  0000a3c8  2**0
                  CONTENTS, ALLOC, LOAD, DATA, THREAD_LOCAL
  8 .tbss         00000000  20000eb4  20000eb4  00000000  2**0
                  ALLOC, THREAD_LOCAL
  9 .bss          00001458  20000eb8  100083b4  0000aeb8  2**3
                  ALLOC
 10 .heap         00000800  20002310  20002310  0000a3c8  2**2
                  CONTENTS, READONLY
 11 .scratch_x    00000000  20080000  20080000  0000abc8  2**0
                  CONTENTS
 12 .scratch_y    00000000  20081000  20081000  0000abc8  2**0
                  CONTENTS
 13 .stack_dummy  00000800  20081000  20081000  0000abe0  2**5
                  CONTENTS, READONLY
 14 .flash_end    00000014  100083b4  100083b4  0000a3b4  2**2
                  CONTENTS, ALLOC, LOAD, READONLY, DATA
 15 .ARM.attributes 00000034  00000000  00000000  0000b3e0  2**0
                  CONTENTS, READONLY
 16 .comment      00000045  00000000  00000000  0000b414  2**0
                  CONTENTS, READONLY
 17 .debug_info   0002e4e5  00000000  00000000  0000b459  2**0
                  CONTENTS, READONLY, DEBUGGING, OCTETS
 18 .debug_abbrev 00007ffb  00000000  00000000  0003993e  2**0
                  CONTENTS, READONLY, DEBUGGING, OCTETS
 19 .debug_loclists 0001116b  00000000  00000000  00041939  2**0
                  CONTENTS, READONLY, DEBUGGING, OCTETS
 20 .debug_aranges 000014b0  00000000  00000000  00052aa8  2**3
                  CONTENTS, READONLY, DEBUGGING, OCTETS
 21 .debug_rnglists 000018cc  00000000  00000000  00053f58  2**0
                  CONTENTS, READONLY, DEBUGGING, OCTETS
 22 .debug_line   0001954e  00000000  00000000  00055824  2**0
                  CONTENTS, READONLY, DEBUGGING, OCTETS
 23 .debug_str    0000a0e9  00000000  00000000  0006ed72  2**0
                  CONTENTS, READONLY, DEBUGGING, OCTETS
 24 .debug_frame  00003594  00000000  00000000  00078e5c  2**2
                  CONTENTS, READONLY, DEBUGGING, OCTETS
 25 .debug_line_str 00000280  00000000  00000000  0007c3f0  2**0
                  CONTENTS, READONLY, DEBUGGING, OCTETS

C:/Users/agras/pico/pico-examples/build/usb/device/tinyusb_device_examples/uac2_headset/tinyusb_dev_uac2_headset.elf:     file format elf32-littlearm


Disassembly of section .text:

10000000 <__VECTOR_TABLE>:
10000000:	20082000 	.word	0x20082000
10000004:	1000015d 	.word	0x1000015d
10000008:	10000113 	.word	0x10000113
1000000c:	10000115 	.word	0x10000115
10000010:	10000111 	.word	0x10000111
10000014:	10000111 	.word	0x10000111
10000018:	10000111 	.word	0x10000111
1000001c:	10000111 	.word	0x10000111
10000020:	10000111 	.word	0x10000111
10000024:	10000111 	.word	0x10000111
10000028:	10000111 	.word	0x10000111
1000002c:	10000117 	.word	0x10000117
10000030:	10000111 	.word	0x10000111
10000034:	10000111 	.word	0x10000111
10000038:	10000119 	.word	0x10000119
1000003c:	1000011b 	.word	0x1000011b
10000040:	1000011d 	.word	0x1000011d
10000044:	1000011d 	.word	0x1000011d
10000048:	1000011d 	.word	0x1000011d
1000004c:	1000011d 	.word	0x1000011d
10000050:	1000011d 	.word	0x1000011d
10000054:	1000011d 	.word	0x1000011d
10000058:	1000011d 	.word	0x1000011d
1000005c:	1000011d 	.word	0x1000011d
10000060:	1000011d 	.word	0x1000011d
10000064:	1000011d 	.word	0x1000011d
10000068:	1000011d 	.word	0x1000011d
1000006c:	1000011d 	.word	0x1000011d
10000070:	1000011d 	.word	0x1000011d
10000074:	1000011d 	.word	0x1000011d
10000078:	1000011d 	.word	0x1000011d
1000007c:	1000011d 	.word	0x1000011d
10000080:	1000011d 	.word	0x1000011d
10000084:	1000011d 	.word	0x1000011d
10000088:	1000011d 	.word	0x1000011d
1000008c:	1000011d 	.word	0x1000011d
10000090:	1000011d 	.word	0x1000011d
10000094:	1000011d 	.word	0x1000011d
10000098:	1000011d 	.word	0x1000011d
1000009c:	1000011d 	.word	0x1000011d
100000a0:	1000011d 	.word	0x1000011d
100000a4:	1000011d 	.word	0x1000011d
100000a8:	1000011d 	.word	0x1000011d
100000ac:	1000011d 	.word	0x1000011d
100000b0:	1000011d 	.word	0x1000011d
100000b4:	1000011d 	.word	0x1000011d
100000b8:	1000011d 	.word	0x1000011d
100000bc:	1000011d 	.word	0x1000011d
100000c0:	1000011d 	.word	0x1000011d
100000c4:	1000011d 	.word	0x1000011d
100000c8:	1000011d 	.word	0x1000011d
100000cc:	1000011d 	.word	0x1000011d
100000d0:	1000011d 	.word	0x1000011d
100000d4:	1000011d 	.word	0x1000011d
100000d8:	1000011d 	.word	0x1000011d
100000dc:	1000011d 	.word	0x1000011d
100000e0:	1000011d 	.word	0x1000011d
100000e4:	1000011d 	.word	0x1000011d
100000e8:	1000011d 	.word	0x1000011d
100000ec:	1000011d 	.word	0x1000011d
100000f0:	1000011d 	.word	0x1000011d
100000f4:	1000011d 	.word	0x1000011d
100000f8:	1000011d 	.word	0x1000011d
100000fc:	1000011d 	.word	0x1000011d
10000100:	1000011d 	.word	0x1000011d
10000104:	1000011d 	.word	0x1000011d
10000108:	1000011d 	.word	0x1000011d
1000010c:	1000011d 	.word	0x1000011d

10000110 <isr_invalid>:
10000110:	be00      	bkpt	0x0000

10000112 <isr_nmi>:
10000112:	be00      	bkpt	0x0000

10000114 <isr_hardfault>:
10000114:	be00      	bkpt	0x0000

10000116 <isr_svcall>:
10000116:	be00      	bkpt	0x0000

10000118 <isr_pendsv>:
10000118:	be00      	bkpt	0x0000

1000011a <isr_systick>:
1000011a:	be00      	bkpt	0x0000

1000011c <__unhandled_user_irq>:
1000011c:	f3ef 8005 	mrs	r0, IPSR
10000120:	3810      	subs	r0, #16

10000122 <unhandled_user_irq_num_in_r0>:
10000122:	be00      	bkpt	0x0000

10000124 <binary_info_header>:
10000124:	7188ebf2 	.word	0x7188ebf2
10000128:	100075ec 	.word	0x100075ec
1000012c:	10007610 	.word	0x10007610
10000130:	100001a8 	.word	0x100001a8
10000134:	e71aa390 	.word	0xe71aa390

10000138 <__binary_info_header_end>:
10000138:	ffffded3 	.word	0xffffded3
1000013c:	10210142 	.word	0x10210142
10000140:	000001ff 	.word	0x000001ff
10000144:	0000827c 	.word	0x0000827c
10000148:	ab123579 	.word	0xab123579

1000014c <_entry_point>:
1000014c:	f04f 0000 	mov.w	r0, #0

10000150 <_enter_vtable_in_r0>:
10000150:	4920      	ldr	r1, [pc, #128]	@ (100001d4 <data_cpy_table+0x2c>)
10000152:	6008      	str	r0, [r1, #0]
10000154:	c806      	ldmia	r0!, {r1, r2}
10000156:	f381 8808 	msr	MSP, r1
1000015a:	4710      	bx	r2

1000015c <_reset_handler>:
1000015c:	f04f 4050 	mov.w	r0, #3489660928	@ 0xd0000000
10000160:	6800      	ldr	r0, [r0, #0]
10000162:	b110      	cbz	r0, 1000016a <hold_non_core0_in_bootrom+0x6>

10000164 <hold_non_core0_in_bootrom>:
10000164:	f04f 0000 	mov.w	r0, #0
10000168:	e7f2      	b.n	10000150 <_enter_vtable_in_r0>
1000016a:	a40f      	add	r4, pc, #60	@ (adr r4, 100001a8 <data_cpy_table>)
1000016c:	cc0e      	ldmia	r4!, {r1, r2, r3}
1000016e:	2900      	cmp	r1, #0
10000170:	d002      	beq.n	10000178 <hold_non_core0_in_bootrom+0x14>
10000172:	f000 f815 	bl	100001a0 <data_cpy>
10000176:	e7f9      	b.n	1000016c <hold_non_core0_in_bootrom+0x8>
10000178:	4917      	ldr	r1, [pc, #92]	@ (100001d8 <data_cpy_table+0x30>)
1000017a:	4a18      	ldr	r2, [pc, #96]	@ (100001dc <data_cpy_table+0x34>)
1000017c:	2000      	movs	r0, #0
1000017e:	e000      	b.n	10000182 <bss_fill_test>

10000180 <bss_fill_loop>:
10000180:	c101      	stmia	r1!, {r0}

10000182 <bss_fill_test>:
10000182:	4291      	cmp	r1, r2
10000184:	d1fc      	bne.n	10000180 <bss_fill_loop>

10000186 <platform_entry>:
10000186:	2000      	movs	r0, #0
10000188:	f380 880a 	msr	MSPLIM, r0
1000018c:	4914      	ldr	r1, [pc, #80]	@ (100001e0 <data_cpy_table+0x38>)
1000018e:	4788      	blx	r1
10000190:	4914      	ldr	r1, [pc, #80]	@ (100001e4 <data_cpy_table+0x3c>)
10000192:	4788      	blx	r1
10000194:	4914      	ldr	r1, [pc, #80]	@ (100001e8 <data_cpy_table+0x40>)
10000196:	4788      	blx	r1
10000198:	be00      	bkpt	0x0000
1000019a:	e7fd      	b.n	10000198 <platform_entry+0x12>

1000019c <data_cpy_loop>:
1000019c:	c901      	ldmia	r1!, {r0}
1000019e:	c201      	stmia	r2!, {r0}

100001a0 <data_cpy>:
100001a0:	429a      	cmp	r2, r3
100001a2:	d3fb      	bcc.n	1000019c <data_cpy_loop>
100001a4:	4770      	bx	lr
100001a6:	bf00      	nop

100001a8 <data_cpy_table>:
100001a8:	10007610 	.word	0x10007610
100001ac:	20000110 	.word	0x20000110
100001b0:	20000eb4 	.word	0x20000eb4
100001b4:	100083b4 	.word	0x100083b4
100001b8:	20080000 	.word	0x20080000
100001bc:	20080000 	.word	0x20080000
100001c0:	100083b4 	.word	0x100083b4
100001c4:	20081000 	.word	0x20081000
100001c8:	20081000 	.word	0x20081000
100001cc:	00000000 	.word	0x00000000
100001d0:	4770      	bx	lr
100001d2:	0000      	.short	0x0000
100001d4:	e000ed08 	.word	0xe000ed08
100001d8:	20000eb4 	.word	0x20000eb4
100001dc:	20002310 	.word	0x20002310
100001e0:	1000349d 	.word	0x1000349d
100001e4:	10000845 	.word	0x10000845
100001e8:	10003461 	.word	0x10003461

100001ec <_init>:
100001ec:	b5f8      	push	{r3, r4, r5, r6, r7, lr}
100001ee:	bf00      	nop

100001f0 <register_tm_clones>:
100001f0:	4b06      	ldr	r3, [pc, #24]	@ (1000020c <register_tm_clones+0x1c>)
100001f2:	4907      	ldr	r1, [pc, #28]	@ (10000210 <register_tm_clones+0x20>)
100001f4:	1ac9      	subs	r1, r1, r3
100001f6:	1089      	asrs	r1, r1, #2
100001f8:	bf48      	it	mi
100001fa:	3101      	addmi	r1, #1
100001fc:	1049      	asrs	r1, r1, #1
100001fe:	d003      	beq.n	10000208 <register_tm_clones+0x18>
10000200:	4b04      	ldr	r3, [pc, #16]	@ (10000214 <register_tm_clones+0x24>)
10000202:	b10b      	cbz	r3, 10000208 <register_tm_clones+0x18>
10000204:	4801      	ldr	r0, [pc, #4]	@ (1000020c <register_tm_clones+0x1c>)
10000206:	4718      	bx	r3
10000208:	4770      	bx	lr
1000020a:	bf00      	nop
1000020c:	20000eb4 	.word	0x20000eb4
10000210:	20000eb4 	.word	0x20000eb4
10000214:	00000000 	.word	0x00000000

10000218 <frame_dummy>:
10000218:	b508      	push	{r3, lr}
1000021a:	4b05      	ldr	r3, [pc, #20]	@ (10000230 <frame_dummy+0x18>)
1000021c:	b11b      	cbz	r3, 10000226 <frame_dummy+0xe>
1000021e:	4905      	ldr	r1, [pc, #20]	@ (10000234 <frame_dummy+0x1c>)
10000220:	4805      	ldr	r0, [pc, #20]	@ (10000238 <frame_dummy+0x20>)
10000222:	f3af 8000 	nop.w
10000226:	e8bd 4008 	ldmia.w	sp!, {r3, lr}
1000022a:	f7ff bfe1 	b.w	100001f0 <register_tm_clones>
1000022e:	bf00      	nop
10000230:	00000000 	.word	0x00000000
10000234:	20001f98 	.word	0x20001f98
10000238:	100064f0 	.word	0x100064f0

1000023c <tud_audio_feature_unit_set_request>:
1000023c:	b508      	push	{r3, lr}
1000023e:	7948      	ldrb	r0, [r1, #5]
10000240:	2802      	cmp	r0, #2
10000242:	d10f      	bne.n	10000264 <tud_audio_feature_unit_set_request+0x28>
10000244:	784b      	ldrb	r3, [r1, #1]
10000246:	2b01      	cmp	r3, #1
10000248:	d147      	bne.n	100002da <tud_audio_feature_unit_set_request+0x9e>
1000024a:	f891 c003 	ldrb.w	ip, [r1, #3]
1000024e:	f1bc 0f01 	cmp.w	ip, #1
10000252:	d017      	beq.n	10000284 <tud_audio_feature_unit_set_request+0x48>
10000254:	f1bc 0f02 	cmp.w	ip, #2
10000258:	d138      	bne.n	100002cc <tud_audio_feature_unit_set_request+0x90>
1000025a:	88cb      	ldrh	r3, [r1, #6]
1000025c:	2b02      	cmp	r3, #2
1000025e:	d022      	beq.n	100002a6 <tud_audio_feature_unit_set_request+0x6a>
10000260:	2000      	movs	r0, #0
10000262:	e03b      	b.n	100002dc <tud_audio_feature_unit_set_request+0xa0>
10000264:	f44f 7283 	mov.w	r2, #262	@ 0x106
10000268:	491d      	ldr	r1, [pc, #116]	@ (100002e0 <tud_audio_feature_unit_set_request+0xa4>)
1000026a:	481e      	ldr	r0, [pc, #120]	@ (100002e4 <tud_audio_feature_unit_set_request+0xa8>)
1000026c:	f003 fa58 	bl	10003720 <__wrap_printf>
10000270:	f04f 23e0 	mov.w	r3, #3758153728	@ 0xe000e000
10000274:	f8d3 3df0 	ldr.w	r3, [r3, #3568]	@ 0xdf0
10000278:	f013 0f01 	tst.w	r3, #1
1000027c:	d000      	beq.n	10000280 <tud_audio_feature_unit_set_request+0x44>
1000027e:	be00      	bkpt	0x0000
10000280:	2000      	movs	r0, #0
10000282:	e02b      	b.n	100002dc <tud_audio_feature_unit_set_request+0xa0>
10000284:	88cb      	ldrh	r3, [r1, #6]
10000286:	2b01      	cmp	r3, #1
10000288:	d001      	beq.n	1000028e <tud_audio_feature_unit_set_request+0x52>
1000028a:	2000      	movs	r0, #0
1000028c:	e026      	b.n	100002dc <tud_audio_feature_unit_set_request+0xa0>
1000028e:	7888      	ldrb	r0, [r1, #2]
10000290:	f992 2000 	ldrsb.w	r2, [r2]
10000294:	4b14      	ldr	r3, [pc, #80]	@ (100002e8 <tud_audio_feature_unit_set_request+0xac>)
10000296:	541a      	strb	r2, [r3, r0]
10000298:	7889      	ldrb	r1, [r1, #2]
1000029a:	565a      	ldrsb	r2, [r3, r1]
1000029c:	4813      	ldr	r0, [pc, #76]	@ (100002ec <tud_audio_feature_unit_set_request+0xb0>)
1000029e:	f003 fa3f 	bl	10003720 <__wrap_printf>
100002a2:	2001      	movs	r0, #1
100002a4:	e01a      	b.n	100002dc <tud_audio_feature_unit_set_request+0xa0>
100002a6:	7888      	ldrb	r0, [r1, #2]
100002a8:	f9b2 2000 	ldrsh.w	r2, [r2]
100002ac:	4b10      	ldr	r3, [pc, #64]	@ (100002f0 <tud_audio_feature_unit_set_request+0xb4>)
100002ae:	f823 2010 	strh.w	r2, [r3, r0, lsl #1]
100002b2:	7889      	ldrb	r1, [r1, #2]
100002b4:	f933 2011 	ldrsh.w	r2, [r3, r1, lsl #1]
100002b8:	2a00      	cmp	r2, #0
100002ba:	db05      	blt.n	100002c8 <tud_audio_feature_unit_set_request+0x8c>
100002bc:	1212      	asrs	r2, r2, #8
100002be:	480d      	ldr	r0, [pc, #52]	@ (100002f4 <tud_audio_feature_unit_set_request+0xb8>)
100002c0:	f003 fa2e 	bl	10003720 <__wrap_printf>
100002c4:	2001      	movs	r0, #1
100002c6:	e009      	b.n	100002dc <tud_audio_feature_unit_set_request+0xa0>
100002c8:	32ff      	adds	r2, #255	@ 0xff
100002ca:	e7f7      	b.n	100002bc <tud_audio_feature_unit_set_request+0x80>
100002cc:	4662      	mov	r2, ip
100002ce:	4601      	mov	r1, r0
100002d0:	4809      	ldr	r0, [pc, #36]	@ (100002f8 <tud_audio_feature_unit_set_request+0xbc>)
100002d2:	f003 fa25 	bl	10003720 <__wrap_printf>
100002d6:	2000      	movs	r0, #0
100002d8:	e000      	b.n	100002dc <tud_audio_feature_unit_set_request+0xa0>
100002da:	2000      	movs	r0, #0
100002dc:	bd08      	pop	{r3, pc}
100002de:	bf00      	nop
100002e0:	1000705c 	.word	0x1000705c
100002e4:	100064f0 	.word	0x100064f0
100002e8:	20001f90 	.word	0x20001f90
100002ec:	10006508 	.word	0x10006508
100002f0:	20002304 	.word	0x20002304
100002f4:	10006524 	.word	0x10006524
100002f8:	10006544 	.word	0x10006544

100002fc <tud_audio_clock_set_request>:
100002fc:	b508      	push	{r3, lr}
100002fe:	7948      	ldrb	r0, [r1, #5]
10000300:	2804      	cmp	r0, #4
10000302:	d10c      	bne.n	1000031e <tud_audio_clock_set_request+0x22>
10000304:	784b      	ldrb	r3, [r1, #1]
10000306:	2b01      	cmp	r3, #1
10000308:	d127      	bne.n	1000035a <tud_audio_clock_set_request+0x5e>
1000030a:	f891 c003 	ldrb.w	ip, [r1, #3]
1000030e:	f1bc 0f01 	cmp.w	ip, #1
10000312:	d11b      	bne.n	1000034c <tud_audio_clock_set_request+0x50>
10000314:	88cb      	ldrh	r3, [r1, #6]
10000316:	2b04      	cmp	r3, #4
10000318:	d010      	beq.n	1000033c <tud_audio_clock_set_request+0x40>
1000031a:	2000      	movs	r0, #0
1000031c:	e01e      	b.n	1000035c <tud_audio_clock_set_request+0x60>
1000031e:	22c8      	movs	r2, #200	@ 0xc8
10000320:	490f      	ldr	r1, [pc, #60]	@ (10000360 <tud_audio_clock_set_request+0x64>)
10000322:	4810      	ldr	r0, [pc, #64]	@ (10000364 <tud_audio_clock_set_request+0x68>)
10000324:	f003 f9fc 	bl	10003720 <__wrap_printf>
10000328:	f04f 23e0 	mov.w	r3, #3758153728	@ 0xe000e000
1000032c:	f8d3 3df0 	ldr.w	r3, [r3, #3568]	@ 0xdf0
10000330:	f013 0f01 	tst.w	r3, #1
10000334:	d000      	beq.n	10000338 <tud_audio_clock_set_request+0x3c>
10000336:	be00      	bkpt	0x0000
10000338:	2000      	movs	r0, #0
1000033a:	e00f      	b.n	1000035c <tud_audio_clock_set_request+0x60>
1000033c:	6811      	ldr	r1, [r2, #0]
1000033e:	4b0a      	ldr	r3, [pc, #40]	@ (10000368 <tud_audio_clock_set_request+0x6c>)
10000340:	6019      	str	r1, [r3, #0]
10000342:	480a      	ldr	r0, [pc, #40]	@ (1000036c <tud_audio_clock_set_request+0x70>)
10000344:	f003 f9ec 	bl	10003720 <__wrap_printf>
10000348:	2001      	movs	r0, #1
1000034a:	e007      	b.n	1000035c <tud_audio_clock_set_request+0x60>
1000034c:	4662      	mov	r2, ip
1000034e:	4601      	mov	r1, r0
10000350:	4807      	ldr	r0, [pc, #28]	@ (10000370 <tud_audio_clock_set_request+0x74>)
10000352:	f003 f9e5 	bl	10003720 <__wrap_printf>
10000356:	2000      	movs	r0, #0
10000358:	e000      	b.n	1000035c <tud_audio_clock_set_request+0x60>
1000035a:	2000      	movs	r0, #0
1000035c:	bd08      	pop	{r3, pc}
1000035e:	bf00      	nop
10000360:	10007040 	.word	0x10007040
10000364:	100064f0 	.word	0x100064f0
10000368:	20000df4 	.word	0x20000df4
1000036c:	10006598 	.word	0x10006598
10000370:	100065b8 	.word	0x100065b8

10000374 <tud_audio_clock_get_request>:
10000374:	b570      	push	{r4, r5, r6, lr}
10000376:	b08a      	sub	sp, #40	@ 0x28
10000378:	460c      	mov	r4, r1
1000037a:	7949      	ldrb	r1, [r1, #5]
1000037c:	2904      	cmp	r1, #4
1000037e:	d10c      	bne.n	1000039a <tud_audio_clock_get_request+0x26>
10000380:	4605      	mov	r5, r0
10000382:	78e2      	ldrb	r2, [r4, #3]
10000384:	2a01      	cmp	r2, #1
10000386:	d017      	beq.n	100003b8 <tud_audio_clock_get_request+0x44>
10000388:	2a02      	cmp	r2, #2
1000038a:	d05a      	beq.n	10000442 <tud_audio_clock_get_request+0xce>
1000038c:	7863      	ldrb	r3, [r4, #1]
1000038e:	4835      	ldr	r0, [pc, #212]	@ (10000464 <tud_audio_clock_get_request+0xf0>)
10000390:	f003 f9c6 	bl	10003720 <__wrap_printf>
10000394:	2000      	movs	r0, #0
10000396:	b00a      	add	sp, #40	@ 0x28
10000398:	bd70      	pop	{r4, r5, r6, pc}
1000039a:	229a      	movs	r2, #154	@ 0x9a
1000039c:	4932      	ldr	r1, [pc, #200]	@ (10000468 <tud_audio_clock_get_request+0xf4>)
1000039e:	4833      	ldr	r0, [pc, #204]	@ (1000046c <tud_audio_clock_get_request+0xf8>)
100003a0:	f003 f9be 	bl	10003720 <__wrap_printf>
100003a4:	f04f 23e0 	mov.w	r3, #3758153728	@ 0xe000e000
100003a8:	f8d3 3df0 	ldr.w	r3, [r3, #3568]	@ 0xdf0
100003ac:	f013 0f01 	tst.w	r3, #1
100003b0:	d000      	beq.n	100003b4 <tud_audio_clock_get_request+0x40>
100003b2:	be00      	bkpt	0x0000
100003b4:	2000      	movs	r0, #0
100003b6:	e7ee      	b.n	10000396 <tud_audio_clock_get_request+0x22>
100003b8:	7863      	ldrb	r3, [r4, #1]
100003ba:	2b01      	cmp	r3, #1
100003bc:	d011      	beq.n	100003e2 <tud_audio_clock_get_request+0x6e>
100003be:	2b02      	cmp	r3, #2
100003c0:	d1e4      	bne.n	1000038c <tud_audio_clock_get_request+0x18>
100003c2:	2600      	movs	r6, #0
100003c4:	9603      	str	r6, [sp, #12]
100003c6:	9604      	str	r6, [sp, #16]
100003c8:	9605      	str	r6, [sp, #20]
100003ca:	9606      	str	r6, [sp, #24]
100003cc:	9607      	str	r6, [sp, #28]
100003ce:	9608      	str	r6, [sp, #32]
100003d0:	f8ad 6024 	strh.w	r6, [sp, #36]	@ 0x24
100003d4:	2102      	movs	r1, #2
100003d6:	f8ad 100c 	strh.w	r1, [sp, #12]
100003da:	4825      	ldr	r0, [pc, #148]	@ (10000470 <tud_audio_clock_get_request+0xfc>)
100003dc:	f003 f9a0 	bl	10003720 <__wrap_printf>
100003e0:	e026      	b.n	10000430 <tud_audio_clock_get_request+0xbc>
100003e2:	4e24      	ldr	r6, [pc, #144]	@ (10000474 <tud_audio_clock_get_request+0x100>)
100003e4:	6831      	ldr	r1, [r6, #0]
100003e6:	4824      	ldr	r0, [pc, #144]	@ (10000478 <tud_audio_clock_get_request+0x104>)
100003e8:	f003 f99a 	bl	10003720 <__wrap_printf>
100003ec:	6833      	ldr	r3, [r6, #0]
100003ee:	9303      	str	r3, [sp, #12]
100003f0:	2304      	movs	r3, #4
100003f2:	aa03      	add	r2, sp, #12
100003f4:	4621      	mov	r1, r4
100003f6:	4628      	mov	r0, r5
100003f8:	f005 fbb4 	bl	10005b64 <tud_audio_buffer_and_schedule_control_xfer>
100003fc:	e7cb      	b.n	10000396 <tud_audio_clock_get_request+0x22>
100003fe:	4b1f      	ldr	r3, [pc, #124]	@ (1000047c <tud_audio_clock_get_request+0x108>)
10000400:	f853 2026 	ldr.w	r2, [r3, r6, lsl #2]
10000404:	eb06 0146 	add.w	r1, r6, r6, lsl #1
10000408:	ab0a      	add	r3, sp, #40	@ 0x28
1000040a:	eb03 0181 	add.w	r1, r3, r1, lsl #2
1000040e:	f841 2c1a 	str.w	r2, [r1, #-26]
10000412:	f841 2c16 	str.w	r2, [r1, #-22]
10000416:	2300      	movs	r3, #0
10000418:	f821 3c12 	strh.w	r3, [r1, #-18]
1000041c:	f821 3c10 	strh.w	r3, [r1, #-16]
10000420:	9300      	str	r3, [sp, #0]
10000422:	4613      	mov	r3, r2
10000424:	4631      	mov	r1, r6
10000426:	4816      	ldr	r0, [pc, #88]	@ (10000480 <tud_audio_clock_get_request+0x10c>)
10000428:	f003 f97a 	bl	10003720 <__wrap_printf>
1000042c:	3601      	adds	r6, #1
1000042e:	b2f6      	uxtb	r6, r6
10000430:	2e01      	cmp	r6, #1
10000432:	d9e4      	bls.n	100003fe <tud_audio_clock_get_request+0x8a>
10000434:	231a      	movs	r3, #26
10000436:	aa03      	add	r2, sp, #12
10000438:	4621      	mov	r1, r4
1000043a:	4628      	mov	r0, r5
1000043c:	f005 fb92 	bl	10005b64 <tud_audio_buffer_and_schedule_control_xfer>
10000440:	e7a9      	b.n	10000396 <tud_audio_clock_get_request+0x22>
10000442:	7863      	ldrb	r3, [r4, #1]
10000444:	2b01      	cmp	r3, #1
10000446:	d1a1      	bne.n	1000038c <tud_audio_clock_get_request+0x18>
10000448:	2601      	movs	r6, #1
1000044a:	f88d 600c 	strb.w	r6, [sp, #12]
1000044e:	4631      	mov	r1, r6
10000450:	480c      	ldr	r0, [pc, #48]	@ (10000484 <tud_audio_clock_get_request+0x110>)
10000452:	f003 f965 	bl	10003720 <__wrap_printf>
10000456:	4633      	mov	r3, r6
10000458:	aa03      	add	r2, sp, #12
1000045a:	4621      	mov	r1, r4
1000045c:	4628      	mov	r0, r5
1000045e:	f005 fb81 	bl	10005b64 <tud_audio_buffer_and_schedule_control_xfer>
10000462:	e798      	b.n	10000396 <tud_audio_clock_get_request+0x22>
10000464:	10006670 	.word	0x10006670
10000468:	100070a4 	.word	0x100070a4
1000046c:	100064f0 	.word	0x100064f0
10000470:	10006624 	.word	0x10006624
10000474:	20000df4 	.word	0x20000df4
10000478:	10006604 	.word	0x10006604
1000047c:	100070c4 	.word	0x100070c4
10000480:	10006640 	.word	0x10006640
10000484:	10006658 	.word	0x10006658

10000488 <tud_audio_feature_unit_get_request>:
10000488:	b570      	push	{r4, r5, r6, lr}
1000048a:	b084      	sub	sp, #16
1000048c:	460c      	mov	r4, r1
1000048e:	7949      	ldrb	r1, [r1, #5]
10000490:	2902      	cmp	r1, #2
10000492:	d111      	bne.n	100004b8 <tud_audio_feature_unit_get_request+0x30>
10000494:	4605      	mov	r5, r0
10000496:	78e2      	ldrb	r2, [r4, #3]
10000498:	2a01      	cmp	r2, #1
1000049a:	d01c      	beq.n	100004d6 <tud_audio_feature_unit_get_request+0x4e>
1000049c:	2a02      	cmp	r2, #2
1000049e:	d104      	bne.n	100004aa <tud_audio_feature_unit_get_request+0x22>
100004a0:	7863      	ldrb	r3, [r4, #1]
100004a2:	2b02      	cmp	r3, #2
100004a4:	d029      	beq.n	100004fa <tud_audio_feature_unit_get_request+0x72>
100004a6:	2b01      	cmp	r3, #1
100004a8:	d03d      	beq.n	10000526 <tud_audio_feature_unit_get_request+0x9e>
100004aa:	7863      	ldrb	r3, [r4, #1]
100004ac:	4829      	ldr	r0, [pc, #164]	@ (10000554 <tud_audio_feature_unit_get_request+0xcc>)
100004ae:	f003 f937 	bl	10003720 <__wrap_printf>
100004b2:	2000      	movs	r0, #0
100004b4:	b004      	add	sp, #16
100004b6:	bd70      	pop	{r4, r5, r6, pc}
100004b8:	22e0      	movs	r2, #224	@ 0xe0
100004ba:	4927      	ldr	r1, [pc, #156]	@ (10000558 <tud_audio_feature_unit_get_request+0xd0>)
100004bc:	4827      	ldr	r0, [pc, #156]	@ (1000055c <tud_audio_feature_unit_get_request+0xd4>)
100004be:	f003 f92f 	bl	10003720 <__wrap_printf>
100004c2:	f04f 23e0 	mov.w	r3, #3758153728	@ 0xe000e000
100004c6:	f8d3 3df0 	ldr.w	r3, [r3, #3568]	@ 0xdf0
100004ca:	f013 0f01 	tst.w	r3, #1
100004ce:	d000      	beq.n	100004d2 <tud_audio_feature_unit_get_request+0x4a>
100004d0:	be00      	bkpt	0x0000
100004d2:	2000      	movs	r0, #0
100004d4:	e7ee      	b.n	100004b4 <tud_audio_feature_unit_get_request+0x2c>
100004d6:	7863      	ldrb	r3, [r4, #1]
100004d8:	2b01      	cmp	r3, #1
100004da:	d1df      	bne.n	1000049c <tud_audio_feature_unit_get_request+0x14>
100004dc:	78a1      	ldrb	r1, [r4, #2]
100004de:	4b20      	ldr	r3, [pc, #128]	@ (10000560 <tud_audio_feature_unit_get_request+0xd8>)
100004e0:	565a      	ldrsb	r2, [r3, r1]
100004e2:	f88d 2008 	strb.w	r2, [sp, #8]
100004e6:	481f      	ldr	r0, [pc, #124]	@ (10000564 <tud_audio_feature_unit_get_request+0xdc>)
100004e8:	f003 f91a 	bl	10003720 <__wrap_printf>
100004ec:	2301      	movs	r3, #1
100004ee:	aa02      	add	r2, sp, #8
100004f0:	4621      	mov	r1, r4
100004f2:	4628      	mov	r0, r5
100004f4:	f005 fb36 	bl	10005b64 <tud_audio_buffer_and_schedule_control_xfer>
100004f8:	e7dc      	b.n	100004b4 <tud_audio_feature_unit_get_request+0x2c>
100004fa:	4b1b      	ldr	r3, [pc, #108]	@ (10000568 <tud_audio_feature_unit_get_request+0xe0>)
100004fc:	ae02      	add	r6, sp, #8
100004fe:	e893 0003 	ldmia.w	r3, {r0, r1}
10000502:	e886 0003 	stmia.w	r6, {r0, r1}
10000506:	2301      	movs	r3, #1
10000508:	9300      	str	r3, [sp, #0]
1000050a:	2300      	movs	r3, #0
1000050c:	f06f 0231 	mvn.w	r2, #49	@ 0x31
10000510:	78a1      	ldrb	r1, [r4, #2]
10000512:	4816      	ldr	r0, [pc, #88]	@ (1000056c <tud_audio_feature_unit_get_request+0xe4>)
10000514:	f003 f904 	bl	10003720 <__wrap_printf>
10000518:	2308      	movs	r3, #8
1000051a:	4632      	mov	r2, r6
1000051c:	4621      	mov	r1, r4
1000051e:	4628      	mov	r0, r5
10000520:	f005 fb20 	bl	10005b64 <tud_audio_buffer_and_schedule_control_xfer>
10000524:	e7c6      	b.n	100004b4 <tud_audio_feature_unit_get_request+0x2c>
10000526:	78a1      	ldrb	r1, [r4, #2]
10000528:	4b11      	ldr	r3, [pc, #68]	@ (10000570 <tud_audio_feature_unit_get_request+0xe8>)
1000052a:	f933 3011 	ldrsh.w	r3, [r3, r1, lsl #1]
1000052e:	f8ad 3008 	strh.w	r3, [sp, #8]
10000532:	461a      	mov	r2, r3
10000534:	2b00      	cmp	r3, #0
10000536:	db0a      	blt.n	1000054e <tud_audio_feature_unit_get_request+0xc6>
10000538:	1212      	asrs	r2, r2, #8
1000053a:	480e      	ldr	r0, [pc, #56]	@ (10000574 <tud_audio_feature_unit_get_request+0xec>)
1000053c:	f003 f8f0 	bl	10003720 <__wrap_printf>
10000540:	2302      	movs	r3, #2
10000542:	aa02      	add	r2, sp, #8
10000544:	4621      	mov	r1, r4
10000546:	4628      	mov	r0, r5
10000548:	f005 fb0c 	bl	10005b64 <tud_audio_buffer_and_schedule_control_xfer>
1000054c:	e7b2      	b.n	100004b4 <tud_audio_feature_unit_get_request+0x2c>
1000054e:	f103 02ff 	add.w	r2, r3, #255	@ 0xff
10000552:	e7f1      	b.n	10000538 <tud_audio_feature_unit_get_request+0xb0>
10000554:	10006728 	.word	0x10006728
10000558:	10007080 	.word	0x10007080
1000055c:	100064f0 	.word	0x100064f0
10000560:	20001f90 	.word	0x20001f90
10000564:	100066bc 	.word	0x100066bc
10000568:	100070cc 	.word	0x100070cc
1000056c:	100066d8 	.word	0x100066d8
10000570:	20002304 	.word	0x20002304
10000574:	10006708 	.word	0x10006708

10000578 <board_millis>:
10000578:	b508      	push	{r3, lr}
1000057a:	f001 fa1f 	bl	100019bc <time_us_64>
1000057e:	b129      	cbz	r1, 1000058c <board_millis+0x14>
10000580:	f44f 727a 	mov.w	r2, #1000	@ 0x3e8
10000584:	2300      	movs	r3, #0
10000586:	f005 ff77 	bl	10006478 <____aeabi_uldivmod_veneer>
1000058a:	bd08      	pop	{r3, pc}
1000058c:	4b02      	ldr	r3, [pc, #8]	@ (10000598 <board_millis+0x20>)
1000058e:	fba3 3000 	umull	r3, r0, r3, r0
10000592:	0980      	lsrs	r0, r0, #6
10000594:	e7f9      	b.n	1000058a <board_millis+0x12>
10000596:	bf00      	nop
10000598:	10624dd3 	.word	0x10624dd3

1000059c <tud_mount_cb>:
1000059c:	4b02      	ldr	r3, [pc, #8]	@ (100005a8 <tud_mount_cb+0xc>)
1000059e:	f44f 727a 	mov.w	r2, #1000	@ 0x3e8
100005a2:	601a      	str	r2, [r3, #0]
100005a4:	4770      	bx	lr
100005a6:	bf00      	nop
100005a8:	20000df0 	.word	0x20000df0

100005ac <tud_umount_cb>:
100005ac:	4b01      	ldr	r3, [pc, #4]	@ (100005b4 <tud_umount_cb+0x8>)
100005ae:	22fa      	movs	r2, #250	@ 0xfa
100005b0:	601a      	str	r2, [r3, #0]
100005b2:	4770      	bx	lr
100005b4:	20000df0 	.word	0x20000df0

100005b8 <tud_suspend_cb>:
100005b8:	4b02      	ldr	r3, [pc, #8]	@ (100005c4 <tud_suspend_cb+0xc>)
100005ba:	f640 12c4 	movw	r2, #2500	@ 0x9c4
100005be:	601a      	str	r2, [r3, #0]
100005c0:	4770      	bx	lr
100005c2:	bf00      	nop
100005c4:	20000df0 	.word	0x20000df0

100005c8 <tud_resume_cb>:
100005c8:	b508      	push	{r3, lr}
100005ca:	f003 fe1b 	bl	10004204 <tud_mounted>
100005ce:	b120      	cbz	r0, 100005da <tud_resume_cb+0x12>
100005d0:	f44f 727a 	mov.w	r2, #1000	@ 0x3e8
100005d4:	4b02      	ldr	r3, [pc, #8]	@ (100005e0 <tud_resume_cb+0x18>)
100005d6:	601a      	str	r2, [r3, #0]
100005d8:	bd08      	pop	{r3, pc}
100005da:	22fa      	movs	r2, #250	@ 0xfa
100005dc:	e7fa      	b.n	100005d4 <tud_resume_cb+0xc>
100005de:	bf00      	nop
100005e0:	20000df0 	.word	0x20000df0

100005e4 <tud_audio_get_req_entity_cb>:
100005e4:	b508      	push	{r3, lr}
100005e6:	460a      	mov	r2, r1
100005e8:	7949      	ldrb	r1, [r1, #5]
100005ea:	2904      	cmp	r1, #4
100005ec:	d008      	beq.n	10000600 <tud_audio_get_req_entity_cb+0x1c>
100005ee:	2902      	cmp	r1, #2
100005f0:	d00a      	beq.n	10000608 <tud_audio_get_req_entity_cb+0x24>
100005f2:	7853      	ldrb	r3, [r2, #1]
100005f4:	78d2      	ldrb	r2, [r2, #3]
100005f6:	4806      	ldr	r0, [pc, #24]	@ (10000610 <tud_audio_get_req_entity_cb+0x2c>)
100005f8:	f003 f892 	bl	10003720 <__wrap_printf>
100005fc:	2000      	movs	r0, #0
100005fe:	bd08      	pop	{r3, pc}
10000600:	4611      	mov	r1, r2
10000602:	f7ff feb7 	bl	10000374 <tud_audio_clock_get_request>
10000606:	e7fa      	b.n	100005fe <tud_audio_get_req_entity_cb+0x1a>
10000608:	4611      	mov	r1, r2
1000060a:	f7ff ff3d 	bl	10000488 <tud_audio_feature_unit_get_request>
1000060e:	e7f6      	b.n	100005fe <tud_audio_get_req_entity_cb+0x1a>
10000610:	1000677c 	.word	0x1000677c

10000614 <tud_audio_set_req_entity_cb>:
10000614:	b508      	push	{r3, lr}
10000616:	468c      	mov	ip, r1
10000618:	7949      	ldrb	r1, [r1, #5]
1000061a:	2902      	cmp	r1, #2
1000061c:	d00a      	beq.n	10000634 <tud_audio_set_req_entity_cb+0x20>
1000061e:	2904      	cmp	r1, #4
10000620:	d00c      	beq.n	1000063c <tud_audio_set_req_entity_cb+0x28>
10000622:	f89c 3001 	ldrb.w	r3, [ip, #1]
10000626:	f89c 2003 	ldrb.w	r2, [ip, #3]
1000062a:	4806      	ldr	r0, [pc, #24]	@ (10000644 <tud_audio_set_req_entity_cb+0x30>)
1000062c:	f003 f878 	bl	10003720 <__wrap_printf>
10000630:	2000      	movs	r0, #0
10000632:	bd08      	pop	{r3, pc}
10000634:	4661      	mov	r1, ip
10000636:	f7ff fe01 	bl	1000023c <tud_audio_feature_unit_set_request>
1000063a:	e7fa      	b.n	10000632 <tud_audio_set_req_entity_cb+0x1e>
1000063c:	4661      	mov	r1, ip
1000063e:	f7ff fe5d 	bl	100002fc <tud_audio_clock_set_request>
10000642:	e7f6      	b.n	10000632 <tud_audio_set_req_entity_cb+0x1e>
10000644:	100067c0 	.word	0x100067c0

10000648 <tud_audio_set_itf_close_EP_cb>:
10000648:	888b      	ldrh	r3, [r1, #4]
1000064a:	b2db      	uxtb	r3, r3
1000064c:	884a      	ldrh	r2, [r1, #2]
1000064e:	b2d2      	uxtb	r2, r2
10000650:	2b01      	cmp	r3, #1
10000652:	d001      	beq.n	10000658 <tud_audio_set_itf_close_EP_cb+0x10>
10000654:	2001      	movs	r0, #1
10000656:	4770      	bx	lr
10000658:	2a00      	cmp	r2, #0
1000065a:	d1fb      	bne.n	10000654 <tud_audio_set_itf_close_EP_cb+0xc>
1000065c:	4b02      	ldr	r3, [pc, #8]	@ (10000668 <tud_audio_set_itf_close_EP_cb+0x20>)
1000065e:	f44f 727a 	mov.w	r2, #1000	@ 0x3e8
10000662:	601a      	str	r2, [r3, #0]
10000664:	e7f6      	b.n	10000654 <tud_audio_set_itf_close_EP_cb+0xc>
10000666:	bf00      	nop
10000668:	20000df0 	.word	0x20000df0

1000066c <tud_audio_set_itf_cb>:
1000066c:	888a      	ldrh	r2, [r1, #4]
1000066e:	b2d2      	uxtb	r2, r2
10000670:	884b      	ldrh	r3, [r1, #2]
10000672:	b2db      	uxtb	r3, r3
10000674:	2a01      	cmp	r2, #1
10000676:	d00a      	beq.n	1000068e <tud_audio_set_itf_cb+0x22>
10000678:	4a09      	ldr	r2, [pc, #36]	@ (100006a0 <tud_audio_set_itf_cb+0x34>)
1000067a:	2100      	movs	r1, #0
1000067c:	6011      	str	r1, [r2, #0]
1000067e:	b123      	cbz	r3, 1000068a <tud_audio_set_itf_cb+0x1e>
10000680:	3b01      	subs	r3, #1
10000682:	4a08      	ldr	r2, [pc, #32]	@ (100006a4 <tud_audio_set_itf_cb+0x38>)
10000684:	5cd2      	ldrb	r2, [r2, r3]
10000686:	4b08      	ldr	r3, [pc, #32]	@ (100006a8 <tud_audio_set_itf_cb+0x3c>)
10000688:	701a      	strb	r2, [r3, #0]
1000068a:	2001      	movs	r0, #1
1000068c:	4770      	bx	lr
1000068e:	b91b      	cbnz	r3, 10000698 <tud_audio_set_itf_cb+0x2c>
10000690:	4b03      	ldr	r3, [pc, #12]	@ (100006a0 <tud_audio_set_itf_cb+0x34>)
10000692:	2200      	movs	r2, #0
10000694:	601a      	str	r2, [r3, #0]
10000696:	e7f8      	b.n	1000068a <tud_audio_set_itf_cb+0x1e>
10000698:	4a04      	ldr	r2, [pc, #16]	@ (100006ac <tud_audio_set_itf_cb+0x40>)
1000069a:	2119      	movs	r1, #25
1000069c:	6011      	str	r1, [r2, #0]
1000069e:	e7eb      	b.n	10000678 <tud_audio_set_itf_cb+0xc>
100006a0:	200022ec 	.word	0x200022ec
100006a4:	100070c0 	.word	0x100070c0
100006a8:	2000230d 	.word	0x2000230d
100006ac:	20000df0 	.word	0x20000df0

100006b0 <tud_audio_rx_done_pre_read_cb>:
100006b0:	b508      	push	{r3, lr}
100006b2:	460a      	mov	r2, r1
100006b4:	4903      	ldr	r1, [pc, #12]	@ (100006c4 <tud_audio_rx_done_pre_read_cb+0x14>)
100006b6:	2000      	movs	r0, #0
100006b8:	f005 f846 	bl	10005748 <tud_audio_n_read>
100006bc:	4b02      	ldr	r3, [pc, #8]	@ (100006c8 <tud_audio_rx_done_pre_read_cb+0x18>)
100006be:	6018      	str	r0, [r3, #0]
100006c0:	2001      	movs	r0, #1
100006c2:	bd08      	pop	{r3, pc}
100006c4:	20001fdc 	.word	0x20001fdc
100006c8:	200022ec 	.word	0x200022ec

100006cc <tud_audio_tx_done_pre_load_cb>:
100006cc:	2001      	movs	r0, #1
100006ce:	4770      	bx	lr

100006d0 <audio_task>:
100006d0:	4b2a      	ldr	r3, [pc, #168]	@ (1000077c <audio_task+0xac>)
100006d2:	681b      	ldr	r3, [r3, #0]
100006d4:	2b00      	cmp	r3, #0
100006d6:	d050      	beq.n	1000077a <audio_task+0xaa>
100006d8:	b510      	push	{r4, lr}
100006da:	4a29      	ldr	r2, [pc, #164]	@ (10000780 <audio_task+0xb0>)
100006dc:	7812      	ldrb	r2, [r2, #0]
100006de:	2a10      	cmp	r2, #16
100006e0:	d002      	beq.n	100006e8 <audio_task+0x18>
100006e2:	2a18      	cmp	r2, #24
100006e4:	d022      	beq.n	1000072c <audio_task+0x5c>
100006e6:	bd10      	pop	{r4, pc}
100006e8:	eb03 73d3 	add.w	r3, r3, r3, lsr #31
100006ec:	f023 0001 	bic.w	r0, r3, #1
100006f0:	4a24      	ldr	r2, [pc, #144]	@ (10000784 <audio_task+0xb4>)
100006f2:	4410      	add	r0, r2
100006f4:	4b24      	ldr	r3, [pc, #144]	@ (10000788 <audio_task+0xb8>)
100006f6:	e00a      	b.n	1000070e <audio_task+0x3e>
100006f8:	4611      	mov	r1, r2
100006fa:	f931 cb04 	ldrsh.w	ip, [r1], #4
100006fe:	f9b2 2002 	ldrsh.w	r2, [r2, #2]
10000702:	1052      	asrs	r2, r2, #1
10000704:	eb02 026c 	add.w	r2, r2, ip, asr #1
10000708:	f823 2b02 	strh.w	r2, [r3], #2
1000070c:	460a      	mov	r2, r1
1000070e:	4282      	cmp	r2, r0
10000710:	d3f2      	bcc.n	100006f8 <audio_task+0x28>
10000712:	4c1a      	ldr	r4, [pc, #104]	@ (1000077c <audio_task+0xac>)
10000714:	6822      	ldr	r2, [r4, #0]
10000716:	eb02 72d2 	add.w	r2, r2, r2, lsr #31
1000071a:	f3c2 024f 	ubfx	r2, r2, #1, #16
1000071e:	491a      	ldr	r1, [pc, #104]	@ (10000788 <audio_task+0xb8>)
10000720:	2000      	movs	r0, #0
10000722:	f005 f82b 	bl	1000577c <tud_audio_n_write>
10000726:	2300      	movs	r3, #0
10000728:	6023      	str	r3, [r4, #0]
1000072a:	e7dc      	b.n	100006e6 <audio_task+0x16>
1000072c:	469c      	mov	ip, r3
1000072e:	2b00      	cmp	r3, #0
10000730:	db05      	blt.n	1000073e <audio_task+0x6e>
10000732:	f02c 0c03 	bic.w	ip, ip, #3
10000736:	4b13      	ldr	r3, [pc, #76]	@ (10000784 <audio_task+0xb4>)
10000738:	449c      	add	ip, r3
1000073a:	4a13      	ldr	r2, [pc, #76]	@ (10000788 <audio_task+0xb8>)
1000073c:	e00e      	b.n	1000075c <audio_task+0x8c>
1000073e:	f103 0c03 	add.w	ip, r3, #3
10000742:	e7f6      	b.n	10000732 <audio_task+0x62>
10000744:	4619      	mov	r1, r3
10000746:	f851 0b08 	ldr.w	r0, [r1], #8
1000074a:	685b      	ldr	r3, [r3, #4]
1000074c:	105b      	asrs	r3, r3, #1
1000074e:	eb03 0360 	add.w	r3, r3, r0, asr #1
10000752:	f023 03ff 	bic.w	r3, r3, #255	@ 0xff
10000756:	f842 3b04 	str.w	r3, [r2], #4
1000075a:	460b      	mov	r3, r1
1000075c:	4563      	cmp	r3, ip
1000075e:	d3f1      	bcc.n	10000744 <audio_task+0x74>
10000760:	4c06      	ldr	r4, [pc, #24]	@ (1000077c <audio_task+0xac>)
10000762:	6822      	ldr	r2, [r4, #0]
10000764:	eb02 72d2 	add.w	r2, r2, r2, lsr #31
10000768:	f3c2 024f 	ubfx	r2, r2, #1, #16
1000076c:	4906      	ldr	r1, [pc, #24]	@ (10000788 <audio_task+0xb8>)
1000076e:	2000      	movs	r0, #0
10000770:	f005 f804 	bl	1000577c <tud_audio_n_write>
10000774:	2300      	movs	r3, #0
10000776:	6023      	str	r3, [r4, #0]
10000778:	e7b5      	b.n	100006e6 <audio_task+0x16>
1000077a:	4770      	bx	lr
1000077c:	200022ec 	.word	0x200022ec
10000780:	2000230d 	.word	0x2000230d
10000784:	20001fdc 	.word	0x20001fdc
10000788:	20001e08 	.word	0x20001e08

1000078c <audio_control_task>:
1000078c:	b510      	push	{r4, lr}
1000078e:	b082      	sub	sp, #8
10000790:	f7ff fef2 	bl	10000578 <board_millis>
10000794:	4b17      	ldr	r3, [pc, #92]	@ (100007f4 <audio_control_task+0x68>)
10000796:	681b      	ldr	r3, [r3, #0]
10000798:	1ac0      	subs	r0, r0, r3
1000079a:	2831      	cmp	r0, #49	@ 0x31
1000079c:	d801      	bhi.n	100007a2 <audio_control_task+0x16>
1000079e:	b002      	add	sp, #8
100007a0:	bd10      	pop	{r4, pc}
100007a2:	3332      	adds	r3, #50	@ 0x32
100007a4:	4a13      	ldr	r2, [pc, #76]	@ (100007f4 <audio_control_task+0x68>)
100007a6:	6013      	str	r3, [r2, #0]
100007a8:	f003 f8f2 	bl	10003990 <board_button_read>
100007ac:	4604      	mov	r4, r0
100007ae:	4b12      	ldr	r3, [pc, #72]	@ (100007f8 <audio_control_task+0x6c>)
100007b0:	681b      	ldr	r3, [r3, #0]
100007b2:	b903      	cbnz	r3, 100007b6 <audio_control_task+0x2a>
100007b4:	b980      	cbnz	r0, 100007d8 <audio_control_task+0x4c>
100007b6:	4b10      	ldr	r3, [pc, #64]	@ (100007f8 <audio_control_task+0x6c>)
100007b8:	601c      	str	r4, [r3, #0]
100007ba:	e7f0      	b.n	1000079e <audio_control_task+0x12>
100007bc:	2100      	movs	r1, #0
100007be:	4a0f      	ldr	r2, [pc, #60]	@ (100007fc <audio_control_task+0x70>)
100007c0:	f822 1013 	strh.w	r1, [r2, r3, lsl #1]
100007c4:	3301      	adds	r3, #1
100007c6:	2b02      	cmp	r3, #2
100007c8:	dc08      	bgt.n	100007dc <audio_control_task+0x50>
100007ca:	4a0c      	ldr	r2, [pc, #48]	@ (100007fc <audio_control_task+0x70>)
100007cc:	f932 2013 	ldrsh.w	r2, [r2, r3, lsl #1]
100007d0:	2a00      	cmp	r2, #0
100007d2:	d1f3      	bne.n	100007bc <audio_control_task+0x30>
100007d4:	490a      	ldr	r1, [pc, #40]	@ (10000800 <audio_control_task+0x74>)
100007d6:	e7f2      	b.n	100007be <audio_control_task+0x32>
100007d8:	2300      	movs	r3, #0
100007da:	e7f4      	b.n	100007c6 <audio_control_task+0x3a>
100007dc:	4b09      	ldr	r3, [pc, #36]	@ (10000804 <audio_control_task+0x78>)
100007de:	e893 0003 	ldmia.w	r3, {r0, r1}
100007e2:	9000      	str	r0, [sp, #0]
100007e4:	f8ad 1004 	strh.w	r1, [sp, #4]
100007e8:	4669      	mov	r1, sp
100007ea:	2000      	movs	r0, #0
100007ec:	f004 ffe0 	bl	100057b0 <tud_audio_int_n_write>
100007f0:	e7e1      	b.n	100007b6 <audio_control_task+0x2a>
100007f2:	bf00      	nop
100007f4:	200022f4 	.word	0x200022f4
100007f8:	20001720 	.word	0x20001720
100007fc:	20002304 	.word	0x20002304
10000800:	ffffe200 	.word	0xffffe200
10000804:	100070d4 	.word	0x100070d4

10000808 <led_blinking_task>:
10000808:	b510      	push	{r4, lr}
1000080a:	f7ff feb5 	bl	10000578 <board_millis>
1000080e:	4b0a      	ldr	r3, [pc, #40]	@ (10000838 <led_blinking_task+0x30>)
10000810:	681b      	ldr	r3, [r3, #0]
10000812:	1ac0      	subs	r0, r0, r3
10000814:	4a09      	ldr	r2, [pc, #36]	@ (1000083c <led_blinking_task+0x34>)
10000816:	6812      	ldr	r2, [r2, #0]
10000818:	4290      	cmp	r0, r2
1000081a:	d200      	bcs.n	1000081e <led_blinking_task+0x16>
1000081c:	bd10      	pop	{r4, pc}
1000081e:	4413      	add	r3, r2
10000820:	4a05      	ldr	r2, [pc, #20]	@ (10000838 <led_blinking_task+0x30>)
10000822:	6013      	str	r3, [r2, #0]
10000824:	4c06      	ldr	r4, [pc, #24]	@ (10000840 <led_blinking_task+0x38>)
10000826:	7820      	ldrb	r0, [r4, #0]
10000828:	f003 f8ae 	bl	10003988 <board_led_write>
1000082c:	7823      	ldrb	r3, [r4, #0]
1000082e:	f083 0301 	eor.w	r3, r3, #1
10000832:	7023      	strb	r3, [r4, #0]
10000834:	e7f2      	b.n	1000081c <led_blinking_task+0x14>
10000836:	bf00      	nop
10000838:	200022f0 	.word	0x200022f0
1000083c:	20000df0 	.word	0x20000df0
10000840:	2000230f 	.word	0x2000230f

10000844 <main>:
10000844:	b508      	push	{r3, lr}
10000846:	f003 f889 	bl	1000395c <board_init>
1000084a:	2000      	movs	r0, #0
1000084c:	f003 fcea 	bl	10004224 <tud_init>
10000850:	4b09      	ldr	r3, [pc, #36]	@ (10000878 <main+0x34>)
10000852:	b10b      	cbz	r3, 10000858 <main+0x14>
10000854:	f3af 8000 	nop.w
10000858:	4808      	ldr	r0, [pc, #32]	@ (1000087c <main+0x38>)
1000085a:	f002 ff33 	bl	100036c4 <__wrap_puts>
1000085e:	2100      	movs	r1, #0
10000860:	f04f 30ff 	mov.w	r0, #4294967295
10000864:	f004 f832 	bl	100048cc <tud_task_ext>
10000868:	f7ff ff32 	bl	100006d0 <audio_task>
1000086c:	f7ff ff8e 	bl	1000078c <audio_control_task>
10000870:	f7ff ffca 	bl	10000808 <led_blinking_task>
10000874:	e7f3      	b.n	1000085e <main+0x1a>
10000876:	bf00      	nop
10000878:	00000000 	.word	0x00000000
1000087c:	10006804 	.word	0x10006804

10000880 <board_usb_get_serial>:
10000880:	b570      	push	{r4, r5, r6, lr}
10000882:	b088      	sub	sp, #32
10000884:	4604      	mov	r4, r0
10000886:	460d      	mov	r5, r1
10000888:	4b1d      	ldr	r3, [pc, #116]	@ (10000900 <board_usb_get_serial+0x80>)
1000088a:	b15b      	cbz	r3, 100008a4 <board_usb_get_serial+0x24>
1000088c:	2110      	movs	r1, #16
1000088e:	eb0d 0001 	add.w	r0, sp, r1
10000892:	f003 f884 	bl	1000399e <board_get_unique_id>
10000896:	086e      	lsrs	r6, r5, #1
10000898:	ebb0 0f55 	cmp.w	r0, r5, lsr #1
1000089c:	d800      	bhi.n	100008a0 <board_usb_get_serial+0x20>
1000089e:	4606      	mov	r6, r0
100008a0:	2500      	movs	r5, #0
100008a2:	e024      	b.n	100008ee <board_usb_get_serial+0x6e>
100008a4:	4b17      	ldr	r3, [pc, #92]	@ (10000904 <board_usb_get_serial+0x84>)
100008a6:	9304      	str	r3, [sp, #16]
100008a8:	f103 3388 	add.w	r3, r3, #2290649224	@ 0x88888888
100008ac:	9305      	str	r3, [sp, #20]
100008ae:	2008      	movs	r0, #8
100008b0:	e7f1      	b.n	10000896 <board_usb_get_serial+0x16>
100008b2:	4b15      	ldr	r3, [pc, #84]	@ (10000908 <board_usb_get_serial+0x88>)
100008b4:	46ee      	mov	lr, sp
100008b6:	cb0f      	ldmia	r3, {r0, r1, r2, r3}
100008b8:	e88e 000f 	stmia.w	lr, {r0, r1, r2, r3}
100008bc:	f105 0320 	add.w	r3, r5, #32
100008c0:	446b      	add	r3, sp
100008c2:	f813 3c10 	ldrb.w	r3, [r3, #-16]
100008c6:	ea4f 028c 	mov.w	r2, ip, lsl #2
100008ca:	4113      	asrs	r3, r2
100008cc:	f003 030f 	and.w	r3, r3, #15
100008d0:	ebcc 0245 	rsb	r2, ip, r5, lsl #1
100008d4:	3201      	adds	r2, #1
100008d6:	3320      	adds	r3, #32
100008d8:	446b      	add	r3, sp
100008da:	f813 3c20 	ldrb.w	r3, [r3, #-32]
100008de:	f824 3012 	strh.w	r3, [r4, r2, lsl #1]
100008e2:	f10c 0c01 	add.w	ip, ip, #1
100008e6:	f1bc 0f01 	cmp.w	ip, #1
100008ea:	d9e2      	bls.n	100008b2 <board_usb_get_serial+0x32>
100008ec:	3501      	adds	r5, #1
100008ee:	42ae      	cmp	r6, r5
100008f0:	d902      	bls.n	100008f8 <board_usb_get_serial+0x78>
100008f2:	f04f 0c00 	mov.w	ip, #0
100008f6:	e7f6      	b.n	100008e6 <board_usb_get_serial+0x66>
100008f8:	0070      	lsls	r0, r6, #1
100008fa:	b008      	add	sp, #32
100008fc:	bd70      	pop	{r4, r5, r6, pc}
100008fe:	bf00      	nop
10000900:	1000399f 	.word	0x1000399f
10000904:	67452301 	.word	0x67452301
10000908:	10006818 	.word	0x10006818

1000090c <tud_descriptor_device_cb>:
1000090c:	4800      	ldr	r0, [pc, #0]	@ (10000910 <tud_descriptor_device_cb+0x4>)
1000090e:	4770      	bx	lr
10000910:	10007228 	.word	0x10007228

10000914 <tud_descriptor_configuration_cb>:
10000914:	4800      	ldr	r0, [pc, #0]	@ (10000918 <tud_descriptor_configuration_cb+0x4>)
10000916:	4770      	bx	lr
10000918:	100070e0 	.word	0x100070e0

1000091c <tud_descriptor_string_cb>:
1000091c:	b510      	push	{r4, lr}
1000091e:	b170      	cbz	r0, 1000093e <tud_descriptor_string_cb+0x22>
10000920:	2803      	cmp	r0, #3
10000922:	d01a      	beq.n	1000095a <tud_descriptor_string_cb+0x3e>
10000924:	2805      	cmp	r0, #5
10000926:	d825      	bhi.n	10000974 <tud_descriptor_string_cb+0x58>
10000928:	4a13      	ldr	r2, [pc, #76]	@ (10000978 <tud_descriptor_string_cb+0x5c>)
1000092a:	f852 4020 	ldr.w	r4, [r2, r0, lsl #2]
1000092e:	4620      	mov	r0, r4
10000930:	f005 fd5e 	bl	100063f0 <strlen>
10000934:	2820      	cmp	r0, #32
10000936:	d900      	bls.n	1000093a <tud_descriptor_string_cb+0x1e>
10000938:	2020      	movs	r0, #32
1000093a:	2300      	movs	r3, #0
1000093c:	e017      	b.n	1000096e <tud_descriptor_string_cb+0x52>
1000093e:	4b0e      	ldr	r3, [pc, #56]	@ (10000978 <tud_descriptor_string_cb+0x5c>)
10000940:	681b      	ldr	r3, [r3, #0]
10000942:	881a      	ldrh	r2, [r3, #0]
10000944:	4b0d      	ldr	r3, [pc, #52]	@ (1000097c <tud_descriptor_string_cb+0x60>)
10000946:	805a      	strh	r2, [r3, #2]
10000948:	2001      	movs	r0, #1
1000094a:	1c43      	adds	r3, r0, #1
1000094c:	005b      	lsls	r3, r3, #1
1000094e:	b29b      	uxth	r3, r3
10000950:	f443 7340 	orr.w	r3, r3, #768	@ 0x300
10000954:	4809      	ldr	r0, [pc, #36]	@ (1000097c <tud_descriptor_string_cb+0x60>)
10000956:	8003      	strh	r3, [r0, #0]
10000958:	bd10      	pop	{r4, pc}
1000095a:	2120      	movs	r1, #32
1000095c:	4808      	ldr	r0, [pc, #32]	@ (10000980 <tud_descriptor_string_cb+0x64>)
1000095e:	f7ff ff8f 	bl	10000880 <board_usb_get_serial>
10000962:	e7f2      	b.n	1000094a <tud_descriptor_string_cb+0x2e>
10000964:	5ce1      	ldrb	r1, [r4, r3]
10000966:	3301      	adds	r3, #1
10000968:	4a04      	ldr	r2, [pc, #16]	@ (1000097c <tud_descriptor_string_cb+0x60>)
1000096a:	f822 1013 	strh.w	r1, [r2, r3, lsl #1]
1000096e:	4298      	cmp	r0, r3
10000970:	d8f8      	bhi.n	10000964 <tud_descriptor_string_cb+0x48>
10000972:	e7ea      	b.n	1000094a <tud_descriptor_string_cb+0x2e>
10000974:	2000      	movs	r0, #0
10000976:	e7ef      	b.n	10000958 <tud_descriptor_string_cb+0x3c>
10000978:	20000df8 	.word	0x20000df8
1000097c:	200010bc 	.word	0x200010bc
10000980:	200010be 	.word	0x200010be

10000984 <gpio_set_function>:
10000984:	4b0c      	ldr	r3, [pc, #48]	@ (100009b8 <gpio_set_function+0x34>)
10000986:	eb03 0280 	add.w	r2, r3, r0, lsl #2
1000098a:	f853 3020 	ldr.w	r3, [r3, r0, lsl #2]
1000098e:	f083 0340 	eor.w	r3, r3, #64	@ 0x40
10000992:	f003 03c0 	and.w	r3, r3, #192	@ 0xc0
10000996:	f502 5c80 	add.w	ip, r2, #4096	@ 0x1000
1000099a:	f8cc 3000 	str.w	r3, [ip]
1000099e:	00c0      	lsls	r0, r0, #3
100009a0:	f100 4080 	add.w	r0, r0, #1073741824	@ 0x40000000
100009a4:	f500 3020 	add.w	r0, r0, #163840	@ 0x28000
100009a8:	6041      	str	r1, [r0, #4]
100009aa:	f502 5240 	add.w	r2, r2, #12288	@ 0x3000
100009ae:	f44f 7380 	mov.w	r3, #256	@ 0x100
100009b2:	6013      	str	r3, [r2, #0]
100009b4:	4770      	bx	lr
100009b6:	bf00      	nop
100009b8:	40038004 	.word	0x40038004

100009bc <gpio_init>:
100009bc:	b508      	push	{r3, lr}
100009be:	f04f 0200 	mov.w	r2, #0
100009c2:	ec42 0044 	gpioc_bit_oe_put r0, r2
100009c6:	ec42 0040 	gpioc_bit_out_put r0, r2
100009ca:	2105      	movs	r1, #5
100009cc:	f7ff ffda 	bl	10000984 <gpio_set_function>
100009d0:	bd08      	pop	{r3, pc}
	...

100009d4 <panic>:
100009d4:	b40f      	push	{r0, r1, r2, r3}
100009d6:	b500      	push	{lr}
100009d8:	b083      	sub	sp, #12
100009da:	9c04      	ldr	r4, [sp, #16]
100009dc:	4807      	ldr	r0, [pc, #28]	@ (100009fc <panic+0x28>)
100009de:	f002 fe71 	bl	100036c4 <__wrap_puts>
100009e2:	b13c      	cbz	r4, 100009f4 <panic+0x20>
100009e4:	a905      	add	r1, sp, #20
100009e6:	9101      	str	r1, [sp, #4]
100009e8:	4620      	mov	r0, r4
100009ea:	f002 fe7b 	bl	100036e4 <__wrap_vprintf>
100009ee:	4804      	ldr	r0, [pc, #16]	@ (10000a00 <panic+0x2c>)
100009f0:	f002 fe68 	bl	100036c4 <__wrap_puts>
100009f4:	2001      	movs	r0, #1
100009f6:	f002 fd31 	bl	1000345c <_exit>
100009fa:	bf00      	nop
100009fc:	1000686c 	.word	0x1000686c
10000a00:	10006704 	.word	0x10006704

10000a04 <hw_claim_lock>:
10000a04:	f3ef 8010 	mrs	r0, PRIMASK
10000a08:	b672      	cpsid	i
10000a0a:	4b06      	ldr	r3, [pc, #24]	@ (10000a24 <hw_claim_lock+0x20>)
10000a0c:	e8d3 1fcf 	ldaexb	r1, [r3]
10000a10:	2201      	movs	r2, #1
10000a12:	2900      	cmp	r1, #0
10000a14:	d1fa      	bne.n	10000a0c <hw_claim_lock+0x8>
10000a16:	e8c3 2f41 	strexb	r1, r2, [r3]
10000a1a:	2900      	cmp	r1, #0
10000a1c:	d1f6      	bne.n	10000a0c <hw_claim_lock+0x8>
10000a1e:	f3bf 8f5f 	dmb	sy
10000a22:	4770      	bx	lr
10000a24:	2000110b 	.word	0x2000110b

10000a28 <hw_claim_unlock>:
10000a28:	2300      	movs	r3, #0
10000a2a:	4a03      	ldr	r2, [pc, #12]	@ (10000a38 <hw_claim_unlock+0x10>)
10000a2c:	e8c2 3f8f 	stlb	r3, [r2]
10000a30:	f380 8810 	msr	PRIMASK, r0
10000a34:	4770      	bx	lr
10000a36:	bf00      	nop
10000a38:	2000110b 	.word	0x2000110b

10000a3c <hw_claim_or_assert>:
10000a3c:	b570      	push	{r4, r5, r6, lr}
10000a3e:	4605      	mov	r5, r0
10000a40:	460c      	mov	r4, r1
10000a42:	4616      	mov	r6, r2
10000a44:	f7ff ffde 	bl	10000a04 <hw_claim_lock>
10000a48:	08e2      	lsrs	r2, r4, #3
10000a4a:	5ca9      	ldrb	r1, [r5, r2]
10000a4c:	f004 0c07 	and.w	ip, r4, #7
10000a50:	2301      	movs	r3, #1
10000a52:	fa03 f30c 	lsl.w	r3, r3, ip
10000a56:	4219      	tst	r1, r3
10000a58:	d105      	bne.n	10000a66 <hw_claim_or_assert+0x2a>
10000a5a:	b2db      	uxtb	r3, r3
10000a5c:	430b      	orrs	r3, r1
10000a5e:	54ab      	strb	r3, [r5, r2]
10000a60:	f7ff ffe2 	bl	10000a28 <hw_claim_unlock>
10000a64:	bd70      	pop	{r4, r5, r6, pc}
10000a66:	4621      	mov	r1, r4
10000a68:	4630      	mov	r0, r6
10000a6a:	f7ff ffb3 	bl	100009d4 <panic>

10000a6e <hw_claim_unused_from_range>:
10000a6e:	b5f8      	push	{r3, r4, r5, r6, r7, lr}
10000a70:	4606      	mov	r6, r0
10000a72:	460d      	mov	r5, r1
10000a74:	4614      	mov	r4, r2
10000a76:	461f      	mov	r7, r3
10000a78:	f7ff ffc4 	bl	10000a04 <hw_claim_lock>
10000a7c:	e000      	b.n	10000a80 <hw_claim_unused_from_range+0x12>
10000a7e:	3401      	adds	r4, #1
10000a80:	42bc      	cmp	r4, r7
10000a82:	d80e      	bhi.n	10000aa2 <hw_claim_unused_from_range+0x34>
10000a84:	ea4f 0cd4 	mov.w	ip, r4, lsr #3
10000a88:	f816 100c 	ldrb.w	r1, [r6, ip]
10000a8c:	f004 0307 	and.w	r3, r4, #7
10000a90:	2201      	movs	r2, #1
10000a92:	409a      	lsls	r2, r3
10000a94:	4211      	tst	r1, r2
10000a96:	d1f2      	bne.n	10000a7e <hw_claim_unused_from_range+0x10>
10000a98:	b2d2      	uxtb	r2, r2
10000a9a:	430a      	orrs	r2, r1
10000a9c:	f806 200c 	strb.w	r2, [r6, ip]
10000aa0:	e001      	b.n	10000aa6 <hw_claim_unused_from_range+0x38>
10000aa2:	f04f 34ff 	mov.w	r4, #4294967295
10000aa6:	f7ff ffbf 	bl	10000a28 <hw_claim_unlock>
10000aaa:	2c00      	cmp	r4, #0
10000aac:	db01      	blt.n	10000ab2 <hw_claim_unused_from_range+0x44>
10000aae:	4620      	mov	r0, r4
10000ab0:	bdf8      	pop	{r3, r4, r5, r6, r7, pc}
10000ab2:	2d00      	cmp	r5, #0
10000ab4:	d0fb      	beq.n	10000aae <hw_claim_unused_from_range+0x40>
10000ab6:	9806      	ldr	r0, [sp, #24]
10000ab8:	f7ff ff8c 	bl	100009d4 <panic>

10000abc <next_striped_spin_lock_num>:
10000abc:	4a05      	ldr	r2, [pc, #20]	@ (10000ad4 <next_striped_spin_lock_num+0x18>)
10000abe:	7810      	ldrb	r0, [r2, #0]
10000ac0:	1c43      	adds	r3, r0, #1
10000ac2:	b2db      	uxtb	r3, r3
10000ac4:	7013      	strb	r3, [r2, #0]
10000ac6:	2b17      	cmp	r3, #23
10000ac8:	d902      	bls.n	10000ad0 <next_striped_spin_lock_num+0x14>
10000aca:	4613      	mov	r3, r2
10000acc:	2210      	movs	r2, #16
10000ace:	701a      	strb	r2, [r3, #0]
10000ad0:	4770      	bx	lr
10000ad2:	bf00      	nop
10000ad4:	20000e10 	.word	0x20000e10

10000ad8 <spin_lock_claim_unused>:
10000ad8:	b500      	push	{lr}
10000ada:	b083      	sub	sp, #12
10000adc:	4601      	mov	r1, r0
10000ade:	4b05      	ldr	r3, [pc, #20]	@ (10000af4 <spin_lock_claim_unused+0x1c>)
10000ae0:	9300      	str	r3, [sp, #0]
10000ae2:	231f      	movs	r3, #31
10000ae4:	2218      	movs	r2, #24
10000ae6:	4804      	ldr	r0, [pc, #16]	@ (10000af8 <spin_lock_claim_unused+0x20>)
10000ae8:	f7ff ffc1 	bl	10000a6e <hw_claim_unused_from_range>
10000aec:	b003      	add	sp, #12
10000aee:	f85d fb04 	ldr.w	pc, [sp], #4
10000af2:	bf00      	nop
10000af4:	1000687c 	.word	0x1000687c
10000af8:	2000172c 	.word	0x2000172c

10000afc <spinlock_set_extexclall>:
10000afc:	f04f 22e0 	mov.w	r2, #3758153728	@ 0xe000e000
10000b00:	6893      	ldr	r3, [r2, #8]
10000b02:	f043 5300 	orr.w	r3, r3, #536870912	@ 0x20000000
10000b06:	6093      	str	r3, [r2, #8]
10000b08:	4770      	bx	lr
	...

10000b0c <spin_locks_reset>:
10000b0c:	2300      	movs	r3, #0
10000b0e:	e005      	b.n	10000b1c <spin_locks_reset+0x10>
10000b10:	4a04      	ldr	r2, [pc, #16]	@ (10000b24 <spin_locks_reset+0x18>)
10000b12:	441a      	add	r2, r3
10000b14:	2100      	movs	r1, #0
10000b16:	e8c2 1f8f 	stlb	r1, [r2]
10000b1a:	3301      	adds	r3, #1
10000b1c:	2b1f      	cmp	r3, #31
10000b1e:	d9f7      	bls.n	10000b10 <spin_locks_reset+0x4>
10000b20:	4770      	bx	lr
10000b22:	bf00      	nop
10000b24:	20001100 	.word	0x20001100

10000b28 <set_raw_irq_handler_and_unlock>:
10000b28:	4b06      	ldr	r3, [pc, #24]	@ (10000b44 <set_raw_irq_handler_and_unlock+0x1c>)
10000b2a:	689b      	ldr	r3, [r3, #8]
10000b2c:	3010      	adds	r0, #16
10000b2e:	f843 1020 	str.w	r1, [r3, r0, lsl #2]
10000b32:	f3bf 8f5f 	dmb	sy
10000b36:	2300      	movs	r3, #0
10000b38:	4903      	ldr	r1, [pc, #12]	@ (10000b48 <set_raw_irq_handler_and_unlock+0x20>)
10000b3a:	e8c1 3f8f 	stlb	r3, [r1]
10000b3e:	f382 8810 	msr	PRIMASK, r2
10000b42:	4770      	bx	lr
10000b44:	e000ed00 	.word	0xe000ed00
10000b48:	20001109 	.word	0x20001109

10000b4c <nvic_ipr0>:
10000b4c:	4800      	ldr	r0, [pc, #0]	@ (10000b50 <nvic_ipr0+0x4>)
10000b4e:	4770      	bx	lr
10000b50:	e000e400 	.word	0xe000e400

10000b54 <runtime_init_per_core_irq_priorities>:
10000b54:	b508      	push	{r3, lr}
10000b56:	f7ff fff9 	bl	10000b4c <nvic_ipr0>
10000b5a:	2300      	movs	r3, #0
10000b5c:	e004      	b.n	10000b68 <runtime_init_per_core_irq_priorities+0x14>
10000b5e:	f04f 3280 	mov.w	r2, #2155905152	@ 0x80808080
10000b62:	f840 2b04 	str.w	r2, [r0], #4
10000b66:	3301      	adds	r3, #1
10000b68:	2b0c      	cmp	r3, #12
10000b6a:	d9f8      	bls.n	10000b5e <runtime_init_per_core_irq_priorities+0xa>
10000b6c:	bd08      	pop	{r3, pc}
	...

10000b70 <resolve_j_16>:
10000b70:	b508      	push	{r3, lr}
10000b72:	8803      	ldrh	r3, [r0, #0]
10000b74:	0ada      	lsrs	r2, r3, #11
10000b76:	2a1c      	cmp	r2, #28
10000b78:	d106      	bne.n	10000b88 <resolve_j_16+0x18>
10000b7a:	055b      	lsls	r3, r3, #21
10000b7c:	d40b      	bmi.n	10000b96 <resolve_j_16+0x26>
10000b7e:	155b      	asrs	r3, r3, #21
10000b80:	3302      	adds	r3, #2
10000b82:	eb00 0043 	add.w	r0, r0, r3, lsl #1
10000b86:	bd08      	pop	{r3, pc}
10000b88:	4b06      	ldr	r3, [pc, #24]	@ (10000ba4 <resolve_j_16+0x34>)
10000b8a:	4a07      	ldr	r2, [pc, #28]	@ (10000ba8 <resolve_j_16+0x38>)
10000b8c:	f240 110f 	movw	r1, #271	@ 0x10f
10000b90:	4806      	ldr	r0, [pc, #24]	@ (10000bac <resolve_j_16+0x3c>)
10000b92:	f002 fc69 	bl	10003468 <__assert_func>
10000b96:	f503 13ff 	add.w	r3, r3, #2088960	@ 0x1fe000
10000b9a:	f503 53ff 	add.w	r3, r3, #8160	@ 0x1fe0
10000b9e:	331f      	adds	r3, #31
10000ba0:	e7ed      	b.n	10000b7e <resolve_j_16+0xe>
10000ba2:	bf00      	nop
10000ba4:	10006898 	.word	0x10006898
10000ba8:	10007288 	.word	0x10007288
10000bac:	100068b0 	.word	0x100068b0

10000bb0 <make_j_16>:
10000bb0:	b508      	push	{r3, lr}
10000bb2:	1a09      	subs	r1, r1, r0
10000bb4:	f201 72fc 	addw	r2, r1, #2044	@ 0x7fc
10000bb8:	f640 73fe 	movw	r3, #4094	@ 0xffe
10000bbc:	429a      	cmp	r2, r3
10000bbe:	d808      	bhi.n	10000bd2 <make_j_16+0x22>
10000bc0:	1f08      	subs	r0, r1, #4
10000bc2:	f011 0f01 	tst.w	r1, #1
10000bc6:	d104      	bne.n	10000bd2 <make_j_16+0x22>
10000bc8:	f3c0 004a 	ubfx	r0, r0, #1, #11
10000bcc:	f440 4060 	orr.w	r0, r0, #57344	@ 0xe000
10000bd0:	bd08      	pop	{r3, pc}
10000bd2:	4b03      	ldr	r3, [pc, #12]	@ (10000be0 <make_j_16+0x30>)
10000bd4:	4a03      	ldr	r2, [pc, #12]	@ (10000be4 <make_j_16+0x34>)
10000bd6:	f240 1101 	movw	r1, #257	@ 0x101
10000bda:	4803      	ldr	r0, [pc, #12]	@ (10000be8 <make_j_16+0x38>)
10000bdc:	f002 fc44 	bl	10003468 <__assert_func>
10000be0:	100068f8 	.word	0x100068f8
10000be4:	1000727c 	.word	0x1000727c
10000be8:	100068b0 	.word	0x100068b0

10000bec <insert_bl_32>:
10000bec:	b508      	push	{r3, lr}
10000bee:	1a09      	subs	r1, r1, r0
10000bf0:	3904      	subs	r1, #4
10000bf2:	084b      	lsrs	r3, r1, #1
10000bf4:	0b09      	lsrs	r1, r1, #12
10000bf6:	d10a      	bne.n	10000c0e <insert_bl_32+0x22>
10000bf8:	f3c1 010a 	ubfx	r1, r1, #0, #11
10000bfc:	f441 4170 	orr.w	r1, r1, #61440	@ 0xf000
10000c00:	8001      	strh	r1, [r0, #0]
10000c02:	ea6f 5343 	mvn.w	r3, r3, lsl #21
10000c06:	ea6f 5353 	mvn.w	r3, r3, lsr #21
10000c0a:	8043      	strh	r3, [r0, #2]
10000c0c:	bd08      	pop	{r3, pc}
10000c0e:	4b03      	ldr	r3, [pc, #12]	@ (10000c1c <insert_bl_32+0x30>)
10000c10:	4a03      	ldr	r2, [pc, #12]	@ (10000c20 <insert_bl_32+0x34>)
10000c12:	f240 1109 	movw	r1, #265	@ 0x109
10000c16:	4803      	ldr	r0, [pc, #12]	@ (10000c24 <insert_bl_32+0x38>)
10000c18:	f002 fc26 	bl	10003468 <__assert_func>
10000c1c:	10006928 	.word	0x10006928
10000c20:	10007258 	.word	0x10007258
10000c24:	100068b0 	.word	0x100068b0

10000c28 <irq_is_enabled>:
10000c28:	0942      	lsrs	r2, r0, #5
10000c2a:	4b06      	ldr	r3, [pc, #24]	@ (10000c44 <irq_is_enabled+0x1c>)
10000c2c:	f853 2022 	ldr.w	r2, [r3, r2, lsl #2]
10000c30:	f000 001f 	and.w	r0, r0, #31
10000c34:	2301      	movs	r3, #1
10000c36:	4083      	lsls	r3, r0
10000c38:	421a      	tst	r2, r3
10000c3a:	bf14      	ite	ne
10000c3c:	2001      	movne	r0, #1
10000c3e:	2000      	moveq	r0, #0
10000c40:	4770      	bx	lr
10000c42:	bf00      	nop
10000c44:	e000e100 	.word	0xe000e100

10000c48 <irq_set_mask_n_enabled>:
10000c48:	b13a      	cbz	r2, 10000c5a <irq_set_mask_n_enabled+0x12>
10000c4a:	4b06      	ldr	r3, [pc, #24]	@ (10000c64 <irq_set_mask_n_enabled+0x1c>)
10000c4c:	f100 0260 	add.w	r2, r0, #96	@ 0x60
10000c50:	f843 1022 	str.w	r1, [r3, r2, lsl #2]
10000c54:	f843 1020 	str.w	r1, [r3, r0, lsl #2]
10000c58:	4770      	bx	lr
10000c5a:	3020      	adds	r0, #32
10000c5c:	4b01      	ldr	r3, [pc, #4]	@ (10000c64 <irq_set_mask_n_enabled+0x1c>)
10000c5e:	f843 1020 	str.w	r1, [r3, r0, lsl #2]
10000c62:	4770      	bx	lr
10000c64:	e000e100 	.word	0xe000e100

10000c68 <irq_set_enabled>:
10000c68:	b508      	push	{r3, lr}
10000c6a:	460a      	mov	r2, r1
10000c6c:	f000 031f 	and.w	r3, r0, #31
10000c70:	2101      	movs	r1, #1
10000c72:	4099      	lsls	r1, r3
10000c74:	0940      	lsrs	r0, r0, #5
10000c76:	f7ff ffe7 	bl	10000c48 <irq_set_mask_n_enabled>
10000c7a:	bd08      	pop	{r3, pc}

10000c7c <irq_get_vtable_handler>:
10000c7c:	4b02      	ldr	r3, [pc, #8]	@ (10000c88 <irq_get_vtable_handler+0xc>)
10000c7e:	689b      	ldr	r3, [r3, #8]
10000c80:	3010      	adds	r0, #16
10000c82:	f853 0020 	ldr.w	r0, [r3, r0, lsl #2]
10000c86:	4770      	bx	lr
10000c88:	e000ed00 	.word	0xe000ed00

10000c8c <irq_set_exclusive_handler>:
10000c8c:	b570      	push	{r4, r5, r6, lr}
10000c8e:	4605      	mov	r5, r0
10000c90:	460c      	mov	r4, r1
10000c92:	f3ef 8610 	mrs	r6, PRIMASK
10000c96:	b672      	cpsid	i
10000c98:	4b0f      	ldr	r3, [pc, #60]	@ (10000cd8 <irq_set_exclusive_handler+0x4c>)
10000c9a:	e8d3 1fcf 	ldaexb	r1, [r3]
10000c9e:	2201      	movs	r2, #1
10000ca0:	2900      	cmp	r1, #0
10000ca2:	d1fa      	bne.n	10000c9a <irq_set_exclusive_handler+0xe>
10000ca4:	e8c3 2f41 	strexb	r1, r2, [r3]
10000ca8:	2900      	cmp	r1, #0
10000caa:	d1f6      	bne.n	10000c9a <irq_set_exclusive_handler+0xe>
10000cac:	f3bf 8f5f 	dmb	sy
10000cb0:	f7ff ffe4 	bl	10000c7c <irq_get_vtable_handler>
10000cb4:	4b09      	ldr	r3, [pc, #36]	@ (10000cdc <irq_set_exclusive_handler+0x50>)
10000cb6:	4298      	cmp	r0, r3
10000cb8:	d001      	beq.n	10000cbe <irq_set_exclusive_handler+0x32>
10000cba:	42a0      	cmp	r0, r4
10000cbc:	d105      	bne.n	10000cca <irq_set_exclusive_handler+0x3e>
10000cbe:	4632      	mov	r2, r6
10000cc0:	4621      	mov	r1, r4
10000cc2:	4628      	mov	r0, r5
10000cc4:	f7ff ff30 	bl	10000b28 <set_raw_irq_handler_and_unlock>
10000cc8:	bd70      	pop	{r4, r5, r6, pc}
10000cca:	4b05      	ldr	r3, [pc, #20]	@ (10000ce0 <irq_set_exclusive_handler+0x54>)
10000ccc:	4a05      	ldr	r2, [pc, #20]	@ (10000ce4 <irq_set_exclusive_handler+0x58>)
10000cce:	21e1      	movs	r1, #225	@ 0xe1
10000cd0:	4805      	ldr	r0, [pc, #20]	@ (10000ce8 <irq_set_exclusive_handler+0x5c>)
10000cd2:	f002 fbc9 	bl	10003468 <__assert_func>
10000cd6:	bf00      	nop
10000cd8:	20001109 	.word	0x20001109
10000cdc:	1000011d 	.word	0x1000011d
10000ce0:	10006938 	.word	0x10006938
10000ce4:	100072b0 	.word	0x100072b0
10000ce8:	100068b0 	.word	0x100068b0

10000cec <irq_add_shared_handler>:
10000cec:	e92d 4ff0 	stmdb	sp!, {r4, r5, r6, r7, r8, r9, sl, fp, lr}
10000cf0:	b087      	sub	sp, #28
10000cf2:	9100      	str	r1, [sp, #0]
10000cf4:	4615      	mov	r5, r2
10000cf6:	f3ef 8a10 	mrs	sl, PRIMASK
10000cfa:	b672      	cpsid	i
10000cfc:	4b7c      	ldr	r3, [pc, #496]	@ (10000ef0 <irq_add_shared_handler+0x204>)
10000cfe:	e8d3 1fcf 	ldaexb	r1, [r3]
10000d02:	2201      	movs	r2, #1
10000d04:	2900      	cmp	r1, #0
10000d06:	d1fa      	bne.n	10000cfe <irq_add_shared_handler+0x12>
10000d08:	e8c3 2f41 	strexb	r1, r2, [r3]
10000d0c:	2900      	cmp	r1, #0
10000d0e:	d1f6      	bne.n	10000cfe <irq_add_shared_handler+0x12>
10000d10:	f3bf 8f5f 	dmb	sy
10000d14:	4b77      	ldr	r3, [pc, #476]	@ (10000ef4 <irq_add_shared_handler+0x208>)
10000d16:	f993 4000 	ldrsb.w	r4, [r3]
10000d1a:	2c00      	cmp	r4, #0
10000d1c:	db44      	blt.n	10000da8 <irq_add_shared_handler+0xbc>
10000d1e:	4680      	mov	r8, r0
10000d20:	eb04 0744 	add.w	r7, r4, r4, lsl #1
10000d24:	4b74      	ldr	r3, [pc, #464]	@ (10000ef8 <irq_add_shared_handler+0x20c>)
10000d26:	eb03 0787 	add.w	r7, r3, r7, lsl #2
10000d2a:	f997 1006 	ldrsb.w	r1, [r7, #6]
10000d2e:	4a71      	ldr	r2, [pc, #452]	@ (10000ef4 <irq_add_shared_handler+0x208>)
10000d30:	7011      	strb	r1, [r2, #0]
10000d32:	4a72      	ldr	r2, [pc, #456]	@ (10000efc <irq_add_shared_handler+0x210>)
10000d34:	6892      	ldr	r2, [r2, #8]
10000d36:	f100 0110 	add.w	r1, r0, #16
10000d3a:	f852 9021 	ldr.w	r9, [r2, r1, lsl #2]
10000d3e:	eba9 0203 	sub.w	r2, r9, r3
10000d42:	2a2f      	cmp	r2, #47	@ 0x2f
10000d44:	d93e      	bls.n	10000dc4 <irq_add_shared_handler+0xd8>
10000d46:	4b6e      	ldr	r3, [pc, #440]	@ (10000f00 <irq_add_shared_handler+0x214>)
10000d48:	4599      	cmp	r9, r3
10000d4a:	d134      	bne.n	10000db6 <irq_add_shared_handler+0xca>
10000d4c:	f44f 4321 	mov.w	r3, #41216	@ 0xa100
10000d50:	f8ad 300c 	strh.w	r3, [sp, #12]
10000d54:	ea4f 0944 	mov.w	r9, r4, lsl #1
10000d58:	eb04 0044 	add.w	r0, r4, r4, lsl #1
10000d5c:	4e66      	ldr	r6, [pc, #408]	@ (10000ef8 <irq_add_shared_handler+0x20c>)
10000d5e:	eb06 0080 	add.w	r0, r6, r0, lsl #2
10000d62:	4968      	ldr	r1, [pc, #416]	@ (10000f04 <irq_add_shared_handler+0x218>)
10000d64:	3002      	adds	r0, #2
10000d66:	f7ff ff23 	bl	10000bb0 <make_j_16>
10000d6a:	f8ad 000e 	strh.w	r0, [sp, #14]
10000d6e:	f64b 5301 	movw	r3, #48385	@ 0xbd01
10000d72:	f8ad 3010 	strh.w	r3, [sp, #16]
10000d76:	23ff      	movs	r3, #255	@ 0xff
10000d78:	f88d 3012 	strb.w	r3, [sp, #18]
10000d7c:	f88d 5013 	strb.w	r5, [sp, #19]
10000d80:	9b00      	ldr	r3, [sp, #0]
10000d82:	9305      	str	r3, [sp, #20]
10000d84:	44a1      	add	r9, r4
10000d86:	eb06 0389 	add.w	r3, r6, r9, lsl #2
10000d8a:	aa06      	add	r2, sp, #24
10000d8c:	e912 0007 	ldmdb	r2, {r0, r1, r2}
10000d90:	e883 0007 	stmia.w	r3, {r0, r1, r2}
10000d94:	f047 0901 	orr.w	r9, r7, #1
10000d98:	4652      	mov	r2, sl
10000d9a:	4649      	mov	r1, r9
10000d9c:	4640      	mov	r0, r8
10000d9e:	f7ff fec3 	bl	10000b28 <set_raw_irq_handler_and_unlock>
10000da2:	b007      	add	sp, #28
10000da4:	e8bd 8ff0 	ldmia.w	sp!, {r4, r5, r6, r7, r8, r9, sl, fp, pc}
10000da8:	4b57      	ldr	r3, [pc, #348]	@ (10000f08 <irq_add_shared_handler+0x21c>)
10000daa:	4a58      	ldr	r2, [pc, #352]	@ (10000f0c <irq_add_shared_handler+0x220>)
10000dac:	f240 116d 	movw	r1, #365	@ 0x16d
10000db0:	4857      	ldr	r0, [pc, #348]	@ (10000f10 <irq_add_shared_handler+0x224>)
10000db2:	f002 fb59 	bl	10003468 <__assert_func>
10000db6:	4b57      	ldr	r3, [pc, #348]	@ (10000f14 <irq_add_shared_handler+0x228>)
10000db8:	4a54      	ldr	r2, [pc, #336]	@ (10000f0c <irq_add_shared_handler+0x220>)
10000dba:	f44f 71ba 	mov.w	r1, #372	@ 0x174
10000dbe:	4854      	ldr	r0, [pc, #336]	@ (10000f10 <irq_add_shared_handler+0x224>)
10000dc0:	f002 fb52 	bl	10003468 <__assert_func>
10000dc4:	f029 0b01 	bic.w	fp, r9, #1
10000dc8:	ebab 0303 	sub.w	r3, fp, r3
10000dcc:	4a52      	ldr	r2, [pc, #328]	@ (10000f18 <irq_add_shared_handler+0x22c>)
10000dce:	fba2 1203 	umull	r1, r2, r2, r3
10000dd2:	08d2      	lsrs	r2, r2, #3
10000dd4:	eb02 0242 	add.w	r2, r2, r2, lsl #1
10000dd8:	ebb3 0f82 	cmp.w	r3, r2, lsl #2
10000ddc:	d10f      	bne.n	10000dfe <irq_add_shared_handler+0x112>
10000dde:	465b      	mov	r3, fp
10000de0:	2600      	movs	r6, #0
10000de2:	79da      	ldrb	r2, [r3, #7]
10000de4:	42aa      	cmp	r2, r5
10000de6:	d912      	bls.n	10000e0e <irq_add_shared_handler+0x122>
10000de8:	f993 2006 	ldrsb.w	r2, [r3, #6]
10000dec:	2a00      	cmp	r2, #0
10000dee:	db0d      	blt.n	10000e0c <irq_add_shared_handler+0x120>
10000df0:	eb02 0242 	add.w	r2, r2, r2, lsl #1
10000df4:	461e      	mov	r6, r3
10000df6:	4b40      	ldr	r3, [pc, #256]	@ (10000ef8 <irq_add_shared_handler+0x20c>)
10000df8:	eb03 0382 	add.w	r3, r3, r2, lsl #2
10000dfc:	e7f1      	b.n	10000de2 <irq_add_shared_handler+0xf6>
10000dfe:	4b47      	ldr	r3, [pc, #284]	@ (10000f1c <irq_add_shared_handler+0x230>)
10000e00:	4a42      	ldr	r2, [pc, #264]	@ (10000f0c <irq_add_shared_handler+0x220>)
10000e02:	f240 1185 	movw	r1, #389	@ 0x185
10000e06:	4842      	ldr	r0, [pc, #264]	@ (10000f10 <irq_add_shared_handler+0x224>)
10000e08:	f002 fb2e 	bl	10003468 <__assert_func>
10000e0c:	461e      	mov	r6, r3
10000e0e:	b3a6      	cbz	r6, 10000e7a <irq_add_shared_handler+0x18e>
10000e10:	f644 0301 	movw	r3, #18433	@ 0x4801
10000e14:	f8ad 300c 	strh.w	r3, [sp, #12]
10000e18:	f44f 438f 	mov.w	r3, #18304	@ 0x4780
10000e1c:	f8ad 300e 	strh.w	r3, [sp, #14]
10000e20:	f996 b006 	ldrsb.w	fp, [r6, #6]
10000e24:	f1bb 0f00 	cmp.w	fp, #0
10000e28:	da1a      	bge.n	10000e60 <irq_add_shared_handler+0x174>
10000e2a:	f64b 5001 	movw	r0, #48385	@ 0xbd01
10000e2e:	f8ad 0010 	strh.w	r0, [sp, #16]
10000e32:	f88d b012 	strb.w	fp, [sp, #18]
10000e36:	f88d 5013 	strb.w	r5, [sp, #19]
10000e3a:	9b00      	ldr	r3, [sp, #0]
10000e3c:	9305      	str	r3, [sp, #20]
10000e3e:	4639      	mov	r1, r7
10000e40:	1d30      	adds	r0, r6, #4
10000e42:	f7ff feb5 	bl	10000bb0 <make_j_16>
10000e46:	80b0      	strh	r0, [r6, #4]
10000e48:	71b4      	strb	r4, [r6, #6]
10000e4a:	eb04 0444 	add.w	r4, r4, r4, lsl #1
10000e4e:	4b2a      	ldr	r3, [pc, #168]	@ (10000ef8 <irq_add_shared_handler+0x20c>)
10000e50:	eb03 0384 	add.w	r3, r3, r4, lsl #2
10000e54:	aa06      	add	r2, sp, #24
10000e56:	e912 0007 	ldmdb	r2, {r0, r1, r2}
10000e5a:	e883 0007 	stmia.w	r3, {r0, r1, r2}
10000e5e:	e79b      	b.n	10000d98 <irq_add_shared_handler+0xac>
10000e60:	1d30      	adds	r0, r6, #4
10000e62:	f7ff fe85 	bl	10000b70 <resolve_j_16>
10000e66:	4601      	mov	r1, r0
10000e68:	eb04 0244 	add.w	r2, r4, r4, lsl #1
10000e6c:	4b22      	ldr	r3, [pc, #136]	@ (10000ef8 <irq_add_shared_handler+0x20c>)
10000e6e:	eb03 0382 	add.w	r3, r3, r2, lsl #2
10000e72:	1d18      	adds	r0, r3, #4
10000e74:	f7ff fe9c 	bl	10000bb0 <make_j_16>
10000e78:	e7d9      	b.n	10000e2e <irq_add_shared_handler+0x142>
10000e7a:	f44f 4321 	mov.w	r3, #41216	@ 0xa100
10000e7e:	f8ad 300c 	strh.w	r3, [sp, #12]
10000e82:	0063      	lsls	r3, r4, #1
10000e84:	9301      	str	r3, [sp, #4]
10000e86:	eb04 0644 	add.w	r6, r4, r4, lsl #1
10000e8a:	f8df 906c 	ldr.w	r9, [pc, #108]	@ 10000ef8 <irq_add_shared_handler+0x20c>
10000e8e:	eb09 0686 	add.w	r6, r9, r6, lsl #2
10000e92:	491c      	ldr	r1, [pc, #112]	@ (10000f04 <irq_add_shared_handler+0x218>)
10000e94:	1cb0      	adds	r0, r6, #2
10000e96:	f7ff fe8b 	bl	10000bb0 <make_j_16>
10000e9a:	f8ad 000e 	strh.w	r0, [sp, #14]
10000e9e:	4659      	mov	r1, fp
10000ea0:	1d30      	adds	r0, r6, #4
10000ea2:	f7ff fe85 	bl	10000bb0 <make_j_16>
10000ea6:	f8ad 0010 	strh.w	r0, [sp, #16]
10000eaa:	f64a 23aa 	movw	r3, #43690	@ 0xaaaa
10000eae:	465a      	mov	r2, fp
10000eb0:	4649      	mov	r1, r9
10000eb2:	1a52      	subs	r2, r2, r1
10000eb4:	4152      	adcs	r2, r2
10000eb6:	4353      	muls	r3, r2
10000eb8:	0d1b      	lsrs	r3, r3, #20
10000eba:	f88d 3012 	strb.w	r3, [sp, #18]
10000ebe:	f88d 5013 	strb.w	r5, [sp, #19]
10000ec2:	9a00      	ldr	r2, [sp, #0]
10000ec4:	9205      	str	r2, [sp, #20]
10000ec6:	9b01      	ldr	r3, [sp, #4]
10000ec8:	4423      	add	r3, r4
10000eca:	eb09 0983 	add.w	r9, r9, r3, lsl #2
10000ece:	ab06      	add	r3, sp, #24
10000ed0:	e913 0007 	ldmdb	r3, {r0, r1, r2}
10000ed4:	e889 0007 	stmia.w	r9, {r0, r1, r2}
10000ed8:	f644 0301 	movw	r3, #18433	@ 0x4801
10000edc:	f8ab 3000 	strh.w	r3, [fp]
10000ee0:	f44f 438f 	mov.w	r3, #18304	@ 0x4780
10000ee4:	f8ab 3002 	strh.w	r3, [fp, #2]
10000ee8:	f047 0901 	orr.w	r9, r7, #1
10000eec:	e754      	b.n	10000d98 <irq_add_shared_handler+0xac>
10000eee:	bf00      	nop
10000ef0:	20001109 	.word	0x20001109
10000ef4:	2000230e 	.word	0x2000230e
10000ef8:	20000e14 	.word	0x20000e14
10000efc:	e000ed00 	.word	0xe000ed00
10000f00:	1000011d 	.word	0x1000011d
10000f04:	20000e44 	.word	0x20000e44
10000f08:	10006970 	.word	0x10006970
10000f0c:	10007298 	.word	0x10007298
10000f10:	100068b0 	.word	0x100068b0
10000f14:	10006998 	.word	0x10006998
10000f18:	aaaaaaab 	.word	0xaaaaaaab
10000f1c:	100069c0 	.word	0x100069c0

10000f20 <irq_remove_handler>:
10000f20:	e92d 47f0 	stmdb	sp!, {r4, r5, r6, r7, r8, r9, sl, lr}
10000f24:	4606      	mov	r6, r0
10000f26:	460d      	mov	r5, r1
10000f28:	f3ef 8810 	mrs	r8, PRIMASK
10000f2c:	b672      	cpsid	i
10000f2e:	4b50      	ldr	r3, [pc, #320]	@ (10001070 <irq_remove_handler+0x150>)
10000f30:	e8d3 1fcf 	ldaexb	r1, [r3]
10000f34:	2201      	movs	r2, #1
10000f36:	2900      	cmp	r1, #0
10000f38:	d1fa      	bne.n	10000f30 <irq_remove_handler+0x10>
10000f3a:	e8c3 2f41 	strexb	r1, r2, [r3]
10000f3e:	2900      	cmp	r1, #0
10000f40:	d1f6      	bne.n	10000f30 <irq_remove_handler+0x10>
10000f42:	f3bf 8f5f 	dmb	sy
10000f46:	4b4b      	ldr	r3, [pc, #300]	@ (10001074 <irq_remove_handler+0x154>)
10000f48:	689b      	ldr	r3, [r3, #8]
10000f4a:	f100 0a10 	add.w	sl, r0, #16
10000f4e:	f853 702a 	ldr.w	r7, [r3, sl, lsl #2]
10000f52:	4b49      	ldr	r3, [pc, #292]	@ (10001078 <irq_remove_handler+0x158>)
10000f54:	429f      	cmp	r7, r3
10000f56:	d007      	beq.n	10000f68 <irq_remove_handler+0x48>
10000f58:	42af      	cmp	r7, r5
10000f5a:	f000 8087 	beq.w	1000106c <irq_remove_handler+0x14c>
10000f5e:	463c      	mov	r4, r7
10000f60:	4b46      	ldr	r3, [pc, #280]	@ (1000107c <irq_remove_handler+0x15c>)
10000f62:	1afb      	subs	r3, r7, r3
10000f64:	2b2f      	cmp	r3, #47	@ 0x2f
10000f66:	d906      	bls.n	10000f76 <irq_remove_handler+0x56>
10000f68:	4642      	mov	r2, r8
10000f6a:	4639      	mov	r1, r7
10000f6c:	4630      	mov	r0, r6
10000f6e:	f7ff fddb 	bl	10000b28 <set_raw_irq_handler_and_unlock>
10000f72:	e8bd 87f0 	ldmia.w	sp!, {r4, r5, r6, r7, r8, r9, sl, pc}
10000f76:	f7ff fe57 	bl	10000c28 <irq_is_enabled>
10000f7a:	4681      	mov	r9, r0
10000f7c:	2100      	movs	r1, #0
10000f7e:	4630      	mov	r0, r6
10000f80:	f7ff fe72 	bl	10000c68 <irq_set_enabled>
10000f84:	f3bf 8f5f 	dmb	sy
10000f88:	f3ef 8005 	mrs	r0, IPSR
10000f8c:	b2c0      	uxtb	r0, r0
10000f8e:	b108      	cbz	r0, 10000f94 <irq_remove_handler+0x74>
10000f90:	4582      	cmp	sl, r0
10000f92:	d110      	bne.n	10000fb6 <irq_remove_handler+0x96>
10000f94:	f024 0401 	bic.w	r4, r4, #1
10000f98:	2100      	movs	r1, #0
10000f9a:	68a2      	ldr	r2, [r4, #8]
10000f9c:	4295      	cmp	r5, r2
10000f9e:	d012      	beq.n	10000fc6 <irq_remove_handler+0xa6>
10000fa0:	f994 3006 	ldrsb.w	r3, [r4, #6]
10000fa4:	2b00      	cmp	r3, #0
10000fa6:	db0d      	blt.n	10000fc4 <irq_remove_handler+0xa4>
10000fa8:	eb03 0343 	add.w	r3, r3, r3, lsl #1
10000fac:	4621      	mov	r1, r4
10000fae:	4c33      	ldr	r4, [pc, #204]	@ (1000107c <irq_remove_handler+0x15c>)
10000fb0:	eb04 0483 	add.w	r4, r4, r3, lsl #2
10000fb4:	e7f1      	b.n	10000f9a <irq_remove_handler+0x7a>
10000fb6:	4b32      	ldr	r3, [pc, #200]	@ (10001080 <irq_remove_handler+0x160>)
10000fb8:	4a32      	ldr	r2, [pc, #200]	@ (10001084 <irq_remove_handler+0x164>)
10000fba:	f240 11f3 	movw	r1, #499	@ 0x1f3
10000fbe:	4832      	ldr	r0, [pc, #200]	@ (10001088 <irq_remove_handler+0x168>)
10000fc0:	f002 fa52 	bl	10003468 <__assert_func>
10000fc4:	4621      	mov	r1, r4
10000fc6:	4295      	cmp	r5, r2
10000fc8:	d149      	bne.n	1000105e <irq_remove_handler+0x13e>
10000fca:	f994 5006 	ldrsb.w	r5, [r4, #6]
10000fce:	2d00      	cmp	r5, #0
10000fd0:	db2b      	blt.n	1000102a <irq_remove_handler+0x10a>
10000fd2:	eb05 0245 	add.w	r2, r5, r5, lsl #1
10000fd6:	4b29      	ldr	r3, [pc, #164]	@ (1000107c <irq_remove_handler+0x15c>)
10000fd8:	eb03 0382 	add.w	r3, r3, r2, lsl #2
10000fdc:	689a      	ldr	r2, [r3, #8]
10000fde:	60a2      	str	r2, [r4, #8]
10000fe0:	79da      	ldrb	r2, [r3, #7]
10000fe2:	71e2      	strb	r2, [r4, #7]
10000fe4:	f993 3006 	ldrsb.w	r3, [r3, #6]
10000fe8:	71a3      	strb	r3, [r4, #6]
10000fea:	2b00      	cmp	r3, #0
10000fec:	da10      	bge.n	10001010 <irq_remove_handler+0xf0>
10000fee:	f64b 5001 	movw	r0, #48385	@ 0xbd01
10000ff2:	80a0      	strh	r0, [r4, #4]
10000ff4:	eb05 0245 	add.w	r2, r5, r5, lsl #1
10000ff8:	4b20      	ldr	r3, [pc, #128]	@ (1000107c <irq_remove_handler+0x15c>)
10000ffa:	eb03 0382 	add.w	r3, r3, r2, lsl #2
10000ffe:	4a23      	ldr	r2, [pc, #140]	@ (1000108c <irq_remove_handler+0x16c>)
10001000:	7811      	ldrb	r1, [r2, #0]
10001002:	7199      	strb	r1, [r3, #6]
10001004:	7015      	strb	r5, [r2, #0]
10001006:	4649      	mov	r1, r9
10001008:	4630      	mov	r0, r6
1000100a:	f7ff fe2d 	bl	10000c68 <irq_set_enabled>
1000100e:	e7ab      	b.n	10000f68 <irq_remove_handler+0x48>
10001010:	eb05 0345 	add.w	r3, r5, r5, lsl #1
10001014:	4819      	ldr	r0, [pc, #100]	@ (1000107c <irq_remove_handler+0x15c>)
10001016:	eb00 0083 	add.w	r0, r0, r3, lsl #2
1000101a:	3004      	adds	r0, #4
1000101c:	f7ff fda8 	bl	10000b70 <resolve_j_16>
10001020:	4601      	mov	r1, r0
10001022:	1d20      	adds	r0, r4, #4
10001024:	f7ff fdc4 	bl	10000bb0 <make_j_16>
10001028:	e7e3      	b.n	10000ff2 <irq_remove_handler+0xd2>
1000102a:	b998      	cbnz	r0, 10001054 <irq_remove_handler+0x134>
1000102c:	b181      	cbz	r1, 10001050 <irq_remove_handler+0x130>
1000102e:	23ff      	movs	r3, #255	@ 0xff
10001030:	718b      	strb	r3, [r1, #6]
10001032:	f64b 5301 	movw	r3, #48385	@ 0xbd01
10001036:	808b      	strh	r3, [r1, #4]
10001038:	4a14      	ldr	r2, [pc, #80]	@ (1000108c <irq_remove_handler+0x16c>)
1000103a:	7813      	ldrb	r3, [r2, #0]
1000103c:	71a3      	strb	r3, [r4, #6]
1000103e:	f64a 23aa 	movw	r3, #43690	@ 0xaaaa
10001042:	490e      	ldr	r1, [pc, #56]	@ (1000107c <irq_remove_handler+0x15c>)
10001044:	1a64      	subs	r4, r4, r1
10001046:	4164      	adcs	r4, r4
10001048:	4363      	muls	r3, r4
1000104a:	0d1b      	lsrs	r3, r3, #20
1000104c:	7013      	strb	r3, [r2, #0]
1000104e:	e7da      	b.n	10001006 <irq_remove_handler+0xe6>
10001050:	4f09      	ldr	r7, [pc, #36]	@ (10001078 <irq_remove_handler+0x158>)
10001052:	e7f1      	b.n	10001038 <irq_remove_handler+0x118>
10001054:	490e      	ldr	r1, [pc, #56]	@ (10001090 <irq_remove_handler+0x170>)
10001056:	1d20      	adds	r0, r4, #4
10001058:	f7ff fdc8 	bl	10000bec <insert_bl_32>
1000105c:	e7d3      	b.n	10001006 <irq_remove_handler+0xe6>
1000105e:	4b0d      	ldr	r3, [pc, #52]	@ (10001094 <irq_remove_handler+0x174>)
10001060:	4a08      	ldr	r2, [pc, #32]	@ (10001084 <irq_remove_handler+0x164>)
10001062:	f240 2135 	movw	r1, #565	@ 0x235
10001066:	4808      	ldr	r0, [pc, #32]	@ (10001088 <irq_remove_handler+0x168>)
10001068:	f002 f9fe 	bl	10003468 <__assert_func>
1000106c:	4f02      	ldr	r7, [pc, #8]	@ (10001078 <irq_remove_handler+0x158>)
1000106e:	e77b      	b.n	10000f68 <irq_remove_handler+0x48>
10001070:	20001109 	.word	0x20001109
10001074:	e000ed00 	.word	0xe000ed00
10001078:	1000011d 	.word	0x1000011d
1000107c:	20000e14 	.word	0x20000e14
10001080:	10006a44 	.word	0x10006a44
10001084:	10007268 	.word	0x10007268
10001088:	100068b0 	.word	0x100068b0
1000108c:	2000230e 	.word	0x2000230e
10001090:	20000e4e 	.word	0x20000e4e
10001094:	10006a78 	.word	0x10006a78

10001098 <irq_add_tail_to_free_list>:
10001098:	b538      	push	{r3, r4, r5, lr}
1000109a:	f040 0401 	orr.w	r4, r0, #1
1000109e:	4b32      	ldr	r3, [pc, #200]	@ (10001168 <irq_add_tail_to_free_list+0xd0>)
100010a0:	1ae3      	subs	r3, r4, r3
100010a2:	2b2f      	cmp	r3, #47	@ 0x2f
100010a4:	d831      	bhi.n	1000110a <irq_add_tail_to_free_list+0x72>
100010a6:	f3ef 8105 	mrs	r1, IPSR
100010aa:	b2c9      	uxtb	r1, r1
100010ac:	2900      	cmp	r1, #0
100010ae:	d033      	beq.n	10001118 <irq_add_tail_to_free_list+0x80>
100010b0:	f3ef 8e10 	mrs	lr, PRIMASK
100010b4:	b672      	cpsid	i
100010b6:	4b2d      	ldr	r3, [pc, #180]	@ (1000116c <irq_add_tail_to_free_list+0xd4>)
100010b8:	e8d3 5fcf 	ldaexb	r5, [r3]
100010bc:	2201      	movs	r2, #1
100010be:	2d00      	cmp	r5, #0
100010c0:	d1fa      	bne.n	100010b8 <irq_add_tail_to_free_list+0x20>
100010c2:	e8c3 2f45 	strexb	r5, r2, [r3]
100010c6:	2d00      	cmp	r5, #0
100010c8:	d1f6      	bne.n	100010b8 <irq_add_tail_to_free_list+0x20>
100010ca:	f3bf 8f5f 	dmb	sy
100010ce:	f64a 23aa 	movw	r3, #43690	@ 0xaaaa
100010d2:	4602      	mov	r2, r0
100010d4:	4d24      	ldr	r5, [pc, #144]	@ (10001168 <irq_add_tail_to_free_list+0xd0>)
100010d6:	1b52      	subs	r2, r2, r5
100010d8:	4152      	adcs	r2, r2
100010da:	4353      	muls	r3, r2
100010dc:	0d1b      	lsrs	r3, r3, #20
100010de:	fa4f fc83 	sxtb.w	ip, r3
100010e2:	4b23      	ldr	r3, [pc, #140]	@ (10001170 <irq_add_tail_to_free_list+0xd8>)
100010e4:	689b      	ldr	r3, [r3, #8]
100010e6:	f853 3021 	ldr.w	r3, [r3, r1, lsl #2]
100010ea:	42a3      	cmp	r3, r4
100010ec:	d01b      	beq.n	10001126 <irq_add_tail_to_free_list+0x8e>
100010ee:	2300      	movs	r3, #0
100010f0:	2b03      	cmp	r3, #3
100010f2:	d832      	bhi.n	1000115a <irq_add_tail_to_free_list+0xc2>
100010f4:	eb03 0143 	add.w	r1, r3, r3, lsl #1
100010f8:	4a1b      	ldr	r2, [pc, #108]	@ (10001168 <irq_add_tail_to_free_list+0xd0>)
100010fa:	eb02 0281 	add.w	r2, r2, r1, lsl #2
100010fe:	f992 2006 	ldrsb.w	r2, [r2, #6]
10001102:	4562      	cmp	r2, ip
10001104:	d020      	beq.n	10001148 <irq_add_tail_to_free_list+0xb0>
10001106:	3301      	adds	r3, #1
10001108:	e7f2      	b.n	100010f0 <irq_add_tail_to_free_list+0x58>
1000110a:	4b1a      	ldr	r3, [pc, #104]	@ (10001174 <irq_add_tail_to_free_list+0xdc>)
1000110c:	4a1a      	ldr	r2, [pc, #104]	@ (10001178 <irq_add_tail_to_free_list+0xe0>)
1000110e:	f240 216e 	movw	r1, #622	@ 0x26e
10001112:	481a      	ldr	r0, [pc, #104]	@ (1000117c <irq_add_tail_to_free_list+0xe4>)
10001114:	f002 f9a8 	bl	10003468 <__assert_func>
10001118:	4b19      	ldr	r3, [pc, #100]	@ (10001180 <irq_add_tail_to_free_list+0xe8>)
1000111a:	4a17      	ldr	r2, [pc, #92]	@ (10001178 <irq_add_tail_to_free_list+0xe0>)
1000111c:	f240 2171 	movw	r1, #625	@ 0x271
10001120:	4816      	ldr	r0, [pc, #88]	@ (1000117c <irq_add_tail_to_free_list+0xe4>)
10001122:	f002 f9a1 	bl	10003468 <__assert_func>
10001126:	4b12      	ldr	r3, [pc, #72]	@ (10001170 <irq_add_tail_to_free_list+0xd8>)
10001128:	689b      	ldr	r3, [r3, #8]
1000112a:	4a16      	ldr	r2, [pc, #88]	@ (10001184 <irq_add_tail_to_free_list+0xec>)
1000112c:	f843 2021 	str.w	r2, [r3, r1, lsl #2]
10001130:	4b15      	ldr	r3, [pc, #84]	@ (10001188 <irq_add_tail_to_free_list+0xf0>)
10001132:	781a      	ldrb	r2, [r3, #0]
10001134:	7182      	strb	r2, [r0, #6]
10001136:	f883 c000 	strb.w	ip, [r3]
1000113a:	2300      	movs	r3, #0
1000113c:	4a0b      	ldr	r2, [pc, #44]	@ (1000116c <irq_add_tail_to_free_list+0xd4>)
1000113e:	e8c2 3f8f 	stlb	r3, [r2]
10001142:	f38e 8810 	msr	PRIMASK, lr
10001146:	bd38      	pop	{r3, r4, r5, pc}
10001148:	4a07      	ldr	r2, [pc, #28]	@ (10001168 <irq_add_tail_to_free_list+0xd0>)
1000114a:	eb02 0181 	add.w	r1, r2, r1, lsl #2
1000114e:	24ff      	movs	r4, #255	@ 0xff
10001150:	718c      	strb	r4, [r1, #6]
10001152:	f64b 5301 	movw	r3, #48385	@ 0xbd01
10001156:	808b      	strh	r3, [r1, #4]
10001158:	e7ea      	b.n	10001130 <irq_add_tail_to_free_list+0x98>
1000115a:	4b0c      	ldr	r3, [pc, #48]	@ (1000118c <irq_add_tail_to_free_list+0xf4>)
1000115c:	4a06      	ldr	r2, [pc, #24]	@ (10001178 <irq_add_tail_to_free_list+0xe0>)
1000115e:	f240 2182 	movw	r1, #642	@ 0x282
10001162:	4806      	ldr	r0, [pc, #24]	@ (1000117c <irq_add_tail_to_free_list+0xe4>)
10001164:	f002 f980 	bl	10003468 <__assert_func>
10001168:	20000e14 	.word	0x20000e14
1000116c:	20001109 	.word	0x20001109
10001170:	e000ed00 	.word	0xe000ed00
10001174:	10006a80 	.word	0x10006a80
10001178:	1000723c 	.word	0x1000723c
1000117c:	100068b0 	.word	0x100068b0
10001180:	10006aa8 	.word	0x10006aa8
10001184:	1000011d 	.word	0x1000011d
10001188:	2000230e 	.word	0x2000230e
1000118c:	10006ab4 	.word	0x10006ab4

10001190 <lock_init>:
10001190:	4b01      	ldr	r3, [pc, #4]	@ (10001198 <lock_init+0x8>)
10001192:	440b      	add	r3, r1
10001194:	6003      	str	r3, [r0, #0]
10001196:	4770      	bx	lr
10001198:	20001100 	.word	0x20001100

1000119c <mutex_init>:
1000119c:	b510      	push	{r4, lr}
1000119e:	4604      	mov	r4, r0
100011a0:	f7ff fc8c 	bl	10000abc <next_striped_spin_lock_num>
100011a4:	4601      	mov	r1, r0
100011a6:	4620      	mov	r0, r4
100011a8:	f7ff fff2 	bl	10001190 <lock_init>
100011ac:	23ff      	movs	r3, #255	@ 0xff
100011ae:	7123      	strb	r3, [r4, #4]
100011b0:	f3bf 8f5f 	dmb	sy
100011b4:	bd10      	pop	{r4, pc}

100011b6 <recursive_mutex_init>:
100011b6:	b510      	push	{r4, lr}
100011b8:	4604      	mov	r4, r0
100011ba:	f7ff fc7f 	bl	10000abc <next_striped_spin_lock_num>
100011be:	4601      	mov	r1, r0
100011c0:	4620      	mov	r0, r4
100011c2:	f7ff ffe5 	bl	10001190 <lock_init>
100011c6:	23ff      	movs	r3, #255	@ 0xff
100011c8:	7123      	strb	r3, [r4, #4]
100011ca:	2300      	movs	r3, #0
100011cc:	7163      	strb	r3, [r4, #5]
100011ce:	f3bf 8f5f 	dmb	sy
100011d2:	bd10      	pop	{r4, pc}

100011d4 <runtime_init_mutex>:
100011d4:	b510      	push	{r4, lr}
100011d6:	4c0d      	ldr	r4, [pc, #52]	@ (1000120c <runtime_init_mutex+0x38>)
100011d8:	e009      	b.n	100011ee <runtime_init_mutex+0x1a>
100011da:	4b0d      	ldr	r3, [pc, #52]	@ (10001210 <runtime_init_mutex+0x3c>)
100011dc:	4a0d      	ldr	r2, [pc, #52]	@ (10001214 <runtime_init_mutex+0x40>)
100011de:	211a      	movs	r1, #26
100011e0:	480d      	ldr	r0, [pc, #52]	@ (10001218 <runtime_init_mutex+0x44>)
100011e2:	f002 f941 	bl	10003468 <__assert_func>
100011e6:	4620      	mov	r0, r4
100011e8:	f7ff ffd8 	bl	1000119c <mutex_init>
100011ec:	3408      	adds	r4, #8
100011ee:	4b0b      	ldr	r3, [pc, #44]	@ (1000121c <runtime_init_mutex+0x48>)
100011f0:	429c      	cmp	r4, r3
100011f2:	d209      	bcs.n	10001208 <runtime_init_mutex+0x34>
100011f4:	6823      	ldr	r3, [r4, #0]
100011f6:	2b00      	cmp	r3, #0
100011f8:	d0f5      	beq.n	100011e6 <runtime_init_mutex+0x12>
100011fa:	2b01      	cmp	r3, #1
100011fc:	d1ed      	bne.n	100011da <runtime_init_mutex+0x6>
100011fe:	4620      	mov	r0, r4
10001200:	f7ff ffd9 	bl	100011b6 <recursive_mutex_init>
10001204:	3408      	adds	r4, #8
10001206:	e7f2      	b.n	100011ee <runtime_init_mutex+0x1a>
10001208:	bd10      	pop	{r4, pc}
1000120a:	bf00      	nop
1000120c:	20000eac 	.word	0x20000eac
10001210:	10006abc 	.word	0x10006abc
10001214:	100072f0 	.word	0x100072f0
10001218:	10006adc 	.word	0x10006adc
1000121c:	20000eb4 	.word	0x20000eb4

10001220 <critical_section_init_with_lock_num>:
10001220:	4b02      	ldr	r3, [pc, #8]	@ (1000122c <critical_section_init_with_lock_num+0xc>)
10001222:	440b      	add	r3, r1
10001224:	6003      	str	r3, [r0, #0]
10001226:	f3bf 8f5f 	dmb	sy
1000122a:	4770      	bx	lr
1000122c:	20001100 	.word	0x20001100

10001230 <critical_section_init>:
10001230:	b510      	push	{r4, lr}
10001232:	4604      	mov	r4, r0
10001234:	2001      	movs	r0, #1
10001236:	f7ff fc4f 	bl	10000ad8 <spin_lock_claim_unused>
1000123a:	4601      	mov	r1, r0
1000123c:	4620      	mov	r0, r4
1000123e:	f7ff ffef 	bl	10001220 <critical_section_init_with_lock_num>
10001242:	bd10      	pop	{r4, pc}

10001244 <ta_from_current_irq>:
10001244:	4602      	mov	r2, r0
10001246:	f3ef 8305 	mrs	r3, IPSR
1000124a:	b2db      	uxtb	r3, r3
1000124c:	3b10      	subs	r3, #16
1000124e:	0899      	lsrs	r1, r3, #2
10001250:	d004      	beq.n	1000125c <ta_from_current_irq+0x18>
10001252:	4803      	ldr	r0, [pc, #12]	@ (10001260 <ta_from_current_irq+0x1c>)
10001254:	f003 0303 	and.w	r3, r3, #3
10001258:	6013      	str	r3, [r2, #0]
1000125a:	4770      	bx	lr
1000125c:	4801      	ldr	r0, [pc, #4]	@ (10001264 <ta_from_current_irq+0x20>)
1000125e:	e7f9      	b.n	10001254 <ta_from_current_irq+0x10>
10001260:	400b8000 	.word	0x400b8000
10001264:	400b0000 	.word	0x400b0000

10001268 <make_alarm_id>:
10001268:	ea41 4000 	orr.w	r0, r1, r0, lsl #16
1000126c:	4770      	bx	lr
	...

10001270 <sleep_until_callback>:
10001270:	4b0d      	ldr	r3, [pc, #52]	@ (100012a8 <sleep_until_callback+0x38>)
10001272:	681a      	ldr	r2, [r3, #0]
10001274:	f3ef 8110 	mrs	r1, PRIMASK
10001278:	b672      	cpsid	i
1000127a:	e8d2 cfcf 	ldaexb	ip, [r2]
1000127e:	2001      	movs	r0, #1
10001280:	f1bc 0f00 	cmp.w	ip, #0
10001284:	d1f9      	bne.n	1000127a <sleep_until_callback+0xa>
10001286:	e8c2 0f4c 	strexb	ip, r0, [r2]
1000128a:	f1bc 0f00 	cmp.w	ip, #0
1000128e:	d1f4      	bne.n	1000127a <sleep_until_callback+0xa>
10001290:	f3bf 8f5f 	dmb	sy
10001294:	681a      	ldr	r2, [r3, #0]
10001296:	2300      	movs	r3, #0
10001298:	e8c2 3f8f 	stlb	r3, [r2]
1000129c:	f381 8810 	msr	PRIMASK, r1
100012a0:	bf40      	sev
100012a2:	2000      	movs	r0, #0
100012a4:	2100      	movs	r1, #0
100012a6:	4770      	bx	lr
100012a8:	20001fd8 	.word	0x20001fd8

100012ac <alarm_pool_irq_handler>:
100012ac:	e92d 4ff0 	stmdb	sp!, {r4, r5, r6, r7, r8, r9, sl, fp, lr}
100012b0:	b085      	sub	sp, #20
100012b2:	a803      	add	r0, sp, #12
100012b4:	f7ff ffc6 	bl	10001244 <ta_from_current_irq>
100012b8:	4b8f      	ldr	r3, [pc, #572]	@ (100014f8 <alarm_pool_irq_handler+0x24c>)
100012ba:	4298      	cmp	r0, r3
100012bc:	bf14      	ite	ne
100012be:	2300      	movne	r3, #0
100012c0:	2301      	moveq	r3, #1
100012c2:	9903      	ldr	r1, [sp, #12]
100012c4:	eb01 0383 	add.w	r3, r1, r3, lsl #2
100012c8:	4a8c      	ldr	r2, [pc, #560]	@ (100014fc <alarm_pool_irq_handler+0x250>)
100012ca:	f852 4023 	ldr.w	r4, [r2, r3, lsl #2]
100012ce:	7823      	ldrb	r3, [r4, #0]
100012d0:	4299      	cmp	r1, r3
100012d2:	d106      	bne.n	100012e2 <alarm_pool_irq_handler+0x36>
100012d4:	4605      	mov	r5, r0
100012d6:	2201      	movs	r2, #1
100012d8:	408a      	lsls	r2, r1
100012da:	f500 5341 	add.w	r3, r0, #12352	@ 0x3040
100012de:	605a      	str	r2, [r3, #4]
100012e0:	e120      	b.n	10001524 <alarm_pool_irq_handler+0x278>
100012e2:	4b87      	ldr	r3, [pc, #540]	@ (10001500 <alarm_pool_irq_handler+0x254>)
100012e4:	4a87      	ldr	r2, [pc, #540]	@ (10001504 <alarm_pool_irq_handler+0x258>)
100012e6:	2192      	movs	r1, #146	@ 0x92
100012e8:	4887      	ldr	r0, [pc, #540]	@ (10001508 <alarm_pool_irq_handler+0x25c>)
100012ea:	f002 f8bd 	bl	10003468 <__assert_func>
100012ee:	f8d4 9014 	ldr.w	r9, [r4, #20]
100012f2:	eb06 0746 	add.w	r7, r6, r6, lsl #1
100012f6:	ea4f 0ac7 	mov.w	sl, r7, lsl #3
100012fa:	eb09 07c7 	add.w	r7, r9, r7, lsl #3
100012fe:	f8d7 b008 	ldr.w	fp, [r7, #8]
10001302:	f8d7 800c 	ldr.w	r8, [r7, #12]
10001306:	4628      	mov	r0, r5
10001308:	f000 fb2e 	bl	10001968 <timer_time_us_64>
1000130c:	ebb0 000b 	subs.w	r0, r0, fp
10001310:	eb61 0308 	sbc.w	r3, r1, r8
10001314:	2b00      	cmp	r3, #0
10001316:	f2c0 810e 	blt.w	10001536 <alarm_pool_irq_handler+0x28a>
1000131a:	f1b8 0f00 	cmp.w	r8, #0
1000131e:	db60      	blt.n	100013e2 <alarm_pool_irq_handler+0x136>
10001320:	693b      	ldr	r3, [r7, #16]
10001322:	461a      	mov	r2, r3
10001324:	9300      	str	r3, [sp, #0]
10001326:	4b79      	ldr	r3, [pc, #484]	@ (1000150c <alarm_pool_irq_handler+0x260>)
10001328:	429a      	cmp	r2, r3
1000132a:	d030      	beq.n	1000138e <alarm_pool_irq_handler+0xe2>
1000132c:	8879      	ldrh	r1, [r7, #2]
1000132e:	b289      	uxth	r1, r1
10001330:	f9b4 0008 	ldrsh.w	r0, [r4, #8]
10001334:	f7ff ff98 	bl	10001268 <make_alarm_id>
10001338:	6979      	ldr	r1, [r7, #20]
1000133a:	9b00      	ldr	r3, [sp, #0]
1000133c:	4798      	blx	r3
1000133e:	9000      	str	r0, [sp, #0]
10001340:	9101      	str	r1, [sp, #4]
10001342:	9900      	ldr	r1, [sp, #0]
10001344:	9a01      	ldr	r2, [sp, #4]
10001346:	ea51 0302 	orrs.w	r3, r1, r2
1000134a:	d04a      	beq.n	100013e2 <alarm_pool_irq_handler+0x136>
1000134c:	4613      	mov	r3, r2
1000134e:	2a00      	cmp	r2, #0
10001350:	da29      	bge.n	100013a6 <alarm_pool_irq_handler+0xfa>
10001352:	ebbb 0201 	subs.w	r2, fp, r1
10001356:	eb68 0803 	sbc.w	r8, r8, r3
1000135a:	60ba      	str	r2, [r7, #8]
1000135c:	f8c7 800c 	str.w	r8, [r7, #12]
10001360:	f939 300a 	ldrsh.w	r3, [r9, sl]
10001364:	2b00      	cmp	r3, #0
10001366:	f2c0 80e6 	blt.w	10001536 <alarm_pool_irq_handler+0x28a>
1000136a:	f8d4 e014 	ldr.w	lr, [r4, #20]
1000136e:	eb03 0143 	add.w	r1, r3, r3, lsl #1
10001372:	eb0e 01c1 	add.w	r1, lr, r1, lsl #3
10001376:	6888      	ldr	r0, [r1, #8]
10001378:	68c9      	ldr	r1, [r1, #12]
1000137a:	1a10      	subs	r0, r2, r0
1000137c:	eb68 0101 	sbc.w	r1, r8, r1
10001380:	2900      	cmp	r1, #0
10001382:	f2c0 80d8 	blt.w	10001536 <alarm_pool_irq_handler+0x28a>
10001386:	46a4      	mov	ip, r4
10001388:	f82c 3f08 	strh.w	r3, [ip, #8]!
1000138c:	e015      	b.n	100013ba <alarm_pool_irq_handler+0x10e>
1000138e:	697a      	ldr	r2, [r7, #20]
10001390:	6913      	ldr	r3, [r2, #16]
10001392:	9200      	str	r2, [sp, #0]
10001394:	4610      	mov	r0, r2
10001396:	4798      	blx	r3
10001398:	b318      	cbz	r0, 100013e2 <alarm_pool_irq_handler+0x136>
1000139a:	9a00      	ldr	r2, [sp, #0]
1000139c:	6813      	ldr	r3, [r2, #0]
1000139e:	9300      	str	r3, [sp, #0]
100013a0:	6853      	ldr	r3, [r2, #4]
100013a2:	9301      	str	r3, [sp, #4]
100013a4:	e7cd      	b.n	10001342 <alarm_pool_irq_handler+0x96>
100013a6:	4628      	mov	r0, r5
100013a8:	f000 fade 	bl	10001968 <timer_time_us_64>
100013ac:	9b00      	ldr	r3, [sp, #0]
100013ae:	181a      	adds	r2, r3, r0
100013b0:	9b01      	ldr	r3, [sp, #4]
100013b2:	eb43 0801 	adc.w	r8, r3, r1
100013b6:	e7d0      	b.n	1000135a <alarm_pool_irq_handler+0xae>
100013b8:	469c      	mov	ip, r3
100013ba:	f9bc 7000 	ldrsh.w	r7, [ip]
100013be:	2f00      	cmp	r7, #0
100013c0:	db0a      	blt.n	100013d8 <alarm_pool_irq_handler+0x12c>
100013c2:	eb07 0347 	add.w	r3, r7, r7, lsl #1
100013c6:	eb0e 03c3 	add.w	r3, lr, r3, lsl #3
100013ca:	6898      	ldr	r0, [r3, #8]
100013cc:	68d9      	ldr	r1, [r3, #12]
100013ce:	1a10      	subs	r0, r2, r0
100013d0:	eb68 0101 	sbc.w	r1, r8, r1
100013d4:	2900      	cmp	r1, #0
100013d6:	daef      	bge.n	100013b8 <alarm_pool_irq_handler+0x10c>
100013d8:	f829 700a 	strh.w	r7, [r9, sl]
100013dc:	f8ac 6000 	strh.w	r6, [ip]
100013e0:	e0a9      	b.n	10001536 <alarm_pool_irq_handler+0x28a>
100013e2:	f939 300a 	ldrsh.w	r3, [r9, sl]
100013e6:	8123      	strh	r3, [r4, #8]
100013e8:	6923      	ldr	r3, [r4, #16]
100013ea:	f3ef 8210 	mrs	r2, PRIMASK
100013ee:	b672      	cpsid	i
100013f0:	e8d3 0fcf 	ldaexb	r0, [r3]
100013f4:	2101      	movs	r1, #1
100013f6:	2800      	cmp	r0, #0
100013f8:	d1fa      	bne.n	100013f0 <alarm_pool_irq_handler+0x144>
100013fa:	e8c3 1f40 	strexb	r0, r1, [r3]
100013fe:	2800      	cmp	r0, #0
10001400:	d1f6      	bne.n	100013f0 <alarm_pool_irq_handler+0x144>
10001402:	f3bf 8f5f 	dmb	sy
10001406:	f9b4 3002 	ldrsh.w	r3, [r4, #2]
1000140a:	f829 300a 	strh.w	r3, [r9, sl]
1000140e:	8066      	strh	r6, [r4, #2]
10001410:	6921      	ldr	r1, [r4, #16]
10001412:	2300      	movs	r3, #0
10001414:	e8c1 3f8f 	stlb	r3, [r1]
10001418:	f382 8810 	msr	PRIMASK, r2
1000141c:	e08b      	b.n	10001536 <alarm_pool_irq_handler+0x28a>
1000141e:	6923      	ldr	r3, [r4, #16]
10001420:	f3ef 8210 	mrs	r2, PRIMASK
10001424:	b672      	cpsid	i
10001426:	e8d3 0fcf 	ldaexb	r0, [r3]
1000142a:	2101      	movs	r1, #1
1000142c:	2800      	cmp	r0, #0
1000142e:	d1fa      	bne.n	10001426 <alarm_pool_irq_handler+0x17a>
10001430:	e8c3 1f40 	strexb	r0, r1, [r3]
10001434:	2800      	cmp	r0, #0
10001436:	d1f6      	bne.n	10001426 <alarm_pool_irq_handler+0x17a>
10001438:	f3bf 8f5f 	dmb	sy
1000143c:	f8b4 8004 	ldrh.w	r8, [r4, #4]
10001440:	fa0f f888 	sxth.w	r8, r8
10001444:	f64f 73ff 	movw	r3, #65535	@ 0xffff
10001448:	80a3      	strh	r3, [r4, #4]
1000144a:	6921      	ldr	r1, [r4, #16]
1000144c:	2300      	movs	r3, #0
1000144e:	e8c1 3f8f 	stlb	r3, [r1]
10001452:	f382 8810 	msr	PRIMASK, r2
10001456:	e015      	b.n	10001484 <alarm_pool_irq_handler+0x1d8>
10001458:	461e      	mov	r6, r3
1000145a:	f9b6 2000 	ldrsh.w	r2, [r6]
1000145e:	2a00      	cmp	r2, #0
10001460:	db0a      	blt.n	10001478 <alarm_pool_irq_handler+0x1cc>
10001462:	eb02 0342 	add.w	r3, r2, r2, lsl #1
10001466:	eb0c 03c3 	add.w	r3, ip, r3, lsl #3
1000146a:	6898      	ldr	r0, [r3, #8]
1000146c:	68d9      	ldr	r1, [r3, #12]
1000146e:	1a38      	subs	r0, r7, r0
10001470:	eb6e 0101 	sbc.w	r1, lr, r1
10001474:	2900      	cmp	r1, #0
10001476:	daef      	bge.n	10001458 <alarm_pool_irq_handler+0x1ac>
10001478:	f8a6 8000 	strh.w	r8, [r6]
1000147c:	f93c 8009 	ldrsh.w	r8, [ip, r9]
10001480:	f82c 2009 	strh.w	r2, [ip, r9]
10001484:	f1b8 0f00 	cmp.w	r8, #0
10001488:	db5a      	blt.n	10001540 <alarm_pool_irq_handler+0x294>
1000148a:	f8d4 c014 	ldr.w	ip, [r4, #20]
1000148e:	eb08 0348 	add.w	r3, r8, r8, lsl #1
10001492:	ea4f 09c3 	mov.w	r9, r3, lsl #3
10001496:	eb0c 03c3 	add.w	r3, ip, r3, lsl #3
1000149a:	689f      	ldr	r7, [r3, #8]
1000149c:	f8d3 e00c 	ldr.w	lr, [r3, #12]
100014a0:	f104 0608 	add.w	r6, r4, #8
100014a4:	e7d9      	b.n	1000145a <alarm_pool_irq_handler+0x1ae>
100014a6:	2300      	movs	r3, #0
100014a8:	71a3      	strb	r3, [r4, #6]
100014aa:	f104 0c08 	add.w	ip, r4, #8
100014ae:	f9b4 3008 	ldrsh.w	r3, [r4, #8]
100014b2:	e010      	b.n	100014d6 <alarm_pool_irq_handler+0x22a>
100014b4:	f04f 38ff 	mov.w	r8, #4294967295
100014b8:	f04f 39ff 	mov.w	r9, #4294967295
100014bc:	e9c0 8902 	strd	r8, r9, [r0, #8]
100014c0:	f9b4 0008 	ldrsh.w	r0, [r4, #8]
100014c4:	4298      	cmp	r0, r3
100014c6:	d005      	beq.n	100014d4 <alarm_pool_irq_handler+0x228>
100014c8:	f8ac 2000 	strh.w	r2, [ip]
100014cc:	f9b4 0008 	ldrsh.w	r0, [r4, #8]
100014d0:	53c8      	strh	r0, [r1, r7]
100014d2:	8123      	strh	r3, [r4, #8]
100014d4:	4613      	mov	r3, r2
100014d6:	f1b3 3fff 	cmp.w	r3, #4294967295
100014da:	d034      	beq.n	10001546 <alarm_pool_irq_handler+0x29a>
100014dc:	6961      	ldr	r1, [r4, #20]
100014de:	eb03 0243 	add.w	r2, r3, r3, lsl #1
100014e2:	00d7      	lsls	r7, r2, #3
100014e4:	eb01 00c2 	add.w	r0, r1, r2, lsl #3
100014e8:	f931 2032 	ldrsh.w	r2, [r1, r2, lsl #3]
100014ec:	8846      	ldrh	r6, [r0, #2]
100014ee:	f416 4f00 	tst.w	r6, #32768	@ 0x8000
100014f2:	d1df      	bne.n	100014b4 <alarm_pool_irq_handler+0x208>
100014f4:	4684      	mov	ip, r0
100014f6:	e7ed      	b.n	100014d4 <alarm_pool_irq_handler+0x228>
100014f8:	400b8000 	.word	0x400b8000
100014fc:	20001fb0 	.word	0x20001fb0
10001500:	10006b70 	.word	0x10006b70
10001504:	1000731c 	.word	0x1000731c
10001508:	10006b9c 	.word	0x10006b9c
1000150c:	100012ad 	.word	0x100012ad
10001510:	4628      	mov	r0, r5
10001512:	f000 fa29 	bl	10001968 <timer_time_us_64>
10001516:	1a36      	subs	r6, r6, r0
10001518:	eb67 0701 	sbc.w	r7, r7, r1
1000151c:	2e01      	cmp	r6, #1
1000151e:	f177 0700 	sbcs.w	r7, r7, #0
10001522:	da2e      	bge.n	10001582 <alarm_pool_irq_handler+0x2d6>
10001524:	9a03      	ldr	r2, [sp, #12]
10001526:	2301      	movs	r3, #1
10001528:	4093      	lsls	r3, r2
1000152a:	63eb      	str	r3, [r5, #60]	@ 0x3c
1000152c:	f9b4 6008 	ldrsh.w	r6, [r4, #8]
10001530:	2e00      	cmp	r6, #0
10001532:	f6bf aedc 	bge.w	100012ee <alarm_pool_irq_handler+0x42>
10001536:	88a3      	ldrh	r3, [r4, #4]
10001538:	f413 4f00 	tst.w	r3, #32768	@ 0x8000
1000153c:	f43f af6f 	beq.w	1000141e <alarm_pool_irq_handler+0x172>
10001540:	79a3      	ldrb	r3, [r4, #6]
10001542:	2b00      	cmp	r3, #0
10001544:	d1af      	bne.n	100014a6 <alarm_pool_irq_handler+0x1fa>
10001546:	f9b4 3008 	ldrsh.w	r3, [r4, #8]
1000154a:	2b00      	cmp	r3, #0
1000154c:	db19      	blt.n	10001582 <alarm_pool_irq_handler+0x2d6>
1000154e:	6962      	ldr	r2, [r4, #20]
10001550:	eb03 0343 	add.w	r3, r3, r3, lsl #1
10001554:	eb02 03c3 	add.w	r3, r2, r3, lsl #3
10001558:	689e      	ldr	r6, [r3, #8]
1000155a:	68df      	ldr	r7, [r3, #12]
1000155c:	f1b7 3fff 	cmp.w	r7, #4294967295
10001560:	bf08      	it	eq
10001562:	f1b6 3fff 	cmpeq.w	r6, #4294967295
10001566:	d0d3      	beq.n	10001510 <alarm_pool_irq_handler+0x264>
10001568:	9a03      	ldr	r2, [sp, #12]
1000156a:	6aa9      	ldr	r1, [r5, #40]	@ 0x28
1000156c:	1a70      	subs	r0, r6, r1
1000156e:	1d13      	adds	r3, r2, #4
10001570:	f855 3023 	ldr.w	r3, [r5, r3, lsl #2]
10001574:	1a5b      	subs	r3, r3, r1
10001576:	4298      	cmp	r0, r3
10001578:	d2ca      	bcs.n	10001510 <alarm_pool_irq_handler+0x264>
1000157a:	3204      	adds	r2, #4
1000157c:	f845 6022 	str.w	r6, [r5, r2, lsl #2]
10001580:	e7c6      	b.n	10001510 <alarm_pool_irq_handler+0x264>
10001582:	bf40      	sev
10001584:	b005      	add	sp, #20
10001586:	e8bd 8ff0 	ldmia.w	sp!, {r4, r5, r6, r7, r8, r9, sl, fp, pc}
1000158a:	bf00      	nop

1000158c <ta_enable_irq_handler>:
1000158c:	b5f8      	push	{r3, r4, r5, r6, r7, lr}
1000158e:	4604      	mov	r4, r0
10001590:	460d      	mov	r5, r1
10001592:	4611      	mov	r1, r2
10001594:	4b0a      	ldr	r3, [pc, #40]	@ (100015c0 <ta_enable_irq_handler+0x34>)
10001596:	4298      	cmp	r0, r3
10001598:	d010      	beq.n	100015bc <ta_enable_irq_handler+0x30>
1000159a:	2600      	movs	r6, #0
1000159c:	442e      	add	r6, r5
1000159e:	2701      	movs	r7, #1
100015a0:	fa07 f505 	lsl.w	r5, r7, r5
100015a4:	6225      	str	r5, [r4, #32]
100015a6:	4630      	mov	r0, r6
100015a8:	f7ff fb70 	bl	10000c8c <irq_set_exclusive_handler>
100015ac:	4639      	mov	r1, r7
100015ae:	4630      	mov	r0, r6
100015b0:	f7ff fb5a 	bl	10000c68 <irq_set_enabled>
100015b4:	f504 5401 	add.w	r4, r4, #8256	@ 0x2040
100015b8:	6025      	str	r5, [r4, #0]
100015ba:	bdf8      	pop	{r3, r4, r5, r6, r7, pc}
100015bc:	2604      	movs	r6, #4
100015be:	e7ed      	b.n	1000159c <ta_enable_irq_handler+0x10>
100015c0:	400b8000 	.word	0x400b8000

100015c4 <alarm_pool_post_alloc_init>:
100015c4:	b5f8      	push	{r3, r4, r5, r6, r7, lr}
100015c6:	4604      	mov	r4, r0
100015c8:	460e      	mov	r6, r1
100015ca:	4617      	mov	r7, r2
100015cc:	461d      	mov	r5, r3
100015ce:	60c1      	str	r1, [r0, #12]
100015d0:	f7ff fa74 	bl	10000abc <next_striped_spin_lock_num>
100015d4:	4b16      	ldr	r3, [pc, #88]	@ (10001630 <alarm_pool_post_alloc_init+0x6c>)
100015d6:	4403      	add	r3, r0
100015d8:	6123      	str	r3, [r4, #16]
100015da:	7027      	strb	r7, [r4, #0]
100015dc:	b2ab      	uxth	r3, r5
100015de:	8163      	strh	r3, [r4, #10]
100015e0:	f04f 4250 	mov.w	r2, #3489660928	@ 0xd0000000
100015e4:	7812      	ldrb	r2, [r2, #0]
100015e6:	7062      	strb	r2, [r4, #1]
100015e8:	f64f 72ff 	movw	r2, #65535	@ 0xffff
100015ec:	8122      	strh	r2, [r4, #8]
100015ee:	80a2      	strh	r2, [r4, #4]
100015f0:	3b01      	subs	r3, #1
100015f2:	8063      	strh	r3, [r4, #2]
100015f4:	f04f 0c00 	mov.w	ip, #0
100015f8:	e008      	b.n	1000160c <alarm_pool_post_alloc_init+0x48>
100015fa:	f10c 30ff 	add.w	r0, ip, #4294967295
100015fe:	eb0c 0e4c 	add.w	lr, ip, ip, lsl #1
10001602:	6963      	ldr	r3, [r4, #20]
10001604:	f823 003e 	strh.w	r0, [r3, lr, lsl #3]
10001608:	f10c 0c01 	add.w	ip, ip, #1
1000160c:	45ac      	cmp	ip, r5
1000160e:	d3f4      	bcc.n	100015fa <alarm_pool_post_alloc_init+0x36>
10001610:	4b08      	ldr	r3, [pc, #32]	@ (10001634 <alarm_pool_post_alloc_init+0x70>)
10001612:	429e      	cmp	r6, r3
10001614:	bf14      	ite	ne
10001616:	2300      	movne	r3, #0
10001618:	2301      	moveq	r3, #1
1000161a:	eb07 0383 	add.w	r3, r7, r3, lsl #2
1000161e:	4a06      	ldr	r2, [pc, #24]	@ (10001638 <alarm_pool_post_alloc_init+0x74>)
10001620:	f842 4023 	str.w	r4, [r2, r3, lsl #2]
10001624:	4a05      	ldr	r2, [pc, #20]	@ (1000163c <alarm_pool_post_alloc_init+0x78>)
10001626:	4639      	mov	r1, r7
10001628:	4630      	mov	r0, r6
1000162a:	f7ff ffaf 	bl	1000158c <ta_enable_irq_handler>
1000162e:	bdf8      	pop	{r3, r4, r5, r6, r7, pc}
10001630:	20001100 	.word	0x20001100
10001634:	400b8000 	.word	0x400b8000
10001638:	20001fb0 	.word	0x20001fb0
1000163c:	100012ad 	.word	0x100012ad

10001640 <alarm_pool_get_default>:
10001640:	b508      	push	{r3, lr}
10001642:	4b05      	ldr	r3, [pc, #20]	@ (10001658 <alarm_pool_get_default+0x18>)
10001644:	691b      	ldr	r3, [r3, #16]
10001646:	b10b      	cbz	r3, 1000164c <alarm_pool_get_default+0xc>
10001648:	4803      	ldr	r0, [pc, #12]	@ (10001658 <alarm_pool_get_default+0x18>)
1000164a:	bd08      	pop	{r3, pc}
1000164c:	4b03      	ldr	r3, [pc, #12]	@ (1000165c <alarm_pool_get_default+0x1c>)
1000164e:	4a04      	ldr	r2, [pc, #16]	@ (10001660 <alarm_pool_get_default+0x20>)
10001650:	2165      	movs	r1, #101	@ 0x65
10001652:	4804      	ldr	r0, [pc, #16]	@ (10001664 <alarm_pool_get_default+0x24>)
10001654:	f001 ff08 	bl	10003468 <__assert_func>
10001658:	20000e5c 	.word	0x20000e5c
1000165c:	10006bdc 	.word	0x10006bdc
10001660:	10007304 	.word	0x10007304
10001664:	10006b9c 	.word	0x10006b9c

10001668 <alarm_pool_add_alarm_at_force_in_context>:
10001668:	b5f8      	push	{r3, r4, r5, r6, r7, lr}
1000166a:	4604      	mov	r4, r0
1000166c:	469e      	mov	lr, r3
1000166e:	6900      	ldr	r0, [r0, #16]
10001670:	f3ef 8110 	mrs	r1, PRIMASK
10001674:	b672      	cpsid	i
10001676:	e8d0 6fcf 	ldaexb	r6, [r0]
1000167a:	2501      	movs	r5, #1
1000167c:	2e00      	cmp	r6, #0
1000167e:	d1fa      	bne.n	10001676 <alarm_pool_add_alarm_at_force_in_context+0xe>
10001680:	e8c0 5f46 	strexb	r6, r5, [r0]
10001684:	2e00      	cmp	r6, #0
10001686:	d1f6      	bne.n	10001676 <alarm_pool_add_alarm_at_force_in_context+0xe>
10001688:	f3bf 8f5f 	dmb	sy
1000168c:	f9b4 5002 	ldrsh.w	r5, [r4, #2]
10001690:	6966      	ldr	r6, [r4, #20]
10001692:	eb05 0045 	add.w	r0, r5, r5, lsl #1
10001696:	00c7      	lsls	r7, r0, #3
10001698:	eb06 00c0 	add.w	r0, r6, r0, lsl #3
1000169c:	2d00      	cmp	r5, #0
1000169e:	db03      	blt.n	100016a8 <alarm_pool_add_alarm_at_force_in_context+0x40>
100016a0:	f936 c007 	ldrsh.w	ip, [r6, r7]
100016a4:	f8a4 c002 	strh.w	ip, [r4, #2]
100016a8:	f04f 0c00 	mov.w	ip, #0
100016ac:	6923      	ldr	r3, [r4, #16]
100016ae:	e8c3 cf8f 	stlb	ip, [r3]
100016b2:	f381 8810 	msr	PRIMASK, r1
100016b6:	4565      	cmp	r5, ip
100016b8:	db33      	blt.n	10001722 <alarm_pool_add_alarm_at_force_in_context+0xba>
100016ba:	9906      	ldr	r1, [sp, #24]
100016bc:	6101      	str	r1, [r0, #16]
100016be:	9907      	ldr	r1, [sp, #28]
100016c0:	6141      	str	r1, [r0, #20]
100016c2:	6082      	str	r2, [r0, #8]
100016c4:	f8c0 e00c 	str.w	lr, [r0, #12]
100016c8:	8841      	ldrh	r1, [r0, #2]
100016ca:	b289      	uxth	r1, r1
100016cc:	3101      	adds	r1, #1
100016ce:	f3c1 010e 	ubfx	r1, r1, #0, #15
100016d2:	b901      	cbnz	r1, 100016d6 <alarm_pool_add_alarm_at_force_in_context+0x6e>
100016d4:	2101      	movs	r1, #1
100016d6:	8041      	strh	r1, [r0, #2]
100016d8:	4628      	mov	r0, r5
100016da:	f7ff fdc5 	bl	10001268 <make_alarm_id>
100016de:	6923      	ldr	r3, [r4, #16]
100016e0:	f3ef 8210 	mrs	r2, PRIMASK
100016e4:	b672      	cpsid	i
100016e6:	e8d3 cfcf 	ldaexb	ip, [r3]
100016ea:	2101      	movs	r1, #1
100016ec:	f1bc 0f00 	cmp.w	ip, #0
100016f0:	d1f9      	bne.n	100016e6 <alarm_pool_add_alarm_at_force_in_context+0x7e>
100016f2:	e8c3 1f4c 	strexb	ip, r1, [r3]
100016f6:	f1bc 0f00 	cmp.w	ip, #0
100016fa:	d1f4      	bne.n	100016e6 <alarm_pool_add_alarm_at_force_in_context+0x7e>
100016fc:	f3bf 8f5f 	dmb	sy
10001700:	88a3      	ldrh	r3, [r4, #4]
10001702:	53f3      	strh	r3, [r6, r7]
10001704:	80a5      	strh	r5, [r4, #4]
10001706:	6921      	ldr	r1, [r4, #16]
10001708:	2300      	movs	r3, #0
1000170a:	e8c1 3f8f 	stlb	r3, [r1]
1000170e:	f382 8810 	msr	PRIMASK, r2
10001712:	68e3      	ldr	r3, [r4, #12]
10001714:	7821      	ldrb	r1, [r4, #0]
10001716:	2201      	movs	r2, #1
10001718:	408a      	lsls	r2, r1
1000171a:	f503 5301 	add.w	r3, r3, #8256	@ 0x2040
1000171e:	605a      	str	r2, [r3, #4]
10001720:	bdf8      	pop	{r3, r4, r5, r6, r7, pc}
10001722:	f04f 30ff 	mov.w	r0, #4294967295
10001726:	e7fb      	b.n	10001720 <alarm_pool_add_alarm_at_force_in_context+0xb8>

10001728 <alarm_pool_add_alarm_at>:
10001728:	b570      	push	{r4, r5, r6, lr}
1000172a:	b082      	sub	sp, #8
1000172c:	4606      	mov	r6, r0
1000172e:	4615      	mov	r5, r2
10001730:	461c      	mov	r4, r3
10001732:	f89d 3020 	ldrb.w	r3, [sp, #32]
10001736:	b933      	cbnz	r3, 10001746 <alarm_pool_add_alarm_at+0x1e>
10001738:	f000 f940 	bl	100019bc <time_us_64>
1000173c:	4285      	cmp	r5, r0
1000173e:	eb64 0101 	sbc.w	r1, r4, r1
10001742:	2900      	cmp	r1, #0
10001744:	db0a      	blt.n	1000175c <alarm_pool_add_alarm_at+0x34>
10001746:	9b07      	ldr	r3, [sp, #28]
10001748:	9301      	str	r3, [sp, #4]
1000174a:	9b06      	ldr	r3, [sp, #24]
1000174c:	9300      	str	r3, [sp, #0]
1000174e:	462a      	mov	r2, r5
10001750:	4623      	mov	r3, r4
10001752:	4630      	mov	r0, r6
10001754:	f7ff ff88 	bl	10001668 <alarm_pool_add_alarm_at_force_in_context>
10001758:	b002      	add	sp, #8
1000175a:	bd70      	pop	{r4, r5, r6, pc}
1000175c:	2000      	movs	r0, #0
1000175e:	e7fb      	b.n	10001758 <alarm_pool_add_alarm_at+0x30>

10001760 <add_alarm_at>:
10001760:	b5f0      	push	{r4, r5, r6, r7, lr}
10001762:	b085      	sub	sp, #20
10001764:	4605      	mov	r5, r0
10001766:	460c      	mov	r4, r1
10001768:	4616      	mov	r6, r2
1000176a:	461f      	mov	r7, r3
1000176c:	f7ff ff68 	bl	10001640 <alarm_pool_get_default>
10001770:	f89d 3028 	ldrb.w	r3, [sp, #40]	@ 0x28
10001774:	9302      	str	r3, [sp, #8]
10001776:	9701      	str	r7, [sp, #4]
10001778:	9600      	str	r6, [sp, #0]
1000177a:	462a      	mov	r2, r5
1000177c:	4623      	mov	r3, r4
1000177e:	f7ff ffd3 	bl	10001728 <alarm_pool_add_alarm_at>
10001782:	b005      	add	sp, #20
10001784:	bdf0      	pop	{r4, r5, r6, r7, pc}

10001786 <alarm_pool_cancel_alarm>:
10001786:	4603      	mov	r3, r0
10001788:	8940      	ldrh	r0, [r0, #10]
1000178a:	ebb0 4f21 	cmp.w	r0, r1, asr #16
1000178e:	dd31      	ble.n	100017f4 <alarm_pool_cancel_alarm+0x6e>
10001790:	b510      	push	{r4, lr}
10001792:	140a      	asrs	r2, r1, #16
10001794:	6958      	ldr	r0, [r3, #20]
10001796:	eb02 0242 	add.w	r2, r2, r2, lsl #1
1000179a:	eb00 00c2 	add.w	r0, r0, r2, lsl #3
1000179e:	691a      	ldr	r2, [r3, #16]
100017a0:	f3ef 8c10 	mrs	ip, PRIMASK
100017a4:	b672      	cpsid	i
100017a6:	e8d2 4fcf 	ldaexb	r4, [r2]
100017aa:	f05f 0e01 	movs.w	lr, #1
100017ae:	2c00      	cmp	r4, #0
100017b0:	d1f9      	bne.n	100017a6 <alarm_pool_cancel_alarm+0x20>
100017b2:	e8c2 ef44 	strexb	r4, lr, [r2]
100017b6:	2c00      	cmp	r4, #0
100017b8:	d1f5      	bne.n	100017a6 <alarm_pool_cancel_alarm+0x20>
100017ba:	f3bf 8f5f 	dmb	sy
100017be:	8842      	ldrh	r2, [r0, #2]
100017c0:	b292      	uxth	r2, r2
100017c2:	b289      	uxth	r1, r1
100017c4:	428a      	cmp	r2, r1
100017c6:	d00f      	beq.n	100017e8 <alarm_pool_cancel_alarm+0x62>
100017c8:	2000      	movs	r0, #0
100017ca:	6919      	ldr	r1, [r3, #16]
100017cc:	2200      	movs	r2, #0
100017ce:	e8c1 2f8f 	stlb	r2, [r1]
100017d2:	f38c 8810 	msr	PRIMASK, ip
100017d6:	b130      	cbz	r0, 100017e6 <alarm_pool_cancel_alarm+0x60>
100017d8:	68da      	ldr	r2, [r3, #12]
100017da:	781b      	ldrb	r3, [r3, #0]
100017dc:	2101      	movs	r1, #1
100017de:	4099      	lsls	r1, r3
100017e0:	f502 5301 	add.w	r3, r2, #8256	@ 0x2040
100017e4:	6059      	str	r1, [r3, #4]
100017e6:	bd10      	pop	{r4, pc}
100017e8:	f442 4200 	orr.w	r2, r2, #32768	@ 0x8000
100017ec:	8042      	strh	r2, [r0, #2]
100017ee:	2001      	movs	r0, #1
100017f0:	7198      	strb	r0, [r3, #6]
100017f2:	e7ea      	b.n	100017ca <alarm_pool_cancel_alarm+0x44>
100017f4:	2000      	movs	r0, #0
100017f6:	4770      	bx	lr

100017f8 <cancel_alarm>:
100017f8:	b510      	push	{r4, lr}
100017fa:	4604      	mov	r4, r0
100017fc:	f7ff ff20 	bl	10001640 <alarm_pool_get_default>
10001800:	4621      	mov	r1, r4
10001802:	f7ff ffc0 	bl	10001786 <alarm_pool_cancel_alarm>
10001806:	bd10      	pop	{r4, pc}

10001808 <best_effort_wfe_or_timeout>:
10001808:	b530      	push	{r4, r5, lr}
1000180a:	b083      	sub	sp, #12
1000180c:	4605      	mov	r5, r0
1000180e:	460c      	mov	r4, r1
10001810:	f3ef 8305 	mrs	r3, IPSR
10001814:	b2db      	uxtb	r3, r3
10001816:	b193      	cbz	r3, 1000183e <best_effort_wfe_or_timeout+0x36>
10001818:	4b39      	ldr	r3, [pc, #228]	@ (10001900 <best_effort_wfe_or_timeout+0xf8>)
1000181a:	6a5b      	ldr	r3, [r3, #36]	@ 0x24
1000181c:	428b      	cmp	r3, r1
1000181e:	d309      	bcc.n	10001834 <best_effort_wfe_or_timeout+0x2c>
10001820:	4a37      	ldr	r2, [pc, #220]	@ (10001900 <best_effort_wfe_or_timeout+0xf8>)
10001822:	6a92      	ldr	r2, [r2, #40]	@ 0x28
10001824:	4282      	cmp	r2, r0
10001826:	d208      	bcs.n	1000183a <best_effort_wfe_or_timeout+0x32>
10001828:	428b      	cmp	r3, r1
1000182a:	d001      	beq.n	10001830 <best_effort_wfe_or_timeout+0x28>
1000182c:	2001      	movs	r0, #1
1000182e:	e002      	b.n	10001836 <best_effort_wfe_or_timeout+0x2e>
10001830:	2000      	movs	r0, #0
10001832:	e000      	b.n	10001836 <best_effort_wfe_or_timeout+0x2e>
10001834:	2000      	movs	r0, #0
10001836:	b003      	add	sp, #12
10001838:	bd30      	pop	{r4, r5, pc}
1000183a:	2001      	movs	r0, #1
1000183c:	e7fb      	b.n	10001836 <best_effort_wfe_or_timeout+0x2e>
1000183e:	f7ff feff 	bl	10001640 <alarm_pool_get_default>
10001842:	68c1      	ldr	r1, [r0, #12]
10001844:	7803      	ldrb	r3, [r0, #0]
10001846:	6a8a      	ldr	r2, [r1, #40]	@ 0x28
10001848:	1aa8      	subs	r0, r5, r2
1000184a:	3304      	adds	r3, #4
1000184c:	f851 3023 	ldr.w	r3, [r1, r3, lsl #2]
10001850:	1a9b      	subs	r3, r3, r2
10001852:	4298      	cmp	r0, r3
10001854:	d312      	bcc.n	1000187c <best_effort_wfe_or_timeout+0x74>
10001856:	bf20      	wfe
10001858:	4b29      	ldr	r3, [pc, #164]	@ (10001900 <best_effort_wfe_or_timeout+0xf8>)
1000185a:	6a5b      	ldr	r3, [r3, #36]	@ 0x24
1000185c:	429c      	cmp	r4, r3
1000185e:	d809      	bhi.n	10001874 <best_effort_wfe_or_timeout+0x6c>
10001860:	4a27      	ldr	r2, [pc, #156]	@ (10001900 <best_effort_wfe_or_timeout+0xf8>)
10001862:	6a92      	ldr	r2, [r2, #40]	@ 0x28
10001864:	4295      	cmp	r5, r2
10001866:	d907      	bls.n	10001878 <best_effort_wfe_or_timeout+0x70>
10001868:	429c      	cmp	r4, r3
1000186a:	d001      	beq.n	10001870 <best_effort_wfe_or_timeout+0x68>
1000186c:	2001      	movs	r0, #1
1000186e:	e7e2      	b.n	10001836 <best_effort_wfe_or_timeout+0x2e>
10001870:	2000      	movs	r0, #0
10001872:	e7e0      	b.n	10001836 <best_effort_wfe_or_timeout+0x2e>
10001874:	2000      	movs	r0, #0
10001876:	e7de      	b.n	10001836 <best_effort_wfe_or_timeout+0x2e>
10001878:	2001      	movs	r0, #1
1000187a:	e7dc      	b.n	10001836 <best_effort_wfe_or_timeout+0x2e>
1000187c:	2300      	movs	r3, #0
1000187e:	9300      	str	r3, [sp, #0]
10001880:	4a20      	ldr	r2, [pc, #128]	@ (10001904 <best_effort_wfe_or_timeout+0xfc>)
10001882:	4628      	mov	r0, r5
10001884:	4621      	mov	r1, r4
10001886:	f7ff ff6b 	bl	10001760 <add_alarm_at>
1000188a:	2800      	cmp	r0, #0
1000188c:	dd0b      	ble.n	100018a6 <best_effort_wfe_or_timeout+0x9e>
1000188e:	4b1c      	ldr	r3, [pc, #112]	@ (10001900 <best_effort_wfe_or_timeout+0xf8>)
10001890:	6a5b      	ldr	r3, [r3, #36]	@ 0x24
10001892:	429c      	cmp	r4, r3
10001894:	d81b      	bhi.n	100018ce <best_effort_wfe_or_timeout+0xc6>
10001896:	4a1a      	ldr	r2, [pc, #104]	@ (10001900 <best_effort_wfe_or_timeout+0xf8>)
10001898:	6a92      	ldr	r2, [r2, #40]	@ 0x28
1000189a:	4295      	cmp	r5, r2
1000189c:	d928      	bls.n	100018f0 <best_effort_wfe_or_timeout+0xe8>
1000189e:	429c      	cmp	r4, r3
100018a0:	d013      	beq.n	100018ca <best_effort_wfe_or_timeout+0xc2>
100018a2:	2301      	movs	r3, #1
100018a4:	e014      	b.n	100018d0 <best_effort_wfe_or_timeout+0xc8>
100018a6:	4b16      	ldr	r3, [pc, #88]	@ (10001900 <best_effort_wfe_or_timeout+0xf8>)
100018a8:	6a5b      	ldr	r3, [r3, #36]	@ 0x24
100018aa:	429c      	cmp	r4, r3
100018ac:	d809      	bhi.n	100018c2 <best_effort_wfe_or_timeout+0xba>
100018ae:	4a14      	ldr	r2, [pc, #80]	@ (10001900 <best_effort_wfe_or_timeout+0xf8>)
100018b0:	6a92      	ldr	r2, [r2, #40]	@ 0x28
100018b2:	4295      	cmp	r5, r2
100018b4:	d907      	bls.n	100018c6 <best_effort_wfe_or_timeout+0xbe>
100018b6:	429c      	cmp	r4, r3
100018b8:	d001      	beq.n	100018be <best_effort_wfe_or_timeout+0xb6>
100018ba:	2001      	movs	r0, #1
100018bc:	e7bb      	b.n	10001836 <best_effort_wfe_or_timeout+0x2e>
100018be:	2000      	movs	r0, #0
100018c0:	e7b9      	b.n	10001836 <best_effort_wfe_or_timeout+0x2e>
100018c2:	2000      	movs	r0, #0
100018c4:	e7b7      	b.n	10001836 <best_effort_wfe_or_timeout+0x2e>
100018c6:	2001      	movs	r0, #1
100018c8:	e7b5      	b.n	10001836 <best_effort_wfe_or_timeout+0x2e>
100018ca:	2300      	movs	r3, #0
100018cc:	e000      	b.n	100018d0 <best_effort_wfe_or_timeout+0xc8>
100018ce:	2300      	movs	r3, #0
100018d0:	b903      	cbnz	r3, 100018d4 <best_effort_wfe_or_timeout+0xcc>
100018d2:	bf20      	wfe
100018d4:	f7ff ff90 	bl	100017f8 <cancel_alarm>
100018d8:	4b09      	ldr	r3, [pc, #36]	@ (10001900 <best_effort_wfe_or_timeout+0xf8>)
100018da:	6a5b      	ldr	r3, [r3, #36]	@ 0x24
100018dc:	429c      	cmp	r4, r3
100018de:	d80b      	bhi.n	100018f8 <best_effort_wfe_or_timeout+0xf0>
100018e0:	4a07      	ldr	r2, [pc, #28]	@ (10001900 <best_effort_wfe_or_timeout+0xf8>)
100018e2:	6a92      	ldr	r2, [r2, #40]	@ 0x28
100018e4:	4295      	cmp	r5, r2
100018e6:	d909      	bls.n	100018fc <best_effort_wfe_or_timeout+0xf4>
100018e8:	429c      	cmp	r4, r3
100018ea:	d003      	beq.n	100018f4 <best_effort_wfe_or_timeout+0xec>
100018ec:	2001      	movs	r0, #1
100018ee:	e7a2      	b.n	10001836 <best_effort_wfe_or_timeout+0x2e>
100018f0:	2301      	movs	r3, #1
100018f2:	e7ed      	b.n	100018d0 <best_effort_wfe_or_timeout+0xc8>
100018f4:	2000      	movs	r0, #0
100018f6:	e79e      	b.n	10001836 <best_effort_wfe_or_timeout+0x2e>
100018f8:	2000      	movs	r0, #0
100018fa:	e79c      	b.n	10001836 <best_effort_wfe_or_timeout+0x2e>
100018fc:	2001      	movs	r0, #1
100018fe:	e79a      	b.n	10001836 <best_effort_wfe_or_timeout+0x2e>
10001900:	400b0000 	.word	0x400b0000
10001904:	10001271 	.word	0x10001271

10001908 <alarm_pool_get_default_timer>:
10001908:	4800      	ldr	r0, [pc, #0]	@ (1000190c <alarm_pool_get_default_timer+0x4>)
1000190a:	4770      	bx	lr
1000190c:	400b0000 	.word	0x400b0000

10001910 <runtime_init_default_alarm_pool>:
10001910:	b510      	push	{r4, lr}
10001912:	4b0a      	ldr	r3, [pc, #40]	@ (1000193c <runtime_init_default_alarm_pool+0x2c>)
10001914:	691b      	ldr	r3, [r3, #16]
10001916:	b123      	cbz	r3, 10001922 <runtime_init_default_alarm_pool+0x12>
10001918:	210a      	movs	r1, #10
1000191a:	4809      	ldr	r0, [pc, #36]	@ (10001940 <runtime_init_default_alarm_pool+0x30>)
1000191c:	f7ff fc38 	bl	10001190 <lock_init>
10001920:	bd10      	pop	{r4, pc}
10001922:	f7ff fff1 	bl	10001908 <alarm_pool_get_default_timer>
10001926:	4604      	mov	r4, r0
10001928:	2103      	movs	r1, #3
1000192a:	f000 f80b 	bl	10001944 <timer_hardware_alarm_claim>
1000192e:	2310      	movs	r3, #16
10001930:	2203      	movs	r2, #3
10001932:	4621      	mov	r1, r4
10001934:	4801      	ldr	r0, [pc, #4]	@ (1000193c <runtime_init_default_alarm_pool+0x2c>)
10001936:	f7ff fe45 	bl	100015c4 <alarm_pool_post_alloc_init>
1000193a:	e7ed      	b.n	10001918 <runtime_init_default_alarm_pool+0x8>
1000193c:	20000e5c 	.word	0x20000e5c
10001940:	20001fd8 	.word	0x20001fd8

10001944 <timer_hardware_alarm_claim>:
10001944:	b510      	push	{r4, lr}
10001946:	4a05      	ldr	r2, [pc, #20]	@ (1000195c <timer_hardware_alarm_claim+0x18>)
10001948:	4c05      	ldr	r4, [pc, #20]	@ (10001960 <timer_hardware_alarm_claim+0x1c>)
1000194a:	4b06      	ldr	r3, [pc, #24]	@ (10001964 <timer_hardware_alarm_claim+0x20>)
1000194c:	42a0      	cmp	r0, r4
1000194e:	bf14      	ite	ne
10001950:	4618      	movne	r0, r3
10001952:	1c58      	addeq	r0, r3, #1
10001954:	f7ff f872 	bl	10000a3c <hw_claim_or_assert>
10001958:	bd10      	pop	{r4, pc}
1000195a:	bf00      	nop
1000195c:	10006c00 	.word	0x10006c00
10001960:	400b8000 	.word	0x400b8000
10001964:	20001730 	.word	0x20001730

10001968 <timer_time_us_64>:
10001968:	4602      	mov	r2, r0
1000196a:	6a43      	ldr	r3, [r0, #36]	@ 0x24
1000196c:	6a90      	ldr	r0, [r2, #40]	@ 0x28
1000196e:	4619      	mov	r1, r3
10001970:	6a53      	ldr	r3, [r2, #36]	@ 0x24
10001972:	4299      	cmp	r1, r3
10001974:	d1fa      	bne.n	1000196c <timer_time_us_64+0x4>
10001976:	4770      	bx	lr

10001978 <timer_busy_wait_until>:
10001978:	6a41      	ldr	r1, [r0, #36]	@ 0x24
1000197a:	e000      	b.n	1000197e <timer_busy_wait_until+0x6>
1000197c:	6a41      	ldr	r1, [r0, #36]	@ 0x24
1000197e:	4299      	cmp	r1, r3
10001980:	d3fc      	bcc.n	1000197c <timer_busy_wait_until+0x4>
10001982:	e000      	b.n	10001986 <timer_busy_wait_until+0xe>
10001984:	6a41      	ldr	r1, [r0, #36]	@ 0x24
10001986:	4299      	cmp	r1, r3
10001988:	d102      	bne.n	10001990 <timer_busy_wait_until+0x18>
1000198a:	6a81      	ldr	r1, [r0, #40]	@ 0x28
1000198c:	4291      	cmp	r1, r2
1000198e:	d3f9      	bcc.n	10001984 <timer_busy_wait_until+0xc>
10001990:	4770      	bx	lr

10001992 <timer_busy_wait_us>:
10001992:	b570      	push	{r4, r5, r6, lr}
10001994:	4606      	mov	r6, r0
10001996:	4614      	mov	r4, r2
10001998:	461d      	mov	r5, r3
1000199a:	f7ff ffe5 	bl	10001968 <timer_time_us_64>
1000199e:	1902      	adds	r2, r0, r4
100019a0:	eb41 0305 	adc.w	r3, r1, r5
100019a4:	4282      	cmp	r2, r0
100019a6:	eb73 0101 	sbcs.w	r1, r3, r1
100019aa:	d202      	bcs.n	100019b2 <timer_busy_wait_us+0x20>
100019ac:	f04f 32ff 	mov.w	r2, #4294967295
100019b0:	4613      	mov	r3, r2
100019b2:	4630      	mov	r0, r6
100019b4:	f7ff ffe0 	bl	10001978 <timer_busy_wait_until>
100019b8:	bd70      	pop	{r4, r5, r6, pc}
	...

100019bc <time_us_64>:
100019bc:	b508      	push	{r3, lr}
100019be:	4802      	ldr	r0, [pc, #8]	@ (100019c8 <time_us_64+0xc>)
100019c0:	f7ff ffd2 	bl	10001968 <timer_time_us_64>
100019c4:	bd08      	pop	{r3, pc}
100019c6:	bf00      	nop
100019c8:	400b0000 	.word	0x400b0000

100019cc <busy_wait_us>:
100019cc:	b508      	push	{r3, lr}
100019ce:	4602      	mov	r2, r0
100019d0:	460b      	mov	r3, r1
100019d2:	4802      	ldr	r0, [pc, #8]	@ (100019dc <busy_wait_us+0x10>)
100019d4:	f7ff ffdd 	bl	10001992 <timer_busy_wait_us>
100019d8:	bd08      	pop	{r3, pc}
100019da:	bf00      	nop
100019dc:	400b0000 	.word	0x400b0000

100019e0 <uart_unreset>:
100019e0:	4b07      	ldr	r3, [pc, #28]	@ (10001a00 <uart_unreset+0x20>)
100019e2:	4298      	cmp	r0, r3
100019e4:	d00a      	beq.n	100019fc <uart_unreset+0x1c>
100019e6:	231a      	movs	r3, #26
100019e8:	2201      	movs	r2, #1
100019ea:	409a      	lsls	r2, r3
100019ec:	4b05      	ldr	r3, [pc, #20]	@ (10001a04 <uart_unreset+0x24>)
100019ee:	601a      	str	r2, [r3, #0]
100019f0:	4b05      	ldr	r3, [pc, #20]	@ (10001a08 <uart_unreset+0x28>)
100019f2:	689b      	ldr	r3, [r3, #8]
100019f4:	ea32 0303 	bics.w	r3, r2, r3
100019f8:	d1fa      	bne.n	100019f0 <uart_unreset+0x10>
100019fa:	4770      	bx	lr
100019fc:	231b      	movs	r3, #27
100019fe:	e7f3      	b.n	100019e8 <uart_unreset+0x8>
10001a00:	40078000 	.word	0x40078000
10001a04:	40023000 	.word	0x40023000
10001a08:	40020000 	.word	0x40020000

10001a0c <uart_disable_before_lcr_write>:
10001a0c:	b538      	push	{r3, r4, r5, lr}
10001a0e:	6b04      	ldr	r4, [r0, #48]	@ 0x30
10001a10:	f014 0f01 	tst.w	r4, #1
10001a14:	d101      	bne.n	10001a1a <uart_disable_before_lcr_write+0xe>
10001a16:	4620      	mov	r0, r4
10001a18:	bd38      	pop	{r3, r4, r5, pc}
10001a1a:	f500 5340 	add.w	r3, r0, #12288	@ 0x3000
10001a1e:	f240 3201 	movw	r2, #769	@ 0x301
10001a22:	631a      	str	r2, [r3, #48]	@ 0x30
10001a24:	6a43      	ldr	r3, [r0, #36]	@ 0x24
10001a26:	6a85      	ldr	r5, [r0, #40]	@ 0x28
10001a28:	eb05 1583 	add.w	r5, r5, r3, lsl #6
10001a2c:	02ad      	lsls	r5, r5, #10
10001a2e:	2006      	movs	r0, #6
10001a30:	f000 f8ea 	bl	10001c08 <clock_get_hz>
10001a34:	4b04      	ldr	r3, [pc, #16]	@ (10001a48 <uart_disable_before_lcr_write+0x3c>)
10001a36:	fba3 3000 	umull	r3, r0, r3, r0
10001a3a:	0ac0      	lsrs	r0, r0, #11
10001a3c:	fbb5 f0f0 	udiv	r0, r5, r0
10001a40:	2100      	movs	r1, #0
10001a42:	f7ff ffc3 	bl	100019cc <busy_wait_us>
10001a46:	e7e6      	b.n	10001a16 <uart_disable_before_lcr_write+0xa>
10001a48:	8f2b7b75 	.word	0x8f2b7b75

10001a4c <uart_write_lcr_bits_masked>:
10001a4c:	b570      	push	{r4, r5, r6, lr}
10001a4e:	4605      	mov	r5, r0
10001a50:	460c      	mov	r4, r1
10001a52:	4616      	mov	r6, r2
10001a54:	f7ff ffda 	bl	10001a0c <uart_disable_before_lcr_write>
10001a58:	6aeb      	ldr	r3, [r5, #44]	@ 0x2c
10001a5a:	405c      	eors	r4, r3
10001a5c:	4034      	ands	r4, r6
10001a5e:	f505 5381 	add.w	r3, r5, #4128	@ 0x1020
10001a62:	60dc      	str	r4, [r3, #12]
10001a64:	6328      	str	r0, [r5, #48]	@ 0x30
10001a66:	bd70      	pop	{r4, r5, r6, pc}

10001a68 <uart_set_baudrate>:
10001a68:	b570      	push	{r4, r5, r6, lr}
10001a6a:	4605      	mov	r5, r0
10001a6c:	460c      	mov	r4, r1
10001a6e:	2006      	movs	r0, #6
10001a70:	f000 f8ca 	bl	10001c08 <clock_get_hz>
10001a74:	00c3      	lsls	r3, r0, #3
10001a76:	fbb3 f3f4 	udiv	r3, r3, r4
10001a7a:	3301      	adds	r3, #1
10001a7c:	09dc      	lsrs	r4, r3, #7
10001a7e:	d007      	beq.n	10001a90 <uart_set_baudrate+0x28>
10001a80:	f64f 72fe 	movw	r2, #65534	@ 0xfffe
10001a84:	4294      	cmp	r4, r2
10001a86:	d814      	bhi.n	10001ab2 <uart_set_baudrate+0x4a>
10001a88:	4626      	mov	r6, r4
10001a8a:	f3c3 0445 	ubfx	r4, r3, #1, #6
10001a8e:	e000      	b.n	10001a92 <uart_set_baudrate+0x2a>
10001a90:	2601      	movs	r6, #1
10001a92:	626e      	str	r6, [r5, #36]	@ 0x24
10001a94:	62ac      	str	r4, [r5, #40]	@ 0x28
10001a96:	2200      	movs	r2, #0
10001a98:	4611      	mov	r1, r2
10001a9a:	4628      	mov	r0, r5
10001a9c:	f7ff ffd6 	bl	10001a4c <uart_write_lcr_bits_masked>
10001aa0:	2006      	movs	r0, #6
10001aa2:	f000 f8b1 	bl	10001c08 <clock_get_hz>
10001aa6:	0080      	lsls	r0, r0, #2
10001aa8:	eb04 1486 	add.w	r4, r4, r6, lsl #6
10001aac:	fbb0 f0f4 	udiv	r0, r0, r4
10001ab0:	bd70      	pop	{r4, r5, r6, pc}
10001ab2:	2400      	movs	r4, #0
10001ab4:	f64f 76ff 	movw	r6, #65535	@ 0xffff
10001ab8:	e7eb      	b.n	10001a92 <uart_set_baudrate+0x2a>
	...

10001abc <uart_set_translate_crlf>:
10001abc:	b149      	cbz	r1, 10001ad2 <uart_set_translate_crlf+0x16>
10001abe:	220a      	movs	r2, #10
10001ac0:	4b05      	ldr	r3, [pc, #20]	@ (10001ad8 <uart_set_translate_crlf+0x1c>)
10001ac2:	4298      	cmp	r0, r3
10001ac4:	bf14      	ite	ne
10001ac6:	2000      	movne	r0, #0
10001ac8:	2001      	moveq	r0, #1
10001aca:	4b04      	ldr	r3, [pc, #16]	@ (10001adc <uart_set_translate_crlf+0x20>)
10001acc:	f823 2010 	strh.w	r2, [r3, r0, lsl #1]
10001ad0:	4770      	bx	lr
10001ad2:	f44f 7280 	mov.w	r2, #256	@ 0x100
10001ad6:	e7f3      	b.n	10001ac0 <uart_set_translate_crlf+0x4>
10001ad8:	40078000 	.word	0x40078000
10001adc:	200022f8 	.word	0x200022f8

10001ae0 <uart_init>:
10001ae0:	b538      	push	{r3, r4, r5, lr}
10001ae2:	4604      	mov	r4, r0
10001ae4:	460d      	mov	r5, r1
10001ae6:	2006      	movs	r0, #6
10001ae8:	f000 f88e 	bl	10001c08 <clock_get_hz>
10001aec:	b1f8      	cbz	r0, 10001b2e <uart_init+0x4e>
10001aee:	4b11      	ldr	r3, [pc, #68]	@ (10001b34 <uart_init+0x54>)
10001af0:	429c      	cmp	r4, r3
10001af2:	d01d      	beq.n	10001b30 <uart_init+0x50>
10001af4:	221a      	movs	r2, #26
10001af6:	2301      	movs	r3, #1
10001af8:	4093      	lsls	r3, r2
10001afa:	4a0f      	ldr	r2, [pc, #60]	@ (10001b38 <uart_init+0x58>)
10001afc:	6013      	str	r3, [r2, #0]
10001afe:	4620      	mov	r0, r4
10001b00:	f7ff ff6e 	bl	100019e0 <uart_unreset>
10001b04:	2100      	movs	r1, #0
10001b06:	4620      	mov	r0, r4
10001b08:	f7ff ffd8 	bl	10001abc <uart_set_translate_crlf>
10001b0c:	4629      	mov	r1, r5
10001b0e:	4620      	mov	r0, r4
10001b10:	f7ff ffaa 	bl	10001a68 <uart_set_baudrate>
10001b14:	6ae3      	ldr	r3, [r4, #44]	@ 0x2c
10001b16:	f083 0370 	eor.w	r3, r3, #112	@ 0x70
10001b1a:	f003 037e 	and.w	r3, r3, #126	@ 0x7e
10001b1e:	f504 5281 	add.w	r2, r4, #4128	@ 0x1020
10001b22:	60d3      	str	r3, [r2, #12]
10001b24:	f240 3301 	movw	r3, #769	@ 0x301
10001b28:	6323      	str	r3, [r4, #48]	@ 0x30
10001b2a:	2303      	movs	r3, #3
10001b2c:	64a3      	str	r3, [r4, #72]	@ 0x48
10001b2e:	bd38      	pop	{r3, r4, r5, pc}
10001b30:	221b      	movs	r2, #27
10001b32:	e7e0      	b.n	10001af6 <uart_init+0x16>
10001b34:	40078000 	.word	0x40078000
10001b38:	40022000 	.word	0x40022000

10001b3c <clock_configure_internal>:
10001b3c:	b570      	push	{r4, r5, r6, lr}
10001b3e:	4616      	mov	r6, r2
10001b40:	9d04      	ldr	r5, [sp, #16]
10001b42:	eb00 0c40 	add.w	ip, r0, r0, lsl #1
10001b46:	ea4f 0c8c 	mov.w	ip, ip, lsl #2
10001b4a:	f10c 4c80 	add.w	ip, ip, #1073741824	@ 0x40000000
10001b4e:	f50c 3c80 	add.w	ip, ip, #65536	@ 0x10000
10001b52:	f8dc 2004 	ldr.w	r2, [ip, #4]
10001b56:	42aa      	cmp	r2, r5
10001b58:	d201      	bcs.n	10001b5e <clock_configure_internal+0x22>
10001b5a:	f8cc 5004 	str.w	r5, [ip, #4]
10001b5e:	f1a0 0e04 	sub.w	lr, r0, #4
10001b62:	fa5f fe8e 	uxtb.w	lr, lr
10001b66:	f1be 0f01 	cmp.w	lr, #1
10001b6a:	d928      	bls.n	10001bbe <clock_configure_internal+0x82>
10001b6c:	f50c 5240 	add.w	r2, ip, #12288	@ 0x3000
10001b70:	f44f 6400 	mov.w	r4, #2048	@ 0x800
10001b74:	6014      	str	r4, [r2, #0]
10001b76:	4a1e      	ldr	r2, [pc, #120]	@ (10001bf0 <clock_configure_internal+0xb4>)
10001b78:	f852 2020 	ldr.w	r2, [r2, r0, lsl #2]
10001b7c:	b142      	cbz	r2, 10001b90 <clock_configure_internal+0x54>
10001b7e:	4c1c      	ldr	r4, [pc, #112]	@ (10001bf0 <clock_configure_internal+0xb4>)
10001b80:	6964      	ldr	r4, [r4, #20]
10001b82:	fbb4 f4f2 	udiv	r4, r4, r2
10001b86:	3401      	adds	r4, #1
10001b88:	eb04 0444 	add.w	r4, r4, r4, lsl #1
10001b8c:	3c03      	subs	r4, #3
10001b8e:	d2fd      	bcs.n	10001b8c <clock_configure_internal+0x50>
10001b90:	f8dc 2000 	ldr.w	r2, [ip]
10001b94:	ea82 1246 	eor.w	r2, r2, r6, lsl #5
10001b98:	f002 02e0 	and.w	r2, r2, #224	@ 0xe0
10001b9c:	f50c 5480 	add.w	r4, ip, #4096	@ 0x1000
10001ba0:	6022      	str	r2, [r4, #0]
10001ba2:	f1be 0f01 	cmp.w	lr, #1
10001ba6:	d916      	bls.n	10001bd6 <clock_configure_internal+0x9a>
10001ba8:	f50c 5200 	add.w	r2, ip, #8192	@ 0x2000
10001bac:	f44f 6100 	mov.w	r1, #2048	@ 0x800
10001bb0:	6011      	str	r1, [r2, #0]
10001bb2:	f8cc 5004 	str.w	r5, [ip, #4]
10001bb6:	4a0e      	ldr	r2, [pc, #56]	@ (10001bf0 <clock_configure_internal+0xb4>)
10001bb8:	f842 3020 	str.w	r3, [r2, r0, lsl #2]
10001bbc:	bd70      	pop	{r4, r5, r6, pc}
10001bbe:	2901      	cmp	r1, #1
10001bc0:	d1d4      	bne.n	10001b6c <clock_configure_internal+0x30>
10001bc2:	f50c 5240 	add.w	r2, ip, #12288	@ 0x3000
10001bc6:	2403      	movs	r4, #3
10001bc8:	6014      	str	r4, [r2, #0]
10001bca:	f8dc 2008 	ldr.w	r2, [ip, #8]
10001bce:	f012 0f01 	tst.w	r2, #1
10001bd2:	d0fa      	beq.n	10001bca <clock_configure_internal+0x8e>
10001bd4:	e7dc      	b.n	10001b90 <clock_configure_internal+0x54>
10001bd6:	f8dc 2000 	ldr.w	r2, [ip]
10001bda:	404a      	eors	r2, r1
10001bdc:	f002 0203 	and.w	r2, r2, #3
10001be0:	6022      	str	r2, [r4, #0]
10001be2:	f8dc 4008 	ldr.w	r4, [ip, #8]
10001be6:	2201      	movs	r2, #1
10001be8:	408a      	lsls	r2, r1
10001bea:	4214      	tst	r4, r2
10001bec:	d0f9      	beq.n	10001be2 <clock_configure_internal+0xa6>
10001bee:	e7db      	b.n	10001ba8 <clock_configure_internal+0x6c>
10001bf0:	20001734 	.word	0x20001734

10001bf4 <clock_configure_undivided>:
10001bf4:	b510      	push	{r4, lr}
10001bf6:	b082      	sub	sp, #8
10001bf8:	f44f 3480 	mov.w	r4, #65536	@ 0x10000
10001bfc:	9400      	str	r4, [sp, #0]
10001bfe:	f7ff ff9d 	bl	10001b3c <clock_configure_internal>
10001c02:	b002      	add	sp, #8
10001c04:	bd10      	pop	{r4, pc}
	...

10001c08 <clock_get_hz>:
10001c08:	4b01      	ldr	r3, [pc, #4]	@ (10001c10 <clock_get_hz+0x8>)
10001c0a:	f853 0020 	ldr.w	r0, [r3, r0, lsl #2]
10001c0e:	4770      	bx	lr
10001c10:	20001734 	.word	0x20001734

10001c14 <pll_init>:
10001c14:	b570      	push	{r4, r5, r6, lr}
10001c16:	9c04      	ldr	r4, [sp, #16]
10001c18:	4d34      	ldr	r5, [pc, #208]	@ (10001cec <pll_init+0xd8>)
10001c1a:	fbb5 fcf1 	udiv	ip, r5, r1
10001c1e:	4d34      	ldr	r5, [pc, #208]	@ (10001cf0 <pll_init+0xdc>)
10001c20:	4415      	add	r5, r2
10001c22:	4e34      	ldr	r6, [pc, #208]	@ (10001cf4 <pll_init+0xe0>)
10001c24:	42b5      	cmp	r5, r6
10001c26:	d837      	bhi.n	10001c98 <pll_init+0x84>
10001c28:	fbb2 f5fc 	udiv	r5, r2, ip
10001c2c:	f1a5 0e10 	sub.w	lr, r5, #16
10001c30:	f5be 7f98 	cmp.w	lr, #304	@ 0x130
10001c34:	d836      	bhi.n	10001ca4 <pll_init+0x90>
10001c36:	f103 3eff 	add.w	lr, r3, #4294967295
10001c3a:	f1be 0f06 	cmp.w	lr, #6
10001c3e:	d837      	bhi.n	10001cb0 <pll_init+0x9c>
10001c40:	f104 3eff 	add.w	lr, r4, #4294967295
10001c44:	f1be 0f06 	cmp.w	lr, #6
10001c48:	d832      	bhi.n	10001cb0 <pll_init+0x9c>
10001c4a:	ebbc 1f12 	cmp.w	ip, r2, lsr #4
10001c4e:	d835      	bhi.n	10001cbc <pll_init+0xa8>
10001c50:	0324      	lsls	r4, r4, #12
10001c52:	ea44 4403 	orr.w	r4, r4, r3, lsl #16
10001c56:	6803      	ldr	r3, [r0, #0]
10001c58:	2b00      	cmp	r3, #0
10001c5a:	db35      	blt.n	10001cc8 <pll_init+0xb4>
10001c5c:	4b26      	ldr	r3, [pc, #152]	@ (10001cf8 <pll_init+0xe4>)
10001c5e:	4298      	cmp	r0, r3
10001c60:	d042      	beq.n	10001ce8 <pll_init+0xd4>
10001c62:	230e      	movs	r3, #14
10001c64:	2201      	movs	r2, #1
10001c66:	409a      	lsls	r2, r3
10001c68:	4b24      	ldr	r3, [pc, #144]	@ (10001cfc <pll_init+0xe8>)
10001c6a:	601a      	str	r2, [r3, #0]
10001c6c:	f503 5380 	add.w	r3, r3, #4096	@ 0x1000
10001c70:	601a      	str	r2, [r3, #0]
10001c72:	4b23      	ldr	r3, [pc, #140]	@ (10001d00 <pll_init+0xec>)
10001c74:	689b      	ldr	r3, [r3, #8]
10001c76:	ea32 0303 	bics.w	r3, r2, r3
10001c7a:	d1fa      	bne.n	10001c72 <pll_init+0x5e>
10001c7c:	6001      	str	r1, [r0, #0]
10001c7e:	6085      	str	r5, [r0, #8]
10001c80:	f500 5240 	add.w	r2, r0, #12288	@ 0x3000
10001c84:	3204      	adds	r2, #4
10001c86:	2321      	movs	r3, #33	@ 0x21
10001c88:	6013      	str	r3, [r2, #0]
10001c8a:	6803      	ldr	r3, [r0, #0]
10001c8c:	2b00      	cmp	r3, #0
10001c8e:	dafc      	bge.n	10001c8a <pll_init+0x76>
10001c90:	60c4      	str	r4, [r0, #12]
10001c92:	2308      	movs	r3, #8
10001c94:	6013      	str	r3, [r2, #0]
10001c96:	bd70      	pop	{r4, r5, r6, pc}
10001c98:	4b1a      	ldr	r3, [pc, #104]	@ (10001d04 <pll_init+0xf0>)
10001c9a:	4a1b      	ldr	r2, [pc, #108]	@ (10001d08 <pll_init+0xf4>)
10001c9c:	2111      	movs	r1, #17
10001c9e:	481b      	ldr	r0, [pc, #108]	@ (10001d0c <pll_init+0xf8>)
10001ca0:	f001 fbe2 	bl	10003468 <__assert_func>
10001ca4:	4b1a      	ldr	r3, [pc, #104]	@ (10001d10 <pll_init+0xfc>)
10001ca6:	4a18      	ldr	r2, [pc, #96]	@ (10001d08 <pll_init+0xf4>)
10001ca8:	2119      	movs	r1, #25
10001caa:	4818      	ldr	r0, [pc, #96]	@ (10001d0c <pll_init+0xf8>)
10001cac:	f001 fbdc 	bl	10003468 <__assert_func>
10001cb0:	4b18      	ldr	r3, [pc, #96]	@ (10001d14 <pll_init+0x100>)
10001cb2:	4a15      	ldr	r2, [pc, #84]	@ (10001d08 <pll_init+0xf4>)
10001cb4:	211c      	movs	r1, #28
10001cb6:	4815      	ldr	r0, [pc, #84]	@ (10001d0c <pll_init+0xf8>)
10001cb8:	f001 fbd6 	bl	10003468 <__assert_func>
10001cbc:	4b16      	ldr	r3, [pc, #88]	@ (10001d18 <pll_init+0x104>)
10001cbe:	4a12      	ldr	r2, [pc, #72]	@ (10001d08 <pll_init+0xf4>)
10001cc0:	2123      	movs	r1, #35	@ 0x23
10001cc2:	4812      	ldr	r0, [pc, #72]	@ (10001d0c <pll_init+0xf8>)
10001cc4:	f001 fbd0 	bl	10003468 <__assert_func>
10001cc8:	6803      	ldr	r3, [r0, #0]
10001cca:	f003 033f 	and.w	r3, r3, #63	@ 0x3f
10001cce:	428b      	cmp	r3, r1
10001cd0:	d1c4      	bne.n	10001c5c <pll_init+0x48>
10001cd2:	6883      	ldr	r3, [r0, #8]
10001cd4:	f3c3 030b 	ubfx	r3, r3, #0, #12
10001cd8:	42ab      	cmp	r3, r5
10001cda:	d1bf      	bne.n	10001c5c <pll_init+0x48>
10001cdc:	68c3      	ldr	r3, [r0, #12]
10001cde:	f403 23ee 	and.w	r3, r3, #487424	@ 0x77000
10001ce2:	42a3      	cmp	r3, r4
10001ce4:	d1ba      	bne.n	10001c5c <pll_init+0x48>
10001ce6:	e7d6      	b.n	10001c96 <pll_init+0x82>
10001ce8:	230f      	movs	r3, #15
10001cea:	e7bb      	b.n	10001c64 <pll_init+0x50>
10001cec:	00b71b00 	.word	0x00b71b00
10001cf0:	d34be880 	.word	0xd34be880
10001cf4:	32a9f880 	.word	0x32a9f880
10001cf8:	40058000 	.word	0x40058000
10001cfc:	40022000 	.word	0x40022000
10001d00:	40020000 	.word	0x40020000
10001d04:	10006c24 	.word	0x10006c24
10001d08:	10007334 	.word	0x10007334
10001d0c:	10006c74 	.word	0x10006c74
10001d10:	10006cbc 	.word	0x10006cbc
10001d14:	10006cd8 	.word	0x10006cd8
10001d18:	10006d24 	.word	0x10006d24

10001d1c <tick_start>:
10001d1c:	4a05      	ldr	r2, [pc, #20]	@ (10001d34 <tick_start+0x18>)
10001d1e:	eb00 0340 	add.w	r3, r0, r0, lsl #1
10001d22:	eb02 0383 	add.w	r3, r2, r3, lsl #2
10001d26:	6059      	str	r1, [r3, #4]
10001d28:	eb00 0040 	add.w	r0, r0, r0, lsl #1
10001d2c:	0080      	lsls	r0, r0, #2
10001d2e:	2301      	movs	r3, #1
10001d30:	5013      	str	r3, [r2, r0]
10001d32:	4770      	bx	lr
10001d34:	40108000 	.word	0x40108000

10001d38 <rom_func_lookup>:
10001d38:	b508      	push	{r3, lr}
10001d3a:	2300      	movs	r3, #0
10001d3c:	8adb      	ldrh	r3, [r3, #22]
10001d3e:	2200      	movs	r2, #0
10001d40:	e842 f200 	tt	r2, r2
10001d44:	f412 0f80 	tst.w	r2, #4194304	@ 0x400000
10001d48:	d102      	bne.n	10001d50 <rom_func_lookup+0x18>
10001d4a:	2110      	movs	r1, #16
10001d4c:	4798      	blx	r3
10001d4e:	bd08      	pop	{r3, pc}
10001d50:	2104      	movs	r1, #4
10001d52:	4798      	blx	r3
10001d54:	e7fb      	b.n	10001d4e <rom_func_lookup+0x16>
	...

10001d58 <runtime_init_bootrom_locking_enable>:
10001d58:	4b03      	ldr	r3, [pc, #12]	@ (10001d68 <runtime_init_bootrom_locking_enable+0x10>)
10001d5a:	f8d3 3828 	ldr.w	r3, [r3, #2088]	@ 0x828
10001d5e:	2b00      	cmp	r3, #0
10001d60:	d0fa      	beq.n	10001d58 <runtime_init_bootrom_locking_enable>
10001d62:	f3bf 8f5f 	dmb	sy
10001d66:	4770      	bx	lr
10001d68:	400e0000 	.word	0x400e0000

10001d6c <boot_locks_reset>:
10001d6c:	2200      	movs	r2, #0
10001d6e:	e007      	b.n	10001d80 <boot_locks_reset+0x14>
10001d70:	4b05      	ldr	r3, [pc, #20]	@ (10001d88 <boot_locks_reset+0x1c>)
10001d72:	4413      	add	r3, r2
10001d74:	009b      	lsls	r3, r3, #2
10001d76:	f3bf 8f5f 	dmb	sy
10001d7a:	2100      	movs	r1, #0
10001d7c:	6019      	str	r1, [r3, #0]
10001d7e:	3201      	adds	r2, #1
10001d80:	2a07      	cmp	r2, #7
10001d82:	d9f5      	bls.n	10001d70 <boot_locks_reset+0x4>
10001d84:	4770      	bx	lr
10001d86:	bf00      	nop
10001d88:	10038203 	.word	0x10038203

10001d8c <runtime_init_boot_locks_reset>:
10001d8c:	b508      	push	{r3, lr}
10001d8e:	f7ff ffed 	bl	10001d6c <boot_locks_reset>
10001d92:	bd08      	pop	{r3, pc}

10001d94 <xosc_init>:
10001d94:	4b07      	ldr	r3, [pc, #28]	@ (10001db4 <xosc_init+0x20>)
10001d96:	f44f 622a 	mov.w	r2, #2720	@ 0xaa0
10001d9a:	601a      	str	r2, [r3, #0]
10001d9c:	222f      	movs	r2, #47	@ 0x2f
10001d9e:	60da      	str	r2, [r3, #12]
10001da0:	f503 5300 	add.w	r3, r3, #8192	@ 0x2000
10001da4:	4a04      	ldr	r2, [pc, #16]	@ (10001db8 <xosc_init+0x24>)
10001da6:	601a      	str	r2, [r3, #0]
10001da8:	4b02      	ldr	r3, [pc, #8]	@ (10001db4 <xosc_init+0x20>)
10001daa:	685b      	ldr	r3, [r3, #4]
10001dac:	2b00      	cmp	r3, #0
10001dae:	dafb      	bge.n	10001da8 <xosc_init+0x14>
10001db0:	4770      	bx	lr
10001db2:	bf00      	nop
10001db4:	40048000 	.word	0x40048000
10001db8:	00fab000 	.word	0x00fab000

10001dbc <runtime_run_initializers_from>:
10001dbc:	b510      	push	{r4, lr}
10001dbe:	4604      	mov	r4, r0
10001dc0:	e002      	b.n	10001dc8 <runtime_run_initializers_from+0xc>
10001dc2:	f854 3b04 	ldr.w	r3, [r4], #4
10001dc6:	4798      	blx	r3
10001dc8:	4b01      	ldr	r3, [pc, #4]	@ (10001dd0 <runtime_run_initializers_from+0x14>)
10001dca:	429c      	cmp	r4, r3
10001dcc:	d3f9      	bcc.n	10001dc2 <runtime_run_initializers_from+0x6>
10001dce:	bd10      	pop	{r4, pc}
10001dd0:	100064e8 	.word	0x100064e8

10001dd4 <first_per_core_initializer>:
10001dd4:	4770      	bx	lr
	...

10001dd8 <runtime_run_initializers>:
10001dd8:	b508      	push	{r3, lr}
10001dda:	4802      	ldr	r0, [pc, #8]	@ (10001de4 <runtime_run_initializers+0xc>)
10001ddc:	f7ff ffee 	bl	10001dbc <runtime_run_initializers_from>
10001de0:	bd08      	pop	{r3, pc}
10001de2:	bf00      	nop
10001de4:	100064a8 	.word	0x100064a8

10001de8 <runtime_init_early_resets>:
10001de8:	4b06      	ldr	r3, [pc, #24]	@ (10001e04 <runtime_init_early_resets+0x1c>)
10001dea:	4a07      	ldr	r2, [pc, #28]	@ (10001e08 <runtime_init_early_resets+0x20>)
10001dec:	601a      	str	r2, [r3, #0]
10001dee:	f503 5380 	add.w	r3, r3, #4096	@ 0x1000
10001df2:	4a06      	ldr	r2, [pc, #24]	@ (10001e0c <runtime_init_early_resets+0x24>)
10001df4:	601a      	str	r2, [r3, #0]
10001df6:	4b06      	ldr	r3, [pc, #24]	@ (10001e10 <runtime_init_early_resets+0x28>)
10001df8:	689a      	ldr	r2, [r3, #8]
10001dfa:	4b04      	ldr	r3, [pc, #16]	@ (10001e0c <runtime_init_early_resets+0x24>)
10001dfc:	4393      	bics	r3, r2
10001dfe:	d1fa      	bne.n	10001df6 <runtime_init_early_resets+0xe>
10001e00:	4770      	bx	lr
10001e02:	bf00      	nop
10001e04:	40022000 	.word	0x40022000
10001e08:	efef3b7f 	.word	0xefef3b7f
10001e0c:	03f3fff6 	.word	0x03f3fff6
10001e10:	40020000 	.word	0x40020000

10001e14 <runtime_init_usb_power_down>:
10001e14:	4b05      	ldr	r3, [pc, #20]	@ (10001e2c <runtime_init_usb_power_down+0x18>)
10001e16:	6cdb      	ldr	r3, [r3, #76]	@ 0x4c
10001e18:	f5b3 4f00 	cmp.w	r3, #32768	@ 0x8000
10001e1c:	d000      	beq.n	10001e20 <runtime_init_usb_power_down+0xc>
10001e1e:	4770      	bx	lr
10001e20:	4b03      	ldr	r3, [pc, #12]	@ (10001e30 <runtime_init_usb_power_down+0x1c>)
10001e22:	f44f 2280 	mov.w	r2, #262144	@ 0x40000
10001e26:	64da      	str	r2, [r3, #76]	@ 0x4c
10001e28:	e7f9      	b.n	10001e1e <runtime_init_usb_power_down+0xa>
10001e2a:	bf00      	nop
10001e2c:	50110000 	.word	0x50110000
10001e30:	50112000 	.word	0x50112000

10001e34 <runtime_init_per_core_enable_coprocessors>:
10001e34:	f04f 22e0 	mov.w	r2, #3758153728	@ 0xe000e000
10001e38:	f8d2 1d88 	ldr.w	r1, [r2, #3464]	@ 0xd88
10001e3c:	4b03      	ldr	r3, [pc, #12]	@ (10001e4c <runtime_init_per_core_enable_coprocessors+0x18>)
10001e3e:	430b      	orrs	r3, r1
10001e40:	f8c2 3d88 	str.w	r3, [r2, #3464]	@ 0xd88
10001e44:	ee10 0430 	dcp_rcmp r0
10001e48:	4770      	bx	lr
10001e4a:	bf00      	nop
10001e4c:	00300303 	.word	0x00300303

10001e50 <runtime_init_post_clock_resets>:
10001e50:	4b05      	ldr	r3, [pc, #20]	@ (10001e68 <runtime_init_post_clock_resets+0x18>)
10001e52:	f06f 4260 	mvn.w	r2, #3758096384	@ 0xe0000000
10001e56:	601a      	str	r2, [r3, #0]
10001e58:	4b04      	ldr	r3, [pc, #16]	@ (10001e6c <runtime_init_post_clock_resets+0x1c>)
10001e5a:	689b      	ldr	r3, [r3, #8]
10001e5c:	43db      	mvns	r3, r3
10001e5e:	f033 4360 	bics.w	r3, r3, #3758096384	@ 0xe0000000
10001e62:	d1f9      	bne.n	10001e58 <runtime_init_post_clock_resets+0x8>
10001e64:	4770      	bx	lr
10001e66:	bf00      	nop
10001e68:	40023000 	.word	0x40023000
10001e6c:	40020000 	.word	0x40020000

10001e70 <runtime_init_bootrom_reset>:
10001e70:	b508      	push	{r3, lr}
10001e72:	f245 2053 	movw	r0, #21075	@ 0x5253
10001e76:	f7ff ff5f 	bl	10001d38 <rom_func_lookup>
10001e7a:	4603      	mov	r3, r0
10001e7c:	2004      	movs	r0, #4
10001e7e:	4798      	blx	r3
10001e80:	bd08      	pop	{r3, pc}

10001e82 <runtime_init_per_core_bootrom_reset>:
10001e82:	b508      	push	{r3, lr}
10001e84:	f245 2053 	movw	r0, #21075	@ 0x5253
10001e88:	f7ff ff56 	bl	10001d38 <rom_func_lookup>
10001e8c:	4603      	mov	r3, r0
10001e8e:	2001      	movs	r0, #1
10001e90:	4798      	blx	r3
10001e92:	bd08      	pop	{r3, pc}

10001e94 <runtime_init_spin_locks_reset>:
10001e94:	b508      	push	{r3, lr}
10001e96:	f7fe fe39 	bl	10000b0c <spin_locks_reset>
10001e9a:	bd08      	pop	{r3, pc}

10001e9c <runtime_init_install_ram_vector_table>:
10001e9c:	b538      	push	{r3, r4, r5, lr}
10001e9e:	4c05      	ldr	r4, [pc, #20]	@ (10001eb4 <runtime_init_install_ram_vector_table+0x18>)
10001ea0:	68a1      	ldr	r1, [r4, #8]
10001ea2:	4d05      	ldr	r5, [pc, #20]	@ (10001eb8 <runtime_init_install_ram_vector_table+0x1c>)
10001ea4:	f44f 7288 	mov.w	r2, #272	@ 0x110
10001ea8:	4628      	mov	r0, r5
10001eaa:	f004 fa2b 	bl	10006304 <memcpy>
10001eae:	60a5      	str	r5, [r4, #8]
10001eb0:	bd38      	pop	{r3, r4, r5, pc}
10001eb2:	bf00      	nop
10001eb4:	e000ed00 	.word	0xe000ed00
10001eb8:	20000000 	.word	0x20000000

10001ebc <start_all_ticks>:
10001ebc:	b538      	push	{r3, r4, r5, lr}
10001ebe:	2004      	movs	r0, #4
10001ec0:	f7ff fea2 	bl	10001c08 <clock_get_hz>
10001ec4:	4b06      	ldr	r3, [pc, #24]	@ (10001ee0 <start_all_ticks+0x24>)
10001ec6:	fba3 3500 	umull	r3, r5, r3, r0
10001eca:	0cad      	lsrs	r5, r5, #18
10001ecc:	2400      	movs	r4, #0
10001ece:	e004      	b.n	10001eda <start_all_ticks+0x1e>
10001ed0:	4629      	mov	r1, r5
10001ed2:	b2e0      	uxtb	r0, r4
10001ed4:	f7ff ff22 	bl	10001d1c <tick_start>
10001ed8:	3401      	adds	r4, #1
10001eda:	2c05      	cmp	r4, #5
10001edc:	ddf8      	ble.n	10001ed0 <start_all_ticks+0x14>
10001ede:	bd38      	pop	{r3, r4, r5, pc}
10001ee0:	431bde83 	.word	0x431bde83

10001ee4 <runtime_init_clocks>:
10001ee4:	b530      	push	{r4, r5, lr}
10001ee6:	b083      	sub	sp, #12
10001ee8:	4b26      	ldr	r3, [pc, #152]	@ (10001f84 <runtime_init_clocks+0xa0>)
10001eea:	2200      	movs	r2, #0
10001eec:	f8c3 2084 	str.w	r2, [r3, #132]	@ 0x84
10001ef0:	f7ff ff50 	bl	10001d94 <xosc_init>
10001ef4:	4b24      	ldr	r3, [pc, #144]	@ (10001f88 <runtime_init_clocks+0xa4>)
10001ef6:	2201      	movs	r2, #1
10001ef8:	63da      	str	r2, [r3, #60]	@ 0x3c
10001efa:	4b22      	ldr	r3, [pc, #136]	@ (10001f84 <runtime_init_clocks+0xa0>)
10001efc:	6c5b      	ldr	r3, [r3, #68]	@ 0x44
10001efe:	2b01      	cmp	r3, #1
10001f00:	d1fb      	bne.n	10001efa <runtime_init_clocks+0x16>
10001f02:	4b21      	ldr	r3, [pc, #132]	@ (10001f88 <runtime_init_clocks+0xa4>)
10001f04:	2203      	movs	r2, #3
10001f06:	631a      	str	r2, [r3, #48]	@ 0x30
10001f08:	4b1e      	ldr	r3, [pc, #120]	@ (10001f84 <runtime_init_clocks+0xa0>)
10001f0a:	6b9b      	ldr	r3, [r3, #56]	@ 0x38
10001f0c:	2b01      	cmp	r3, #1
10001f0e:	d1fb      	bne.n	10001f08 <runtime_init_clocks+0x24>
10001f10:	2402      	movs	r4, #2
10001f12:	9400      	str	r4, [sp, #0]
10001f14:	2305      	movs	r3, #5
10001f16:	4a1d      	ldr	r2, [pc, #116]	@ (10001f8c <runtime_init_clocks+0xa8>)
10001f18:	2101      	movs	r1, #1
10001f1a:	481d      	ldr	r0, [pc, #116]	@ (10001f90 <runtime_init_clocks+0xac>)
10001f1c:	f7ff fe7a 	bl	10001c14 <pll_init>
10001f20:	2505      	movs	r5, #5
10001f22:	9500      	str	r5, [sp, #0]
10001f24:	462b      	mov	r3, r5
10001f26:	4a1b      	ldr	r2, [pc, #108]	@ (10001f94 <runtime_init_clocks+0xb0>)
10001f28:	2101      	movs	r1, #1
10001f2a:	481b      	ldr	r0, [pc, #108]	@ (10001f98 <runtime_init_clocks+0xb4>)
10001f2c:	f7ff fe72 	bl	10001c14 <pll_init>
10001f30:	4b1a      	ldr	r3, [pc, #104]	@ (10001f9c <runtime_init_clocks+0xb8>)
10001f32:	2200      	movs	r2, #0
10001f34:	4621      	mov	r1, r4
10001f36:	2004      	movs	r0, #4
10001f38:	f7ff fe5c 	bl	10001bf4 <clock_configure_undivided>
10001f3c:	4c18      	ldr	r4, [pc, #96]	@ (10001fa0 <runtime_init_clocks+0xbc>)
10001f3e:	4623      	mov	r3, r4
10001f40:	2200      	movs	r2, #0
10001f42:	2101      	movs	r1, #1
10001f44:	4628      	mov	r0, r5
10001f46:	f7ff fe55 	bl	10001bf4 <clock_configure_undivided>
10001f4a:	4d16      	ldr	r5, [pc, #88]	@ (10001fa4 <runtime_init_clocks+0xc0>)
10001f4c:	462b      	mov	r3, r5
10001f4e:	2200      	movs	r2, #0
10001f50:	4611      	mov	r1, r2
10001f52:	2008      	movs	r0, #8
10001f54:	f7ff fe4e 	bl	10001bf4 <clock_configure_undivided>
10001f58:	462b      	mov	r3, r5
10001f5a:	2200      	movs	r2, #0
10001f5c:	4611      	mov	r1, r2
10001f5e:	2009      	movs	r0, #9
10001f60:	f7ff fe48 	bl	10001bf4 <clock_configure_undivided>
10001f64:	4623      	mov	r3, r4
10001f66:	2200      	movs	r2, #0
10001f68:	4611      	mov	r1, r2
10001f6a:	2006      	movs	r0, #6
10001f6c:	f7ff fe42 	bl	10001bf4 <clock_configure_undivided>
10001f70:	4623      	mov	r3, r4
10001f72:	2200      	movs	r2, #0
10001f74:	4611      	mov	r1, r2
10001f76:	2007      	movs	r0, #7
10001f78:	f7ff fe3c 	bl	10001bf4 <clock_configure_undivided>
10001f7c:	f7ff ff9e 	bl	10001ebc <start_all_ticks>
10001f80:	b003      	add	sp, #12
10001f82:	bd30      	pop	{r4, r5, pc}
10001f84:	40010000 	.word	0x40010000
10001f88:	40013000 	.word	0x40013000
10001f8c:	59682f00 	.word	0x59682f00
10001f90:	40050000 	.word	0x40050000
10001f94:	47868c00 	.word	0x47868c00
10001f98:	40058000 	.word	0x40058000
10001f9c:	00b71b00 	.word	0x00b71b00
10001fa0:	08f0d180 	.word	0x08f0d180
10001fa4:	02dc6c00 	.word	0x02dc6c00

10001fa8 <generic_save_state>:
10001fa8:	b086      	sub	sp, #24
10001faa:	b403      	push	{r0, r1}
10001fac:	fc51 0408 	dcp_pxmd r0, r1
10001fb0:	e9cd 0102 	strd	r0, r1, [sp, #8]
10001fb4:	fc51 0409 	dcp_pymd r0, r1
10001fb8:	e9cd 0104 	strd	r0, r1, [sp, #16]
10001fbc:	ec51 040a 	dcp_refd r0, r1
10001fc0:	e9cd 0106 	strd	r0, r1, [sp, #24]
10001fc4:	bc03      	pop	{r0, r1}
10001fc6:	47f0      	blx	lr

10001fc8 <generic_restore_state>:
10001fc8:	e8bd 5000 	ldmia.w	sp!, {ip, lr}
10001fcc:	ec4e c400 	dcp_wxmd ip, lr
10001fd0:	e8bd 5000 	ldmia.w	sp!, {ip, lr}
10001fd4:	ec4e c401 	dcp_wymd ip, lr
10001fd8:	e8bd 5000 	ldmia.w	sp!, {ip, lr}
10001fdc:	ec4e c402 	dcp_wefd ip, lr
10001fe0:	bd00      	pop	{pc}
10001fe2:	0000      	movs	r0, r0
10001fe4:	b500      	push	{lr}
10001fe6:	f7ff ffdf 	bl	10001fa8 <generic_save_state>
10001fea:	e002      	b.n	10001ff2 <__wrap___aeabi_dadd+0x6>

10001fec <__wrap___aeabi_dadd>:
10001fec:	fe10 f430 	dcp_pcmp APSR_nzcv
10001ff0:	d4f8      	bmi.n	10001fe4 <generic_restore_state+0x1c>
10001ff2:	ec41 0410 	dcp_wxup r0, r1
10001ff6:	ec43 2411 	dcp_wyup r2, r3
10001ffa:	ee00 0401 	dcp_add0
10001ffe:	ee10 0401 	dcp_add1
10002002:	ee80 0420 	dcp_nrdd
10002006:	ec51 0410 	dcp_rdda r0, r1
1000200a:	4770      	bx	lr
1000200c:	b500      	push	{lr}
1000200e:	f7ff ffcb 	bl	10001fa8 <generic_save_state>
10002012:	e002      	b.n	1000201a <__wrap___aeabi_dsub+0x6>

10002014 <__wrap___aeabi_dsub>:
10002014:	fe10 f430 	dcp_pcmp APSR_nzcv
10002018:	d4f8      	bmi.n	1000200c <__wrap___aeabi_dadd+0x20>
1000201a:	ec41 0410 	dcp_wxup r0, r1
1000201e:	ec43 2411 	dcp_wyup r2, r3
10002022:	ee00 0401 	dcp_add0
10002026:	ee10 0421 	dcp_sub1
1000202a:	ee80 0420 	dcp_nrdd
1000202e:	ec51 0430 	dcp_rdds r0, r1
10002032:	4770      	bx	lr
10002034:	b500      	push	{lr}
10002036:	f7ff ffb7 	bl	10001fa8 <generic_save_state>
1000203a:	e002      	b.n	10002042 <__wrap___aeabi_dmul+0x6>

1000203c <__wrap___aeabi_dmul>:
1000203c:	fe10 f430 	dcp_pcmp APSR_nzcv
10002040:	d4f8      	bmi.n	10002034 <__wrap___aeabi_dsub+0x20>
10002042:	b510      	push	{r4, lr}
10002044:	ec41 0410 	dcp_wxup r0, r1
10002048:	ec43 2411 	dcp_wyup r2, r3
1000204c:	ec51 0404 	dcp_rxms r0, r1, #0x0
10002050:	ec53 2405 	dcp_ryms r2, r3, #0x0
10002054:	fba0 4c02 	umull	r4, ip, r0, r2
10002058:	f05f 0e00 	movs.w	lr, #0
1000205c:	fbe0 ce03 	umlal	ip, lr, r0, r3
10002060:	fbe1 ce02 	umlal	ip, lr, r1, r2
10002064:	ec4c 4420 	dcp_wxms r4, ip
10002068:	2400      	movs	r4, #0
1000206a:	fbe1 e403 	umlal	lr, r4, r1, r3
1000206e:	ec44 e430 	dcp_wxmo lr, r4
10002072:	ee80 0420 	dcp_nrdd
10002076:	ec51 0450 	dcp_rddm r0, r1
1000207a:	e8bd 4010 	ldmia.w	sp!, {r4, lr}
1000207e:	4770      	bx	lr
10002080:	b500      	push	{lr}
10002082:	f7ff ff91 	bl	10001fa8 <generic_save_state>
10002086:	e002      	b.n	1000208e <__wrap___aeabi_ddiv+0x6>

10002088 <__wrap___aeabi_ddiv>:
10002088:	fe10 f430 	dcp_pcmp APSR_nzcv
1000208c:	d4f8      	bmi.n	10002080 <__wrap___aeabi_dmul+0x44>
1000208e:	ec41 0410 	dcp_wxup r0, r1
10002092:	ec43 2411 	dcp_wyup r2, r3
10002096:	ec51 0421 	dcp_rymr r0, r1
1000209a:	fba0 1201 	umull	r1, r2, r0, r1
1000209e:	ea6f 0282 	mvn.w	r2, r2, lsl #2
100020a2:	fb52 0010 	smmlar	r0, r2, r0, r0
100020a6:	fb52 f212 	smmulr	r2, r2, r2
100020aa:	fb52 0010 	smmlar	r0, r2, r0, r0
100020ae:	eba0 7cd0 	sub.w	ip, r0, r0, lsr #31
100020b2:	ec53 2404 	dcp_rxms r2, r3, #0x0
100020b6:	fb5c f113 	smmulr	r1, ip, r3
100020ba:	ec53 2415 	dcp_ryms r2, r3, #0x1
100020be:	fba1 2002 	umull	r2, r0, r1, r2
100020c2:	fb01 0003 	mla	r0, r1, r3, r0
100020c6:	ec53 2444 	dcp_rxms r2, r3, #0x4
100020ca:	eba2 0000 	sub.w	r0, r2, r0
100020ce:	fb50 f21c 	smmulr	r2, r0, ip
100020d2:	ea4f 1311 	mov.w	r3, r1, lsr #4
100020d6:	eb12 7001 	adds.w	r0, r2, r1, lsl #28
100020da:	eb43 71e2 	adc.w	r1, r3, r2, asr #31
100020de:	ea40 5051 	orr.w	r0, r0, r1, lsr #21
100020e2:	ea20 5091 	bic.w	r0, r0, r1, lsr #22
100020e6:	f020 0007 	bic.w	r0, r0, #7
100020ea:	ec53 2475 	dcp_ryms r2, r3, #0x7
100020ee:	fba0 3c02 	umull	r3, ip, r0, r2
100020f2:	ec53 2475 	dcp_ryms r2, r3, #0x7
100020f6:	fb00 cc03 	mla	ip, r0, r3, ip
100020fa:	fb01 cc02 	mla	ip, r1, r2, ip
100020fe:	ec53 2404 	dcp_rxms r2, r3, #0x0
10002102:	ebac 4c82 	sub.w	ip, ip, r2, lsl #18
10002106:	ea40 705c 	orr.w	r0, r0, ip, lsr #29
1000210a:	f1a0 0001 	sub.w	r0, r0, #1
1000210e:	ec41 0440 	dcp_wxdd r0, r1
10002112:	ee80 0420 	dcp_nrdd
10002116:	ec51 0470 	dcp_rddd r0, r1
1000211a:	4770      	bx	lr
1000211c:	b500      	push	{lr}
1000211e:	f7ff ff43 	bl	10001fa8 <generic_save_state>
10002122:	e002      	b.n	1000212a <__wrap___aeabi_i2d+0x6>

10002124 <__wrap___aeabi_i2d>:
10002124:	fe10 f430 	dcp_pcmp APSR_nzcv
10002128:	d4f8      	bmi.n	1000211c <__wrap___aeabi_ddiv+0x94>
1000212a:	ec40 0470 	dcp_wxic r0, r0
1000212e:	ee00 0401 	dcp_add0
10002132:	ee10 0421 	dcp_sub1
10002136:	ee80 0420 	dcp_nrdd
1000213a:	ec51 0430 	dcp_rdds r0, r1
1000213e:	4770      	bx	lr
10002140:	b500      	push	{lr}
10002142:	f7ff ff31 	bl	10001fa8 <generic_save_state>
10002146:	e002      	b.n	1000214e <__wrap___aeabi_ui2d+0x6>

10002148 <__wrap___aeabi_ui2d>:
10002148:	fe10 f430 	dcp_pcmp APSR_nzcv
1000214c:	d4f8      	bmi.n	10002140 <__wrap___aeabi_i2d+0x1c>
1000214e:	ec40 0460 	dcp_wxuc r0, r0
10002152:	ee00 0401 	dcp_add0
10002156:	ee10 0421 	dcp_sub1
1000215a:	ee80 0420 	dcp_nrdd
1000215e:	ec51 0430 	dcp_rdds r0, r1
10002162:	4770      	bx	lr
10002164:	b500      	push	{lr}
10002166:	f7ff ff1f 	bl	10001fa8 <generic_save_state>
1000216a:	e002      	b.n	10002172 <__wrap___aeabi_d2iz+0x6>

1000216c <__wrap___aeabi_d2iz>:
1000216c:	fe10 f430 	dcp_pcmp APSR_nzcv
10002170:	d4f8      	bmi.n	10002164 <__wrap___aeabi_ui2d+0x1c>
10002172:	ec41 0480 	dcp_wxdc r0, r1
10002176:	ee00 0401 	dcp_add0
1000217a:	ee10 0401 	dcp_add1
1000217e:	ee80 0440 	dcp_ntdc
10002182:	ee10 0413 	dcp_rdic r0
10002186:	4770      	bx	lr
10002188:	b500      	push	{lr}
1000218a:	f7ff ff0d 	bl	10001fa8 <generic_save_state>
1000218e:	e002      	b.n	10002196 <__wrap___aeabi_d2uiz+0x6>

10002190 <__wrap___aeabi_d2uiz>:
10002190:	fe10 f430 	dcp_pcmp APSR_nzcv
10002194:	d4f8      	bmi.n	10002188 <__wrap___aeabi_d2iz+0x1c>
10002196:	ec41 0480 	dcp_wxdc r0, r1
1000219a:	ee00 0401 	dcp_add0
1000219e:	ee10 0401 	dcp_add1
100021a2:	ee80 0440 	dcp_ntdc
100021a6:	ee10 0433 	dcp_rduc r0
100021aa:	4770      	bx	lr
100021ac:	b500      	push	{lr}
100021ae:	f7ff fefb 	bl	10001fa8 <generic_save_state>
100021b2:	e002      	b.n	100021ba <__wrap___aeabi_dcmpun+0x6>

100021b4 <__wrap___aeabi_dcmpun>:
100021b4:	fe10 f430 	dcp_pcmp APSR_nzcv
100021b8:	d4f8      	bmi.n	100021ac <__wrap___aeabi_d2uiz+0x1c>
100021ba:	ec41 0410 	dcp_wxup r0, r1
100021be:	ec43 2411 	dcp_wyup r2, r3
100021c2:	ee00 0401 	dcp_add0
100021c6:	ee10 0430 	dcp_rcmp r0
100021ca:	f3c0 7000 	ubfx	r0, r0, #28, #1
100021ce:	4770      	bx	lr
100021d0:	b500      	push	{lr}
100021d2:	f7ff fee9 	bl	10001fa8 <generic_save_state>
100021d6:	e002      	b.n	100021de <__wrap___aeabi_dcmplt+0x6>

100021d8 <__wrap___aeabi_dcmplt>:
100021d8:	fe10 f430 	dcp_pcmp APSR_nzcv
100021dc:	d4f8      	bmi.n	100021d0 <__wrap___aeabi_dcmpun+0x1c>
100021de:	ec43 2410 	dcp_wxup r2, r3
100021e2:	ec41 0411 	dcp_wyup r0, r1
100021e6:	ee00 0401 	dcp_add0
100021ea:	ee10 f430 	dcp_rcmp APSR_nzcv
100021ee:	bf8c      	ite	hi
100021f0:	2001      	movhi	r0, #1
100021f2:	2000      	movls	r0, #0
100021f4:	4770      	bx	lr
100021f6:	bf00      	nop
100021f8:	b500      	push	{lr}
100021fa:	f7ff fed5 	bl	10001fa8 <generic_save_state>
100021fe:	e002      	b.n	10002206 <__wrap___aeabi_dcmple+0x6>

10002200 <__wrap___aeabi_dcmple>:
10002200:	fe10 f430 	dcp_pcmp APSR_nzcv
10002204:	d4f8      	bmi.n	100021f8 <__wrap___aeabi_dcmplt+0x20>
10002206:	ec43 2410 	dcp_wxup r2, r3
1000220a:	ec41 0411 	dcp_wyup r0, r1
1000220e:	ee00 0401 	dcp_add0
10002212:	ee10 f430 	dcp_rcmp APSR_nzcv
10002216:	bf2c      	ite	cs
10002218:	2001      	movcs	r0, #1
1000221a:	2000      	movcc	r0, #0
1000221c:	4770      	bx	lr
1000221e:	bf00      	nop
10002220:	b500      	push	{lr}
10002222:	f7ff fec1 	bl	10001fa8 <generic_save_state>
10002226:	e002      	b.n	1000222e <__wrap___aeabi_dcmpge+0x6>

10002228 <__wrap___aeabi_dcmpge>:
10002228:	fe10 f430 	dcp_pcmp APSR_nzcv
1000222c:	d4f8      	bmi.n	10002220 <__wrap___aeabi_dcmple+0x20>
1000222e:	ec41 0410 	dcp_wxup r0, r1
10002232:	ec43 2411 	dcp_wyup r2, r3
10002236:	ee00 0401 	dcp_add0
1000223a:	ee10 f430 	dcp_rcmp APSR_nzcv
1000223e:	bf2c      	ite	cs
10002240:	2001      	movcs	r0, #1
10002242:	2000      	movcc	r0, #0
10002244:	4770      	bx	lr
10002246:	bf00      	nop
10002248:	b500      	push	{lr}
1000224a:	f7ff fead 	bl	10001fa8 <generic_save_state>
1000224e:	e002      	b.n	10002256 <__wrap___aeabi_dcmpgt+0x6>

10002250 <__wrap___aeabi_dcmpgt>:
10002250:	fe10 f430 	dcp_pcmp APSR_nzcv
10002254:	d4f8      	bmi.n	10002248 <__wrap___aeabi_dcmpge+0x20>
10002256:	ec41 0410 	dcp_wxup r0, r1
1000225a:	ec43 2411 	dcp_wyup r2, r3
1000225e:	ee00 0401 	dcp_add0
10002262:	ee10 f430 	dcp_rcmp APSR_nzcv
10002266:	bf8c      	ite	hi
10002268:	2001      	movhi	r0, #1
1000226a:	2000      	movls	r0, #0
1000226c:	4770      	bx	lr
1000226e:	bf00      	nop

10002270 <_out_null>:
10002270:	4770      	bx	lr

10002272 <_out_fct>:
10002272:	b120      	cbz	r0, 1000227e <_out_fct+0xc>
10002274:	b508      	push	{r3, lr}
10002276:	680a      	ldr	r2, [r1, #0]
10002278:	6849      	ldr	r1, [r1, #4]
1000227a:	4790      	blx	r2
1000227c:	bd08      	pop	{r3, pc}
1000227e:	4770      	bx	lr

10002280 <_atoi>:
10002280:	4601      	mov	r1, r0
10002282:	2000      	movs	r0, #0
10002284:	e008      	b.n	10002298 <_atoi+0x18>
10002286:	eb00 0080 	add.w	r0, r0, r0, lsl #2
1000228a:	1c53      	adds	r3, r2, #1
1000228c:	600b      	str	r3, [r1, #0]
1000228e:	7813      	ldrb	r3, [r2, #0]
10002290:	eb03 0340 	add.w	r3, r3, r0, lsl #1
10002294:	f1a3 0030 	sub.w	r0, r3, #48	@ 0x30
10002298:	680a      	ldr	r2, [r1, #0]
1000229a:	7813      	ldrb	r3, [r2, #0]
1000229c:	3b30      	subs	r3, #48	@ 0x30
1000229e:	b2db      	uxtb	r3, r3
100022a0:	2b09      	cmp	r3, #9
100022a2:	d9f0      	bls.n	10002286 <_atoi+0x6>
100022a4:	4770      	bx	lr

100022a6 <_out_rev>:
100022a6:	e92d 4ff0 	stmdb	sp!, {r4, r5, r6, r7, r8, r9, sl, fp, lr}
100022aa:	b083      	sub	sp, #12
100022ac:	4605      	mov	r5, r0
100022ae:	460e      	mov	r6, r1
100022b0:	4693      	mov	fp, r2
100022b2:	461f      	mov	r7, r3
100022b4:	f8dd a030 	ldr.w	sl, [sp, #48]	@ 0x30
100022b8:	9c0d      	ldr	r4, [sp, #52]	@ 0x34
100022ba:	f8dd 9038 	ldr.w	r9, [sp, #56]	@ 0x38
100022be:	9b0f      	ldr	r3, [sp, #60]	@ 0x3c
100022c0:	f013 0f03 	tst.w	r3, #3
100022c4:	d119      	bne.n	100022fa <_out_rev+0x54>
100022c6:	46a0      	mov	r8, r4
100022c8:	9201      	str	r2, [sp, #4]
100022ca:	45c8      	cmp	r8, r9
100022cc:	d209      	bcs.n	100022e2 <_out_rev+0x3c>
100022ce:	f102 0b01 	add.w	fp, r2, #1
100022d2:	463b      	mov	r3, r7
100022d4:	4631      	mov	r1, r6
100022d6:	2020      	movs	r0, #32
100022d8:	47a8      	blx	r5
100022da:	f108 0801 	add.w	r8, r8, #1
100022de:	465a      	mov	r2, fp
100022e0:	e7f3      	b.n	100022ca <_out_rev+0x24>
100022e2:	f8dd b004 	ldr.w	fp, [sp, #4]
100022e6:	e008      	b.n	100022fa <_out_rev+0x54>
100022e8:	3c01      	subs	r4, #1
100022ea:	f102 0801 	add.w	r8, r2, #1
100022ee:	463b      	mov	r3, r7
100022f0:	4631      	mov	r1, r6
100022f2:	f81a 0004 	ldrb.w	r0, [sl, r4]
100022f6:	47a8      	blx	r5
100022f8:	4642      	mov	r2, r8
100022fa:	2c00      	cmp	r4, #0
100022fc:	d1f4      	bne.n	100022e8 <_out_rev+0x42>
100022fe:	9b0f      	ldr	r3, [sp, #60]	@ 0x3c
10002300:	f013 0f02 	tst.w	r3, #2
10002304:	d103      	bne.n	1000230e <_out_rev+0x68>
10002306:	4610      	mov	r0, r2
10002308:	b003      	add	sp, #12
1000230a:	e8bd 8ff0 	ldmia.w	sp!, {r4, r5, r6, r7, r8, r9, sl, fp, pc}
1000230e:	eba2 030b 	sub.w	r3, r2, fp
10002312:	454b      	cmp	r3, r9
10002314:	d2f7      	bcs.n	10002306 <_out_rev+0x60>
10002316:	1c54      	adds	r4, r2, #1
10002318:	463b      	mov	r3, r7
1000231a:	4631      	mov	r1, r6
1000231c:	2020      	movs	r0, #32
1000231e:	47a8      	blx	r5
10002320:	4622      	mov	r2, r4
10002322:	e7f4      	b.n	1000230e <_out_rev+0x68>

10002324 <_ntoa_format>:
10002324:	e92d 43f0 	stmdb	sp!, {r4, r5, r6, r7, r8, r9, lr}
10002328:	b085      	sub	sp, #20
1000232a:	4699      	mov	r9, r3
1000232c:	9d0c      	ldr	r5, [sp, #48]	@ 0x30
1000232e:	9c0d      	ldr	r4, [sp, #52]	@ 0x34
10002330:	f89d 8038 	ldrb.w	r8, [sp, #56]	@ 0x38
10002334:	f8dd e040 	ldr.w	lr, [sp, #64]	@ 0x40
10002338:	9f11      	ldr	r7, [sp, #68]	@ 0x44
1000233a:	9e12      	ldr	r6, [sp, #72]	@ 0x48
1000233c:	f016 0f02 	tst.w	r6, #2
10002340:	d121      	bne.n	10002386 <_ntoa_format+0x62>
10002342:	b17f      	cbz	r7, 10002364 <_ntoa_format+0x40>
10002344:	f016 0f01 	tst.w	r6, #1
10002348:	d00c      	beq.n	10002364 <_ntoa_format+0x40>
1000234a:	f1b8 0f00 	cmp.w	r8, #0
1000234e:	d102      	bne.n	10002356 <_ntoa_format+0x32>
10002350:	f016 0f0c 	tst.w	r6, #12
10002354:	d006      	beq.n	10002364 <_ntoa_format+0x40>
10002356:	3f01      	subs	r7, #1
10002358:	e004      	b.n	10002364 <_ntoa_format+0x40>
1000235a:	f04f 0c30 	mov.w	ip, #48	@ 0x30
1000235e:	f805 c004 	strb.w	ip, [r5, r4]
10002362:	3401      	adds	r4, #1
10002364:	4574      	cmp	r4, lr
10002366:	d201      	bcs.n	1000236c <_ntoa_format+0x48>
10002368:	2c1f      	cmp	r4, #31
1000236a:	d9f6      	bls.n	1000235a <_ntoa_format+0x36>
1000236c:	f016 0f01 	tst.w	r6, #1
10002370:	d009      	beq.n	10002386 <_ntoa_format+0x62>
10002372:	42bc      	cmp	r4, r7
10002374:	d207      	bcs.n	10002386 <_ntoa_format+0x62>
10002376:	2c1f      	cmp	r4, #31
10002378:	d805      	bhi.n	10002386 <_ntoa_format+0x62>
1000237a:	f04f 0c30 	mov.w	ip, #48	@ 0x30
1000237e:	f805 c004 	strb.w	ip, [r5, r4]
10002382:	3401      	adds	r4, #1
10002384:	e7f2      	b.n	1000236c <_ntoa_format+0x48>
10002386:	f016 0f10 	tst.w	r6, #16
1000238a:	d014      	beq.n	100023b6 <_ntoa_format+0x92>
1000238c:	f416 6f80 	tst.w	r6, #1024	@ 0x400
10002390:	d104      	bne.n	1000239c <_ntoa_format+0x78>
10002392:	b11c      	cbz	r4, 1000239c <_ntoa_format+0x78>
10002394:	4574      	cmp	r4, lr
10002396:	d022      	beq.n	100023de <_ntoa_format+0xba>
10002398:	42bc      	cmp	r4, r7
1000239a:	d020      	beq.n	100023de <_ntoa_format+0xba>
1000239c:	9b0f      	ldr	r3, [sp, #60]	@ 0x3c
1000239e:	2b10      	cmp	r3, #16
100023a0:	d036      	beq.n	10002410 <_ntoa_format+0xec>
100023a2:	9b0f      	ldr	r3, [sp, #60]	@ 0x3c
100023a4:	2b02      	cmp	r3, #2
100023a6:	d03e      	beq.n	10002426 <_ntoa_format+0x102>
100023a8:	2c1f      	cmp	r4, #31
100023aa:	d80e      	bhi.n	100023ca <_ntoa_format+0xa6>
100023ac:	f04f 0c30 	mov.w	ip, #48	@ 0x30
100023b0:	f805 c004 	strb.w	ip, [r5, r4]
100023b4:	3401      	adds	r4, #1
100023b6:	2c1f      	cmp	r4, #31
100023b8:	d807      	bhi.n	100023ca <_ntoa_format+0xa6>
100023ba:	f1b8 0f00 	cmp.w	r8, #0
100023be:	d03a      	beq.n	10002436 <_ntoa_format+0x112>
100023c0:	f04f 0c2d 	mov.w	ip, #45	@ 0x2d
100023c4:	f805 c004 	strb.w	ip, [r5, r4]
100023c8:	3401      	adds	r4, #1
100023ca:	9603      	str	r6, [sp, #12]
100023cc:	9702      	str	r7, [sp, #8]
100023ce:	9401      	str	r4, [sp, #4]
100023d0:	9500      	str	r5, [sp, #0]
100023d2:	464b      	mov	r3, r9
100023d4:	f7ff ff67 	bl	100022a6 <_out_rev>
100023d8:	b005      	add	sp, #20
100023da:	e8bd 83f0 	ldmia.w	sp!, {r4, r5, r6, r7, r8, r9, pc}
100023de:	f1b4 0c01 	subs.w	ip, r4, #1
100023e2:	d013      	beq.n	1000240c <_ntoa_format+0xe8>
100023e4:	9b0f      	ldr	r3, [sp, #60]	@ 0x3c
100023e6:	2b10      	cmp	r3, #16
100023e8:	d00e      	beq.n	10002408 <_ntoa_format+0xe4>
100023ea:	4664      	mov	r4, ip
100023ec:	9b0f      	ldr	r3, [sp, #60]	@ 0x3c
100023ee:	2b10      	cmp	r3, #16
100023f0:	d1d7      	bne.n	100023a2 <_ntoa_format+0x7e>
100023f2:	f016 0f20 	tst.w	r6, #32
100023f6:	d0d4      	beq.n	100023a2 <_ntoa_format+0x7e>
100023f8:	2c1f      	cmp	r4, #31
100023fa:	d8d2      	bhi.n	100023a2 <_ntoa_format+0x7e>
100023fc:	f04f 0c58 	mov.w	ip, #88	@ 0x58
10002400:	f805 c004 	strb.w	ip, [r5, r4]
10002404:	3401      	adds	r4, #1
10002406:	e7cf      	b.n	100023a8 <_ntoa_format+0x84>
10002408:	3c02      	subs	r4, #2
1000240a:	e7c7      	b.n	1000239c <_ntoa_format+0x78>
1000240c:	4664      	mov	r4, ip
1000240e:	e7c5      	b.n	1000239c <_ntoa_format+0x78>
10002410:	f016 0f20 	tst.w	r6, #32
10002414:	d1ea      	bne.n	100023ec <_ntoa_format+0xc8>
10002416:	2c1f      	cmp	r4, #31
10002418:	d8e8      	bhi.n	100023ec <_ntoa_format+0xc8>
1000241a:	f04f 0c78 	mov.w	ip, #120	@ 0x78
1000241e:	f805 c004 	strb.w	ip, [r5, r4]
10002422:	3401      	adds	r4, #1
10002424:	e7c0      	b.n	100023a8 <_ntoa_format+0x84>
10002426:	2c1f      	cmp	r4, #31
10002428:	d8cf      	bhi.n	100023ca <_ntoa_format+0xa6>
1000242a:	f04f 0c62 	mov.w	ip, #98	@ 0x62
1000242e:	f805 c004 	strb.w	ip, [r5, r4]
10002432:	3401      	adds	r4, #1
10002434:	e7b8      	b.n	100023a8 <_ntoa_format+0x84>
10002436:	f016 0f04 	tst.w	r6, #4
1000243a:	d005      	beq.n	10002448 <_ntoa_format+0x124>
1000243c:	f04f 0c2b 	mov.w	ip, #43	@ 0x2b
10002440:	f805 c004 	strb.w	ip, [r5, r4]
10002444:	3401      	adds	r4, #1
10002446:	e7c0      	b.n	100023ca <_ntoa_format+0xa6>
10002448:	f016 0f08 	tst.w	r6, #8
1000244c:	d0bd      	beq.n	100023ca <_ntoa_format+0xa6>
1000244e:	f04f 0c20 	mov.w	ip, #32
10002452:	f805 c004 	strb.w	ip, [r5, r4]
10002456:	3401      	adds	r4, #1
10002458:	e7b7      	b.n	100023ca <_ntoa_format+0xa6>

1000245a <_ntoa_long>:
1000245a:	b5f0      	push	{r4, r5, r6, r7, lr}
1000245c:	b091      	sub	sp, #68	@ 0x44
1000245e:	9c16      	ldr	r4, [sp, #88]	@ 0x58
10002460:	9d18      	ldr	r5, [sp, #96]	@ 0x60
10002462:	9e1b      	ldr	r6, [sp, #108]	@ 0x6c
10002464:	b90c      	cbnz	r4, 1000246a <_ntoa_long+0x10>
10002466:	f026 0610 	bic.w	r6, r6, #16
1000246a:	f416 6e80 	ands.w	lr, r6, #1024	@ 0x400
1000246e:	d016      	beq.n	1000249e <_ntoa_long+0x44>
10002470:	b364      	cbz	r4, 100024cc <_ntoa_long+0x72>
10002472:	f04f 0e00 	mov.w	lr, #0
10002476:	e012      	b.n	1000249e <_ntoa_long+0x44>
10002478:	f10c 0c30 	add.w	ip, ip, #48	@ 0x30
1000247c:	fa5f fc8c 	uxtb.w	ip, ip
10002480:	f10e 0701 	add.w	r7, lr, #1
10002484:	f10e 0e40 	add.w	lr, lr, #64	@ 0x40
10002488:	44ee      	add	lr, sp
1000248a:	f80e cc20 	strb.w	ip, [lr, #-32]
1000248e:	fbb4 fcf5 	udiv	ip, r4, r5
10002492:	42ac      	cmp	r4, r5
10002494:	d31b      	bcc.n	100024ce <_ntoa_long+0x74>
10002496:	2f1f      	cmp	r7, #31
10002498:	d819      	bhi.n	100024ce <_ntoa_long+0x74>
1000249a:	46be      	mov	lr, r7
1000249c:	4664      	mov	r4, ip
1000249e:	fbb4 fcf5 	udiv	ip, r4, r5
100024a2:	fb05 4c1c 	mls	ip, r5, ip, r4
100024a6:	fa5f fc8c 	uxtb.w	ip, ip
100024aa:	f1bc 0f09 	cmp.w	ip, #9
100024ae:	d9e3      	bls.n	10002478 <_ntoa_long+0x1e>
100024b0:	f016 0f20 	tst.w	r6, #32
100024b4:	d008      	beq.n	100024c8 <_ntoa_long+0x6e>
100024b6:	2741      	movs	r7, #65	@ 0x41
100024b8:	44bc      	add	ip, r7
100024ba:	fa5f fc8c 	uxtb.w	ip, ip
100024be:	f1ac 0c0a 	sub.w	ip, ip, #10
100024c2:	fa5f fc8c 	uxtb.w	ip, ip
100024c6:	e7db      	b.n	10002480 <_ntoa_long+0x26>
100024c8:	2761      	movs	r7, #97	@ 0x61
100024ca:	e7f5      	b.n	100024b8 <_ntoa_long+0x5e>
100024cc:	4627      	mov	r7, r4
100024ce:	9606      	str	r6, [sp, #24]
100024d0:	9c1a      	ldr	r4, [sp, #104]	@ 0x68
100024d2:	9405      	str	r4, [sp, #20]
100024d4:	9c19      	ldr	r4, [sp, #100]	@ 0x64
100024d6:	9404      	str	r4, [sp, #16]
100024d8:	9503      	str	r5, [sp, #12]
100024da:	f89d 405c 	ldrb.w	r4, [sp, #92]	@ 0x5c
100024de:	9402      	str	r4, [sp, #8]
100024e0:	9701      	str	r7, [sp, #4]
100024e2:	ac08      	add	r4, sp, #32
100024e4:	9400      	str	r4, [sp, #0]
100024e6:	f7ff ff1d 	bl	10002324 <_ntoa_format>
100024ea:	b011      	add	sp, #68	@ 0x44
100024ec:	bdf0      	pop	{r4, r5, r6, r7, pc}

100024ee <_ntoa_long_long>:
100024ee:	e92d 4ff0 	stmdb	sp!, {r4, r5, r6, r7, r8, r9, sl, fp, lr}
100024f2:	b095      	sub	sp, #84	@ 0x54
100024f4:	9009      	str	r0, [sp, #36]	@ 0x24
100024f6:	910a      	str	r1, [sp, #40]	@ 0x28
100024f8:	920b      	str	r2, [sp, #44]	@ 0x2c
100024fa:	4698      	mov	r8, r3
100024fc:	f8dd b078 	ldr.w	fp, [sp, #120]	@ 0x78
10002500:	f8dd 907c 	ldr.w	r9, [sp, #124]	@ 0x7c
10002504:	9d22      	ldr	r5, [sp, #136]	@ 0x88
10002506:	9f23      	ldr	r7, [sp, #140]	@ 0x8c
10002508:	9e26      	ldr	r6, [sp, #152]	@ 0x98
1000250a:	ea5b 0209 	orrs.w	r2, fp, r9
1000250e:	d101      	bne.n	10002514 <_ntoa_long_long+0x26>
10002510:	f026 0610 	bic.w	r6, r6, #16
10002514:	f416 6480 	ands.w	r4, r6, #1024	@ 0x400
10002518:	d01e      	beq.n	10002558 <_ntoa_long_long+0x6a>
1000251a:	ea5b 0209 	orrs.w	r2, fp, r9
1000251e:	d02f      	beq.n	10002580 <_ntoa_long_long+0x92>
10002520:	2400      	movs	r4, #0
10002522:	e019      	b.n	10002558 <_ntoa_long_long+0x6a>
10002524:	3230      	adds	r2, #48	@ 0x30
10002526:	b2d3      	uxtb	r3, r2
10002528:	f104 0a01 	add.w	sl, r4, #1
1000252c:	f104 0250 	add.w	r2, r4, #80	@ 0x50
10002530:	eb0d 0402 	add.w	r4, sp, r2
10002534:	f804 3c20 	strb.w	r3, [r4, #-32]
10002538:	462a      	mov	r2, r5
1000253a:	463b      	mov	r3, r7
1000253c:	4658      	mov	r0, fp
1000253e:	4649      	mov	r1, r9
10002540:	f003 ff9a 	bl	10006478 <____aeabi_uldivmod_veneer>
10002544:	45ab      	cmp	fp, r5
10002546:	eb79 0907 	sbcs.w	r9, r9, r7
1000254a:	d31b      	bcc.n	10002584 <_ntoa_long_long+0x96>
1000254c:	f1ba 0f1f 	cmp.w	sl, #31
10002550:	d818      	bhi.n	10002584 <_ntoa_long_long+0x96>
10002552:	4654      	mov	r4, sl
10002554:	4683      	mov	fp, r0
10002556:	4689      	mov	r9, r1
10002558:	462a      	mov	r2, r5
1000255a:	463b      	mov	r3, r7
1000255c:	4658      	mov	r0, fp
1000255e:	4649      	mov	r1, r9
10002560:	f003 ff8a 	bl	10006478 <____aeabi_uldivmod_veneer>
10002564:	b2d2      	uxtb	r2, r2
10002566:	2a09      	cmp	r2, #9
10002568:	d9dc      	bls.n	10002524 <_ntoa_long_long+0x36>
1000256a:	f016 0f20 	tst.w	r6, #32
1000256e:	d005      	beq.n	1000257c <_ntoa_long_long+0x8e>
10002570:	2341      	movs	r3, #65	@ 0x41
10002572:	4413      	add	r3, r2
10002574:	b2db      	uxtb	r3, r3
10002576:	3b0a      	subs	r3, #10
10002578:	b2db      	uxtb	r3, r3
1000257a:	e7d5      	b.n	10002528 <_ntoa_long_long+0x3a>
1000257c:	2361      	movs	r3, #97	@ 0x61
1000257e:	e7f8      	b.n	10002572 <_ntoa_long_long+0x84>
10002580:	f04f 0a00 	mov.w	sl, #0
10002584:	9606      	str	r6, [sp, #24]
10002586:	9b25      	ldr	r3, [sp, #148]	@ 0x94
10002588:	9305      	str	r3, [sp, #20]
1000258a:	9b24      	ldr	r3, [sp, #144]	@ 0x90
1000258c:	9304      	str	r3, [sp, #16]
1000258e:	9503      	str	r5, [sp, #12]
10002590:	f89d 3080 	ldrb.w	r3, [sp, #128]	@ 0x80
10002594:	9302      	str	r3, [sp, #8]
10002596:	f8cd a004 	str.w	sl, [sp, #4]
1000259a:	ab0c      	add	r3, sp, #48	@ 0x30
1000259c:	9300      	str	r3, [sp, #0]
1000259e:	4643      	mov	r3, r8
100025a0:	9a0b      	ldr	r2, [sp, #44]	@ 0x2c
100025a2:	990a      	ldr	r1, [sp, #40]	@ 0x28
100025a4:	9809      	ldr	r0, [sp, #36]	@ 0x24
100025a6:	f7ff febd 	bl	10002324 <_ntoa_format>
100025aa:	b015      	add	sp, #84	@ 0x54
100025ac:	e8bd 8ff0 	ldmia.w	sp!, {r4, r5, r6, r7, r8, r9, sl, fp, pc}

100025b0 <_etoa>:
100025b0:	e92d 4ff0 	stmdb	sp!, {r4, r5, r6, r7, r8, r9, sl, fp, lr}
100025b4:	b091      	sub	sp, #68	@ 0x44
100025b6:	4604      	mov	r4, r0
100025b8:	460d      	mov	r5, r1
100025ba:	4617      	mov	r7, r2
100025bc:	461e      	mov	r6, r3
100025be:	e9dd 231a 	ldrd	r2, r3, [sp, #104]	@ 0x68
100025c2:	4610      	mov	r0, r2
100025c4:	4619      	mov	r1, r3
100025c6:	f7ff fdf5 	bl	100021b4 <__wrap___aeabi_dcmpun>
100025ca:	2800      	cmp	r0, #0
100025cc:	f040 80ed 	bne.w	100027aa <_etoa+0x1fa>
100025d0:	f04f 32ff 	mov.w	r2, #4294967295
100025d4:	4bae      	ldr	r3, [pc, #696]	@ (10002890 <_etoa+0x2e0>)
100025d6:	e9dd 011a 	ldrd	r0, r1, [sp, #104]	@ 0x68
100025da:	f7ff fe39 	bl	10002250 <__wrap___aeabi_dcmpgt>
100025de:	2800      	cmp	r0, #0
100025e0:	f040 80e3 	bne.w	100027aa <_etoa+0x1fa>
100025e4:	f04f 32ff 	mov.w	r2, #4294967295
100025e8:	f46f 1380 	mvn.w	r3, #1048576	@ 0x100000
100025ec:	e9dd 011a 	ldrd	r0, r1, [sp, #104]	@ 0x68
100025f0:	f7ff fdf2 	bl	100021d8 <__wrap___aeabi_dcmplt>
100025f4:	2800      	cmp	r0, #0
100025f6:	f040 80d8 	bne.w	100027aa <_etoa+0x1fa>
100025fa:	2200      	movs	r2, #0
100025fc:	2300      	movs	r3, #0
100025fe:	e9dd 011a 	ldrd	r0, r1, [sp, #104]	@ 0x68
10002602:	f7ff fde9 	bl	100021d8 <__wrap___aeabi_dcmplt>
10002606:	2800      	cmp	r0, #0
10002608:	f040 80e2 	bne.w	100027d0 <_etoa+0x220>
1000260c:	ed9d 7b1a 	vldr	d7, [sp, #104]	@ 0x68
10002610:	ed8d 7b06 	vstr	d7, [sp, #24]
10002614:	9b1e      	ldr	r3, [sp, #120]	@ 0x78
10002616:	f413 6380 	ands.w	r3, r3, #1024	@ 0x400
1000261a:	930d      	str	r3, [sp, #52]	@ 0x34
1000261c:	d101      	bne.n	10002622 <_etoa+0x72>
1000261e:	2306      	movs	r3, #6
10002620:	931c      	str	r3, [sp, #112]	@ 0x70
10002622:	e9dd 2306 	ldrd	r2, r3, [sp, #24]
10002626:	4610      	mov	r0, r2
10002628:	4619      	mov	r1, r3
1000262a:	e9cd 0108 	strd	r0, r1, [sp, #32]
1000262e:	ea52 0103 	orrs.w	r1, r2, r3
10002632:	f000 80d8 	beq.w	100027e6 <_etoa+0x236>
10002636:	f3c3 500a 	ubfx	r0, r3, #20, #11
1000263a:	f3c3 0313 	ubfx	r3, r3, #0, #20
1000263e:	4690      	mov	r8, r2
10002640:	f043 597f 	orr.w	r9, r3, #1069547520	@ 0x3fc00000
10002644:	f449 1940 	orr.w	r9, r9, #3145728	@ 0x300000
10002648:	f2a0 30ff 	subw	r0, r0, #1023	@ 0x3ff
1000264c:	f7ff fd6a 	bl	10002124 <__wrap___aeabi_i2d>
10002650:	a37d      	add	r3, pc, #500	@ (adr r3, 10002848 <_etoa+0x298>)
10002652:	e9d3 2300 	ldrd	r2, r3, [r3]
10002656:	f7ff fcf1 	bl	1000203c <__wrap___aeabi_dmul>
1000265a:	a37d      	add	r3, pc, #500	@ (adr r3, 10002850 <_etoa+0x2a0>)
1000265c:	e9d3 2300 	ldrd	r2, r3, [r3]
10002660:	f7ff fcc4 	bl	10001fec <__wrap___aeabi_dadd>
10002664:	4682      	mov	sl, r0
10002666:	468b      	mov	fp, r1
10002668:	2200      	movs	r2, #0
1000266a:	4b8a      	ldr	r3, [pc, #552]	@ (10002894 <_etoa+0x2e4>)
1000266c:	4640      	mov	r0, r8
1000266e:	4649      	mov	r1, r9
10002670:	f7ff fcd0 	bl	10002014 <__wrap___aeabi_dsub>
10002674:	a378      	add	r3, pc, #480	@ (adr r3, 10002858 <_etoa+0x2a8>)
10002676:	e9d3 2300 	ldrd	r2, r3, [r3]
1000267a:	f7ff fcdf 	bl	1000203c <__wrap___aeabi_dmul>
1000267e:	4602      	mov	r2, r0
10002680:	460b      	mov	r3, r1
10002682:	4650      	mov	r0, sl
10002684:	4659      	mov	r1, fp
10002686:	f7ff fcb1 	bl	10001fec <__wrap___aeabi_dadd>
1000268a:	f7ff fd6f 	bl	1000216c <__wrap___aeabi_d2iz>
1000268e:	4682      	mov	sl, r0
10002690:	f7ff fd48 	bl	10002124 <__wrap___aeabi_i2d>
10002694:	4680      	mov	r8, r0
10002696:	4689      	mov	r9, r1
10002698:	a371      	add	r3, pc, #452	@ (adr r3, 10002860 <_etoa+0x2b0>)
1000269a:	e9d3 2300 	ldrd	r2, r3, [r3]
1000269e:	f7ff fccd 	bl	1000203c <__wrap___aeabi_dmul>
100026a2:	2200      	movs	r2, #0
100026a4:	4b7c      	ldr	r3, [pc, #496]	@ (10002898 <_etoa+0x2e8>)
100026a6:	f7ff fca1 	bl	10001fec <__wrap___aeabi_dadd>
100026aa:	f7ff fd5f 	bl	1000216c <__wrap___aeabi_d2iz>
100026ae:	4683      	mov	fp, r0
100026b0:	a36d      	add	r3, pc, #436	@ (adr r3, 10002868 <_etoa+0x2b8>)
100026b2:	e9d3 2300 	ldrd	r2, r3, [r3]
100026b6:	4640      	mov	r0, r8
100026b8:	4649      	mov	r1, r9
100026ba:	f7ff fcbf 	bl	1000203c <__wrap___aeabi_dmul>
100026be:	4680      	mov	r8, r0
100026c0:	4689      	mov	r9, r1
100026c2:	4658      	mov	r0, fp
100026c4:	f7ff fd2e 	bl	10002124 <__wrap___aeabi_i2d>
100026c8:	a369      	add	r3, pc, #420	@ (adr r3, 10002870 <_etoa+0x2c0>)
100026ca:	e9d3 2300 	ldrd	r2, r3, [r3]
100026ce:	f7ff fcb5 	bl	1000203c <__wrap___aeabi_dmul>
100026d2:	4602      	mov	r2, r0
100026d4:	460b      	mov	r3, r1
100026d6:	4640      	mov	r0, r8
100026d8:	4649      	mov	r1, r9
100026da:	f7ff fc9b 	bl	10002014 <__wrap___aeabi_dsub>
100026de:	4680      	mov	r8, r0
100026e0:	4689      	mov	r9, r1
100026e2:	4602      	mov	r2, r0
100026e4:	460b      	mov	r3, r1
100026e6:	f7ff fca9 	bl	1000203c <__wrap___aeabi_dmul>
100026ea:	e9cd 010a 	strd	r0, r1, [sp, #40]	@ 0x28
100026ee:	f20b 3bff 	addw	fp, fp, #1023	@ 0x3ff
100026f2:	2100      	movs	r1, #0
100026f4:	2200      	movs	r2, #0
100026f6:	e9cd 1208 	strd	r1, r2, [sp, #32]
100026fa:	ea4f 530b 	mov.w	r3, fp, lsl #20
100026fe:	9309      	str	r3, [sp, #36]	@ 0x24
10002700:	2300      	movs	r3, #0
10002702:	9308      	str	r3, [sp, #32]
10002704:	4642      	mov	r2, r8
10002706:	464b      	mov	r3, r9
10002708:	4640      	mov	r0, r8
1000270a:	4649      	mov	r1, r9
1000270c:	f7ff fc6e 	bl	10001fec <__wrap___aeabi_dadd>
10002710:	e9cd 010e 	strd	r0, r1, [sp, #56]	@ 0x38
10002714:	4642      	mov	r2, r8
10002716:	464b      	mov	r3, r9
10002718:	2000      	movs	r0, #0
1000271a:	f04f 4180 	mov.w	r1, #1073741824	@ 0x40000000
1000271e:	f7ff fc79 	bl	10002014 <__wrap___aeabi_dsub>
10002722:	4680      	mov	r8, r0
10002724:	4689      	mov	r9, r1
10002726:	2200      	movs	r2, #0
10002728:	4b5c      	ldr	r3, [pc, #368]	@ (1000289c <_etoa+0x2ec>)
1000272a:	e9dd 010a 	ldrd	r0, r1, [sp, #40]	@ 0x28
1000272e:	f7ff fcab 	bl	10002088 <__wrap___aeabi_ddiv>
10002732:	2200      	movs	r2, #0
10002734:	4b5a      	ldr	r3, [pc, #360]	@ (100028a0 <_etoa+0x2f0>)
10002736:	f7ff fc59 	bl	10001fec <__wrap___aeabi_dadd>
1000273a:	4602      	mov	r2, r0
1000273c:	460b      	mov	r3, r1
1000273e:	e9dd 010a 	ldrd	r0, r1, [sp, #40]	@ 0x28
10002742:	f7ff fca1 	bl	10002088 <__wrap___aeabi_ddiv>
10002746:	2200      	movs	r2, #0
10002748:	4b56      	ldr	r3, [pc, #344]	@ (100028a4 <_etoa+0x2f4>)
1000274a:	f7ff fc4f 	bl	10001fec <__wrap___aeabi_dadd>
1000274e:	4602      	mov	r2, r0
10002750:	460b      	mov	r3, r1
10002752:	e9dd 010a 	ldrd	r0, r1, [sp, #40]	@ 0x28
10002756:	f7ff fc97 	bl	10002088 <__wrap___aeabi_ddiv>
1000275a:	4602      	mov	r2, r0
1000275c:	460b      	mov	r3, r1
1000275e:	4640      	mov	r0, r8
10002760:	4649      	mov	r1, r9
10002762:	f7ff fc43 	bl	10001fec <__wrap___aeabi_dadd>
10002766:	4602      	mov	r2, r0
10002768:	460b      	mov	r3, r1
1000276a:	e9dd 010e 	ldrd	r0, r1, [sp, #56]	@ 0x38
1000276e:	f7ff fc8b 	bl	10002088 <__wrap___aeabi_ddiv>
10002772:	2200      	movs	r2, #0
10002774:	4b4c      	ldr	r3, [pc, #304]	@ (100028a8 <_etoa+0x2f8>)
10002776:	f7ff fc39 	bl	10001fec <__wrap___aeabi_dadd>
1000277a:	e9dd 2308 	ldrd	r2, r3, [sp, #32]
1000277e:	f7ff fc5d 	bl	1000203c <__wrap___aeabi_dmul>
10002782:	4680      	mov	r8, r0
10002784:	4689      	mov	r9, r1
10002786:	e9cd 8908 	strd	r8, r9, [sp, #32]
1000278a:	e9dd 2306 	ldrd	r2, r3, [sp, #24]
1000278e:	f7ff fd5f 	bl	10002250 <__wrap___aeabi_dcmpgt>
10002792:	b350      	cbz	r0, 100027ea <_etoa+0x23a>
10002794:	f10a 3aff 	add.w	sl, sl, #4294967295
10002798:	2200      	movs	r2, #0
1000279a:	4b41      	ldr	r3, [pc, #260]	@ (100028a0 <_etoa+0x2f0>)
1000279c:	4640      	mov	r0, r8
1000279e:	4649      	mov	r1, r9
100027a0:	f7ff fc72 	bl	10002088 <__wrap___aeabi_ddiv>
100027a4:	e9cd 0108 	strd	r0, r1, [sp, #32]
100027a8:	e01f      	b.n	100027ea <_etoa+0x23a>
100027aa:	9b1e      	ldr	r3, [sp, #120]	@ 0x78
100027ac:	9304      	str	r3, [sp, #16]
100027ae:	9b1d      	ldr	r3, [sp, #116]	@ 0x74
100027b0:	9303      	str	r3, [sp, #12]
100027b2:	9b1c      	ldr	r3, [sp, #112]	@ 0x70
100027b4:	9302      	str	r3, [sp, #8]
100027b6:	ed9d 7b1a 	vldr	d7, [sp, #104]	@ 0x68
100027ba:	ed8d 7b00 	vstr	d7, [sp]
100027be:	4633      	mov	r3, r6
100027c0:	463a      	mov	r2, r7
100027c2:	4629      	mov	r1, r5
100027c4:	4620      	mov	r0, r4
100027c6:	f000 f903 	bl	100029d0 <_ftoa>
100027ca:	b011      	add	sp, #68	@ 0x44
100027cc:	e8bd 8ff0 	ldmia.w	sp!, {r4, r5, r6, r7, r8, r9, sl, fp, pc}
100027d0:	ed9f 7b29 	vldr	d7, [pc, #164]	@ 10002878 <_etoa+0x2c8>
100027d4:	ed8d 7b06 	vstr	d7, [sp, #24]
100027d8:	9b1a      	ldr	r3, [sp, #104]	@ 0x68
100027da:	9306      	str	r3, [sp, #24]
100027dc:	9b1b      	ldr	r3, [sp, #108]	@ 0x6c
100027de:	f103 4300 	add.w	r3, r3, #2147483648	@ 0x80000000
100027e2:	9307      	str	r3, [sp, #28]
100027e4:	e716      	b.n	10002614 <_etoa+0x64>
100027e6:	f04f 0a00 	mov.w	sl, #0
100027ea:	f10a 0363 	add.w	r3, sl, #99	@ 0x63
100027ee:	2bc6      	cmp	r3, #198	@ 0xc6
100027f0:	d827      	bhi.n	10002842 <_etoa+0x292>
100027f2:	f04f 0804 	mov.w	r8, #4
100027f6:	9b1e      	ldr	r3, [sp, #120]	@ 0x78
100027f8:	f413 6f00 	tst.w	r3, #2048	@ 0x800
100027fc:	d05f      	beq.n	100028be <_etoa+0x30e>
100027fe:	e9dd 1208 	ldrd	r1, r2, [sp, #32]
10002802:	4613      	mov	r3, r2
10002804:	430b      	orrs	r3, r1
10002806:	d013      	beq.n	10002830 <_etoa+0x280>
10002808:	a31d      	add	r3, pc, #116	@ (adr r3, 10002880 <_etoa+0x2d0>)
1000280a:	e9d3 2300 	ldrd	r2, r3, [r3]
1000280e:	e9dd 0106 	ldrd	r0, r1, [sp, #24]
10002812:	f7ff fd09 	bl	10002228 <__wrap___aeabi_dcmpge>
10002816:	2800      	cmp	r0, #0
10002818:	f000 80b4 	beq.w	10002984 <_etoa+0x3d4>
1000281c:	a31a      	add	r3, pc, #104	@ (adr r3, 10002888 <_etoa+0x2d8>)
1000281e:	e9d3 2300 	ldrd	r2, r3, [r3]
10002822:	e9dd 0106 	ldrd	r0, r1, [sp, #24]
10002826:	f7ff fcd7 	bl	100021d8 <__wrap___aeabi_dcmplt>
1000282a:	2800      	cmp	r0, #0
1000282c:	f000 80aa 	beq.w	10002984 <_etoa+0x3d4>
10002830:	9b1c      	ldr	r3, [sp, #112]	@ 0x70
10002832:	4553      	cmp	r3, sl
10002834:	dd3a      	ble.n	100028ac <_etoa+0x2fc>
10002836:	eba3 0a0a 	sub.w	sl, r3, sl
1000283a:	f10a 33ff 	add.w	r3, sl, #4294967295
1000283e:	931c      	str	r3, [sp, #112]	@ 0x70
10002840:	e036      	b.n	100028b0 <_etoa+0x300>
10002842:	f04f 0805 	mov.w	r8, #5
10002846:	e7d6      	b.n	100027f6 <_etoa+0x246>
10002848:	509f79fb 	.word	0x509f79fb
1000284c:	3fd34413 	.word	0x3fd34413
10002850:	8b60c8b3 	.word	0x8b60c8b3
10002854:	3fc68a28 	.word	0x3fc68a28
10002858:	636f4361 	.word	0x636f4361
1000285c:	3fd287a7 	.word	0x3fd287a7
10002860:	0979a371 	.word	0x0979a371
10002864:	400a934f 	.word	0x400a934f
10002868:	bbb55516 	.word	0xbbb55516
1000286c:	40026bb1 	.word	0x40026bb1
10002870:	fefa39ef 	.word	0xfefa39ef
10002874:	3fe62e42 	.word	0x3fe62e42
	...
10002880:	eb1c432d 	.word	0xeb1c432d
10002884:	3f1a36e2 	.word	0x3f1a36e2
10002888:	00000000 	.word	0x00000000
1000288c:	412e8480 	.word	0x412e8480
10002890:	7fefffff 	.word	0x7fefffff
10002894:	3ff80000 	.word	0x3ff80000
10002898:	3fe00000 	.word	0x3fe00000
1000289c:	402c0000 	.word	0x402c0000
100028a0:	40240000 	.word	0x40240000
100028a4:	40180000 	.word	0x40180000
100028a8:	3ff00000 	.word	0x3ff00000
100028ac:	2300      	movs	r3, #0
100028ae:	931c      	str	r3, [sp, #112]	@ 0x70
100028b0:	9b1e      	ldr	r3, [sp, #120]	@ 0x78
100028b2:	f443 6380 	orr.w	r3, r3, #1024	@ 0x400
100028b6:	931e      	str	r3, [sp, #120]	@ 0x78
100028b8:	f04f 0800 	mov.w	r8, #0
100028bc:	46c2      	mov	sl, r8
100028be:	9b1d      	ldr	r3, [sp, #116]	@ 0x74
100028c0:	4598      	cmp	r8, r3
100028c2:	d269      	bcs.n	10002998 <_etoa+0x3e8>
100028c4:	eba3 0908 	sub.w	r9, r3, r8
100028c8:	9b1e      	ldr	r3, [sp, #120]	@ 0x78
100028ca:	f013 0b02 	ands.w	fp, r3, #2
100028ce:	d004      	beq.n	100028da <_etoa+0x32a>
100028d0:	f1b8 0f00 	cmp.w	r8, #0
100028d4:	d001      	beq.n	100028da <_etoa+0x32a>
100028d6:	f04f 0900 	mov.w	r9, #0
100028da:	f1ba 0f00 	cmp.w	sl, #0
100028de:	d007      	beq.n	100028f0 <_etoa+0x340>
100028e0:	e9dd 2308 	ldrd	r2, r3, [sp, #32]
100028e4:	e9dd 0106 	ldrd	r0, r1, [sp, #24]
100028e8:	f7ff fbce 	bl	10002088 <__wrap___aeabi_ddiv>
100028ec:	e9cd 0106 	strd	r0, r1, [sp, #24]
100028f0:	2200      	movs	r2, #0
100028f2:	2300      	movs	r3, #0
100028f4:	e9dd 011a 	ldrd	r0, r1, [sp, #104]	@ 0x68
100028f8:	f7ff fc6e 	bl	100021d8 <__wrap___aeabi_dcmplt>
100028fc:	2800      	cmp	r0, #0
100028fe:	d14e      	bne.n	1000299e <_etoa+0x3ee>
10002900:	9b1e      	ldr	r3, [sp, #120]	@ 0x78
10002902:	f423 6300 	bic.w	r3, r3, #2048	@ 0x800
10002906:	9304      	str	r3, [sp, #16]
10002908:	f8cd 900c 	str.w	r9, [sp, #12]
1000290c:	9b1c      	ldr	r3, [sp, #112]	@ 0x70
1000290e:	9302      	str	r3, [sp, #8]
10002910:	ed9d 7b06 	vldr	d7, [sp, #24]
10002914:	ed8d 7b00 	vstr	d7, [sp]
10002918:	4633      	mov	r3, r6
1000291a:	463a      	mov	r2, r7
1000291c:	4629      	mov	r1, r5
1000291e:	4620      	mov	r0, r4
10002920:	f000 f856 	bl	100029d0 <_ftoa>
10002924:	f1b8 0f00 	cmp.w	r8, #0
10002928:	f43f af4f 	beq.w	100027ca <_etoa+0x21a>
1000292c:	9b1e      	ldr	r3, [sp, #120]	@ 0x78
1000292e:	f013 0f20 	tst.w	r3, #32
10002932:	d03c      	beq.n	100029ae <_etoa+0x3fe>
10002934:	f04f 0c45 	mov.w	ip, #69	@ 0x45
10002938:	f100 0901 	add.w	r9, r0, #1
1000293c:	4633      	mov	r3, r6
1000293e:	4602      	mov	r2, r0
10002940:	4629      	mov	r1, r5
10002942:	4660      	mov	r0, ip
10002944:	47a0      	blx	r4
10002946:	ea8a 72ea 	eor.w	r2, sl, sl, asr #31
1000294a:	eba2 72ea 	sub.w	r2, r2, sl, asr #31
1000294e:	2305      	movs	r3, #5
10002950:	9305      	str	r3, [sp, #20]
10002952:	f108 33ff 	add.w	r3, r8, #4294967295
10002956:	9304      	str	r3, [sp, #16]
10002958:	2300      	movs	r3, #0
1000295a:	9303      	str	r3, [sp, #12]
1000295c:	230a      	movs	r3, #10
1000295e:	9302      	str	r3, [sp, #8]
10002960:	ea4f 73da 	mov.w	r3, sl, lsr #31
10002964:	9301      	str	r3, [sp, #4]
10002966:	9200      	str	r2, [sp, #0]
10002968:	4633      	mov	r3, r6
1000296a:	464a      	mov	r2, r9
1000296c:	4629      	mov	r1, r5
1000296e:	4620      	mov	r0, r4
10002970:	f7ff fd73 	bl	1000245a <_ntoa_long>
10002974:	f1bb 0f00 	cmp.w	fp, #0
10002978:	f43f af27 	beq.w	100027ca <_etoa+0x21a>
1000297c:	4602      	mov	r2, r0
1000297e:	f8dd 9074 	ldr.w	r9, [sp, #116]	@ 0x74
10002982:	e01e      	b.n	100029c2 <_etoa+0x412>
10002984:	9b1c      	ldr	r3, [sp, #112]	@ 0x70
10002986:	2b00      	cmp	r3, #0
10002988:	d099      	beq.n	100028be <_etoa+0x30e>
1000298a:	9b0d      	ldr	r3, [sp, #52]	@ 0x34
1000298c:	2b00      	cmp	r3, #0
1000298e:	d096      	beq.n	100028be <_etoa+0x30e>
10002990:	9b1c      	ldr	r3, [sp, #112]	@ 0x70
10002992:	3b01      	subs	r3, #1
10002994:	931c      	str	r3, [sp, #112]	@ 0x70
10002996:	e792      	b.n	100028be <_etoa+0x30e>
10002998:	f04f 0900 	mov.w	r9, #0
1000299c:	e794      	b.n	100028c8 <_etoa+0x318>
1000299e:	e9dd 0106 	ldrd	r0, r1, [sp, #24]
100029a2:	4602      	mov	r2, r0
100029a4:	f101 4300 	add.w	r3, r1, #2147483648	@ 0x80000000
100029a8:	e9cd 2306 	strd	r2, r3, [sp, #24]
100029ac:	e7a8      	b.n	10002900 <_etoa+0x350>
100029ae:	f04f 0c65 	mov.w	ip, #101	@ 0x65
100029b2:	e7c1      	b.n	10002938 <_etoa+0x388>
100029b4:	f102 0801 	add.w	r8, r2, #1
100029b8:	4633      	mov	r3, r6
100029ba:	4629      	mov	r1, r5
100029bc:	2020      	movs	r0, #32
100029be:	47a0      	blx	r4
100029c0:	4642      	mov	r2, r8
100029c2:	1bd3      	subs	r3, r2, r7
100029c4:	454b      	cmp	r3, r9
100029c6:	d3f5      	bcc.n	100029b4 <_etoa+0x404>
100029c8:	4610      	mov	r0, r2
100029ca:	e6fe      	b.n	100027ca <_etoa+0x21a>
100029cc:	0000      	movs	r0, r0
	...

100029d0 <_ftoa>:
100029d0:	e92d 4ff0 	stmdb	sp!, {r4, r5, r6, r7, r8, r9, sl, fp, lr}
100029d4:	ed2d 8b02 	vpush	{d8}
100029d8:	b095      	sub	sp, #84	@ 0x54
100029da:	9007      	str	r0, [sp, #28]
100029dc:	910a      	str	r1, [sp, #40]	@ 0x28
100029de:	4692      	mov	sl, r2
100029e0:	469b      	mov	fp, r3
100029e2:	e9dd 8920 	ldrd	r8, r9, [sp, #128]	@ 0x80
100029e6:	9d22      	ldr	r5, [sp, #136]	@ 0x88
100029e8:	4642      	mov	r2, r8
100029ea:	464b      	mov	r3, r9
100029ec:	4640      	mov	r0, r8
100029ee:	4649      	mov	r1, r9
100029f0:	f7ff fbe0 	bl	100021b4 <__wrap___aeabi_dcmpun>
100029f4:	2800      	cmp	r0, #0
100029f6:	d135      	bne.n	10002a64 <_ftoa+0x94>
100029f8:	f04f 32ff 	mov.w	r2, #4294967295
100029fc:	f46f 1380 	mvn.w	r3, #1048576	@ 0x100000
10002a00:	4640      	mov	r0, r8
10002a02:	4649      	mov	r1, r9
10002a04:	f7ff fbe8 	bl	100021d8 <__wrap___aeabi_dcmplt>
10002a08:	2800      	cmp	r0, #0
10002a0a:	d13a      	bne.n	10002a82 <_ftoa+0xb2>
10002a0c:	f04f 32ff 	mov.w	r2, #4294967295
10002a10:	4b9f      	ldr	r3, [pc, #636]	@ (10002c90 <_ftoa+0x2c0>)
10002a12:	4640      	mov	r0, r8
10002a14:	4649      	mov	r1, r9
10002a16:	f7ff fc1b 	bl	10002250 <__wrap___aeabi_dcmpgt>
10002a1a:	2800      	cmp	r0, #0
10002a1c:	d140      	bne.n	10002aa0 <_ftoa+0xd0>
10002a1e:	a398      	add	r3, pc, #608	@ (adr r3, 10002c80 <_ftoa+0x2b0>)
10002a20:	e9d3 2300 	ldrd	r2, r3, [r3]
10002a24:	4640      	mov	r0, r8
10002a26:	4649      	mov	r1, r9
10002a28:	f7ff fc12 	bl	10002250 <__wrap___aeabi_dcmpgt>
10002a2c:	2800      	cmp	r0, #0
10002a2e:	d14f      	bne.n	10002ad0 <_ftoa+0x100>
10002a30:	a395      	add	r3, pc, #596	@ (adr r3, 10002c88 <_ftoa+0x2b8>)
10002a32:	e9d3 2300 	ldrd	r2, r3, [r3]
10002a36:	4640      	mov	r0, r8
10002a38:	4649      	mov	r1, r9
10002a3a:	f7ff fbcd 	bl	100021d8 <__wrap___aeabi_dcmplt>
10002a3e:	2800      	cmp	r0, #0
10002a40:	d146      	bne.n	10002ad0 <_ftoa+0x100>
10002a42:	2200      	movs	r2, #0
10002a44:	2300      	movs	r3, #0
10002a46:	4640      	mov	r0, r8
10002a48:	4649      	mov	r1, r9
10002a4a:	f7ff fbc5 	bl	100021d8 <__wrap___aeabi_dcmplt>
10002a4e:	2800      	cmp	r0, #0
10002a50:	d14c      	bne.n	10002aec <_ftoa+0x11c>
10002a52:	2300      	movs	r3, #0
10002a54:	930b      	str	r3, [sp, #44]	@ 0x2c
10002a56:	9b24      	ldr	r3, [sp, #144]	@ 0x90
10002a58:	f413 6f80 	tst.w	r3, #1024	@ 0x400
10002a5c:	f000 80b7 	beq.w	10002bce <_ftoa+0x1fe>
10002a60:	2400      	movs	r4, #0
10002a62:	e056      	b.n	10002b12 <_ftoa+0x142>
10002a64:	9b24      	ldr	r3, [sp, #144]	@ 0x90
10002a66:	9303      	str	r3, [sp, #12]
10002a68:	9b23      	ldr	r3, [sp, #140]	@ 0x8c
10002a6a:	9302      	str	r3, [sp, #8]
10002a6c:	2303      	movs	r3, #3
10002a6e:	9301      	str	r3, [sp, #4]
10002a70:	4b88      	ldr	r3, [pc, #544]	@ (10002c94 <_ftoa+0x2c4>)
10002a72:	9300      	str	r3, [sp, #0]
10002a74:	465b      	mov	r3, fp
10002a76:	4652      	mov	r2, sl
10002a78:	990a      	ldr	r1, [sp, #40]	@ 0x28
10002a7a:	9807      	ldr	r0, [sp, #28]
10002a7c:	f7ff fc13 	bl	100022a6 <_out_rev>
10002a80:	e137      	b.n	10002cf2 <_ftoa+0x322>
10002a82:	9b24      	ldr	r3, [sp, #144]	@ 0x90
10002a84:	9303      	str	r3, [sp, #12]
10002a86:	9b23      	ldr	r3, [sp, #140]	@ 0x8c
10002a88:	9302      	str	r3, [sp, #8]
10002a8a:	2304      	movs	r3, #4
10002a8c:	9301      	str	r3, [sp, #4]
10002a8e:	4b82      	ldr	r3, [pc, #520]	@ (10002c98 <_ftoa+0x2c8>)
10002a90:	9300      	str	r3, [sp, #0]
10002a92:	465b      	mov	r3, fp
10002a94:	4652      	mov	r2, sl
10002a96:	990a      	ldr	r1, [sp, #40]	@ 0x28
10002a98:	9807      	ldr	r0, [sp, #28]
10002a9a:	f7ff fc04 	bl	100022a6 <_out_rev>
10002a9e:	e128      	b.n	10002cf2 <_ftoa+0x322>
10002aa0:	9b24      	ldr	r3, [sp, #144]	@ 0x90
10002aa2:	f013 0304 	ands.w	r3, r3, #4
10002aa6:	d00f      	beq.n	10002ac8 <_ftoa+0xf8>
10002aa8:	4a7c      	ldr	r2, [pc, #496]	@ (10002c9c <_ftoa+0x2cc>)
10002aaa:	b17b      	cbz	r3, 10002acc <_ftoa+0xfc>
10002aac:	2304      	movs	r3, #4
10002aae:	9924      	ldr	r1, [sp, #144]	@ 0x90
10002ab0:	9103      	str	r1, [sp, #12]
10002ab2:	9923      	ldr	r1, [sp, #140]	@ 0x8c
10002ab4:	9102      	str	r1, [sp, #8]
10002ab6:	9301      	str	r3, [sp, #4]
10002ab8:	9200      	str	r2, [sp, #0]
10002aba:	465b      	mov	r3, fp
10002abc:	4652      	mov	r2, sl
10002abe:	990a      	ldr	r1, [sp, #40]	@ 0x28
10002ac0:	9807      	ldr	r0, [sp, #28]
10002ac2:	f7ff fbf0 	bl	100022a6 <_out_rev>
10002ac6:	e114      	b.n	10002cf2 <_ftoa+0x322>
10002ac8:	4a75      	ldr	r2, [pc, #468]	@ (10002ca0 <_ftoa+0x2d0>)
10002aca:	e7ee      	b.n	10002aaa <_ftoa+0xda>
10002acc:	2303      	movs	r3, #3
10002ace:	e7ee      	b.n	10002aae <_ftoa+0xde>
10002ad0:	9b24      	ldr	r3, [sp, #144]	@ 0x90
10002ad2:	9304      	str	r3, [sp, #16]
10002ad4:	9b23      	ldr	r3, [sp, #140]	@ 0x8c
10002ad6:	9303      	str	r3, [sp, #12]
10002ad8:	9502      	str	r5, [sp, #8]
10002ada:	e9cd 8900 	strd	r8, r9, [sp]
10002ade:	465b      	mov	r3, fp
10002ae0:	4652      	mov	r2, sl
10002ae2:	990a      	ldr	r1, [sp, #40]	@ 0x28
10002ae4:	9807      	ldr	r0, [sp, #28]
10002ae6:	f7ff fd63 	bl	100025b0 <_etoa>
10002aea:	e102      	b.n	10002cf2 <_ftoa+0x322>
10002aec:	4642      	mov	r2, r8
10002aee:	464b      	mov	r3, r9
10002af0:	2000      	movs	r0, #0
10002af2:	2100      	movs	r1, #0
10002af4:	f7ff fa8e 	bl	10002014 <__wrap___aeabi_dsub>
10002af8:	4680      	mov	r8, r0
10002afa:	4689      	mov	r9, r1
10002afc:	2301      	movs	r3, #1
10002afe:	930b      	str	r3, [sp, #44]	@ 0x2c
10002b00:	e7a9      	b.n	10002a56 <_ftoa+0x86>
10002b02:	f104 0350 	add.w	r3, r4, #80	@ 0x50
10002b06:	446b      	add	r3, sp
10002b08:	2230      	movs	r2, #48	@ 0x30
10002b0a:	f803 2c20 	strb.w	r2, [r3, #-32]
10002b0e:	3d01      	subs	r5, #1
10002b10:	3401      	adds	r4, #1
10002b12:	2c1f      	cmp	r4, #31
10002b14:	d801      	bhi.n	10002b1a <_ftoa+0x14a>
10002b16:	2d09      	cmp	r5, #9
10002b18:	d8f3      	bhi.n	10002b02 <_ftoa+0x132>
10002b1a:	4640      	mov	r0, r8
10002b1c:	4649      	mov	r1, r9
10002b1e:	f7ff fb25 	bl	1000216c <__wrap___aeabi_d2iz>
10002b22:	4606      	mov	r6, r0
10002b24:	f7ff fafe 	bl	10002124 <__wrap___aeabi_i2d>
10002b28:	4602      	mov	r2, r0
10002b2a:	460b      	mov	r3, r1
10002b2c:	4640      	mov	r0, r8
10002b2e:	4649      	mov	r1, r9
10002b30:	f7ff fa70 	bl	10002014 <__wrap___aeabi_dsub>
10002b34:	4b5b      	ldr	r3, [pc, #364]	@ (10002ca4 <_ftoa+0x2d4>)
10002b36:	eb03 03c5 	add.w	r3, r3, r5, lsl #3
10002b3a:	ed93 8b00 	vldr	d8, [r3]
10002b3e:	ec53 2b18 	vmov	r2, r3, d8
10002b42:	f7ff fa7b 	bl	1000203c <__wrap___aeabi_dmul>
10002b46:	4602      	mov	r2, r0
10002b48:	460b      	mov	r3, r1
10002b4a:	e9cd 2308 	strd	r2, r3, [sp, #32]
10002b4e:	f7ff fb1f 	bl	10002190 <__wrap___aeabi_d2uiz>
10002b52:	4607      	mov	r7, r0
10002b54:	f7ff faf8 	bl	10002148 <__wrap___aeabi_ui2d>
10002b58:	4602      	mov	r2, r0
10002b5a:	460b      	mov	r3, r1
10002b5c:	e9dd 0108 	ldrd	r0, r1, [sp, #32]
10002b60:	f7ff fa58 	bl	10002014 <__wrap___aeabi_dsub>
10002b64:	4602      	mov	r2, r0
10002b66:	460b      	mov	r3, r1
10002b68:	e9cd 2308 	strd	r2, r3, [sp, #32]
10002b6c:	2200      	movs	r2, #0
10002b6e:	4b4e      	ldr	r3, [pc, #312]	@ (10002ca8 <_ftoa+0x2d8>)
10002b70:	f7ff fb6e 	bl	10002250 <__wrap___aeabi_dcmpgt>
10002b74:	b368      	cbz	r0, 10002bd2 <_ftoa+0x202>
10002b76:	3701      	adds	r7, #1
10002b78:	4638      	mov	r0, r7
10002b7a:	f7ff fae5 	bl	10002148 <__wrap___aeabi_ui2d>
10002b7e:	4602      	mov	r2, r0
10002b80:	460b      	mov	r3, r1
10002b82:	ec51 0b18 	vmov	r0, r1, d8
10002b86:	f7ff fb3b 	bl	10002200 <__wrap___aeabi_dcmple>
10002b8a:	b108      	cbz	r0, 10002b90 <_ftoa+0x1c0>
10002b8c:	3601      	adds	r6, #1
10002b8e:	2700      	movs	r7, #0
10002b90:	bb6d      	cbnz	r5, 10002bee <_ftoa+0x21e>
10002b92:	4630      	mov	r0, r6
10002b94:	f7ff fac6 	bl	10002124 <__wrap___aeabi_i2d>
10002b98:	4602      	mov	r2, r0
10002b9a:	460b      	mov	r3, r1
10002b9c:	4640      	mov	r0, r8
10002b9e:	4649      	mov	r1, r9
10002ba0:	f7ff fa38 	bl	10002014 <__wrap___aeabi_dsub>
10002ba4:	4607      	mov	r7, r0
10002ba6:	4688      	mov	r8, r1
10002ba8:	2200      	movs	r2, #0
10002baa:	4b3f      	ldr	r3, [pc, #252]	@ (10002ca8 <_ftoa+0x2d8>)
10002bac:	f7ff fb14 	bl	100021d8 <__wrap___aeabi_dcmplt>
10002bb0:	2800      	cmp	r0, #0
10002bb2:	d14c      	bne.n	10002c4e <_ftoa+0x27e>
10002bb4:	2200      	movs	r2, #0
10002bb6:	4b3c      	ldr	r3, [pc, #240]	@ (10002ca8 <_ftoa+0x2d8>)
10002bb8:	4638      	mov	r0, r7
10002bba:	4641      	mov	r1, r8
10002bbc:	f7ff fb48 	bl	10002250 <__wrap___aeabi_dcmpgt>
10002bc0:	2800      	cmp	r0, #0
10002bc2:	d144      	bne.n	10002c4e <_ftoa+0x27e>
10002bc4:	f016 0f01 	tst.w	r6, #1
10002bc8:	d041      	beq.n	10002c4e <_ftoa+0x27e>
10002bca:	3601      	adds	r6, #1
10002bcc:	e03f      	b.n	10002c4e <_ftoa+0x27e>
10002bce:	2506      	movs	r5, #6
10002bd0:	e746      	b.n	10002a60 <_ftoa+0x90>
10002bd2:	2200      	movs	r2, #0
10002bd4:	4b34      	ldr	r3, [pc, #208]	@ (10002ca8 <_ftoa+0x2d8>)
10002bd6:	e9dd 0108 	ldrd	r0, r1, [sp, #32]
10002bda:	f7ff fafd 	bl	100021d8 <__wrap___aeabi_dcmplt>
10002bde:	2800      	cmp	r0, #0
10002be0:	d1d6      	bne.n	10002b90 <_ftoa+0x1c0>
10002be2:	b117      	cbz	r7, 10002bea <_ftoa+0x21a>
10002be4:	f017 0f01 	tst.w	r7, #1
10002be8:	d0d2      	beq.n	10002b90 <_ftoa+0x1c0>
10002bea:	3701      	adds	r7, #1
10002bec:	e7d0      	b.n	10002b90 <_ftoa+0x1c0>
10002bee:	2c1f      	cmp	r4, #31
10002bf0:	d817      	bhi.n	10002c22 <_ftoa+0x252>
10002bf2:	3d01      	subs	r5, #1
10002bf4:	4b2d      	ldr	r3, [pc, #180]	@ (10002cac <_ftoa+0x2dc>)
10002bf6:	fba3 2307 	umull	r2, r3, r3, r7
10002bfa:	08db      	lsrs	r3, r3, #3
10002bfc:	4619      	mov	r1, r3
10002bfe:	eb03 0383 	add.w	r3, r3, r3, lsl #2
10002c02:	eba7 0343 	sub.w	r3, r7, r3, lsl #1
10002c06:	1c62      	adds	r2, r4, #1
10002c08:	3330      	adds	r3, #48	@ 0x30
10002c0a:	f104 0050 	add.w	r0, r4, #80	@ 0x50
10002c0e:	eb0d 0400 	add.w	r4, sp, r0
10002c12:	f804 3c20 	strb.w	r3, [r4, #-32]
10002c16:	2f09      	cmp	r7, #9
10002c18:	d902      	bls.n	10002c20 <_ftoa+0x250>
10002c1a:	460f      	mov	r7, r1
10002c1c:	4614      	mov	r4, r2
10002c1e:	e7e6      	b.n	10002bee <_ftoa+0x21e>
10002c20:	4614      	mov	r4, r2
10002c22:	2c1f      	cmp	r4, #31
10002c24:	d80a      	bhi.n	10002c3c <_ftoa+0x26c>
10002c26:	1e6b      	subs	r3, r5, #1
10002c28:	b145      	cbz	r5, 10002c3c <_ftoa+0x26c>
10002c2a:	f104 0250 	add.w	r2, r4, #80	@ 0x50
10002c2e:	446a      	add	r2, sp
10002c30:	2130      	movs	r1, #48	@ 0x30
10002c32:	f802 1c20 	strb.w	r1, [r2, #-32]
10002c36:	461d      	mov	r5, r3
10002c38:	3401      	adds	r4, #1
10002c3a:	e7f2      	b.n	10002c22 <_ftoa+0x252>
10002c3c:	2c1f      	cmp	r4, #31
10002c3e:	d806      	bhi.n	10002c4e <_ftoa+0x27e>
10002c40:	f104 0350 	add.w	r3, r4, #80	@ 0x50
10002c44:	446b      	add	r3, sp
10002c46:	222e      	movs	r2, #46	@ 0x2e
10002c48:	f803 2c20 	strb.w	r2, [r3, #-32]
10002c4c:	3401      	adds	r4, #1
10002c4e:	2c1f      	cmp	r4, #31
10002c50:	d831      	bhi.n	10002cb6 <_ftoa+0x2e6>
10002c52:	4a17      	ldr	r2, [pc, #92]	@ (10002cb0 <_ftoa+0x2e0>)
10002c54:	fb82 3206 	smull	r3, r2, r2, r6
10002c58:	17f3      	asrs	r3, r6, #31
10002c5a:	ebc3 03a2 	rsb	r3, r3, r2, asr #2
10002c5e:	461a      	mov	r2, r3
10002c60:	eb03 0383 	add.w	r3, r3, r3, lsl #2
10002c64:	eba6 0343 	sub.w	r3, r6, r3, lsl #1
10002c68:	1c61      	adds	r1, r4, #1
10002c6a:	3330      	adds	r3, #48	@ 0x30
10002c6c:	f104 0050 	add.w	r0, r4, #80	@ 0x50
10002c70:	eb0d 0400 	add.w	r4, sp, r0
10002c74:	f804 3c20 	strb.w	r3, [r4, #-32]
10002c78:	4616      	mov	r6, r2
10002c7a:	b1da      	cbz	r2, 10002cb4 <_ftoa+0x2e4>
10002c7c:	460c      	mov	r4, r1
10002c7e:	e7e6      	b.n	10002c4e <_ftoa+0x27e>
10002c80:	00000000 	.word	0x00000000
10002c84:	41cdcd65 	.word	0x41cdcd65
10002c88:	00000000 	.word	0x00000000
10002c8c:	c1cdcd65 	.word	0xc1cdcd65
10002c90:	7fefffff 	.word	0x7fefffff
10002c94:	10006d9c 	.word	0x10006d9c
10002c98:	10006da0 	.word	0x10006da0
10002c9c:	10006d90 	.word	0x10006d90
10002ca0:	10006d98 	.word	0x10006d98
10002ca4:	10007398 	.word	0x10007398
10002ca8:	3fe00000 	.word	0x3fe00000
10002cac:	cccccccd 	.word	0xcccccccd
10002cb0:	66666667 	.word	0x66666667
10002cb4:	460c      	mov	r4, r1
10002cb6:	9b24      	ldr	r3, [sp, #144]	@ 0x90
10002cb8:	f003 0303 	and.w	r3, r3, #3
10002cbc:	2b01      	cmp	r3, #1
10002cbe:	d01d      	beq.n	10002cfc <_ftoa+0x32c>
10002cc0:	2c1f      	cmp	r4, #31
10002cc2:	d809      	bhi.n	10002cd8 <_ftoa+0x308>
10002cc4:	9b0b      	ldr	r3, [sp, #44]	@ 0x2c
10002cc6:	2b00      	cmp	r3, #0
10002cc8:	d035      	beq.n	10002d36 <_ftoa+0x366>
10002cca:	f104 0350 	add.w	r3, r4, #80	@ 0x50
10002cce:	446b      	add	r3, sp
10002cd0:	222d      	movs	r2, #45	@ 0x2d
10002cd2:	f803 2c20 	strb.w	r2, [r3, #-32]
10002cd6:	3401      	adds	r4, #1
10002cd8:	9b24      	ldr	r3, [sp, #144]	@ 0x90
10002cda:	9303      	str	r3, [sp, #12]
10002cdc:	9b23      	ldr	r3, [sp, #140]	@ 0x8c
10002cde:	9302      	str	r3, [sp, #8]
10002ce0:	9401      	str	r4, [sp, #4]
10002ce2:	ab0c      	add	r3, sp, #48	@ 0x30
10002ce4:	9300      	str	r3, [sp, #0]
10002ce6:	465b      	mov	r3, fp
10002ce8:	4652      	mov	r2, sl
10002cea:	990a      	ldr	r1, [sp, #40]	@ 0x28
10002cec:	9807      	ldr	r0, [sp, #28]
10002cee:	f7ff fada 	bl	100022a6 <_out_rev>
10002cf2:	b015      	add	sp, #84	@ 0x54
10002cf4:	ecbd 8b02 	vpop	{d8}
10002cf8:	e8bd 8ff0 	ldmia.w	sp!, {r4, r5, r6, r7, r8, r9, sl, fp, pc}
10002cfc:	9b23      	ldr	r3, [sp, #140]	@ 0x8c
10002cfe:	b1b3      	cbz	r3, 10002d2e <_ftoa+0x35e>
10002d00:	9b0b      	ldr	r3, [sp, #44]	@ 0x2c
10002d02:	b91b      	cbnz	r3, 10002d0c <_ftoa+0x33c>
10002d04:	9b24      	ldr	r3, [sp, #144]	@ 0x90
10002d06:	f013 0f0c 	tst.w	r3, #12
10002d0a:	d012      	beq.n	10002d32 <_ftoa+0x362>
10002d0c:	9b23      	ldr	r3, [sp, #140]	@ 0x8c
10002d0e:	3b01      	subs	r3, #1
10002d10:	9323      	str	r3, [sp, #140]	@ 0x8c
10002d12:	4619      	mov	r1, r3
10002d14:	e006      	b.n	10002d24 <_ftoa+0x354>
10002d16:	f104 0350 	add.w	r3, r4, #80	@ 0x50
10002d1a:	446b      	add	r3, sp
10002d1c:	2230      	movs	r2, #48	@ 0x30
10002d1e:	f803 2c20 	strb.w	r2, [r3, #-32]
10002d22:	3401      	adds	r4, #1
10002d24:	428c      	cmp	r4, r1
10002d26:	d2cb      	bcs.n	10002cc0 <_ftoa+0x2f0>
10002d28:	2c1f      	cmp	r4, #31
10002d2a:	d9f4      	bls.n	10002d16 <_ftoa+0x346>
10002d2c:	e7c8      	b.n	10002cc0 <_ftoa+0x2f0>
10002d2e:	9923      	ldr	r1, [sp, #140]	@ 0x8c
10002d30:	e7f8      	b.n	10002d24 <_ftoa+0x354>
10002d32:	9923      	ldr	r1, [sp, #140]	@ 0x8c
10002d34:	e7f6      	b.n	10002d24 <_ftoa+0x354>
10002d36:	9b24      	ldr	r3, [sp, #144]	@ 0x90
10002d38:	f013 0f04 	tst.w	r3, #4
10002d3c:	d007      	beq.n	10002d4e <_ftoa+0x37e>
10002d3e:	f104 0350 	add.w	r3, r4, #80	@ 0x50
10002d42:	446b      	add	r3, sp
10002d44:	222b      	movs	r2, #43	@ 0x2b
10002d46:	f803 2c20 	strb.w	r2, [r3, #-32]
10002d4a:	3401      	adds	r4, #1
10002d4c:	e7c4      	b.n	10002cd8 <_ftoa+0x308>
10002d4e:	9b24      	ldr	r3, [sp, #144]	@ 0x90
10002d50:	f013 0f08 	tst.w	r3, #8
10002d54:	d0c0      	beq.n	10002cd8 <_ftoa+0x308>
10002d56:	f104 0350 	add.w	r3, r4, #80	@ 0x50
10002d5a:	446b      	add	r3, sp
10002d5c:	2220      	movs	r2, #32
10002d5e:	f803 2c20 	strb.w	r2, [r3, #-32]
10002d62:	3401      	adds	r4, #1
10002d64:	e7b8      	b.n	10002cd8 <_ftoa+0x308>
10002d66:	bf00      	nop

10002d68 <_vsnprintf>:
10002d68:	e92d 4ff0 	stmdb	sp!, {r4, r5, r6, r7, r8, r9, sl, fp, lr}
10002d6c:	b091      	sub	sp, #68	@ 0x44
10002d6e:	4680      	mov	r8, r0
10002d70:	4617      	mov	r7, r2
10002d72:	930f      	str	r3, [sp, #60]	@ 0x3c
10002d74:	4689      	mov	r9, r1
10002d76:	2900      	cmp	r1, #0
10002d78:	f000 834b 	beq.w	10003412 <_vsnprintf+0x6aa>
10002d7c:	2600      	movs	r6, #0
10002d7e:	9b0f      	ldr	r3, [sp, #60]	@ 0x3c
10002d80:	7818      	ldrb	r0, [r3, #0]
10002d82:	2800      	cmp	r0, #0
10002d84:	f000 8348 	beq.w	10003418 <_vsnprintf+0x6b0>
10002d88:	2825      	cmp	r0, #37	@ 0x25
10002d8a:	d009      	beq.n	10002da0 <_vsnprintf+0x38>
10002d8c:	1c74      	adds	r4, r6, #1
10002d8e:	463b      	mov	r3, r7
10002d90:	4632      	mov	r2, r6
10002d92:	4649      	mov	r1, r9
10002d94:	47c0      	blx	r8
10002d96:	9b0f      	ldr	r3, [sp, #60]	@ 0x3c
10002d98:	3301      	adds	r3, #1
10002d9a:	930f      	str	r3, [sp, #60]	@ 0x3c
10002d9c:	4626      	mov	r6, r4
10002d9e:	e7ee      	b.n	10002d7e <_vsnprintf+0x16>
10002da0:	3301      	adds	r3, #1
10002da2:	930f      	str	r3, [sp, #60]	@ 0x3c
10002da4:	2500      	movs	r5, #0
10002da6:	e01f      	b.n	10002de8 <_vsnprintf+0x80>
10002da8:	f045 0501 	orr.w	r5, r5, #1
10002dac:	3201      	adds	r2, #1
10002dae:	920f      	str	r2, [sp, #60]	@ 0x3c
10002db0:	2301      	movs	r3, #1
10002db2:	e018      	b.n	10002de6 <_vsnprintf+0x7e>
10002db4:	f045 0502 	orr.w	r5, r5, #2
10002db8:	3201      	adds	r2, #1
10002dba:	920f      	str	r2, [sp, #60]	@ 0x3c
10002dbc:	2301      	movs	r3, #1
10002dbe:	e012      	b.n	10002de6 <_vsnprintf+0x7e>
10002dc0:	f045 0504 	orr.w	r5, r5, #4
10002dc4:	3201      	adds	r2, #1
10002dc6:	920f      	str	r2, [sp, #60]	@ 0x3c
10002dc8:	2301      	movs	r3, #1
10002dca:	e00c      	b.n	10002de6 <_vsnprintf+0x7e>
10002dcc:	f045 0508 	orr.w	r5, r5, #8
10002dd0:	3201      	adds	r2, #1
10002dd2:	920f      	str	r2, [sp, #60]	@ 0x3c
10002dd4:	2301      	movs	r3, #1
10002dd6:	e006      	b.n	10002de6 <_vsnprintf+0x7e>
10002dd8:	f045 0510 	orr.w	r5, r5, #16
10002ddc:	3201      	adds	r2, #1
10002dde:	920f      	str	r2, [sp, #60]	@ 0x3c
10002de0:	2301      	movs	r3, #1
10002de2:	e000      	b.n	10002de6 <_vsnprintf+0x7e>
10002de4:	2300      	movs	r3, #0
10002de6:	b34b      	cbz	r3, 10002e3c <_vsnprintf+0xd4>
10002de8:	9a0f      	ldr	r2, [sp, #60]	@ 0x3c
10002dea:	7813      	ldrb	r3, [r2, #0]
10002dec:	3b20      	subs	r3, #32
10002dee:	2b10      	cmp	r3, #16
10002df0:	d8f8      	bhi.n	10002de4 <_vsnprintf+0x7c>
10002df2:	a101      	add	r1, pc, #4	@ (adr r1, 10002df8 <_vsnprintf+0x90>)
10002df4:	f851 f023 	ldr.w	pc, [r1, r3, lsl #2]
10002df8:	10002dcd 	.word	0x10002dcd
10002dfc:	10002de5 	.word	0x10002de5
10002e00:	10002de5 	.word	0x10002de5
10002e04:	10002dd9 	.word	0x10002dd9
10002e08:	10002de5 	.word	0x10002de5
10002e0c:	10002de5 	.word	0x10002de5
10002e10:	10002de5 	.word	0x10002de5
10002e14:	10002de5 	.word	0x10002de5
10002e18:	10002de5 	.word	0x10002de5
10002e1c:	10002de5 	.word	0x10002de5
10002e20:	10002de5 	.word	0x10002de5
10002e24:	10002dc1 	.word	0x10002dc1
10002e28:	10002de5 	.word	0x10002de5
10002e2c:	10002db5 	.word	0x10002db5
10002e30:	10002de5 	.word	0x10002de5
10002e34:	10002de5 	.word	0x10002de5
10002e38:	10002da9 	.word	0x10002da9
10002e3c:	930b      	str	r3, [sp, #44]	@ 0x2c
10002e3e:	9b0f      	ldr	r3, [sp, #60]	@ 0x3c
10002e40:	781a      	ldrb	r2, [r3, #0]
10002e42:	f1a2 0330 	sub.w	r3, r2, #48	@ 0x30
10002e46:	b2db      	uxtb	r3, r3
10002e48:	2b09      	cmp	r3, #9
10002e4a:	d918      	bls.n	10002e7e <_vsnprintf+0x116>
10002e4c:	2a2a      	cmp	r2, #42	@ 0x2a
10002e4e:	d01b      	beq.n	10002e88 <_vsnprintf+0x120>
10002e50:	f8dd b02c 	ldr.w	fp, [sp, #44]	@ 0x2c
10002e54:	9b0f      	ldr	r3, [sp, #60]	@ 0x3c
10002e56:	781a      	ldrb	r2, [r3, #0]
10002e58:	2a2e      	cmp	r2, #46	@ 0x2e
10002e5a:	d025      	beq.n	10002ea8 <_vsnprintf+0x140>
10002e5c:	9a0f      	ldr	r2, [sp, #60]	@ 0x3c
10002e5e:	7813      	ldrb	r3, [r2, #0]
10002e60:	3b68      	subs	r3, #104	@ 0x68
10002e62:	2b12      	cmp	r3, #18
10002e64:	d85c      	bhi.n	10002f20 <_vsnprintf+0x1b8>
10002e66:	e8df f003 	tbb	[pc, r3]
10002e6a:	5b49      	.short	0x5b49
10002e6c:	5b3b5bac 	.word	0x5b3b5bac
10002e70:	5b5b5b5b 	.word	0x5b5b5b5b
10002e74:	5b575b5b 	.word	0x5b575b5b
10002e78:	5b5b5b5b 	.word	0x5b5b5b5b
10002e7c:	b1          	.byte	0xb1
10002e7d:	00          	.byte	0x00
10002e7e:	a80f      	add	r0, sp, #60	@ 0x3c
10002e80:	f7ff f9fe 	bl	10002280 <_atoi>
10002e84:	4683      	mov	fp, r0
10002e86:	e7e5      	b.n	10002e54 <_vsnprintf+0xec>
10002e88:	9b1a      	ldr	r3, [sp, #104]	@ 0x68
10002e8a:	1d1a      	adds	r2, r3, #4
10002e8c:	921a      	str	r2, [sp, #104]	@ 0x68
10002e8e:	681b      	ldr	r3, [r3, #0]
10002e90:	2b00      	cmp	r3, #0
10002e92:	db04      	blt.n	10002e9e <_vsnprintf+0x136>
10002e94:	469b      	mov	fp, r3
10002e96:	9b0f      	ldr	r3, [sp, #60]	@ 0x3c
10002e98:	3301      	adds	r3, #1
10002e9a:	930f      	str	r3, [sp, #60]	@ 0x3c
10002e9c:	e7da      	b.n	10002e54 <_vsnprintf+0xec>
10002e9e:	f045 0502 	orr.w	r5, r5, #2
10002ea2:	f1c3 0b00 	rsb	fp, r3, #0
10002ea6:	e7f6      	b.n	10002e96 <_vsnprintf+0x12e>
10002ea8:	f445 6580 	orr.w	r5, r5, #1024	@ 0x400
10002eac:	1c5a      	adds	r2, r3, #1
10002eae:	920f      	str	r2, [sp, #60]	@ 0x3c
10002eb0:	785a      	ldrb	r2, [r3, #1]
10002eb2:	f1a2 0330 	sub.w	r3, r2, #48	@ 0x30
10002eb6:	b2db      	uxtb	r3, r3
10002eb8:	2b09      	cmp	r3, #9
10002eba:	d90c      	bls.n	10002ed6 <_vsnprintf+0x16e>
10002ebc:	2a2a      	cmp	r2, #42	@ 0x2a
10002ebe:	d1cd      	bne.n	10002e5c <_vsnprintf+0xf4>
10002ec0:	9b1a      	ldr	r3, [sp, #104]	@ 0x68
10002ec2:	1d1a      	adds	r2, r3, #4
10002ec4:	921a      	str	r2, [sp, #104]	@ 0x68
10002ec6:	681c      	ldr	r4, [r3, #0]
10002ec8:	ea24 73e4 	bic.w	r3, r4, r4, asr #31
10002ecc:	930b      	str	r3, [sp, #44]	@ 0x2c
10002ece:	9b0f      	ldr	r3, [sp, #60]	@ 0x3c
10002ed0:	3301      	adds	r3, #1
10002ed2:	930f      	str	r3, [sp, #60]	@ 0x3c
10002ed4:	e7c2      	b.n	10002e5c <_vsnprintf+0xf4>
10002ed6:	a80f      	add	r0, sp, #60	@ 0x3c
10002ed8:	f7ff f9d2 	bl	10002280 <_atoi>
10002edc:	900b      	str	r0, [sp, #44]	@ 0x2c
10002ede:	e7bd      	b.n	10002e5c <_vsnprintf+0xf4>
10002ee0:	f445 7180 	orr.w	r1, r5, #256	@ 0x100
10002ee4:	1c53      	adds	r3, r2, #1
10002ee6:	930f      	str	r3, [sp, #60]	@ 0x3c
10002ee8:	7853      	ldrb	r3, [r2, #1]
10002eea:	2b6c      	cmp	r3, #108	@ 0x6c
10002eec:	d001      	beq.n	10002ef2 <_vsnprintf+0x18a>
10002eee:	460d      	mov	r5, r1
10002ef0:	e016      	b.n	10002f20 <_vsnprintf+0x1b8>
10002ef2:	f445 7540 	orr.w	r5, r5, #768	@ 0x300
10002ef6:	3202      	adds	r2, #2
10002ef8:	920f      	str	r2, [sp, #60]	@ 0x3c
10002efa:	e011      	b.n	10002f20 <_vsnprintf+0x1b8>
10002efc:	f045 0180 	orr.w	r1, r5, #128	@ 0x80
10002f00:	1c53      	adds	r3, r2, #1
10002f02:	930f      	str	r3, [sp, #60]	@ 0x3c
10002f04:	7853      	ldrb	r3, [r2, #1]
10002f06:	2b68      	cmp	r3, #104	@ 0x68
10002f08:	d001      	beq.n	10002f0e <_vsnprintf+0x1a6>
10002f0a:	460d      	mov	r5, r1
10002f0c:	e008      	b.n	10002f20 <_vsnprintf+0x1b8>
10002f0e:	f045 05c0 	orr.w	r5, r5, #192	@ 0xc0
10002f12:	3202      	adds	r2, #2
10002f14:	920f      	str	r2, [sp, #60]	@ 0x3c
10002f16:	e003      	b.n	10002f20 <_vsnprintf+0x1b8>
10002f18:	f445 7580 	orr.w	r5, r5, #256	@ 0x100
10002f1c:	3201      	adds	r2, #1
10002f1e:	920f      	str	r2, [sp, #60]	@ 0x3c
10002f20:	9b0f      	ldr	r3, [sp, #60]	@ 0x3c
10002f22:	7818      	ldrb	r0, [r3, #0]
10002f24:	2867      	cmp	r0, #103	@ 0x67
10002f26:	d856      	bhi.n	10002fd6 <_vsnprintf+0x26e>
10002f28:	2825      	cmp	r0, #37	@ 0x25
10002f2a:	f0c0 8268 	bcc.w	100033fe <_vsnprintf+0x696>
10002f2e:	f1a0 0325 	sub.w	r3, r0, #37	@ 0x25
10002f32:	2b42      	cmp	r3, #66	@ 0x42
10002f34:	f200 8263 	bhi.w	100033fe <_vsnprintf+0x696>
10002f38:	e8df f013 	tbh	[pc, r3, lsl #1]
10002f3c:	02610256 	.word	0x02610256
10002f40:	02610261 	.word	0x02610261
10002f44:	02610261 	.word	0x02610261
10002f48:	02610261 	.word	0x02610261
10002f4c:	02610261 	.word	0x02610261
10002f50:	02610261 	.word	0x02610261
10002f54:	02610261 	.word	0x02610261
10002f58:	02610261 	.word	0x02610261
10002f5c:	02610261 	.word	0x02610261
10002f60:	02610261 	.word	0x02610261
10002f64:	02610261 	.word	0x02610261
10002f68:	02610261 	.word	0x02610261
10002f6c:	02610261 	.word	0x02610261
10002f70:	02610261 	.word	0x02610261
10002f74:	02610261 	.word	0x02610261
10002f78:	02610261 	.word	0x02610261
10002f7c:	01680188 	.word	0x01680188
10002f80:	02610188 	.word	0x02610188
10002f84:	02610261 	.word	0x02610261
10002f88:	02610261 	.word	0x02610261
10002f8c:	02610261 	.word	0x02610261
10002f90:	02610261 	.word	0x02610261
10002f94:	02610261 	.word	0x02610261
10002f98:	02610261 	.word	0x02610261
10002f9c:	02610261 	.word	0x02610261
10002fa0:	00710261 	.word	0x00710261
10002fa4:	02610261 	.word	0x02610261
10002fa8:	02610261 	.word	0x02610261
10002fac:	02610261 	.word	0x02610261
10002fb0:	02610261 	.word	0x02610261
10002fb4:	00710261 	.word	0x00710261
10002fb8:	007101af 	.word	0x007101af
10002fbc:	01680188 	.word	0x01680188
10002fc0:	0188      	.short	0x0188
10002fc2:	f445 7500 	orr.w	r5, r5, #512	@ 0x200
10002fc6:	3201      	adds	r2, #1
10002fc8:	920f      	str	r2, [sp, #60]	@ 0x3c
10002fca:	e7a9      	b.n	10002f20 <_vsnprintf+0x1b8>
10002fcc:	f445 7580 	orr.w	r5, r5, #256	@ 0x100
10002fd0:	3201      	adds	r2, #1
10002fd2:	920f      	str	r2, [sp, #60]	@ 0x3c
10002fd4:	e7a4      	b.n	10002f20 <_vsnprintf+0x1b8>
10002fd6:	2878      	cmp	r0, #120	@ 0x78
10002fd8:	f200 8211 	bhi.w	100033fe <_vsnprintf+0x696>
10002fdc:	2869      	cmp	r0, #105	@ 0x69
10002fde:	f0c0 820e 	bcc.w	100033fe <_vsnprintf+0x696>
10002fe2:	f1a0 0269 	sub.w	r2, r0, #105	@ 0x69
10002fe6:	b2d2      	uxtb	r2, r2
10002fe8:	2301      	movs	r3, #1
10002fea:	4093      	lsls	r3, r2
10002fec:	f249 0241 	movw	r2, #36929	@ 0x9041
10002ff0:	4213      	tst	r3, r2
10002ff2:	d114      	bne.n	1000301e <_vsnprintf+0x2b6>
10002ff4:	f013 0f80 	tst.w	r3, #128	@ 0x80
10002ff8:	f040 81db 	bne.w	100033b2 <_vsnprintf+0x64a>
10002ffc:	f413 6f80 	tst.w	r3, #1024	@ 0x400
10003000:	f000 81fd 	beq.w	100033fe <_vsnprintf+0x696>
10003004:	9b1a      	ldr	r3, [sp, #104]	@ 0x68
10003006:	1d1a      	adds	r2, r3, #4
10003008:	921a      	str	r2, [sp, #104]	@ 0x68
1000300a:	f8d3 a000 	ldr.w	sl, [r3]
1000300e:	9b0b      	ldr	r3, [sp, #44]	@ 0x2c
10003010:	2b00      	cmp	r3, #0
10003012:	f040 8190 	bne.w	10003336 <_vsnprintf+0x5ce>
10003016:	f04f 32ff 	mov.w	r2, #4294967295
1000301a:	4653      	mov	r3, sl
1000301c:	e171      	b.n	10003302 <_vsnprintf+0x59a>
1000301e:	286f      	cmp	r0, #111	@ 0x6f
10003020:	d00c      	beq.n	1000303c <_vsnprintf+0x2d4>
10003022:	d805      	bhi.n	10003030 <_vsnprintf+0x2c8>
10003024:	2858      	cmp	r0, #88	@ 0x58
10003026:	d03c      	beq.n	100030a2 <_vsnprintf+0x33a>
10003028:	2862      	cmp	r0, #98	@ 0x62
1000302a:	d103      	bne.n	10003034 <_vsnprintf+0x2cc>
1000302c:	2302      	movs	r3, #2
1000302e:	e006      	b.n	1000303e <_vsnprintf+0x2d6>
10003030:	2878      	cmp	r0, #120	@ 0x78
10003032:	d038      	beq.n	100030a6 <_vsnprintf+0x33e>
10003034:	f025 0510 	bic.w	r5, r5, #16
10003038:	230a      	movs	r3, #10
1000303a:	e000      	b.n	1000303e <_vsnprintf+0x2d6>
1000303c:	2308      	movs	r3, #8
1000303e:	2858      	cmp	r0, #88	@ 0x58
10003040:	d033      	beq.n	100030aa <_vsnprintf+0x342>
10003042:	2869      	cmp	r0, #105	@ 0x69
10003044:	d003      	beq.n	1000304e <_vsnprintf+0x2e6>
10003046:	2864      	cmp	r0, #100	@ 0x64
10003048:	d001      	beq.n	1000304e <_vsnprintf+0x2e6>
1000304a:	f025 050c 	bic.w	r5, r5, #12
1000304e:	f415 6f80 	tst.w	r5, #1024	@ 0x400
10003052:	d001      	beq.n	10003058 <_vsnprintf+0x2f0>
10003054:	f025 0501 	bic.w	r5, r5, #1
10003058:	2869      	cmp	r0, #105	@ 0x69
1000305a:	d029      	beq.n	100030b0 <_vsnprintf+0x348>
1000305c:	2864      	cmp	r0, #100	@ 0x64
1000305e:	d027      	beq.n	100030b0 <_vsnprintf+0x348>
10003060:	f415 7f00 	tst.w	r5, #512	@ 0x200
10003064:	f040 8094 	bne.w	10003190 <_vsnprintf+0x428>
10003068:	f415 7f80 	tst.w	r5, #256	@ 0x100
1000306c:	f040 80ac 	bne.w	100031c8 <_vsnprintf+0x460>
10003070:	f015 0f40 	tst.w	r5, #64	@ 0x40
10003074:	f000 80bd 	beq.w	100031f2 <_vsnprintf+0x48a>
10003078:	9a1a      	ldr	r2, [sp, #104]	@ 0x68
1000307a:	1d11      	adds	r1, r2, #4
1000307c:	911a      	str	r1, [sp, #104]	@ 0x68
1000307e:	7812      	ldrb	r2, [r2, #0]
10003080:	9505      	str	r5, [sp, #20]
10003082:	f8cd b010 	str.w	fp, [sp, #16]
10003086:	990b      	ldr	r1, [sp, #44]	@ 0x2c
10003088:	9103      	str	r1, [sp, #12]
1000308a:	9302      	str	r3, [sp, #8]
1000308c:	2300      	movs	r3, #0
1000308e:	9301      	str	r3, [sp, #4]
10003090:	9200      	str	r2, [sp, #0]
10003092:	463b      	mov	r3, r7
10003094:	4632      	mov	r2, r6
10003096:	4649      	mov	r1, r9
10003098:	4640      	mov	r0, r8
1000309a:	f7ff f9de 	bl	1000245a <_ntoa_long>
1000309e:	4606      	mov	r6, r0
100030a0:	e027      	b.n	100030f2 <_vsnprintf+0x38a>
100030a2:	2310      	movs	r3, #16
100030a4:	e7cb      	b.n	1000303e <_vsnprintf+0x2d6>
100030a6:	2310      	movs	r3, #16
100030a8:	e7c9      	b.n	1000303e <_vsnprintf+0x2d6>
100030aa:	f045 0520 	orr.w	r5, r5, #32
100030ae:	e7c8      	b.n	10003042 <_vsnprintf+0x2da>
100030b0:	f415 7f00 	tst.w	r5, #512	@ 0x200
100030b4:	d121      	bne.n	100030fa <_vsnprintf+0x392>
100030b6:	f415 7f80 	tst.w	r5, #256	@ 0x100
100030ba:	d142      	bne.n	10003142 <_vsnprintf+0x3da>
100030bc:	f015 0f40 	tst.w	r5, #64	@ 0x40
100030c0:	d058      	beq.n	10003174 <_vsnprintf+0x40c>
100030c2:	9a1a      	ldr	r2, [sp, #104]	@ 0x68
100030c4:	1d11      	adds	r1, r2, #4
100030c6:	911a      	str	r1, [sp, #104]	@ 0x68
100030c8:	7812      	ldrb	r2, [r2, #0]
100030ca:	ea82 71e2 	eor.w	r1, r2, r2, asr #31
100030ce:	eba1 71e2 	sub.w	r1, r1, r2, asr #31
100030d2:	9505      	str	r5, [sp, #20]
100030d4:	f8cd b010 	str.w	fp, [sp, #16]
100030d8:	980b      	ldr	r0, [sp, #44]	@ 0x2c
100030da:	9003      	str	r0, [sp, #12]
100030dc:	9302      	str	r3, [sp, #8]
100030de:	0fd2      	lsrs	r2, r2, #31
100030e0:	9201      	str	r2, [sp, #4]
100030e2:	9100      	str	r1, [sp, #0]
100030e4:	463b      	mov	r3, r7
100030e6:	4632      	mov	r2, r6
100030e8:	4649      	mov	r1, r9
100030ea:	4640      	mov	r0, r8
100030ec:	f7ff f9b5 	bl	1000245a <_ntoa_long>
100030f0:	4606      	mov	r6, r0
100030f2:	9b0f      	ldr	r3, [sp, #60]	@ 0x3c
100030f4:	3301      	adds	r3, #1
100030f6:	930f      	str	r3, [sp, #60]	@ 0x3c
100030f8:	e641      	b.n	10002d7e <_vsnprintf+0x16>
100030fa:	9a1a      	ldr	r2, [sp, #104]	@ 0x68
100030fc:	3207      	adds	r2, #7
100030fe:	f022 0207 	bic.w	r2, r2, #7
10003102:	f102 0108 	add.w	r1, r2, #8
10003106:	911a      	str	r1, [sp, #104]	@ 0x68
10003108:	6851      	ldr	r1, [r2, #4]
1000310a:	6812      	ldr	r2, [r2, #0]
1000310c:	4608      	mov	r0, r1
1000310e:	2900      	cmp	r1, #0
10003110:	db13      	blt.n	1000313a <_vsnprintf+0x3d2>
10003112:	9508      	str	r5, [sp, #32]
10003114:	f8cd b01c 	str.w	fp, [sp, #28]
10003118:	9c0b      	ldr	r4, [sp, #44]	@ 0x2c
1000311a:	9406      	str	r4, [sp, #24]
1000311c:	9304      	str	r3, [sp, #16]
1000311e:	2300      	movs	r3, #0
10003120:	9305      	str	r3, [sp, #20]
10003122:	0fc9      	lsrs	r1, r1, #31
10003124:	9102      	str	r1, [sp, #8]
10003126:	9200      	str	r2, [sp, #0]
10003128:	9001      	str	r0, [sp, #4]
1000312a:	463b      	mov	r3, r7
1000312c:	4632      	mov	r2, r6
1000312e:	4649      	mov	r1, r9
10003130:	4640      	mov	r0, r8
10003132:	f7ff f9dc 	bl	100024ee <_ntoa_long_long>
10003136:	4606      	mov	r6, r0
10003138:	e7db      	b.n	100030f2 <_vsnprintf+0x38a>
1000313a:	4252      	negs	r2, r2
1000313c:	eb61 0041 	sbc.w	r0, r1, r1, lsl #1
10003140:	e7e7      	b.n	10003112 <_vsnprintf+0x3aa>
10003142:	9a1a      	ldr	r2, [sp, #104]	@ 0x68
10003144:	1d11      	adds	r1, r2, #4
10003146:	911a      	str	r1, [sp, #104]	@ 0x68
10003148:	6812      	ldr	r2, [r2, #0]
1000314a:	ea82 71e2 	eor.w	r1, r2, r2, asr #31
1000314e:	eba1 71e2 	sub.w	r1, r1, r2, asr #31
10003152:	9505      	str	r5, [sp, #20]
10003154:	f8cd b010 	str.w	fp, [sp, #16]
10003158:	980b      	ldr	r0, [sp, #44]	@ 0x2c
1000315a:	9003      	str	r0, [sp, #12]
1000315c:	9302      	str	r3, [sp, #8]
1000315e:	0fd2      	lsrs	r2, r2, #31
10003160:	9201      	str	r2, [sp, #4]
10003162:	9100      	str	r1, [sp, #0]
10003164:	463b      	mov	r3, r7
10003166:	4632      	mov	r2, r6
10003168:	4649      	mov	r1, r9
1000316a:	4640      	mov	r0, r8
1000316c:	f7ff f975 	bl	1000245a <_ntoa_long>
10003170:	4606      	mov	r6, r0
10003172:	e7be      	b.n	100030f2 <_vsnprintf+0x38a>
10003174:	f015 0f80 	tst.w	r5, #128	@ 0x80
10003178:	d005      	beq.n	10003186 <_vsnprintf+0x41e>
1000317a:	9a1a      	ldr	r2, [sp, #104]	@ 0x68
1000317c:	1d11      	adds	r1, r2, #4
1000317e:	911a      	str	r1, [sp, #104]	@ 0x68
10003180:	f9b2 2000 	ldrsh.w	r2, [r2]
10003184:	e7a1      	b.n	100030ca <_vsnprintf+0x362>
10003186:	9a1a      	ldr	r2, [sp, #104]	@ 0x68
10003188:	1d11      	adds	r1, r2, #4
1000318a:	911a      	str	r1, [sp, #104]	@ 0x68
1000318c:	6812      	ldr	r2, [r2, #0]
1000318e:	e79c      	b.n	100030ca <_vsnprintf+0x362>
10003190:	9a1a      	ldr	r2, [sp, #104]	@ 0x68
10003192:	3207      	adds	r2, #7
10003194:	f022 0207 	bic.w	r2, r2, #7
10003198:	f102 0108 	add.w	r1, r2, #8
1000319c:	911a      	str	r1, [sp, #104]	@ 0x68
1000319e:	9508      	str	r5, [sp, #32]
100031a0:	f8cd b01c 	str.w	fp, [sp, #28]
100031a4:	990b      	ldr	r1, [sp, #44]	@ 0x2c
100031a6:	9106      	str	r1, [sp, #24]
100031a8:	2100      	movs	r1, #0
100031aa:	9304      	str	r3, [sp, #16]
100031ac:	9105      	str	r1, [sp, #20]
100031ae:	9102      	str	r1, [sp, #8]
100031b0:	e9d2 2300 	ldrd	r2, r3, [r2]
100031b4:	e9cd 2300 	strd	r2, r3, [sp]
100031b8:	463b      	mov	r3, r7
100031ba:	4632      	mov	r2, r6
100031bc:	4649      	mov	r1, r9
100031be:	4640      	mov	r0, r8
100031c0:	f7ff f995 	bl	100024ee <_ntoa_long_long>
100031c4:	4606      	mov	r6, r0
100031c6:	e794      	b.n	100030f2 <_vsnprintf+0x38a>
100031c8:	9a1a      	ldr	r2, [sp, #104]	@ 0x68
100031ca:	1d11      	adds	r1, r2, #4
100031cc:	911a      	str	r1, [sp, #104]	@ 0x68
100031ce:	9505      	str	r5, [sp, #20]
100031d0:	f8cd b010 	str.w	fp, [sp, #16]
100031d4:	990b      	ldr	r1, [sp, #44]	@ 0x2c
100031d6:	9103      	str	r1, [sp, #12]
100031d8:	9302      	str	r3, [sp, #8]
100031da:	2300      	movs	r3, #0
100031dc:	9301      	str	r3, [sp, #4]
100031de:	6813      	ldr	r3, [r2, #0]
100031e0:	9300      	str	r3, [sp, #0]
100031e2:	463b      	mov	r3, r7
100031e4:	4632      	mov	r2, r6
100031e6:	4649      	mov	r1, r9
100031e8:	4640      	mov	r0, r8
100031ea:	f7ff f936 	bl	1000245a <_ntoa_long>
100031ee:	4606      	mov	r6, r0
100031f0:	e77f      	b.n	100030f2 <_vsnprintf+0x38a>
100031f2:	f015 0f80 	tst.w	r5, #128	@ 0x80
100031f6:	d004      	beq.n	10003202 <_vsnprintf+0x49a>
100031f8:	9a1a      	ldr	r2, [sp, #104]	@ 0x68
100031fa:	1d11      	adds	r1, r2, #4
100031fc:	911a      	str	r1, [sp, #104]	@ 0x68
100031fe:	8812      	ldrh	r2, [r2, #0]
10003200:	e73e      	b.n	10003080 <_vsnprintf+0x318>
10003202:	9a1a      	ldr	r2, [sp, #104]	@ 0x68
10003204:	1d11      	adds	r1, r2, #4
10003206:	911a      	str	r1, [sp, #104]	@ 0x68
10003208:	6812      	ldr	r2, [r2, #0]
1000320a:	e739      	b.n	10003080 <_vsnprintf+0x318>
1000320c:	2846      	cmp	r0, #70	@ 0x46
1000320e:	d01a      	beq.n	10003246 <_vsnprintf+0x4de>
10003210:	9b1a      	ldr	r3, [sp, #104]	@ 0x68
10003212:	3307      	adds	r3, #7
10003214:	f023 0307 	bic.w	r3, r3, #7
10003218:	f103 0208 	add.w	r2, r3, #8
1000321c:	921a      	str	r2, [sp, #104]	@ 0x68
1000321e:	9504      	str	r5, [sp, #16]
10003220:	f8cd b00c 	str.w	fp, [sp, #12]
10003224:	9a0b      	ldr	r2, [sp, #44]	@ 0x2c
10003226:	9202      	str	r2, [sp, #8]
10003228:	e9d3 2300 	ldrd	r2, r3, [r3]
1000322c:	e9cd 2300 	strd	r2, r3, [sp]
10003230:	463b      	mov	r3, r7
10003232:	4632      	mov	r2, r6
10003234:	4649      	mov	r1, r9
10003236:	4640      	mov	r0, r8
10003238:	f7ff fbca 	bl	100029d0 <_ftoa>
1000323c:	4606      	mov	r6, r0
1000323e:	9b0f      	ldr	r3, [sp, #60]	@ 0x3c
10003240:	3301      	adds	r3, #1
10003242:	930f      	str	r3, [sp, #60]	@ 0x3c
10003244:	e59b      	b.n	10002d7e <_vsnprintf+0x16>
10003246:	f045 0520 	orr.w	r5, r5, #32
1000324a:	e7e1      	b.n	10003210 <_vsnprintf+0x4a8>
1000324c:	2867      	cmp	r0, #103	@ 0x67
1000324e:	d001      	beq.n	10003254 <_vsnprintf+0x4ec>
10003250:	2847      	cmp	r0, #71	@ 0x47
10003252:	d101      	bne.n	10003258 <_vsnprintf+0x4f0>
10003254:	f445 6500 	orr.w	r5, r5, #2048	@ 0x800
10003258:	2845      	cmp	r0, #69	@ 0x45
1000325a:	d001      	beq.n	10003260 <_vsnprintf+0x4f8>
1000325c:	2847      	cmp	r0, #71	@ 0x47
1000325e:	d101      	bne.n	10003264 <_vsnprintf+0x4fc>
10003260:	f045 0520 	orr.w	r5, r5, #32
10003264:	9b1a      	ldr	r3, [sp, #104]	@ 0x68
10003266:	3307      	adds	r3, #7
10003268:	f023 0307 	bic.w	r3, r3, #7
1000326c:	f103 0208 	add.w	r2, r3, #8
10003270:	921a      	str	r2, [sp, #104]	@ 0x68
10003272:	9504      	str	r5, [sp, #16]
10003274:	f8cd b00c 	str.w	fp, [sp, #12]
10003278:	9a0b      	ldr	r2, [sp, #44]	@ 0x2c
1000327a:	9202      	str	r2, [sp, #8]
1000327c:	e9d3 2300 	ldrd	r2, r3, [r3]
10003280:	e9cd 2300 	strd	r2, r3, [sp]
10003284:	463b      	mov	r3, r7
10003286:	4632      	mov	r2, r6
10003288:	4649      	mov	r1, r9
1000328a:	4640      	mov	r0, r8
1000328c:	f7ff f990 	bl	100025b0 <_etoa>
10003290:	4606      	mov	r6, r0
10003292:	9b0f      	ldr	r3, [sp, #60]	@ 0x3c
10003294:	3301      	adds	r3, #1
10003296:	930f      	str	r3, [sp, #60]	@ 0x3c
10003298:	e571      	b.n	10002d7e <_vsnprintf+0x16>
1000329a:	f015 0502 	ands.w	r5, r5, #2
1000329e:	d01d      	beq.n	100032dc <_vsnprintf+0x574>
100032a0:	2401      	movs	r4, #1
100032a2:	981a      	ldr	r0, [sp, #104]	@ 0x68
100032a4:	1d03      	adds	r3, r0, #4
100032a6:	931a      	str	r3, [sp, #104]	@ 0x68
100032a8:	f106 0a01 	add.w	sl, r6, #1
100032ac:	463b      	mov	r3, r7
100032ae:	4632      	mov	r2, r6
100032b0:	4649      	mov	r1, r9
100032b2:	7800      	ldrb	r0, [r0, #0]
100032b4:	47c0      	blx	r8
100032b6:	b9a5      	cbnz	r5, 100032e2 <_vsnprintf+0x57a>
100032b8:	9b0f      	ldr	r3, [sp, #60]	@ 0x3c
100032ba:	3301      	adds	r3, #1
100032bc:	930f      	str	r3, [sp, #60]	@ 0x3c
100032be:	4656      	mov	r6, sl
100032c0:	e55d      	b.n	10002d7e <_vsnprintf+0x16>
100032c2:	f102 0a01 	add.w	sl, r2, #1
100032c6:	463b      	mov	r3, r7
100032c8:	4649      	mov	r1, r9
100032ca:	2020      	movs	r0, #32
100032cc:	47c0      	blx	r8
100032ce:	4623      	mov	r3, r4
100032d0:	4652      	mov	r2, sl
100032d2:	1c5c      	adds	r4, r3, #1
100032d4:	459b      	cmp	fp, r3
100032d6:	d8f4      	bhi.n	100032c2 <_vsnprintf+0x55a>
100032d8:	4616      	mov	r6, r2
100032da:	e7e2      	b.n	100032a2 <_vsnprintf+0x53a>
100032dc:	2301      	movs	r3, #1
100032de:	4632      	mov	r2, r6
100032e0:	e7f7      	b.n	100032d2 <_vsnprintf+0x56a>
100032e2:	4652      	mov	r2, sl
100032e4:	e006      	b.n	100032f4 <_vsnprintf+0x58c>
100032e6:	1c56      	adds	r6, r2, #1
100032e8:	463b      	mov	r3, r7
100032ea:	4649      	mov	r1, r9
100032ec:	2020      	movs	r0, #32
100032ee:	47c0      	blx	r8
100032f0:	462c      	mov	r4, r5
100032f2:	4632      	mov	r2, r6
100032f4:	1c65      	adds	r5, r4, #1
100032f6:	45a3      	cmp	fp, r4
100032f8:	d8f5      	bhi.n	100032e6 <_vsnprintf+0x57e>
100032fa:	4692      	mov	sl, r2
100032fc:	e7dc      	b.n	100032b8 <_vsnprintf+0x550>
100032fe:	3301      	adds	r3, #1
10003300:	460a      	mov	r2, r1
10003302:	7819      	ldrb	r1, [r3, #0]
10003304:	b111      	cbz	r1, 1000330c <_vsnprintf+0x5a4>
10003306:	1e51      	subs	r1, r2, #1
10003308:	2a00      	cmp	r2, #0
1000330a:	d1f8      	bne.n	100032fe <_vsnprintf+0x596>
1000330c:	eba3 030a 	sub.w	r3, r3, sl
10003310:	f415 6280 	ands.w	r2, r5, #1024	@ 0x400
10003314:	920c      	str	r2, [sp, #48]	@ 0x30
10003316:	d003      	beq.n	10003320 <_vsnprintf+0x5b8>
10003318:	9a0b      	ldr	r2, [sp, #44]	@ 0x2c
1000331a:	4293      	cmp	r3, r2
1000331c:	bf28      	it	cs
1000331e:	4613      	movcs	r3, r2
10003320:	f015 0402 	ands.w	r4, r5, #2
10003324:	d009      	beq.n	1000333a <_vsnprintf+0x5d2>
10003326:	940d      	str	r4, [sp, #52]	@ 0x34
10003328:	f8cd b038 	str.w	fp, [sp, #56]	@ 0x38
1000332c:	9d0b      	ldr	r5, [sp, #44]	@ 0x2c
1000332e:	4632      	mov	r2, r6
10003330:	9e0c      	ldr	r6, [sp, #48]	@ 0x30
10003332:	469b      	mov	fp, r3
10003334:	e01f      	b.n	10003376 <_vsnprintf+0x60e>
10003336:	9a0b      	ldr	r2, [sp, #44]	@ 0x2c
10003338:	e66f      	b.n	1000301a <_vsnprintf+0x2b2>
1000333a:	4632      	mov	r2, r6
1000333c:	4626      	mov	r6, r4
1000333e:	e006      	b.n	1000334e <_vsnprintf+0x5e6>
10003340:	1c54      	adds	r4, r2, #1
10003342:	463b      	mov	r3, r7
10003344:	4649      	mov	r1, r9
10003346:	2020      	movs	r0, #32
10003348:	47c0      	blx	r8
1000334a:	462b      	mov	r3, r5
1000334c:	4622      	mov	r2, r4
1000334e:	1c5d      	adds	r5, r3, #1
10003350:	459b      	cmp	fp, r3
10003352:	d8f5      	bhi.n	10003340 <_vsnprintf+0x5d8>
10003354:	4634      	mov	r4, r6
10003356:	462b      	mov	r3, r5
10003358:	940d      	str	r4, [sp, #52]	@ 0x34
1000335a:	f8cd b038 	str.w	fp, [sp, #56]	@ 0x38
1000335e:	9d0b      	ldr	r5, [sp, #44]	@ 0x2c
10003360:	9e0c      	ldr	r6, [sp, #48]	@ 0x30
10003362:	469b      	mov	fp, r3
10003364:	e007      	b.n	10003376 <_vsnprintf+0x60e>
10003366:	461d      	mov	r5, r3
10003368:	f10a 0a01 	add.w	sl, sl, #1
1000336c:	1c54      	adds	r4, r2, #1
1000336e:	463b      	mov	r3, r7
10003370:	4649      	mov	r1, r9
10003372:	47c0      	blx	r8
10003374:	4622      	mov	r2, r4
10003376:	f89a 0000 	ldrb.w	r0, [sl]
1000337a:	b120      	cbz	r0, 10003386 <_vsnprintf+0x61e>
1000337c:	2e00      	cmp	r6, #0
1000337e:	d0f3      	beq.n	10003368 <_vsnprintf+0x600>
10003380:	1e6b      	subs	r3, r5, #1
10003382:	2d00      	cmp	r5, #0
10003384:	d1ef      	bne.n	10003366 <_vsnprintf+0x5fe>
10003386:	9c0d      	ldr	r4, [sp, #52]	@ 0x34
10003388:	4616      	mov	r6, r2
1000338a:	465b      	mov	r3, fp
1000338c:	f8dd b038 	ldr.w	fp, [sp, #56]	@ 0x38
10003390:	b954      	cbnz	r4, 100033a8 <_vsnprintf+0x640>
10003392:	9b0f      	ldr	r3, [sp, #60]	@ 0x3c
10003394:	3301      	adds	r3, #1
10003396:	930f      	str	r3, [sp, #60]	@ 0x3c
10003398:	e4f1      	b.n	10002d7e <_vsnprintf+0x16>
1000339a:	1c55      	adds	r5, r2, #1
1000339c:	463b      	mov	r3, r7
1000339e:	4649      	mov	r1, r9
100033a0:	2020      	movs	r0, #32
100033a2:	47c0      	blx	r8
100033a4:	4623      	mov	r3, r4
100033a6:	462a      	mov	r2, r5
100033a8:	1c5c      	adds	r4, r3, #1
100033aa:	459b      	cmp	fp, r3
100033ac:	d8f5      	bhi.n	1000339a <_vsnprintf+0x632>
100033ae:	4616      	mov	r6, r2
100033b0:	e7ef      	b.n	10003392 <_vsnprintf+0x62a>
100033b2:	f045 0521 	orr.w	r5, r5, #33	@ 0x21
100033b6:	9b1a      	ldr	r3, [sp, #104]	@ 0x68
100033b8:	1d1a      	adds	r2, r3, #4
100033ba:	921a      	str	r2, [sp, #104]	@ 0x68
100033bc:	681b      	ldr	r3, [r3, #0]
100033be:	9505      	str	r5, [sp, #20]
100033c0:	2208      	movs	r2, #8
100033c2:	9204      	str	r2, [sp, #16]
100033c4:	9a0b      	ldr	r2, [sp, #44]	@ 0x2c
100033c6:	9203      	str	r2, [sp, #12]
100033c8:	2210      	movs	r2, #16
100033ca:	9202      	str	r2, [sp, #8]
100033cc:	2200      	movs	r2, #0
100033ce:	9201      	str	r2, [sp, #4]
100033d0:	9300      	str	r3, [sp, #0]
100033d2:	463b      	mov	r3, r7
100033d4:	4632      	mov	r2, r6
100033d6:	4649      	mov	r1, r9
100033d8:	4640      	mov	r0, r8
100033da:	f7ff f83e 	bl	1000245a <_ntoa_long>
100033de:	4606      	mov	r6, r0
100033e0:	9b0f      	ldr	r3, [sp, #60]	@ 0x3c
100033e2:	3301      	adds	r3, #1
100033e4:	930f      	str	r3, [sp, #60]	@ 0x3c
100033e6:	e4ca      	b.n	10002d7e <_vsnprintf+0x16>
100033e8:	1c74      	adds	r4, r6, #1
100033ea:	463b      	mov	r3, r7
100033ec:	4632      	mov	r2, r6
100033ee:	4649      	mov	r1, r9
100033f0:	2025      	movs	r0, #37	@ 0x25
100033f2:	47c0      	blx	r8
100033f4:	9b0f      	ldr	r3, [sp, #60]	@ 0x3c
100033f6:	3301      	adds	r3, #1
100033f8:	930f      	str	r3, [sp, #60]	@ 0x3c
100033fa:	4626      	mov	r6, r4
100033fc:	e4bf      	b.n	10002d7e <_vsnprintf+0x16>
100033fe:	1c74      	adds	r4, r6, #1
10003400:	463b      	mov	r3, r7
10003402:	4632      	mov	r2, r6
10003404:	4649      	mov	r1, r9
10003406:	47c0      	blx	r8
10003408:	9b0f      	ldr	r3, [sp, #60]	@ 0x3c
1000340a:	3301      	adds	r3, #1
1000340c:	930f      	str	r3, [sp, #60]	@ 0x3c
1000340e:	4626      	mov	r6, r4
10003410:	e4b5      	b.n	10002d7e <_vsnprintf+0x16>
10003412:	f8df 8020 	ldr.w	r8, [pc, #32]	@ 10003434 <_vsnprintf+0x6cc>
10003416:	e4b1      	b.n	10002d7c <_vsnprintf+0x14>
10003418:	42be      	cmp	r6, r7
1000341a:	d308      	bcc.n	1000342e <_vsnprintf+0x6c6>
1000341c:	1e7a      	subs	r2, r7, #1
1000341e:	463b      	mov	r3, r7
10003420:	4649      	mov	r1, r9
10003422:	2000      	movs	r0, #0
10003424:	47c0      	blx	r8
10003426:	4630      	mov	r0, r6
10003428:	b011      	add	sp, #68	@ 0x44
1000342a:	e8bd 8ff0 	ldmia.w	sp!, {r4, r5, r6, r7, r8, r9, sl, fp, pc}
1000342e:	4632      	mov	r2, r6
10003430:	e7f5      	b.n	1000341e <_vsnprintf+0x6b6>
10003432:	bf00      	nop
10003434:	10002271 	.word	0x10002271

10003438 <vfctprintf>:
10003438:	b500      	push	{lr}
1000343a:	b085      	sub	sp, #20
1000343c:	9002      	str	r0, [sp, #8]
1000343e:	9103      	str	r1, [sp, #12]
10003440:	9300      	str	r3, [sp, #0]
10003442:	4613      	mov	r3, r2
10003444:	f04f 32ff 	mov.w	r2, #4294967295
10003448:	a902      	add	r1, sp, #8
1000344a:	4803      	ldr	r0, [pc, #12]	@ (10003458 <vfctprintf+0x20>)
1000344c:	f7ff fc8c 	bl	10002d68 <_vsnprintf>
10003450:	b005      	add	sp, #20
10003452:	f85d fb04 	ldr.w	pc, [sp], #4
10003456:	bf00      	nop
10003458:	10002273 	.word	0x10002273

1000345c <_exit>:
1000345c:	be00      	bkpt	0x0000
1000345e:	e7fd      	b.n	1000345c <_exit>

10003460 <exit>:
10003460:	b508      	push	{r3, lr}
10003462:	f7ff fffb 	bl	1000345c <_exit>
	...

10003468 <__assert_func>:
10003468:	b500      	push	{lr}
1000346a:	b083      	sub	sp, #12
1000346c:	468c      	mov	ip, r1
1000346e:	4619      	mov	r1, r3
10003470:	b15a      	cbz	r2, 1000348a <__assert_func+0x22>
10003472:	4614      	mov	r4, r2
10003474:	4b06      	ldr	r3, [pc, #24]	@ (10003490 <__assert_func+0x28>)
10003476:	9401      	str	r4, [sp, #4]
10003478:	9300      	str	r3, [sp, #0]
1000347a:	4663      	mov	r3, ip
1000347c:	4602      	mov	r2, r0
1000347e:	4805      	ldr	r0, [pc, #20]	@ (10003494 <__assert_func+0x2c>)
10003480:	f000 f94e 	bl	10003720 <__wrap_printf>
10003484:	2001      	movs	r0, #1
10003486:	f7ff ffe9 	bl	1000345c <_exit>
1000348a:	4b03      	ldr	r3, [pc, #12]	@ (10003498 <__assert_func+0x30>)
1000348c:	461c      	mov	r4, r3
1000348e:	e7f2      	b.n	10003476 <__assert_func+0xe>
10003490:	10006da8 	.word	0x10006da8
10003494:	10006db8 	.word	0x10006db8
10003498:	100066d4 	.word	0x100066d4

1000349c <runtime_init>:
1000349c:	b510      	push	{r4, lr}
1000349e:	f3ef 8305 	mrs	r3, IPSR
100034a2:	b2db      	uxtb	r3, r3
100034a4:	b103      	cbz	r3, 100034a8 <runtime_init+0xc>
100034a6:	be00      	bkpt	0x0000
100034a8:	f7fe fc96 	bl	10001dd8 <runtime_run_initializers>
100034ac:	4c04      	ldr	r4, [pc, #16]	@ (100034c0 <runtime_init+0x24>)
100034ae:	e002      	b.n	100034b6 <runtime_init+0x1a>
100034b0:	f854 3b04 	ldr.w	r3, [r4], #4
100034b4:	4798      	blx	r3
100034b6:	4b03      	ldr	r3, [pc, #12]	@ (100034c4 <runtime_init+0x28>)
100034b8:	429c      	cmp	r4, r3
100034ba:	d3f9      	bcc.n	100034b0 <runtime_init+0x14>
100034bc:	bd10      	pop	{r4, pc}
100034be:	bf00      	nop
100034c0:	100064e8 	.word	0x100064e8
100034c4:	100064f0 	.word	0x100064f0

100034c8 <stdio_out_chars_no_crlf>:
100034c8:	b508      	push	{r3, lr}
100034ca:	4603      	mov	r3, r0
100034cc:	4608      	mov	r0, r1
100034ce:	681b      	ldr	r3, [r3, #0]
100034d0:	4611      	mov	r1, r2
100034d2:	4798      	blx	r3
100034d4:	bd08      	pop	{r3, pc}
	...

100034d8 <stdio_out_chars_crlf>:
100034d8:	b5f8      	push	{r3, r4, r5, r6, r7, lr}
100034da:	4607      	mov	r7, r0
100034dc:	460d      	mov	r5, r1
100034de:	4616      	mov	r6, r2
100034e0:	7d43      	ldrb	r3, [r0, #21]
100034e2:	b113      	cbz	r3, 100034ea <stdio_out_chars_crlf+0x12>
100034e4:	2400      	movs	r4, #0
100034e6:	4620      	mov	r0, r4
100034e8:	e00c      	b.n	10003504 <stdio_out_chars_crlf+0x2c>
100034ea:	6803      	ldr	r3, [r0, #0]
100034ec:	4611      	mov	r1, r2
100034ee:	4628      	mov	r0, r5
100034f0:	4798      	blx	r3
100034f2:	e02e      	b.n	10003552 <stdio_out_chars_crlf+0x7a>
100034f4:	7d3b      	ldrb	r3, [r7, #20]
100034f6:	e010      	b.n	1000351a <stdio_out_chars_crlf+0x42>
100034f8:	683b      	ldr	r3, [r7, #0]
100034fa:	2102      	movs	r1, #2
100034fc:	4815      	ldr	r0, [pc, #84]	@ (10003554 <stdio_out_chars_crlf+0x7c>)
100034fe:	4798      	blx	r3
10003500:	1c60      	adds	r0, r4, #1
10003502:	3401      	adds	r4, #1
10003504:	42b4      	cmp	r4, r6
10003506:	da14      	bge.n	10003532 <stdio_out_chars_crlf+0x5a>
10003508:	2c00      	cmp	r4, #0
1000350a:	ddf3      	ble.n	100034f4 <stdio_out_chars_crlf+0x1c>
1000350c:	192b      	adds	r3, r5, r4
1000350e:	f813 3c01 	ldrb.w	r3, [r3, #-1]
10003512:	2b0d      	cmp	r3, #13
10003514:	bf14      	ite	ne
10003516:	2300      	movne	r3, #0
10003518:	2301      	moveq	r3, #1
1000351a:	5d2a      	ldrb	r2, [r5, r4]
1000351c:	2a0a      	cmp	r2, #10
1000351e:	d1f0      	bne.n	10003502 <stdio_out_chars_crlf+0x2a>
10003520:	2b00      	cmp	r3, #0
10003522:	d1ee      	bne.n	10003502 <stdio_out_chars_crlf+0x2a>
10003524:	42a0      	cmp	r0, r4
10003526:	dae7      	bge.n	100034f8 <stdio_out_chars_crlf+0x20>
10003528:	683b      	ldr	r3, [r7, #0]
1000352a:	1a21      	subs	r1, r4, r0
1000352c:	4428      	add	r0, r5
1000352e:	4798      	blx	r3
10003530:	e7e2      	b.n	100034f8 <stdio_out_chars_crlf+0x20>
10003532:	42b0      	cmp	r0, r6
10003534:	da03      	bge.n	1000353e <stdio_out_chars_crlf+0x66>
10003536:	683b      	ldr	r3, [r7, #0]
10003538:	1a31      	subs	r1, r6, r0
1000353a:	4428      	add	r0, r5
1000353c:	4798      	blx	r3
1000353e:	2e00      	cmp	r6, #0
10003540:	dd07      	ble.n	10003552 <stdio_out_chars_crlf+0x7a>
10003542:	4435      	add	r5, r6
10003544:	f815 3c01 	ldrb.w	r3, [r5, #-1]
10003548:	2b0d      	cmp	r3, #13
1000354a:	bf14      	ite	ne
1000354c:	2300      	movne	r3, #0
1000354e:	2301      	moveq	r3, #1
10003550:	753b      	strb	r3, [r7, #20]
10003552:	bdf8      	pop	{r3, r4, r5, r6, r7, pc}
10003554:	100073e8 	.word	0x100073e8

10003558 <stdio_stack_buffer_flush>:
10003558:	b538      	push	{r3, r4, r5, lr}
1000355a:	6803      	ldr	r3, [r0, #0]
1000355c:	b1bb      	cbz	r3, 1000358e <stdio_stack_buffer_flush+0x36>
1000355e:	4605      	mov	r5, r0
10003560:	4b0b      	ldr	r3, [pc, #44]	@ (10003590 <stdio_stack_buffer_flush+0x38>)
10003562:	681c      	ldr	r4, [r3, #0]
10003564:	e006      	b.n	10003574 <stdio_stack_buffer_flush+0x1c>
10003566:	4629      	mov	r1, r5
10003568:	f851 2b04 	ldr.w	r2, [r1], #4
1000356c:	4620      	mov	r0, r4
1000356e:	f7ff ffb3 	bl	100034d8 <stdio_out_chars_crlf>
10003572:	6924      	ldr	r4, [r4, #16]
10003574:	b14c      	cbz	r4, 1000358a <stdio_stack_buffer_flush+0x32>
10003576:	6823      	ldr	r3, [r4, #0]
10003578:	2b00      	cmp	r3, #0
1000357a:	d0fa      	beq.n	10003572 <stdio_stack_buffer_flush+0x1a>
1000357c:	4b05      	ldr	r3, [pc, #20]	@ (10003594 <stdio_stack_buffer_flush+0x3c>)
1000357e:	681b      	ldr	r3, [r3, #0]
10003580:	2b00      	cmp	r3, #0
10003582:	d0f0      	beq.n	10003566 <stdio_stack_buffer_flush+0xe>
10003584:	42a3      	cmp	r3, r4
10003586:	d1f4      	bne.n	10003572 <stdio_stack_buffer_flush+0x1a>
10003588:	e7ed      	b.n	10003566 <stdio_stack_buffer_flush+0xe>
1000358a:	2300      	movs	r3, #0
1000358c:	602b      	str	r3, [r5, #0]
1000358e:	bd38      	pop	{r3, r4, r5, pc}
10003590:	200017a0 	.word	0x200017a0
10003594:	200017b8 	.word	0x200017b8

10003598 <stdio_buffered_printer>:
10003598:	b538      	push	{r3, r4, r5, lr}
1000359a:	4605      	mov	r5, r0
1000359c:	460c      	mov	r4, r1
1000359e:	680b      	ldr	r3, [r1, #0]
100035a0:	2b80      	cmp	r3, #128	@ 0x80
100035a2:	d005      	beq.n	100035b0 <stdio_buffered_printer+0x18>
100035a4:	6823      	ldr	r3, [r4, #0]
100035a6:	1c5a      	adds	r2, r3, #1
100035a8:	6022      	str	r2, [r4, #0]
100035aa:	441c      	add	r4, r3
100035ac:	7125      	strb	r5, [r4, #4]
100035ae:	bd38      	pop	{r3, r4, r5, pc}
100035b0:	4608      	mov	r0, r1
100035b2:	f7ff ffd1 	bl	10003558 <stdio_stack_buffer_flush>
100035b6:	e7f5      	b.n	100035a4 <stdio_buffered_printer+0xc>

100035b8 <stdout_serialize_begin>:
100035b8:	b508      	push	{r3, lr}
100035ba:	f7fe f9ff 	bl	100019bc <time_us_64>
100035be:	4a07      	ldr	r2, [pc, #28]	@ (100035dc <stdout_serialize_begin+0x24>)
100035c0:	1882      	adds	r2, r0, r2
100035c2:	f141 0300 	adc.w	r3, r1, #0
100035c6:	2b00      	cmp	r3, #0
100035c8:	db03      	blt.n	100035d2 <stdout_serialize_begin+0x1a>
100035ca:	4805      	ldr	r0, [pc, #20]	@ (100035e0 <stdout_serialize_begin+0x28>)
100035cc:	f002 ff64 	bl	10006498 <__mutex_try_enter_block_until_veneer>
100035d0:	bd08      	pop	{r3, pc}
100035d2:	f04f 32ff 	mov.w	r2, #4294967295
100035d6:	f06f 4300 	mvn.w	r3, #2147483648	@ 0x80000000
100035da:	e7f6      	b.n	100035ca <stdout_serialize_begin+0x12>
100035dc:	000f4240 	.word	0x000f4240
100035e0:	20000eac 	.word	0x20000eac

100035e4 <stdout_serialize_end>:
100035e4:	b508      	push	{r3, lr}
100035e6:	4802      	ldr	r0, [pc, #8]	@ (100035f0 <stdout_serialize_end+0xc>)
100035e8:	f002 ff4a 	bl	10006480 <__mutex_exit_veneer>
100035ec:	bd08      	pop	{r3, pc}
100035ee:	bf00      	nop
100035f0:	20000eac 	.word	0x20000eac

100035f4 <stdio_put_string>:
100035f4:	e92d 43f0 	stmdb	sp!, {r4, r5, r6, r7, r8, r9, lr}
100035f8:	b083      	sub	sp, #12
100035fa:	4606      	mov	r6, r0
100035fc:	460d      	mov	r5, r1
100035fe:	4690      	mov	r8, r2
10003600:	461c      	mov	r4, r3
10003602:	f7ff ffd9 	bl	100035b8 <stdout_serialize_begin>
10003606:	4681      	mov	r9, r0
10003608:	f1b5 3fff 	cmp.w	r5, #4294967295
1000360c:	d004      	beq.n	10003618 <stdio_put_string+0x24>
1000360e:	b144      	cbz	r4, 10003622 <stdio_put_string+0x2e>
10003610:	4f17      	ldr	r7, [pc, #92]	@ (10003670 <stdio_put_string+0x7c>)
10003612:	4b18      	ldr	r3, [pc, #96]	@ (10003674 <stdio_put_string+0x80>)
10003614:	681c      	ldr	r4, [r3, #0]
10003616:	e007      	b.n	10003628 <stdio_put_string+0x34>
10003618:	4630      	mov	r0, r6
1000361a:	f002 fee9 	bl	100063f0 <strlen>
1000361e:	4605      	mov	r5, r0
10003620:	e7f5      	b.n	1000360e <stdio_put_string+0x1a>
10003622:	4f15      	ldr	r7, [pc, #84]	@ (10003678 <stdio_put_string+0x84>)
10003624:	e7f5      	b.n	10003612 <stdio_put_string+0x1e>
10003626:	6924      	ldr	r4, [r4, #16]
10003628:	b1bc      	cbz	r4, 1000365a <stdio_put_string+0x66>
1000362a:	6823      	ldr	r3, [r4, #0]
1000362c:	2b00      	cmp	r3, #0
1000362e:	d0fa      	beq.n	10003626 <stdio_put_string+0x32>
10003630:	4b12      	ldr	r3, [pc, #72]	@ (1000367c <stdio_put_string+0x88>)
10003632:	681b      	ldr	r3, [r3, #0]
10003634:	b10b      	cbz	r3, 1000363a <stdio_put_string+0x46>
10003636:	42a3      	cmp	r3, r4
10003638:	d1f5      	bne.n	10003626 <stdio_put_string+0x32>
1000363a:	462a      	mov	r2, r5
1000363c:	4631      	mov	r1, r6
1000363e:	4620      	mov	r0, r4
10003640:	47b8      	blx	r7
10003642:	f1b8 0f00 	cmp.w	r8, #0
10003646:	d0ee      	beq.n	10003626 <stdio_put_string+0x32>
10003648:	230a      	movs	r3, #10
1000364a:	f88d 3007 	strb.w	r3, [sp, #7]
1000364e:	2201      	movs	r2, #1
10003650:	f10d 0107 	add.w	r1, sp, #7
10003654:	4620      	mov	r0, r4
10003656:	47b8      	blx	r7
10003658:	e7e5      	b.n	10003626 <stdio_put_string+0x32>
1000365a:	f1b9 0f00 	cmp.w	r9, #0
1000365e:	d103      	bne.n	10003668 <stdio_put_string+0x74>
10003660:	4628      	mov	r0, r5
10003662:	b003      	add	sp, #12
10003664:	e8bd 83f0 	ldmia.w	sp!, {r4, r5, r6, r7, r8, r9, pc}
10003668:	f7ff ffbc 	bl	100035e4 <stdout_serialize_end>
1000366c:	e7f8      	b.n	10003660 <stdio_put_string+0x6c>
1000366e:	bf00      	nop
10003670:	100034d9 	.word	0x100034d9
10003674:	200017a0 	.word	0x200017a0
10003678:	100034c9 	.word	0x100034c9
1000367c:	200017b8 	.word	0x200017b8

10003680 <stdio_set_driver_enabled>:
10003680:	4a08      	ldr	r2, [pc, #32]	@ (100036a4 <stdio_set_driver_enabled+0x24>)
10003682:	e001      	b.n	10003688 <stdio_set_driver_enabled+0x8>
10003684:	f103 0210 	add.w	r2, r3, #16
10003688:	6813      	ldr	r3, [r2, #0]
1000368a:	b13b      	cbz	r3, 1000369c <stdio_set_driver_enabled+0x1c>
1000368c:	4283      	cmp	r3, r0
1000368e:	d1f9      	bne.n	10003684 <stdio_set_driver_enabled+0x4>
10003690:	b931      	cbnz	r1, 100036a0 <stdio_set_driver_enabled+0x20>
10003692:	6903      	ldr	r3, [r0, #16]
10003694:	6013      	str	r3, [r2, #0]
10003696:	2300      	movs	r3, #0
10003698:	6103      	str	r3, [r0, #16]
1000369a:	4770      	bx	lr
1000369c:	b101      	cbz	r1, 100036a0 <stdio_set_driver_enabled+0x20>
1000369e:	6010      	str	r0, [r2, #0]
100036a0:	4770      	bx	lr
100036a2:	bf00      	nop
100036a4:	200017a0 	.word	0x200017a0

100036a8 <stdio_flush>:
100036a8:	b510      	push	{r4, lr}
100036aa:	4b05      	ldr	r3, [pc, #20]	@ (100036c0 <stdio_flush+0x18>)
100036ac:	681c      	ldr	r4, [r3, #0]
100036ae:	e001      	b.n	100036b4 <stdio_flush+0xc>
100036b0:	4798      	blx	r3
100036b2:	6924      	ldr	r4, [r4, #16]
100036b4:	b11c      	cbz	r4, 100036be <stdio_flush+0x16>
100036b6:	6863      	ldr	r3, [r4, #4]
100036b8:	2b00      	cmp	r3, #0
100036ba:	d1f9      	bne.n	100036b0 <stdio_flush+0x8>
100036bc:	e7f9      	b.n	100036b2 <stdio_flush+0xa>
100036be:	bd10      	pop	{r4, pc}
100036c0:	200017a0 	.word	0x200017a0

100036c4 <__wrap_puts>:
100036c4:	b538      	push	{r3, r4, r5, lr}
100036c6:	4605      	mov	r5, r0
100036c8:	f002 fe92 	bl	100063f0 <strlen>
100036cc:	4604      	mov	r4, r0
100036ce:	2301      	movs	r3, #1
100036d0:	461a      	mov	r2, r3
100036d2:	4601      	mov	r1, r0
100036d4:	4628      	mov	r0, r5
100036d6:	f7ff ff8d 	bl	100035f4 <stdio_put_string>
100036da:	f7ff ffe5 	bl	100036a8 <stdio_flush>
100036de:	4620      	mov	r0, r4
100036e0:	bd38      	pop	{r3, r4, r5, pc}
	...

100036e4 <__wrap_vprintf>:
100036e4:	b570      	push	{r4, r5, r6, lr}
100036e6:	b0a2      	sub	sp, #136	@ 0x88
100036e8:	4604      	mov	r4, r0
100036ea:	460e      	mov	r6, r1
100036ec:	f7ff ff64 	bl	100035b8 <stdout_serialize_begin>
100036f0:	4605      	mov	r5, r0
100036f2:	2300      	movs	r3, #0
100036f4:	9301      	str	r3, [sp, #4]
100036f6:	4633      	mov	r3, r6
100036f8:	4622      	mov	r2, r4
100036fa:	a901      	add	r1, sp, #4
100036fc:	4807      	ldr	r0, [pc, #28]	@ (1000371c <__wrap_vprintf+0x38>)
100036fe:	f7ff fe9b 	bl	10003438 <vfctprintf>
10003702:	4604      	mov	r4, r0
10003704:	a801      	add	r0, sp, #4
10003706:	f7ff ff27 	bl	10003558 <stdio_stack_buffer_flush>
1000370a:	f7ff ffcd 	bl	100036a8 <stdio_flush>
1000370e:	b915      	cbnz	r5, 10003716 <__wrap_vprintf+0x32>
10003710:	4620      	mov	r0, r4
10003712:	b022      	add	sp, #136	@ 0x88
10003714:	bd70      	pop	{r4, r5, r6, pc}
10003716:	f7ff ff65 	bl	100035e4 <stdout_serialize_end>
1000371a:	e7f9      	b.n	10003710 <__wrap_vprintf+0x2c>
1000371c:	10003599 	.word	0x10003599

10003720 <__wrap_printf>:
10003720:	b40f      	push	{r0, r1, r2, r3}
10003722:	b500      	push	{lr}
10003724:	b083      	sub	sp, #12
10003726:	a904      	add	r1, sp, #16
10003728:	f851 0b04 	ldr.w	r0, [r1], #4
1000372c:	9101      	str	r1, [sp, #4]
1000372e:	f7ff ffd9 	bl	100036e4 <__wrap_vprintf>
10003732:	b003      	add	sp, #12
10003734:	f85d eb04 	ldr.w	lr, [sp], #4
10003738:	b004      	add	sp, #16
1000373a:	4770      	bx	lr

1000373c <uart_putc>:
1000373c:	b082      	sub	sp, #8
1000373e:	468c      	mov	ip, r1
10003740:	4b18      	ldr	r3, [pc, #96]	@ (100037a4 <uart_putc+0x68>)
10003742:	4298      	cmp	r0, r3
10003744:	bf14      	ite	ne
10003746:	2300      	movne	r3, #0
10003748:	2301      	moveq	r3, #1
1000374a:	4a17      	ldr	r2, [pc, #92]	@ (100037a8 <uart_putc+0x6c>)
1000374c:	f932 3013 	ldrsh.w	r3, [r2, r3, lsl #1]
10003750:	428b      	cmp	r3, r1
10003752:	d005      	beq.n	10003760 <uart_putc+0x24>
10003754:	f88d c007 	strb.w	ip, [sp, #7]
10003758:	2100      	movs	r1, #0
1000375a:	f10d 0207 	add.w	r2, sp, #7
1000375e:	e01c      	b.n	1000379a <uart_putc+0x5e>
10003760:	230d      	movs	r3, #13
10003762:	f88d 3007 	strb.w	r3, [sp, #7]
10003766:	2100      	movs	r1, #0
10003768:	f10d 0207 	add.w	r2, sp, #7
1000376c:	2900      	cmp	r1, #0
1000376e:	d1f1      	bne.n	10003754 <uart_putc+0x18>
10003770:	6983      	ldr	r3, [r0, #24]
10003772:	f013 0f20 	tst.w	r3, #32
10003776:	d1fb      	bne.n	10003770 <uart_putc+0x34>
10003778:	4613      	mov	r3, r2
1000377a:	f813 2b01 	ldrb.w	r2, [r3], #1
1000377e:	6002      	str	r2, [r0, #0]
10003780:	3101      	adds	r1, #1
10003782:	461a      	mov	r2, r3
10003784:	e7f2      	b.n	1000376c <uart_putc+0x30>
10003786:	6983      	ldr	r3, [r0, #24]
10003788:	f013 0f20 	tst.w	r3, #32
1000378c:	d1fb      	bne.n	10003786 <uart_putc+0x4a>
1000378e:	4613      	mov	r3, r2
10003790:	f813 2b01 	ldrb.w	r2, [r3], #1
10003794:	6002      	str	r2, [r0, #0]
10003796:	3101      	adds	r1, #1
10003798:	461a      	mov	r2, r3
1000379a:	2900      	cmp	r1, #0
1000379c:	d0f3      	beq.n	10003786 <uart_putc+0x4a>
1000379e:	b002      	add	sp, #8
100037a0:	4770      	bx	lr
100037a2:	bf00      	nop
100037a4:	40078000 	.word	0x40078000
100037a8:	200022f8 	.word	0x200022f8

100037ac <uart_getc>:
100037ac:	b410      	push	{r4}
100037ae:	b083      	sub	sp, #12
100037b0:	2100      	movs	r1, #0
100037b2:	f10d 0207 	add.w	r2, sp, #7
100037b6:	e009      	b.n	100037cc <uart_getc+0x20>
100037b8:	6983      	ldr	r3, [r0, #24]
100037ba:	f013 0f10 	tst.w	r3, #16
100037be:	d1fb      	bne.n	100037b8 <uart_getc+0xc>
100037c0:	6804      	ldr	r4, [r0, #0]
100037c2:	4613      	mov	r3, r2
100037c4:	f803 4b01 	strb.w	r4, [r3], #1
100037c8:	3101      	adds	r1, #1
100037ca:	461a      	mov	r2, r3
100037cc:	2900      	cmp	r1, #0
100037ce:	d0f3      	beq.n	100037b8 <uart_getc+0xc>
100037d0:	f89d 0007 	ldrb.w	r0, [sp, #7]
100037d4:	b003      	add	sp, #12
100037d6:	f85d 4b04 	ldr.w	r4, [sp], #4
100037da:	4770      	bx	lr

100037dc <stdio_uart_out_chars>:
100037dc:	b570      	push	{r4, r5, r6, lr}
100037de:	4606      	mov	r6, r0
100037e0:	460d      	mov	r5, r1
100037e2:	2400      	movs	r4, #0
100037e4:	e005      	b.n	100037f2 <stdio_uart_out_chars+0x16>
100037e6:	5d31      	ldrb	r1, [r6, r4]
100037e8:	4b03      	ldr	r3, [pc, #12]	@ (100037f8 <stdio_uart_out_chars+0x1c>)
100037ea:	6818      	ldr	r0, [r3, #0]
100037ec:	f7ff ffa6 	bl	1000373c <uart_putc>
100037f0:	3401      	adds	r4, #1
100037f2:	42ac      	cmp	r4, r5
100037f4:	dbf7      	blt.n	100037e6 <stdio_uart_out_chars+0xa>
100037f6:	bd70      	pop	{r4, r5, r6, pc}
100037f8:	20002300 	.word	0x20002300

100037fc <stdio_uart_in_chars>:
100037fc:	b5f8      	push	{r3, r4, r5, r6, r7, lr}
100037fe:	4607      	mov	r7, r0
10003800:	460e      	mov	r6, r1
10003802:	2400      	movs	r4, #0
10003804:	e004      	b.n	10003810 <stdio_uart_in_chars+0x14>
10003806:	1c65      	adds	r5, r4, #1
10003808:	f7ff ffd0 	bl	100037ac <uart_getc>
1000380c:	5538      	strb	r0, [r7, r4]
1000380e:	462c      	mov	r4, r5
10003810:	42b4      	cmp	r4, r6
10003812:	da05      	bge.n	10003820 <stdio_uart_in_chars+0x24>
10003814:	4b0c      	ldr	r3, [pc, #48]	@ (10003848 <stdio_uart_in_chars+0x4c>)
10003816:	6818      	ldr	r0, [r3, #0]
10003818:	6983      	ldr	r3, [r0, #24]
1000381a:	f013 0f10 	tst.w	r3, #16
1000381e:	d0f2      	beq.n	10003806 <stdio_uart_in_chars+0xa>
10003820:	4b0a      	ldr	r3, [pc, #40]	@ (1000384c <stdio_uart_in_chars+0x50>)
10003822:	681b      	ldr	r3, [r3, #0]
10003824:	b14b      	cbz	r3, 1000383a <stdio_uart_in_chars+0x3e>
10003826:	4b08      	ldr	r3, [pc, #32]	@ (10003848 <stdio_uart_in_chars+0x4c>)
10003828:	681b      	ldr	r3, [r3, #0]
1000382a:	2250      	movs	r2, #80	@ 0x50
1000382c:	639a      	str	r2, [r3, #56]	@ 0x38
1000382e:	6b5a      	ldr	r2, [r3, #52]	@ 0x34
10003830:	f002 0238 	and.w	r2, r2, #56	@ 0x38
10003834:	f503 5381 	add.w	r3, r3, #4128	@ 0x1020
10003838:	615a      	str	r2, [r3, #20]
1000383a:	b10c      	cbz	r4, 10003840 <stdio_uart_in_chars+0x44>
1000383c:	4620      	mov	r0, r4
1000383e:	bdf8      	pop	{r3, r4, r5, r6, r7, pc}
10003840:	f06f 0402 	mvn.w	r4, #2
10003844:	e7fa      	b.n	1000383c <stdio_uart_in_chars+0x40>
10003846:	bf00      	nop
10003848:	20002300 	.word	0x20002300
1000384c:	20001724 	.word	0x20001724

10003850 <on_uart_rx>:
10003850:	b508      	push	{r3, lr}
10003852:	4b05      	ldr	r3, [pc, #20]	@ (10003868 <on_uart_rx+0x18>)
10003854:	681b      	ldr	r3, [r3, #0]
10003856:	b133      	cbz	r3, 10003866 <on_uart_rx+0x16>
10003858:	4a04      	ldr	r2, [pc, #16]	@ (1000386c <on_uart_rx+0x1c>)
1000385a:	6812      	ldr	r2, [r2, #0]
1000385c:	2100      	movs	r1, #0
1000385e:	6391      	str	r1, [r2, #56]	@ 0x38
10003860:	4a03      	ldr	r2, [pc, #12]	@ (10003870 <on_uart_rx+0x20>)
10003862:	6810      	ldr	r0, [r2, #0]
10003864:	4798      	blx	r3
10003866:	bd08      	pop	{r3, pc}
10003868:	20001724 	.word	0x20001724
1000386c:	20002300 	.word	0x20002300
10003870:	20001728 	.word	0x20001728

10003874 <stdio_uart_out_flush>:
10003874:	4b03      	ldr	r3, [pc, #12]	@ (10003884 <stdio_uart_out_flush+0x10>)
10003876:	681a      	ldr	r2, [r3, #0]
10003878:	6993      	ldr	r3, [r2, #24]
1000387a:	f013 0f08 	tst.w	r3, #8
1000387e:	d1fb      	bne.n	10003878 <stdio_uart_out_flush+0x4>
10003880:	4770      	bx	lr
10003882:	bf00      	nop
10003884:	20002300 	.word	0x20002300

10003888 <stdio_uart_set_chars_available_callback>:
10003888:	b538      	push	{r3, r4, r5, lr}
1000388a:	4b1b      	ldr	r3, [pc, #108]	@ (100038f8 <stdio_uart_set_chars_available_callback+0x70>)
1000388c:	681b      	ldr	r3, [r3, #0]
1000388e:	4a1b      	ldr	r2, [pc, #108]	@ (100038fc <stdio_uart_set_chars_available_callback+0x74>)
10003890:	4293      	cmp	r3, r2
10003892:	d005      	beq.n	100038a0 <stdio_uart_set_chars_available_callback+0x18>
10003894:	2421      	movs	r4, #33	@ 0x21
10003896:	b1e0      	cbz	r0, 100038d2 <stdio_uart_set_chars_available_callback+0x4a>
10003898:	4b19      	ldr	r3, [pc, #100]	@ (10003900 <stdio_uart_set_chars_available_callback+0x78>)
1000389a:	681b      	ldr	r3, [r3, #0]
1000389c:	b113      	cbz	r3, 100038a4 <stdio_uart_set_chars_available_callback+0x1c>
1000389e:	bd38      	pop	{r3, r4, r5, pc}
100038a0:	2422      	movs	r4, #34	@ 0x22
100038a2:	e7f8      	b.n	10003896 <stdio_uart_set_chars_available_callback+0xe>
100038a4:	4b16      	ldr	r3, [pc, #88]	@ (10003900 <stdio_uart_set_chars_available_callback+0x78>)
100038a6:	6018      	str	r0, [r3, #0]
100038a8:	4b16      	ldr	r3, [pc, #88]	@ (10003904 <stdio_uart_set_chars_available_callback+0x7c>)
100038aa:	6019      	str	r1, [r3, #0]
100038ac:	4916      	ldr	r1, [pc, #88]	@ (10003908 <stdio_uart_set_chars_available_callback+0x80>)
100038ae:	4620      	mov	r0, r4
100038b0:	f7fd f9ec 	bl	10000c8c <irq_set_exclusive_handler>
100038b4:	2101      	movs	r1, #1
100038b6:	4620      	mov	r0, r4
100038b8:	f7fd f9d6 	bl	10000c68 <irq_set_enabled>
100038bc:	4b0e      	ldr	r3, [pc, #56]	@ (100038f8 <stdio_uart_set_chars_available_callback+0x70>)
100038be:	681b      	ldr	r3, [r3, #0]
100038c0:	2250      	movs	r2, #80	@ 0x50
100038c2:	639a      	str	r2, [r3, #56]	@ 0x38
100038c4:	6b5a      	ldr	r2, [r3, #52]	@ 0x34
100038c6:	f002 0238 	and.w	r2, r2, #56	@ 0x38
100038ca:	f503 5381 	add.w	r3, r3, #4128	@ 0x1020
100038ce:	615a      	str	r2, [r3, #20]
100038d0:	e7e5      	b.n	1000389e <stdio_uart_set_chars_available_callback+0x16>
100038d2:	4a0b      	ldr	r2, [pc, #44]	@ (10003900 <stdio_uart_set_chars_available_callback+0x78>)
100038d4:	6812      	ldr	r2, [r2, #0]
100038d6:	2a00      	cmp	r2, #0
100038d8:	d0e1      	beq.n	1000389e <stdio_uart_set_chars_available_callback+0x16>
100038da:	2500      	movs	r5, #0
100038dc:	639d      	str	r5, [r3, #56]	@ 0x38
100038de:	4629      	mov	r1, r5
100038e0:	4620      	mov	r0, r4
100038e2:	f7fd f9c1 	bl	10000c68 <irq_set_enabled>
100038e6:	4908      	ldr	r1, [pc, #32]	@ (10003908 <stdio_uart_set_chars_available_callback+0x80>)
100038e8:	4620      	mov	r0, r4
100038ea:	f7fd fb19 	bl	10000f20 <irq_remove_handler>
100038ee:	4b04      	ldr	r3, [pc, #16]	@ (10003900 <stdio_uart_set_chars_available_callback+0x78>)
100038f0:	601d      	str	r5, [r3, #0]
100038f2:	4b04      	ldr	r3, [pc, #16]	@ (10003904 <stdio_uart_set_chars_available_callback+0x7c>)
100038f4:	601d      	str	r5, [r3, #0]
100038f6:	e7d2      	b.n	1000389e <stdio_uart_set_chars_available_callback+0x16>
100038f8:	20002300 	.word	0x20002300
100038fc:	40078000 	.word	0x40078000
10003900:	20001724 	.word	0x20001724
10003904:	20001728 	.word	0x20001728
10003908:	10003851 	.word	0x10003851

1000390c <stdio_uart_init_full>:
1000390c:	b538      	push	{r3, r4, r5, lr}
1000390e:	460d      	mov	r5, r1
10003910:	461c      	mov	r4, r3
10003912:	4b10      	ldr	r3, [pc, #64]	@ (10003954 <stdio_uart_init_full+0x48>)
10003914:	6018      	str	r0, [r3, #0]
10003916:	1e10      	subs	r0, r2, #0
10003918:	db05      	blt.n	10003926 <stdio_uart_init_full+0x1a>
1000391a:	f010 0f02 	tst.w	r0, #2
1000391e:	d015      	beq.n	1000394c <stdio_uart_init_full+0x40>
10003920:	210b      	movs	r1, #11
10003922:	f7fd f82f 	bl	10000984 <gpio_set_function>
10003926:	2c00      	cmp	r4, #0
10003928:	db06      	blt.n	10003938 <stdio_uart_init_full+0x2c>
1000392a:	f014 0f02 	tst.w	r4, #2
1000392e:	d00f      	beq.n	10003950 <stdio_uart_init_full+0x44>
10003930:	210b      	movs	r1, #11
10003932:	4620      	mov	r0, r4
10003934:	f7fd f826 	bl	10000984 <gpio_set_function>
10003938:	4629      	mov	r1, r5
1000393a:	4b06      	ldr	r3, [pc, #24]	@ (10003954 <stdio_uart_init_full+0x48>)
1000393c:	6818      	ldr	r0, [r3, #0]
1000393e:	f7fe f8cf 	bl	10001ae0 <uart_init>
10003942:	2101      	movs	r1, #1
10003944:	4804      	ldr	r0, [pc, #16]	@ (10003958 <stdio_uart_init_full+0x4c>)
10003946:	f7ff fe9b 	bl	10003680 <stdio_set_driver_enabled>
1000394a:	bd38      	pop	{r3, r4, r5, pc}
1000394c:	2102      	movs	r1, #2
1000394e:	e7e8      	b.n	10003922 <stdio_uart_init_full+0x16>
10003950:	2102      	movs	r1, #2
10003952:	e7ee      	b.n	10003932 <stdio_uart_init_full+0x26>
10003954:	20002300 	.word	0x20002300
10003958:	20000e74 	.word	0x20000e74

1000395c <board_init>:
1000395c:	b508      	push	{r3, lr}
1000395e:	2019      	movs	r0, #25
10003960:	f7fd f82c 	bl	100009bc <gpio_init>
10003964:	2301      	movs	r3, #1
10003966:	2219      	movs	r2, #25
10003968:	ec43 2044 	gpioc_bit_oe_put r2, r3
1000396c:	4804      	ldr	r0, [pc, #16]	@ (10003980 <board_init+0x24>)
1000396e:	4a05      	ldr	r2, [pc, #20]	@ (10003984 <board_init+0x28>)
10003970:	6010      	str	r0, [r2, #0]
10003972:	2200      	movs	r2, #0
10003974:	f44f 31e1 	mov.w	r1, #115200	@ 0x1c200
10003978:	f7ff ffc8 	bl	1000390c <stdio_uart_init_full>
1000397c:	bd08      	pop	{r3, pc}
1000397e:	bf00      	nop
10003980:	40070000 	.word	0x40070000
10003984:	200022fc 	.word	0x200022fc

10003988 <board_led_write>:
10003988:	2319      	movs	r3, #25
1000398a:	ec40 3040 	gpioc_bit_out_put r3, r0
1000398e:	4770      	bx	lr

10003990 <board_button_read>:
10003990:	b508      	push	{r3, lr}
10003992:	f002 fd69 	bl	10006468 <__get_bootsel_button_veneer>
10003996:	f080 0001 	eor.w	r0, r0, #1
1000399a:	b2c0      	uxtb	r0, r0
1000399c:	bd08      	pop	{r3, pc}

1000399e <board_get_unique_id>:
1000399e:	b530      	push	{r4, r5, lr}
100039a0:	b083      	sub	sp, #12
100039a2:	4605      	mov	r5, r0
100039a4:	460c      	mov	r4, r1
100039a6:	4668      	mov	r0, sp
100039a8:	f000 f838 	bl	10003a1c <pico_get_unique_board_id>
100039ac:	2c07      	cmp	r4, #7
100039ae:	d807      	bhi.n	100039c0 <board_get_unique_id+0x22>
100039b0:	4622      	mov	r2, r4
100039b2:	4669      	mov	r1, sp
100039b4:	4628      	mov	r0, r5
100039b6:	f002 fca5 	bl	10006304 <memcpy>
100039ba:	4620      	mov	r0, r4
100039bc:	b003      	add	sp, #12
100039be:	bd30      	pop	{r4, r5, pc}
100039c0:	2408      	movs	r4, #8
100039c2:	e7f5      	b.n	100039b0 <board_get_unique_id+0x12>

100039c4 <_retrieve_unique_id_on_boot>:
100039c4:	b500      	push	{lr}
100039c6:	b08b      	sub	sp, #44	@ 0x2c
100039c8:	f245 3047 	movw	r0, #21319	@ 0x5347
100039cc:	f7fe f9b4 	bl	10001d38 <rom_func_lookup>
100039d0:	4603      	mov	r3, r0
100039d2:	2201      	movs	r2, #1
100039d4:	2109      	movs	r1, #9
100039d6:	a801      	add	r0, sp, #4
100039d8:	4798      	blx	r3
100039da:	2804      	cmp	r0, #4
100039dc:	d101      	bne.n	100039e2 <_retrieve_unique_id_on_boot+0x1e>
100039de:	2300      	movs	r3, #0
100039e0:	e00e      	b.n	10003a00 <_retrieve_unique_id_on_boot+0x3c>
100039e2:	4b0a      	ldr	r3, [pc, #40]	@ (10003a0c <_retrieve_unique_id_on_boot+0x48>)
100039e4:	4a0a      	ldr	r2, [pc, #40]	@ (10003a10 <_retrieve_unique_id_on_boot+0x4c>)
100039e6:	2129      	movs	r1, #41	@ 0x29
100039e8:	480a      	ldr	r0, [pc, #40]	@ (10003a14 <_retrieve_unique_id_on_boot+0x50>)
100039ea:	f7ff fd3d 	bl	10003468 <__assert_func>
100039ee:	f1c3 020f 	rsb	r2, r3, #15
100039f2:	3228      	adds	r2, #40	@ 0x28
100039f4:	446a      	add	r2, sp
100039f6:	f812 1c24 	ldrb.w	r1, [r2, #-36]
100039fa:	4a07      	ldr	r2, [pc, #28]	@ (10003a18 <_retrieve_unique_id_on_boot+0x54>)
100039fc:	54d1      	strb	r1, [r2, r3]
100039fe:	3301      	adds	r3, #1
10003a00:	2b07      	cmp	r3, #7
10003a02:	ddf4      	ble.n	100039ee <_retrieve_unique_id_on_boot+0x2a>
10003a04:	b00b      	add	sp, #44	@ 0x2c
10003a06:	f85d fb04 	ldr.w	pc, [sp], #4
10003a0a:	bf00      	nop
10003a0c:	10006dec 	.word	0x10006dec
10003a10:	10007400 	.word	0x10007400
10003a14:	10006df4 	.word	0x10006df4
10003a18:	20001fd0 	.word	0x20001fd0

10003a1c <pico_get_unique_board_id>:
10003a1c:	4603      	mov	r3, r0
10003a1e:	4a02      	ldr	r2, [pc, #8]	@ (10003a28 <pico_get_unique_board_id+0xc>)
10003a20:	ca03      	ldmia	r2!, {r0, r1}
10003a22:	6018      	str	r0, [r3, #0]
10003a24:	6059      	str	r1, [r3, #4]
10003a26:	4770      	bx	lr
10003a28:	20001fd0 	.word	0x20001fd0

10003a2c <_hw_endpoint_alloc>:
10003a2c:	b510      	push	{r4, lr}
10003a2e:	8b03      	ldrh	r3, [r0, #24]
10003a30:	333f      	adds	r3, #63	@ 0x3f
10003a32:	f023 033f 	bic.w	r3, r3, #63	@ 0x3f
10003a36:	2902      	cmp	r1, #2
10003a38:	d019      	beq.n	10003a6e <_hw_endpoint_alloc+0x42>
10003a3a:	4c14      	ldr	r4, [pc, #80]	@ (10003a8c <_hw_endpoint_alloc+0x60>)
10003a3c:	6822      	ldr	r2, [r4, #0]
10003a3e:	60c2      	str	r2, [r0, #12]
10003a40:	4413      	add	r3, r2
10003a42:	6023      	str	r3, [r4, #0]
10003a44:	f013 0f3f 	tst.w	r3, #63	@ 0x3f
10003a48:	d113      	bne.n	10003a72 <_hw_endpoint_alloc+0x46>
10003a4a:	f082 42a0 	eor.w	r2, r2, #1342177280	@ 0x50000000
10003a4e:	f482 1280 	eor.w	r2, r2, #1048576	@ 0x100000
10003a52:	f083 43a0 	eor.w	r3, r3, #1342177280	@ 0x50000000
10003a56:	f483 1380 	eor.w	r3, r3, #1048576	@ 0x100000
10003a5a:	f5b3 5f80 	cmp.w	r3, #4096	@ 0x1000
10003a5e:	d80e      	bhi.n	10003a7e <_hw_endpoint_alloc+0x52>
10003a60:	ea42 6281 	orr.w	r2, r2, r1, lsl #26
10003a64:	f042 4200 	orr.w	r2, r2, #2147483648	@ 0x80000000
10003a68:	6843      	ldr	r3, [r0, #4]
10003a6a:	601a      	str	r2, [r3, #0]
10003a6c:	bd10      	pop	{r4, pc}
10003a6e:	005b      	lsls	r3, r3, #1
10003a70:	e7e3      	b.n	10003a3a <_hw_endpoint_alloc+0xe>
10003a72:	4b07      	ldr	r3, [pc, #28]	@ (10003a90 <_hw_endpoint_alloc+0x64>)
10003a74:	4a07      	ldr	r2, [pc, #28]	@ (10003a94 <_hw_endpoint_alloc+0x68>)
10003a76:	2151      	movs	r1, #81	@ 0x51
10003a78:	4807      	ldr	r0, [pc, #28]	@ (10003a98 <_hw_endpoint_alloc+0x6c>)
10003a7a:	f7ff fcf5 	bl	10003468 <__assert_func>
10003a7e:	4b07      	ldr	r3, [pc, #28]	@ (10003a9c <_hw_endpoint_alloc+0x70>)
10003a80:	4a04      	ldr	r2, [pc, #16]	@ (10003a94 <_hw_endpoint_alloc+0x68>)
10003a82:	2153      	movs	r1, #83	@ 0x53
10003a84:	4804      	ldr	r0, [pc, #16]	@ (10003a98 <_hw_endpoint_alloc+0x6c>)
10003a86:	f7ff fcef 	bl	10003468 <__assert_func>
10003a8a:	bf00      	nop
10003a8c:	20001f94 	.word	0x20001f94
10003a90:	10006e44 	.word	0x10006e44
10003a94:	1000745c 	.word	0x1000745c
10003a98:	10006e74 	.word	0x10006e74
10003a9c:	10006ed0 	.word	0x10006ed0

10003aa0 <hw_endpoint_init>:
10003aa0:	b538      	push	{r3, r4, r5, lr}
10003aa2:	4603      	mov	r3, r0
10003aa4:	f000 047f 	and.w	r4, r0, #127	@ 0x7f
10003aa8:	ea4f 0c44 	mov.w	ip, r4, lsl #1
10003aac:	eb0c 1cd0 	add.w	ip, ip, r0, lsr #7
10003ab0:	4822      	ldr	r0, [pc, #136]	@ (10003b3c <hw_endpoint_init+0x9c>)
10003ab2:	eb00 104c 	add.w	r0, r0, ip, lsl #5
10003ab6:	7083      	strb	r3, [r0, #2]
10003ab8:	09db      	lsrs	r3, r3, #7
10003aba:	bf0c      	ite	eq
10003abc:	2501      	moveq	r5, #1
10003abe:	2500      	movne	r5, #0
10003ac0:	7045      	strb	r5, [r0, #1]
10003ac2:	2500      	movs	r5, #0
10003ac4:	70c5      	strb	r5, [r0, #3]
10003ac6:	8301      	strh	r1, [r0, #24]
10003ac8:	76c2      	strb	r2, [r0, #27]
10003aca:	b9c3      	cbnz	r3, 10003afe <hw_endpoint_init+0x5e>
10003acc:	00e1      	lsls	r1, r4, #3
10003ace:	4d1c      	ldr	r5, [pc, #112]	@ (10003b40 <hw_endpoint_init+0xa0>)
10003ad0:	440d      	add	r5, r1
10003ad2:	eb03 0c44 	add.w	ip, r3, r4, lsl #1
10003ad6:	4919      	ldr	r1, [pc, #100]	@ (10003b3c <hw_endpoint_init+0x9c>)
10003ad8:	eb01 114c 	add.w	r1, r1, ip, lsl #5
10003adc:	608d      	str	r5, [r1, #8]
10003ade:	eb03 0c44 	add.w	ip, r3, r4, lsl #1
10003ae2:	4916      	ldr	r1, [pc, #88]	@ (10003b3c <hw_endpoint_init+0x9c>)
10003ae4:	eb01 114c 	add.w	r1, r1, ip, lsl #5
10003ae8:	6889      	ldr	r1, [r1, #8]
10003aea:	2500      	movs	r5, #0
10003aec:	600d      	str	r5, [r1, #0]
10003aee:	b95c      	cbnz	r4, 10003b08 <hw_endpoint_init+0x68>
10003af0:	4a12      	ldr	r2, [pc, #72]	@ (10003b3c <hw_endpoint_init+0x9c>)
10003af2:	eb02 134c 	add.w	r3, r2, ip, lsl #5
10003af6:	605d      	str	r5, [r3, #4]
10003af8:	4a12      	ldr	r2, [pc, #72]	@ (10003b44 <hw_endpoint_init+0xa4>)
10003afa:	60da      	str	r2, [r3, #12]
10003afc:	bd38      	pop	{r3, r4, r5, pc}
10003afe:	4d12      	ldr	r5, [pc, #72]	@ (10003b48 <hw_endpoint_init+0xa8>)
10003b00:	eb05 05c4 	add.w	r5, r5, r4, lsl #3
10003b04:	6085      	str	r5, [r0, #8]
10003b06:	e7ea      	b.n	10003ade <hw_endpoint_init+0x3e>
10003b08:	b96b      	cbnz	r3, 10003b26 <hw_endpoint_init+0x86>
10003b0a:	1e61      	subs	r1, r4, #1
10003b0c:	00c9      	lsls	r1, r1, #3
10003b0e:	4d0f      	ldr	r5, [pc, #60]	@ (10003b4c <hw_endpoint_init+0xac>)
10003b10:	440d      	add	r5, r1
10003b12:	eb03 0344 	add.w	r3, r3, r4, lsl #1
10003b16:	4909      	ldr	r1, [pc, #36]	@ (10003b3c <hw_endpoint_init+0x9c>)
10003b18:	eb01 1343 	add.w	r3, r1, r3, lsl #5
10003b1c:	605d      	str	r5, [r3, #4]
10003b1e:	4611      	mov	r1, r2
10003b20:	f7ff ff84 	bl	10003a2c <_hw_endpoint_alloc>
10003b24:	e7ea      	b.n	10003afc <hw_endpoint_init+0x5c>
10003b26:	1e61      	subs	r1, r4, #1
10003b28:	4d09      	ldr	r5, [pc, #36]	@ (10003b50 <hw_endpoint_init+0xb0>)
10003b2a:	eb05 05c1 	add.w	r5, r5, r1, lsl #3
10003b2e:	eb03 0344 	add.w	r3, r3, r4, lsl #1
10003b32:	4902      	ldr	r1, [pc, #8]	@ (10003b3c <hw_endpoint_init+0x9c>)
10003b34:	eb01 1343 	add.w	r3, r1, r3, lsl #5
10003b38:	605d      	str	r5, [r3, #4]
10003b3a:	e7f0      	b.n	10003b1e <hw_endpoint_init+0x7e>
10003b3c:	200017bc 	.word	0x200017bc
10003b40:	50100084 	.word	0x50100084
10003b44:	50100100 	.word	0x50100100
10003b48:	50100080 	.word	0x50100080
10003b4c:	5010000c 	.word	0x5010000c
10003b50:	50100008 	.word	0x50100008

10003b54 <_hw_endpoint_close>:
10003b54:	b508      	push	{r3, lr}
10003b56:	6842      	ldr	r2, [r0, #4]
10003b58:	2100      	movs	r1, #0
10003b5a:	6011      	str	r1, [r2, #0]
10003b5c:	6883      	ldr	r3, [r0, #8]
10003b5e:	6019      	str	r1, [r3, #0]
10003b60:	2220      	movs	r2, #32
10003b62:	f002 fb7d 	bl	10006260 <memset>
10003b66:	2301      	movs	r3, #1
10003b68:	2b0f      	cmp	r3, #15
10003b6a:	d80c      	bhi.n	10003b86 <_hw_endpoint_close+0x32>
10003b6c:	4a08      	ldr	r2, [pc, #32]	@ (10003b90 <_hw_endpoint_close+0x3c>)
10003b6e:	eb02 1283 	add.w	r2, r2, r3, lsl #6
10003b72:	68d2      	ldr	r2, [r2, #12]
10003b74:	b952      	cbnz	r2, 10003b8c <_hw_endpoint_close+0x38>
10003b76:	4a06      	ldr	r2, [pc, #24]	@ (10003b90 <_hw_endpoint_close+0x3c>)
10003b78:	eb02 1283 	add.w	r2, r2, r3, lsl #6
10003b7c:	6ad2      	ldr	r2, [r2, #44]	@ 0x2c
10003b7e:	b92a      	cbnz	r2, 10003b8c <_hw_endpoint_close+0x38>
10003b80:	3301      	adds	r3, #1
10003b82:	b2db      	uxtb	r3, r3
10003b84:	e7f0      	b.n	10003b68 <_hw_endpoint_close+0x14>
10003b86:	4b03      	ldr	r3, [pc, #12]	@ (10003b94 <_hw_endpoint_close+0x40>)
10003b88:	4a03      	ldr	r2, [pc, #12]	@ (10003b98 <_hw_endpoint_close+0x44>)
10003b8a:	601a      	str	r2, [r3, #0]
10003b8c:	bd08      	pop	{r3, pc}
10003b8e:	bf00      	nop
10003b90:	200017bc 	.word	0x200017bc
10003b94:	20001f94 	.word	0x20001f94
10003b98:	50100180 	.word	0x50100180

10003b9c <hw_endpoint_close>:
10003b9c:	b508      	push	{r3, lr}
10003b9e:	f000 037f 	and.w	r3, r0, #127	@ 0x7f
10003ba2:	005b      	lsls	r3, r3, #1
10003ba4:	eb03 10d0 	add.w	r0, r3, r0, lsr #7
10003ba8:	4b02      	ldr	r3, [pc, #8]	@ (10003bb4 <hw_endpoint_close+0x18>)
10003baa:	eb03 1040 	add.w	r0, r3, r0, lsl #5
10003bae:	f7ff ffd1 	bl	10003b54 <_hw_endpoint_close>
10003bb2:	bd08      	pop	{r3, pc}
10003bb4:	200017bc 	.word	0x200017bc

10003bb8 <hw_endpoint_xfer>:
10003bb8:	b508      	push	{r3, lr}
10003bba:	f000 037f 	and.w	r3, r0, #127	@ 0x7f
10003bbe:	005b      	lsls	r3, r3, #1
10003bc0:	eb03 10d0 	add.w	r0, r3, r0, lsr #7
10003bc4:	4b02      	ldr	r3, [pc, #8]	@ (10003bd0 <hw_endpoint_xfer+0x18>)
10003bc6:	eb03 1040 	add.w	r0, r3, r0, lsl #5
10003bca:	f000 f929 	bl	10003e20 <hw_endpoint_xfer_start>
10003bce:	bd08      	pop	{r3, pc}
10003bd0:	200017bc 	.word	0x200017bc

10003bd4 <dcd_int_enable>:
10003bd4:	b508      	push	{r3, lr}
10003bd6:	b920      	cbnz	r0, 10003be2 <dcd_int_enable+0xe>
10003bd8:	2101      	movs	r1, #1
10003bda:	200e      	movs	r0, #14
10003bdc:	f7fd f844 	bl	10000c68 <irq_set_enabled>
10003be0:	bd08      	pop	{r3, pc}
10003be2:	4b03      	ldr	r3, [pc, #12]	@ (10003bf0 <dcd_int_enable+0x1c>)
10003be4:	4a03      	ldr	r2, [pc, #12]	@ (10003bf4 <dcd_int_enable+0x20>)
10003be6:	f44f 71d4 	mov.w	r1, #424	@ 0x1a8
10003bea:	4803      	ldr	r0, [pc, #12]	@ (10003bf8 <dcd_int_enable+0x24>)
10003bec:	f7ff fc3c 	bl	10003468 <__assert_func>
10003bf0:	10006f18 	.word	0x10006f18
10003bf4:	1000744c 	.word	0x1000744c
10003bf8:	10006e74 	.word	0x10006e74

10003bfc <dcd_set_address>:
10003bfc:	b508      	push	{r3, lr}
10003bfe:	b928      	cbnz	r0, 10003c0c <dcd_set_address+0x10>
10003c00:	2200      	movs	r2, #0
10003c02:	4611      	mov	r1, r2
10003c04:	2080      	movs	r0, #128	@ 0x80
10003c06:	f7ff ffd7 	bl	10003bb8 <hw_endpoint_xfer>
10003c0a:	bd08      	pop	{r3, pc}
10003c0c:	4b03      	ldr	r3, [pc, #12]	@ (10003c1c <dcd_set_address+0x20>)
10003c0e:	4a04      	ldr	r2, [pc, #16]	@ (10003c20 <dcd_set_address+0x24>)
10003c10:	f44f 71d9 	mov.w	r1, #434	@ 0x1b2
10003c14:	4803      	ldr	r0, [pc, #12]	@ (10003c24 <dcd_set_address+0x28>)
10003c16:	f7ff fc27 	bl	10003468 <__assert_func>
10003c1a:	bf00      	nop
10003c1c:	10006f18 	.word	0x10006f18
10003c20:	1000743c 	.word	0x1000743c
10003c24:	10006e74 	.word	0x10006e74

10003c28 <dcd_connect>:
10003c28:	4b02      	ldr	r3, [pc, #8]	@ (10003c34 <dcd_connect+0xc>)
10003c2a:	f44f 3280 	mov.w	r2, #65536	@ 0x10000
10003c2e:	64da      	str	r2, [r3, #76]	@ 0x4c
10003c30:	4770      	bx	lr
10003c32:	bf00      	nop
10003c34:	50112000 	.word	0x50112000

10003c38 <dcd_init>:
10003c38:	b570      	push	{r4, r5, r6, lr}
10003c3a:	bb40      	cbnz	r0, 10003c8e <dcd_init+0x56>
10003c3c:	4606      	mov	r6, r0
10003c3e:	f000 f8cf 	bl	10003de0 <rp2040_usb_init>
10003c42:	4c16      	ldr	r4, [pc, #88]	@ (10003c9c <dcd_init+0x64>)
10003c44:	230c      	movs	r3, #12
10003c46:	67a3      	str	r3, [r4, #120]	@ 0x78
10003c48:	22ff      	movs	r2, #255	@ 0xff
10003c4a:	4915      	ldr	r1, [pc, #84]	@ (10003ca0 <dcd_init+0x68>)
10003c4c:	200e      	movs	r0, #14
10003c4e:	f7fd f84d 	bl	10000cec <irq_add_shared_handler>
10003c52:	2540      	movs	r5, #64	@ 0x40
10003c54:	462a      	mov	r2, r5
10003c56:	2100      	movs	r1, #0
10003c58:	4812      	ldr	r0, [pc, #72]	@ (10003ca4 <dcd_init+0x6c>)
10003c5a:	f002 fb01 	bl	10006260 <memset>
10003c5e:	2200      	movs	r2, #0
10003c60:	4629      	mov	r1, r5
10003c62:	4610      	mov	r0, r2
10003c64:	f7ff ff1c 	bl	10003aa0 <hw_endpoint_init>
10003c68:	2200      	movs	r2, #0
10003c6a:	4629      	mov	r1, r5
10003c6c:	2080      	movs	r0, #128	@ 0x80
10003c6e:	f7ff ff17 	bl	10003aa0 <hw_endpoint_init>
10003c72:	f002 fc09 	bl	10006488 <__reset_non_control_endpoints_veneer>
10003c76:	2301      	movs	r3, #1
10003c78:	6423      	str	r3, [r4, #64]	@ 0x40
10003c7a:	f04f 5300 	mov.w	r3, #536870912	@ 0x20000000
10003c7e:	64e3      	str	r3, [r4, #76]	@ 0x4c
10003c80:	4b09      	ldr	r3, [pc, #36]	@ (10003ca8 <dcd_init+0x70>)
10003c82:	f8c4 3090 	str.w	r3, [r4, #144]	@ 0x90
10003c86:	4630      	mov	r0, r6
10003c88:	f7ff ffce 	bl	10003c28 <dcd_connect>
10003c8c:	bd70      	pop	{r4, r5, r6, pc}
10003c8e:	4b07      	ldr	r3, [pc, #28]	@ (10003cac <dcd_init+0x74>)
10003c90:	4a07      	ldr	r2, [pc, #28]	@ (10003cb0 <dcd_init+0x78>)
10003c92:	f240 1175 	movw	r1, #373	@ 0x175
10003c96:	4807      	ldr	r0, [pc, #28]	@ (10003cb4 <dcd_init+0x7c>)
10003c98:	f7ff fbe6 	bl	10003468 <__assert_func>
10003c9c:	50110000 	.word	0x50110000
10003ca0:	200003ed 	.word	0x200003ed
10003ca4:	200017bc 	.word	0x200017bc
10003ca8:	0001d010 	.word	0x0001d010
10003cac:	10006f18 	.word	0x10006f18
10003cb0:	10007470 	.word	0x10007470
10003cb4:	10006e74 	.word	0x10006e74

10003cb8 <dcd_sof_enable>:
10003cb8:	4b04      	ldr	r3, [pc, #16]	@ (10003ccc <dcd_sof_enable+0x14>)
10003cba:	7019      	strb	r1, [r3, #0]
10003cbc:	b121      	cbz	r1, 10003cc8 <dcd_sof_enable+0x10>
10003cbe:	4b04      	ldr	r3, [pc, #16]	@ (10003cd0 <dcd_sof_enable+0x18>)
10003cc0:	f44f 3200 	mov.w	r2, #131072	@ 0x20000
10003cc4:	f8c3 2090 	str.w	r2, [r3, #144]	@ 0x90
10003cc8:	4770      	bx	lr
10003cca:	bf00      	nop
10003ccc:	2000230b 	.word	0x2000230b
10003cd0:	50112000 	.word	0x50112000

10003cd4 <dcd_edpt0_status_complete>:
10003cd4:	780b      	ldrb	r3, [r1, #0]
10003cd6:	f013 0f7f 	tst.w	r3, #127	@ 0x7f
10003cda:	d102      	bne.n	10003ce2 <dcd_edpt0_status_complete+0xe>
10003cdc:	784b      	ldrb	r3, [r1, #1]
10003cde:	2b05      	cmp	r3, #5
10003ce0:	d000      	beq.n	10003ce4 <dcd_edpt0_status_complete+0x10>
10003ce2:	4770      	bx	lr
10003ce4:	884b      	ldrh	r3, [r1, #2]
10003ce6:	b2db      	uxtb	r3, r3
10003ce8:	4a01      	ldr	r2, [pc, #4]	@ (10003cf0 <dcd_edpt0_status_complete+0x1c>)
10003cea:	6013      	str	r3, [r2, #0]
10003cec:	e7f9      	b.n	10003ce2 <dcd_edpt0_status_complete+0xe>
10003cee:	bf00      	nop
10003cf0:	50110000 	.word	0x50110000

10003cf4 <dcd_edpt_open>:
10003cf4:	b508      	push	{r3, lr}
10003cf6:	b958      	cbnz	r0, 10003d10 <dcd_edpt_open+0x1c>
10003cf8:	460b      	mov	r3, r1
10003cfa:	8889      	ldrh	r1, [r1, #4]
10003cfc:	78da      	ldrb	r2, [r3, #3]
10003cfe:	f002 0203 	and.w	r2, r2, #3
10003d02:	f3c1 010a 	ubfx	r1, r1, #0, #11
10003d06:	7898      	ldrb	r0, [r3, #2]
10003d08:	f7ff feca 	bl	10003aa0 <hw_endpoint_init>
10003d0c:	2001      	movs	r0, #1
10003d0e:	bd08      	pop	{r3, pc}
10003d10:	4b03      	ldr	r3, [pc, #12]	@ (10003d20 <dcd_edpt_open+0x2c>)
10003d12:	4a04      	ldr	r2, [pc, #16]	@ (10003d24 <dcd_edpt_open+0x30>)
10003d14:	f240 11ef 	movw	r1, #495	@ 0x1ef
10003d18:	4803      	ldr	r0, [pc, #12]	@ (10003d28 <dcd_edpt_open+0x34>)
10003d1a:	f7ff fba5 	bl	10003468 <__assert_func>
10003d1e:	bf00      	nop
10003d20:	10006f18 	.word	0x10006f18
10003d24:	1000742c 	.word	0x1000742c
10003d28:	10006e74 	.word	0x10006e74

10003d2c <dcd_edpt_close_all>:
10003d2c:	b508      	push	{r3, lr}
10003d2e:	f002 fbab 	bl	10006488 <__reset_non_control_endpoints_veneer>
10003d32:	bd08      	pop	{r3, pc}

10003d34 <dcd_edpt_xfer>:
10003d34:	b510      	push	{r4, lr}
10003d36:	b930      	cbnz	r0, 10003d46 <dcd_edpt_xfer+0x12>
10003d38:	4608      	mov	r0, r1
10003d3a:	4611      	mov	r1, r2
10003d3c:	461a      	mov	r2, r3
10003d3e:	f7ff ff3b 	bl	10003bb8 <hw_endpoint_xfer>
10003d42:	2001      	movs	r0, #1
10003d44:	bd10      	pop	{r4, pc}
10003d46:	4b03      	ldr	r3, [pc, #12]	@ (10003d54 <dcd_edpt_xfer+0x20>)
10003d48:	4a03      	ldr	r2, [pc, #12]	@ (10003d58 <dcd_edpt_xfer+0x24>)
10003d4a:	f44f 71fe 	mov.w	r1, #508	@ 0x1fc
10003d4e:	4803      	ldr	r0, [pc, #12]	@ (10003d5c <dcd_edpt_xfer+0x28>)
10003d50:	f7ff fb8a 	bl	10003468 <__assert_func>
10003d54:	10006f18 	.word	0x10006f18
10003d58:	1000741c 	.word	0x1000741c
10003d5c:	10006e74 	.word	0x10006e74

10003d60 <dcd_edpt_stall>:
10003d60:	b508      	push	{r3, lr}
10003d62:	f011 037f 	ands.w	r3, r1, #127	@ 0x7f
10003d66:	d104      	bne.n	10003d72 <dcd_edpt_stall+0x12>
10003d68:	09ca      	lsrs	r2, r1, #7
10003d6a:	d10e      	bne.n	10003d8a <dcd_edpt_stall+0x2a>
10003d6c:	2002      	movs	r0, #2
10003d6e:	4a08      	ldr	r2, [pc, #32]	@ (10003d90 <dcd_edpt_stall+0x30>)
10003d70:	6690      	str	r0, [r2, #104]	@ 0x68
10003d72:	005b      	lsls	r3, r3, #1
10003d74:	eb03 13d1 	add.w	r3, r3, r1, lsr #7
10003d78:	f44f 6200 	mov.w	r2, #2048	@ 0x800
10003d7c:	2100      	movs	r1, #0
10003d7e:	4805      	ldr	r0, [pc, #20]	@ (10003d94 <dcd_edpt_stall+0x34>)
10003d80:	eb00 1043 	add.w	r0, r0, r3, lsl #5
10003d84:	f002 fb84 	bl	10006490 <___hw_endpoint_buffer_control_update32_veneer>
10003d88:	bd08      	pop	{r3, pc}
10003d8a:	2001      	movs	r0, #1
10003d8c:	e7ef      	b.n	10003d6e <dcd_edpt_stall+0xe>
10003d8e:	bf00      	nop
10003d90:	50112000 	.word	0x50112000
10003d94:	200017bc 	.word	0x200017bc

10003d98 <dcd_edpt_clear_stall>:
10003d98:	b508      	push	{r3, lr}
10003d9a:	f011 037f 	ands.w	r3, r1, #127	@ 0x7f
10003d9e:	d100      	bne.n	10003da2 <dcd_edpt_clear_stall+0xa>
10003da0:	bd08      	pop	{r3, pc}
10003da2:	005b      	lsls	r3, r3, #1
10003da4:	eb03 13d1 	add.w	r3, r3, r1, lsr #7
10003da8:	4804      	ldr	r0, [pc, #16]	@ (10003dbc <dcd_edpt_clear_stall+0x24>)
10003daa:	eb00 1043 	add.w	r0, r0, r3, lsl #5
10003dae:	2200      	movs	r2, #0
10003db0:	70c2      	strb	r2, [r0, #3]
10003db2:	f46f 6100 	mvn.w	r1, #2048	@ 0x800
10003db6:	f002 fb6b 	bl	10006490 <___hw_endpoint_buffer_control_update32_veneer>
10003dba:	e7f1      	b.n	10003da0 <dcd_edpt_clear_stall+0x8>
10003dbc:	200017bc 	.word	0x200017bc

10003dc0 <dcd_edpt_close>:
10003dc0:	b508      	push	{r3, lr}
10003dc2:	4608      	mov	r0, r1
10003dc4:	f7ff feea 	bl	10003b9c <hw_endpoint_close>
10003dc8:	bd08      	pop	{r3, pc}

10003dca <unaligned_memcpy>:
10003dca:	e004      	b.n	10003dd6 <unaligned_memcpy+0xc>
10003dcc:	f811 2b01 	ldrb.w	r2, [r1], #1
10003dd0:	f800 2b01 	strb.w	r2, [r0], #1
10003dd4:	461a      	mov	r2, r3
10003dd6:	1e53      	subs	r3, r2, #1
10003dd8:	2a00      	cmp	r2, #0
10003dda:	d1f7      	bne.n	10003dcc <unaligned_memcpy+0x2>
10003ddc:	4770      	bx	lr
	...

10003de0 <rp2040_usb_init>:
10003de0:	b508      	push	{r3, lr}
10003de2:	f04f 5380 	mov.w	r3, #268435456	@ 0x10000000
10003de6:	4a0a      	ldr	r2, [pc, #40]	@ (10003e10 <rp2040_usb_init+0x30>)
10003de8:	6013      	str	r3, [r2, #0]
10003dea:	f502 5280 	add.w	r2, r2, #4096	@ 0x1000
10003dee:	6013      	str	r3, [r2, #0]
10003df0:	4b08      	ldr	r3, [pc, #32]	@ (10003e14 <rp2040_usb_init+0x34>)
10003df2:	689b      	ldr	r3, [r3, #8]
10003df4:	f013 5f80 	tst.w	r3, #268435456	@ 0x10000000
10003df8:	d0fa      	beq.n	10003df0 <rp2040_usb_init+0x10>
10003dfa:	f44f 5280 	mov.w	r2, #4096	@ 0x1000
10003dfe:	2100      	movs	r1, #0
10003e00:	4805      	ldr	r0, [pc, #20]	@ (10003e18 <rp2040_usb_init+0x38>)
10003e02:	f002 fa2d 	bl	10006260 <memset>
10003e06:	4b05      	ldr	r3, [pc, #20]	@ (10003e1c <rp2040_usb_init+0x3c>)
10003e08:	2209      	movs	r2, #9
10003e0a:	675a      	str	r2, [r3, #116]	@ 0x74
10003e0c:	bd08      	pop	{r3, pc}
10003e0e:	bf00      	nop
10003e10:	40022000 	.word	0x40022000
10003e14:	40020000 	.word	0x40020000
10003e18:	50100000 	.word	0x50100000
10003e1c:	50110000 	.word	0x50110000

10003e20 <hw_endpoint_xfer_start>:
10003e20:	b570      	push	{r4, r5, r6, lr}
10003e22:	4604      	mov	r4, r0
10003e24:	460d      	mov	r5, r1
10003e26:	4616      	mov	r6, r2
10003e28:	7e83      	ldrb	r3, [r0, #26]
10003e2a:	b9ab      	cbnz	r3, 10003e58 <hw_endpoint_xfer_start+0x38>
10003e2c:	82a6      	strh	r6, [r4, #20]
10003e2e:	2300      	movs	r3, #0
10003e30:	82e3      	strh	r3, [r4, #22]
10003e32:	2301      	movs	r3, #1
10003e34:	76a3      	strb	r3, [r4, #26]
10003e36:	6125      	str	r5, [r4, #16]
10003e38:	4620      	mov	r0, r4
10003e3a:	f002 fb31 	bl	100064a0 <__e15_is_bulkin_ep_veneer>
10003e3e:	b120      	cbz	r0, 10003e4a <hw_endpoint_xfer_start+0x2a>
10003e40:	4b0b      	ldr	r3, [pc, #44]	@ (10003e70 <hw_endpoint_xfer_start+0x50>)
10003e42:	f44f 3200 	mov.w	r2, #131072	@ 0x20000
10003e46:	f8c3 2090 	str.w	r2, [r3, #144]	@ 0x90
10003e4a:	4620      	mov	r0, r4
10003e4c:	f002 fb10 	bl	10006470 <__e15_is_critical_frame_period_veneer>
10003e50:	b150      	cbz	r0, 10003e68 <hw_endpoint_xfer_start+0x48>
10003e52:	2301      	movs	r3, #1
10003e54:	7723      	strb	r3, [r4, #28]
10003e56:	bd70      	pop	{r4, r5, r6, pc}
10003e58:	7881      	ldrb	r1, [r0, #2]
10003e5a:	4806      	ldr	r0, [pc, #24]	@ (10003e74 <hw_endpoint_xfer_start+0x54>)
10003e5c:	f7ff fc60 	bl	10003720 <__wrap_printf>
10003e60:	4620      	mov	r0, r4
10003e62:	f002 faf5 	bl	10006450 <__hw_endpoint_reset_transfer_veneer>
10003e66:	e7e1      	b.n	10003e2c <hw_endpoint_xfer_start+0xc>
10003e68:	4620      	mov	r0, r4
10003e6a:	f002 faf9 	bl	10006460 <__hw_endpoint_start_next_buffer_veneer>
10003e6e:	e7f2      	b.n	10003e56 <hw_endpoint_xfer_start+0x36>
10003e70:	50112000 	.word	0x50112000
10003e74:	10007008 	.word	0x10007008

10003e78 <critical_section_enter_blocking>:
10003e78:	6803      	ldr	r3, [r0, #0]
10003e7a:	f3ef 8210 	mrs	r2, PRIMASK
10003e7e:	b672      	cpsid	i
10003e80:	e8d3 cfcf 	ldaexb	ip, [r3]
10003e84:	2101      	movs	r1, #1
10003e86:	f1bc 0f00 	cmp.w	ip, #0
10003e8a:	d1f9      	bne.n	10003e80 <critical_section_enter_blocking+0x8>
10003e8c:	e8c3 1f4c 	strexb	ip, r1, [r3]
10003e90:	f1bc 0f00 	cmp.w	ip, #0
10003e94:	d1f4      	bne.n	10003e80 <critical_section_enter_blocking+0x8>
10003e96:	f3bf 8f5f 	dmb	sy
10003e9a:	6042      	str	r2, [r0, #4]
10003e9c:	4770      	bx	lr

10003e9e <tud_vendor_control_xfer_cb>:
10003e9e:	2000      	movs	r0, #0
10003ea0:	4770      	bx	lr
	...

10003ea4 <configuration_reset>:
10003ea4:	b538      	push	{r3, r4, r5, lr}
10003ea6:	4605      	mov	r5, r0
10003ea8:	2400      	movs	r4, #0
10003eaa:	e008      	b.n	10003ebe <configuration_reset+0x1a>
10003eac:	1ae3      	subs	r3, r4, r3
10003eae:	4a1a      	ldr	r2, [pc, #104]	@ (10003f18 <configuration_reset+0x74>)
10003eb0:	eb02 1343 	add.w	r3, r2, r3, lsl #5
10003eb4:	68db      	ldr	r3, [r3, #12]
10003eb6:	4628      	mov	r0, r5
10003eb8:	4798      	blx	r3
10003eba:	3401      	adds	r4, #1
10003ebc:	b2e4      	uxtb	r4, r4
10003ebe:	4b17      	ldr	r3, [pc, #92]	@ (10003f1c <configuration_reset+0x78>)
10003ec0:	781b      	ldrb	r3, [r3, #0]
10003ec2:	42a3      	cmp	r3, r4
10003ec4:	d315      	bcc.n	10003ef2 <configuration_reset+0x4e>
10003ec6:	42a3      	cmp	r3, r4
10003ec8:	d9f0      	bls.n	10003eac <configuration_reset+0x8>
10003eca:	4b15      	ldr	r3, [pc, #84]	@ (10003f20 <configuration_reset+0x7c>)
10003ecc:	681b      	ldr	r3, [r3, #0]
10003ece:	eb13 1344 	adds.w	r3, r3, r4, lsl #5
10003ed2:	d1ef      	bne.n	10003eb4 <configuration_reset+0x10>
10003ed4:	f240 2216 	movw	r2, #534	@ 0x216
10003ed8:	4912      	ldr	r1, [pc, #72]	@ (10003f24 <configuration_reset+0x80>)
10003eda:	4813      	ldr	r0, [pc, #76]	@ (10003f28 <configuration_reset+0x84>)
10003edc:	f7ff fc20 	bl	10003720 <__wrap_printf>
10003ee0:	f04f 23e0 	mov.w	r3, #3758153728	@ 0xe000e000
10003ee4:	f8d3 3df0 	ldr.w	r3, [r3, #3568]	@ 0xdf0
10003ee8:	f013 0f01 	tst.w	r3, #1
10003eec:	d013      	beq.n	10003f16 <configuration_reset+0x72>
10003eee:	be00      	bkpt	0x0000
10003ef0:	e011      	b.n	10003f16 <configuration_reset+0x72>
10003ef2:	4c0e      	ldr	r4, [pc, #56]	@ (10003f2c <configuration_reset+0x88>)
10003ef4:	2254      	movs	r2, #84	@ 0x54
10003ef6:	2100      	movs	r1, #0
10003ef8:	4620      	mov	r0, r4
10003efa:	f002 f9b1 	bl	10006260 <memset>
10003efe:	f04f 33ff 	mov.w	r3, #4294967295
10003f02:	6063      	str	r3, [r4, #4]
10003f04:	60a3      	str	r3, [r4, #8]
10003f06:	60e3      	str	r3, [r4, #12]
10003f08:	6123      	str	r3, [r4, #16]
10003f0a:	2220      	movs	r2, #32
10003f0c:	21ff      	movs	r1, #255	@ 0xff
10003f0e:	f104 0014 	add.w	r0, r4, #20
10003f12:	f002 f9a5 	bl	10006260 <memset>
10003f16:	bd38      	pop	{r3, r4, r5, pc}
10003f18:	1000752c 	.word	0x1000752c
10003f1c:	2000230a 	.word	0x2000230a
10003f20:	20001038 	.word	0x20001038
10003f24:	100074fc 	.word	0x100074fc
10003f28:	100064f0 	.word	0x100064f0
10003f2c:	20001168 	.word	0x20001168

10003f30 <usbd_reset>:
10003f30:	b508      	push	{r3, lr}
10003f32:	f7ff ffb7 	bl	10003ea4 <configuration_reset>
10003f36:	f000 feaf 	bl	10004c98 <usbd_control_reset>
10003f3a:	bd08      	pop	{r3, pc}

10003f3c <invoke_class_control>:
10003f3c:	b570      	push	{r4, r5, r6, lr}
10003f3e:	4605      	mov	r5, r0
10003f40:	460c      	mov	r4, r1
10003f42:	4616      	mov	r6, r2
10003f44:	6948      	ldr	r0, [r1, #20]
10003f46:	f000 feb1 	bl	10004cac <usbd_control_set_complete_callback>
10003f4a:	6963      	ldr	r3, [r4, #20]
10003f4c:	4632      	mov	r2, r6
10003f4e:	2101      	movs	r1, #1
10003f50:	4628      	mov	r0, r5
10003f52:	4798      	blx	r3
10003f54:	bd70      	pop	{r4, r5, r6, pc}
	...

10003f58 <process_set_config>:
10003f58:	e92d 47f0 	stmdb	sp!, {r4, r5, r6, r7, r8, r9, sl, lr}
10003f5c:	4607      	mov	r7, r0
10003f5e:	1e48      	subs	r0, r1, #1
10003f60:	b2c0      	uxtb	r0, r0
10003f62:	f7fc fcd7 	bl	10000914 <tud_descriptor_configuration_cb>
10003f66:	b118      	cbz	r0, 10003f70 <process_set_config+0x18>
10003f68:	4680      	mov	r8, r0
10003f6a:	7843      	ldrb	r3, [r0, #1]
10003f6c:	2b02      	cmp	r3, #2
10003f6e:	d010      	beq.n	10003f92 <process_set_config+0x3a>
10003f70:	f240 32c7 	movw	r2, #967	@ 0x3c7
10003f74:	4957      	ldr	r1, [pc, #348]	@ (100040d4 <process_set_config+0x17c>)
10003f76:	4858      	ldr	r0, [pc, #352]	@ (100040d8 <process_set_config+0x180>)
10003f78:	f7ff fbd2 	bl	10003720 <__wrap_printf>
10003f7c:	f04f 23e0 	mov.w	r3, #3758153728	@ 0xe000e000
10003f80:	f8d3 3df0 	ldr.w	r3, [r3, #3568]	@ 0xdf0
10003f84:	f013 0f01 	tst.w	r3, #1
10003f88:	d000      	beq.n	10003f8c <process_set_config+0x34>
10003f8a:	be00      	bkpt	0x0000
10003f8c:	2000      	movs	r0, #0
10003f8e:	e8bd 87f0 	ldmia.w	sp!, {r4, r5, r6, r7, r8, r9, sl, pc}
10003f92:	79c2      	ldrb	r2, [r0, #7]
10003f94:	f3c2 1040 	ubfx	r0, r2, #5, #1
10003f98:	4b50      	ldr	r3, [pc, #320]	@ (100040dc <process_set_config+0x184>)
10003f9a:	7819      	ldrb	r1, [r3, #0]
10003f9c:	f360 1104 	bfi	r1, r0, #4, #1
10003fa0:	7019      	strb	r1, [r3, #0]
10003fa2:	f3c2 1280 	ubfx	r2, r2, #6, #1
10003fa6:	b2c9      	uxtb	r1, r1
10003fa8:	f362 1145 	bfi	r1, r2, #5, #1
10003fac:	7019      	strb	r1, [r3, #0]
10003fae:	f108 0609 	add.w	r6, r8, #9
10003fb2:	f8b8 3002 	ldrh.w	r3, [r8, #2]
10003fb6:	4498      	add	r8, r3
10003fb8:	e06b      	b.n	10004092 <process_set_config+0x13a>
10003fba:	f896 9003 	ldrb.w	r9, [r6, #3]
10003fbe:	7833      	ldrb	r3, [r6, #0]
10003fc0:	441e      	add	r6, r3
10003fc2:	e06d      	b.n	100040a0 <process_set_config+0x148>
10003fc4:	f240 32e2 	movw	r2, #994	@ 0x3e2
10003fc8:	4942      	ldr	r1, [pc, #264]	@ (100040d4 <process_set_config+0x17c>)
10003fca:	4843      	ldr	r0, [pc, #268]	@ (100040d8 <process_set_config+0x180>)
10003fcc:	f7ff fba8 	bl	10003720 <__wrap_printf>
10003fd0:	f04f 23e0 	mov.w	r3, #3758153728	@ 0xe000e000
10003fd4:	f8d3 3df0 	ldr.w	r3, [r3, #3568]	@ 0xdf0
10003fd8:	f013 0f01 	tst.w	r3, #1
10003fdc:	d000      	beq.n	10003fe0 <process_set_config+0x88>
10003fde:	be00      	bkpt	0x0000
10003fe0:	2000      	movs	r0, #0
10003fe2:	e7d4      	b.n	10003f8e <process_set_config+0x36>
10003fe4:	1ae3      	subs	r3, r4, r3
10003fe6:	4a3e      	ldr	r2, [pc, #248]	@ (100040e0 <process_set_config+0x188>)
10003fe8:	eb02 1343 	add.w	r3, r2, r3, lsl #5
10003fec:	691b      	ldr	r3, [r3, #16]
10003fee:	462a      	mov	r2, r5
10003ff0:	4631      	mov	r1, r6
10003ff2:	4638      	mov	r0, r7
10003ff4:	4798      	blx	r3
10003ff6:	4682      	mov	sl, r0
10003ff8:	2808      	cmp	r0, #8
10003ffa:	d901      	bls.n	10004000 <process_set_config+0xa8>
10003ffc:	4285      	cmp	r5, r0
10003ffe:	d22c      	bcs.n	1000405a <process_set_config+0x102>
10004000:	3401      	adds	r4, #1
10004002:	b2e4      	uxtb	r4, r4
10004004:	4b37      	ldr	r3, [pc, #220]	@ (100040e4 <process_set_config+0x18c>)
10004006:	781b      	ldrb	r3, [r3, #0]
10004008:	42a3      	cmp	r3, r4
1000400a:	d33e      	bcc.n	1000408a <process_set_config+0x132>
1000400c:	42a3      	cmp	r3, r4
1000400e:	d9e9      	bls.n	10003fe4 <process_set_config+0x8c>
10004010:	4b35      	ldr	r3, [pc, #212]	@ (100040e8 <process_set_config+0x190>)
10004012:	681b      	ldr	r3, [r3, #0]
10004014:	eb13 1344 	adds.w	r3, r3, r4, lsl #5
10004018:	d1e8      	bne.n	10003fec <process_set_config+0x94>
1000401a:	f240 32eb 	movw	r2, #1003	@ 0x3eb
1000401e:	492d      	ldr	r1, [pc, #180]	@ (100040d4 <process_set_config+0x17c>)
10004020:	482d      	ldr	r0, [pc, #180]	@ (100040d8 <process_set_config+0x180>)
10004022:	f7ff fb7d 	bl	10003720 <__wrap_printf>
10004026:	f04f 23e0 	mov.w	r3, #3758153728	@ 0xe000e000
1000402a:	f8d3 3df0 	ldr.w	r3, [r3, #3568]	@ 0xdf0
1000402e:	f013 0f01 	tst.w	r3, #1
10004032:	d000      	beq.n	10004036 <process_set_config+0xde>
10004034:	be00      	bkpt	0x0000
10004036:	2000      	movs	r0, #0
10004038:	e7a9      	b.n	10003f8e <process_set_config+0x36>
1000403a:	f240 420a 	movw	r2, #1034	@ 0x40a
1000403e:	4925      	ldr	r1, [pc, #148]	@ (100040d4 <process_set_config+0x17c>)
10004040:	4825      	ldr	r0, [pc, #148]	@ (100040d8 <process_set_config+0x180>)
10004042:	f7ff fb6d 	bl	10003720 <__wrap_printf>
10004046:	f04f 23e0 	mov.w	r3, #3758153728	@ 0xe000e000
1000404a:	f8d3 3df0 	ldr.w	r3, [r3, #3568]	@ 0xdf0
1000404e:	f013 0f01 	tst.w	r3, #1
10004052:	d000      	beq.n	10004056 <process_set_config+0xfe>
10004054:	be00      	bkpt	0x0000
10004056:	2000      	movs	r0, #0
10004058:	e799      	b.n	10003f8e <process_set_config+0x36>
1000405a:	2200      	movs	r2, #0
1000405c:	4591      	cmp	r9, r2
1000405e:	d90d      	bls.n	1000407c <process_set_config+0x124>
10004060:	78b3      	ldrb	r3, [r6, #2]
10004062:	4413      	add	r3, r2
10004064:	b2db      	uxtb	r3, r3
10004066:	491d      	ldr	r1, [pc, #116]	@ (100040dc <process_set_config+0x184>)
10004068:	4419      	add	r1, r3
1000406a:	7909      	ldrb	r1, [r1, #4]
1000406c:	29ff      	cmp	r1, #255	@ 0xff
1000406e:	d1e4      	bne.n	1000403a <process_set_config+0xe2>
10004070:	491a      	ldr	r1, [pc, #104]	@ (100040dc <process_set_config+0x184>)
10004072:	440b      	add	r3, r1
10004074:	711c      	strb	r4, [r3, #4]
10004076:	3201      	adds	r2, #1
10004078:	b2d2      	uxtb	r2, r2
1000407a:	e7ef      	b.n	1000405c <process_set_config+0x104>
1000407c:	4623      	mov	r3, r4
1000407e:	4652      	mov	r2, sl
10004080:	4631      	mov	r1, r6
10004082:	481a      	ldr	r0, [pc, #104]	@ (100040ec <process_set_config+0x194>)
10004084:	f001 fe88 	bl	10005d98 <tu_edpt_bind_driver>
10004088:	4456      	add	r6, sl
1000408a:	4b16      	ldr	r3, [pc, #88]	@ (100040e4 <process_set_config+0x18c>)
1000408c:	781b      	ldrb	r3, [r3, #0]
1000408e:	42a3      	cmp	r3, r4
10004090:	d30e      	bcc.n	100040b0 <process_set_config+0x158>
10004092:	4546      	cmp	r6, r8
10004094:	d21c      	bcs.n	100040d0 <process_set_config+0x178>
10004096:	7873      	ldrb	r3, [r6, #1]
10004098:	2b0b      	cmp	r3, #11
1000409a:	d08e      	beq.n	10003fba <process_set_config+0x62>
1000409c:	f04f 0901 	mov.w	r9, #1
100040a0:	7873      	ldrb	r3, [r6, #1]
100040a2:	2b04      	cmp	r3, #4
100040a4:	d18e      	bne.n	10003fc4 <process_set_config+0x6c>
100040a6:	eba8 0506 	sub.w	r5, r8, r6
100040aa:	b2ad      	uxth	r5, r5
100040ac:	2400      	movs	r4, #0
100040ae:	e7a9      	b.n	10004004 <process_set_config+0xac>
100040b0:	f240 4219 	movw	r2, #1049	@ 0x419
100040b4:	4907      	ldr	r1, [pc, #28]	@ (100040d4 <process_set_config+0x17c>)
100040b6:	4808      	ldr	r0, [pc, #32]	@ (100040d8 <process_set_config+0x180>)
100040b8:	f7ff fb32 	bl	10003720 <__wrap_printf>
100040bc:	f04f 23e0 	mov.w	r3, #3758153728	@ 0xe000e000
100040c0:	f8d3 3df0 	ldr.w	r3, [r3, #3568]	@ 0xdf0
100040c4:	f013 0f01 	tst.w	r3, #1
100040c8:	d000      	beq.n	100040cc <process_set_config+0x174>
100040ca:	be00      	bkpt	0x0000
100040cc:	2000      	movs	r0, #0
100040ce:	e75e      	b.n	10003f8e <process_set_config+0x36>
100040d0:	2001      	movs	r0, #1
100040d2:	e75c      	b.n	10003f8e <process_set_config+0x36>
100040d4:	100074d0 	.word	0x100074d0
100040d8:	100064f0 	.word	0x100064f0
100040dc:	20001168 	.word	0x20001168
100040e0:	1000752c 	.word	0x1000752c
100040e4:	2000230a 	.word	0x2000230a
100040e8:	20001038 	.word	0x20001038
100040ec:	2000117c 	.word	0x2000117c

100040f0 <tud_event_hook_cb>:
100040f0:	4770      	bx	lr

100040f2 <tud_sof_cb>:
100040f2:	4770      	bx	lr

100040f4 <tud_descriptor_bos_cb>:
100040f4:	2000      	movs	r0, #0
100040f6:	4770      	bx	lr

100040f8 <tud_descriptor_device_qualifier_cb>:
100040f8:	2000      	movs	r0, #0
100040fa:	4770      	bx	lr

100040fc <tud_descriptor_other_speed_configuration_cb>:
100040fc:	2000      	movs	r0, #0
100040fe:	4770      	bx	lr

10004100 <process_get_descriptor>:
10004100:	b538      	push	{r3, r4, r5, lr}
10004102:	4605      	mov	r5, r0
10004104:	460c      	mov	r4, r1
10004106:	884b      	ldrh	r3, [r1, #2]
10004108:	0a1a      	lsrs	r2, r3, #8
1000410a:	b2d8      	uxtb	r0, r3
1000410c:	1e53      	subs	r3, r2, #1
1000410e:	2b0e      	cmp	r3, #14
10004110:	d864      	bhi.n	100041dc <process_get_descriptor+0xdc>
10004112:	e8df f003 	tbb	[pc, r3]
10004116:	2d08      	.short	0x2d08
10004118:	5963634e 	.word	0x5963634e
1000411c:	6363632d 	.word	0x6363632d
10004120:	63636363 	.word	0x63636363
10004124:	22          	.byte	0x22
10004125:	00          	.byte	0x00
10004126:	f7fc fbf1 	bl	1000090c <tud_descriptor_device_cb>
1000412a:	4602      	mov	r2, r0
1000412c:	b128      	cbz	r0, 1000413a <process_get_descriptor+0x3a>
1000412e:	2312      	movs	r3, #18
10004130:	4621      	mov	r1, r4
10004132:	4628      	mov	r0, r5
10004134:	f000 fd5a 	bl	10004bec <tud_control_xfer>
10004138:	e051      	b.n	100041de <process_get_descriptor+0xde>
1000413a:	f240 422b 	movw	r2, #1067	@ 0x42b
1000413e:	492c      	ldr	r1, [pc, #176]	@ (100041f0 <process_get_descriptor+0xf0>)
10004140:	482c      	ldr	r0, [pc, #176]	@ (100041f4 <process_get_descriptor+0xf4>)
10004142:	f7ff faed 	bl	10003720 <__wrap_printf>
10004146:	f04f 23e0 	mov.w	r3, #3758153728	@ 0xe000e000
1000414a:	f8d3 3df0 	ldr.w	r3, [r3, #3568]	@ 0xdf0
1000414e:	f013 0f01 	tst.w	r3, #1
10004152:	d000      	beq.n	10004156 <process_get_descriptor+0x56>
10004154:	be00      	bkpt	0x0000
10004156:	2000      	movs	r0, #0
10004158:	e041      	b.n	100041de <process_get_descriptor+0xde>
1000415a:	f7ff ffcb 	bl	100040f4 <tud_descriptor_bos_cb>
1000415e:	4602      	mov	r2, r0
10004160:	2800      	cmp	r0, #0
10004162:	d03d      	beq.n	100041e0 <process_get_descriptor+0xe0>
10004164:	8843      	ldrh	r3, [r0, #2]
10004166:	4621      	mov	r1, r4
10004168:	4628      	mov	r0, r5
1000416a:	f000 fd3f 	bl	10004bec <tud_control_xfer>
1000416e:	e036      	b.n	100041de <process_get_descriptor+0xde>
10004170:	2a02      	cmp	r2, #2
10004172:	d009      	beq.n	10004188 <process_get_descriptor+0x88>
10004174:	f7ff ffc2 	bl	100040fc <tud_descriptor_other_speed_configuration_cb>
10004178:	4602      	mov	r2, r0
1000417a:	b398      	cbz	r0, 100041e4 <process_get_descriptor+0xe4>
1000417c:	8853      	ldrh	r3, [r2, #2]
1000417e:	4621      	mov	r1, r4
10004180:	4628      	mov	r0, r5
10004182:	f000 fd33 	bl	10004bec <tud_control_xfer>
10004186:	e02a      	b.n	100041de <process_get_descriptor+0xde>
10004188:	f7fc fbc4 	bl	10000914 <tud_descriptor_configuration_cb>
1000418c:	4602      	mov	r2, r0
1000418e:	2800      	cmp	r0, #0
10004190:	d1f4      	bne.n	1000417c <process_get_descriptor+0x7c>
10004192:	f240 4252 	movw	r2, #1106	@ 0x452
10004196:	4916      	ldr	r1, [pc, #88]	@ (100041f0 <process_get_descriptor+0xf0>)
10004198:	4816      	ldr	r0, [pc, #88]	@ (100041f4 <process_get_descriptor+0xf4>)
1000419a:	f7ff fac1 	bl	10003720 <__wrap_printf>
1000419e:	f04f 23e0 	mov.w	r3, #3758153728	@ 0xe000e000
100041a2:	f8d3 3df0 	ldr.w	r3, [r3, #3568]	@ 0xdf0
100041a6:	f013 0f01 	tst.w	r3, #1
100041aa:	d000      	beq.n	100041ae <process_get_descriptor+0xae>
100041ac:	be00      	bkpt	0x0000
100041ae:	2000      	movs	r0, #0
100041b0:	e015      	b.n	100041de <process_get_descriptor+0xde>
100041b2:	88a1      	ldrh	r1, [r4, #4]
100041b4:	f7fc fbb2 	bl	1000091c <tud_descriptor_string_cb>
100041b8:	4602      	mov	r2, r0
100041ba:	b1a8      	cbz	r0, 100041e8 <process_get_descriptor+0xe8>
100041bc:	7803      	ldrb	r3, [r0, #0]
100041be:	4621      	mov	r1, r4
100041c0:	4628      	mov	r0, r5
100041c2:	f000 fd13 	bl	10004bec <tud_control_xfer>
100041c6:	e00a      	b.n	100041de <process_get_descriptor+0xde>
100041c8:	f7ff ff96 	bl	100040f8 <tud_descriptor_device_qualifier_cb>
100041cc:	4602      	mov	r2, r0
100041ce:	b168      	cbz	r0, 100041ec <process_get_descriptor+0xec>
100041d0:	7803      	ldrb	r3, [r0, #0]
100041d2:	4621      	mov	r1, r4
100041d4:	4628      	mov	r0, r5
100041d6:	f000 fd09 	bl	10004bec <tud_control_xfer>
100041da:	e000      	b.n	100041de <process_get_descriptor+0xde>
100041dc:	2000      	movs	r0, #0
100041de:	bd38      	pop	{r3, r4, r5, pc}
100041e0:	2000      	movs	r0, #0
100041e2:	e7fc      	b.n	100041de <process_get_descriptor+0xde>
100041e4:	2000      	movs	r0, #0
100041e6:	e7fa      	b.n	100041de <process_get_descriptor+0xde>
100041e8:	2000      	movs	r0, #0
100041ea:	e7f8      	b.n	100041de <process_get_descriptor+0xde>
100041ec:	2000      	movs	r0, #0
100041ee:	e7f6      	b.n	100041de <process_get_descriptor+0xde>
100041f0:	100074b8 	.word	0x100074b8
100041f4:	100064f0 	.word	0x100064f0

100041f8 <tud_speed_get>:
100041f8:	4b01      	ldr	r3, [pc, #4]	@ (10004200 <tud_speed_get+0x8>)
100041fa:	7898      	ldrb	r0, [r3, #2]
100041fc:	4770      	bx	lr
100041fe:	bf00      	nop
10004200:	20001168 	.word	0x20001168

10004204 <tud_mounted>:
10004204:	4b02      	ldr	r3, [pc, #8]	@ (10004210 <tud_mounted+0xc>)
10004206:	7858      	ldrb	r0, [r3, #1]
10004208:	3800      	subs	r0, #0
1000420a:	bf18      	it	ne
1000420c:	2001      	movne	r0, #1
1000420e:	4770      	bx	lr
10004210:	20001168 	.word	0x20001168

10004214 <tud_inited>:
10004214:	4b02      	ldr	r3, [pc, #8]	@ (10004220 <tud_inited+0xc>)
10004216:	7818      	ldrb	r0, [r3, #0]
10004218:	38ff      	subs	r0, #255	@ 0xff
1000421a:	bf18      	it	ne
1000421c:	2001      	movne	r0, #1
1000421e:	4770      	bx	lr
10004220:	20000ea8 	.word	0x20000ea8

10004224 <tud_init>:
10004224:	b570      	push	{r4, r5, r6, lr}
10004226:	4605      	mov	r5, r0
10004228:	f7ff fff4 	bl	10004214 <tud_inited>
1000422c:	4606      	mov	r6, r0
1000422e:	b108      	cbz	r0, 10004234 <tud_init+0x10>
10004230:	4630      	mov	r0, r6
10004232:	bd70      	pop	{r4, r5, r6, pc}
10004234:	2254      	movs	r2, #84	@ 0x54
10004236:	2100      	movs	r1, #0
10004238:	4825      	ldr	r0, [pc, #148]	@ (100042d0 <tud_init+0xac>)
1000423a:	f002 f811 	bl	10006260 <memset>
1000423e:	4b25      	ldr	r3, [pc, #148]	@ (100042d4 <tud_init+0xb0>)
10004240:	2200      	movs	r2, #0
10004242:	701a      	strb	r2, [r3, #0]
10004244:	4c24      	ldr	r4, [pc, #144]	@ (100042d8 <tud_init+0xb4>)
10004246:	4620      	mov	r0, r4
10004248:	f7fc ffa8 	bl	1000119c <mutex_init>
1000424c:	4b23      	ldr	r3, [pc, #140]	@ (100042dc <tud_init+0xb8>)
1000424e:	601c      	str	r4, [r3, #0]
10004250:	4c23      	ldr	r4, [pc, #140]	@ (100042e0 <tud_init+0xbc>)
10004252:	4620      	mov	r0, r4
10004254:	f7fc ffec 	bl	10001230 <critical_section_init>
10004258:	3c14      	subs	r4, #20
1000425a:	4620      	mov	r0, r4
1000425c:	f001 ffe3 	bl	10006226 <tu_fifo_clear>
10004260:	4b20      	ldr	r3, [pc, #128]	@ (100042e4 <tud_init+0xc0>)
10004262:	601c      	str	r4, [r3, #0]
10004264:	4b20      	ldr	r3, [pc, #128]	@ (100042e8 <tud_init+0xc4>)
10004266:	b123      	cbz	r3, 10004272 <tud_init+0x4e>
10004268:	4820      	ldr	r0, [pc, #128]	@ (100042ec <tud_init+0xc8>)
1000426a:	f3af 8000 	nop.w
1000426e:	4b20      	ldr	r3, [pc, #128]	@ (100042f0 <tud_init+0xcc>)
10004270:	6018      	str	r0, [r3, #0]
10004272:	2400      	movs	r4, #0
10004274:	e008      	b.n	10004288 <tud_init+0x64>
10004276:	1ae3      	subs	r3, r4, r3
10004278:	4a1e      	ldr	r2, [pc, #120]	@ (100042f4 <tud_init+0xd0>)
1000427a:	eb02 1343 	add.w	r3, r2, r3, lsl #5
1000427e:	685b      	ldr	r3, [r3, #4]
10004280:	b16b      	cbz	r3, 1000429e <tud_init+0x7a>
10004282:	4798      	blx	r3
10004284:	3401      	adds	r4, #1
10004286:	b2e4      	uxtb	r4, r4
10004288:	4b18      	ldr	r3, [pc, #96]	@ (100042ec <tud_init+0xc8>)
1000428a:	781b      	ldrb	r3, [r3, #0]
1000428c:	42a3      	cmp	r3, r4
1000428e:	d315      	bcc.n	100042bc <tud_init+0x98>
10004290:	42a3      	cmp	r3, r4
10004292:	d9f0      	bls.n	10004276 <tud_init+0x52>
10004294:	4b16      	ldr	r3, [pc, #88]	@ (100042f0 <tud_init+0xcc>)
10004296:	681b      	ldr	r3, [r3, #0]
10004298:	eb13 1344 	adds.w	r3, r3, r4, lsl #5
1000429c:	d1ef      	bne.n	1000427e <tud_init+0x5a>
1000429e:	f44f 72f1 	mov.w	r2, #482	@ 0x1e2
100042a2:	4915      	ldr	r1, [pc, #84]	@ (100042f8 <tud_init+0xd4>)
100042a4:	4815      	ldr	r0, [pc, #84]	@ (100042fc <tud_init+0xd8>)
100042a6:	f7ff fa3b 	bl	10003720 <__wrap_printf>
100042aa:	f04f 23e0 	mov.w	r3, #3758153728	@ 0xe000e000
100042ae:	f8d3 3df0 	ldr.w	r3, [r3, #3568]	@ 0xdf0
100042b2:	f013 0f01 	tst.w	r3, #1
100042b6:	d0bb      	beq.n	10004230 <tud_init+0xc>
100042b8:	be00      	bkpt	0x0000
100042ba:	e7b9      	b.n	10004230 <tud_init+0xc>
100042bc:	4b10      	ldr	r3, [pc, #64]	@ (10004300 <tud_init+0xdc>)
100042be:	701d      	strb	r5, [r3, #0]
100042c0:	4628      	mov	r0, r5
100042c2:	f7ff fcb9 	bl	10003c38 <dcd_init>
100042c6:	4628      	mov	r0, r5
100042c8:	f7ff fc84 	bl	10003bd4 <dcd_int_enable>
100042cc:	2601      	movs	r6, #1
100042ce:	e7af      	b.n	10004230 <tud_init+0xc>
100042d0:	20001168 	.word	0x20001168
100042d4:	2000230c 	.word	0x2000230c
100042d8:	20001120 	.word	0x20001120
100042dc:	200011bc 	.word	0x200011bc
100042e0:	20000ea0 	.word	0x20000ea0
100042e4:	200011c0 	.word	0x200011c0
100042e8:	00000000 	.word	0x00000000
100042ec:	2000230a 	.word	0x2000230a
100042f0:	20001038 	.word	0x20001038
100042f4:	1000752c 	.word	0x1000752c
100042f8:	10007520 	.word	0x10007520
100042fc:	100064f0 	.word	0x100064f0
10004300:	20000ea8 	.word	0x20000ea8

10004304 <usbd_edpt_open>:
10004304:	b570      	push	{r4, r5, r6, lr}
10004306:	4b1a      	ldr	r3, [pc, #104]	@ (10004370 <usbd_edpt_open+0x6c>)
10004308:	781e      	ldrb	r6, [r3, #0]
1000430a:	788b      	ldrb	r3, [r1, #2]
1000430c:	f013 0f70 	tst.w	r3, #112	@ 0x70
10004310:	d10e      	bne.n	10004330 <usbd_edpt_open+0x2c>
10004312:	460c      	mov	r4, r1
10004314:	4b17      	ldr	r3, [pc, #92]	@ (10004374 <usbd_edpt_open+0x70>)
10004316:	7899      	ldrb	r1, [r3, #2]
10004318:	4620      	mov	r0, r4
1000431a:	f001 fccd 	bl	10005cb8 <tu_edpt_validate>
1000431e:	4605      	mov	r5, r0
10004320:	b1b0      	cbz	r0, 10004350 <usbd_edpt_open+0x4c>
10004322:	4621      	mov	r1, r4
10004324:	4630      	mov	r0, r6
10004326:	f7ff fce5 	bl	10003cf4 <dcd_edpt_open>
1000432a:	4605      	mov	r5, r0
1000432c:	4628      	mov	r0, r5
1000432e:	bd70      	pop	{r4, r5, r6, pc}
10004330:	f240 42fc 	movw	r2, #1276	@ 0x4fc
10004334:	4910      	ldr	r1, [pc, #64]	@ (10004378 <usbd_edpt_open+0x74>)
10004336:	4811      	ldr	r0, [pc, #68]	@ (1000437c <usbd_edpt_open+0x78>)
10004338:	f7ff f9f2 	bl	10003720 <__wrap_printf>
1000433c:	f04f 23e0 	mov.w	r3, #3758153728	@ 0xe000e000
10004340:	f8d3 3df0 	ldr.w	r3, [r3, #3568]	@ 0xdf0
10004344:	f013 0f01 	tst.w	r3, #1
10004348:	d000      	beq.n	1000434c <usbd_edpt_open+0x48>
1000434a:	be00      	bkpt	0x0000
1000434c:	2500      	movs	r5, #0
1000434e:	e7ed      	b.n	1000432c <usbd_edpt_open+0x28>
10004350:	f240 42fd 	movw	r2, #1277	@ 0x4fd
10004354:	4908      	ldr	r1, [pc, #32]	@ (10004378 <usbd_edpt_open+0x74>)
10004356:	4809      	ldr	r0, [pc, #36]	@ (1000437c <usbd_edpt_open+0x78>)
10004358:	f7ff f9e2 	bl	10003720 <__wrap_printf>
1000435c:	f04f 23e0 	mov.w	r3, #3758153728	@ 0xe000e000
10004360:	f8d3 3df0 	ldr.w	r3, [r3, #3568]	@ 0xdf0
10004364:	f013 0f01 	tst.w	r3, #1
10004368:	d0e0      	beq.n	1000432c <usbd_edpt_open+0x28>
1000436a:	be00      	bkpt	0x0000
1000436c:	e7de      	b.n	1000432c <usbd_edpt_open+0x28>
1000436e:	bf00      	nop
10004370:	20000ea8 	.word	0x20000ea8
10004374:	20001168 	.word	0x20001168
10004378:	1000749c 	.word	0x1000749c
1000437c:	100064f0 	.word	0x100064f0

10004380 <usbd_edpt_claim>:
10004380:	b508      	push	{r3, lr}
10004382:	f001 007f 	and.w	r0, r1, #127	@ 0x7f
10004386:	0040      	lsls	r0, r0, #1
10004388:	eb00 10d1 	add.w	r0, r0, r1, lsr #7
1000438c:	3030      	adds	r0, #48	@ 0x30
1000438e:	4b04      	ldr	r3, [pc, #16]	@ (100043a0 <usbd_edpt_claim+0x20>)
10004390:	4418      	add	r0, r3
10004392:	4b04      	ldr	r3, [pc, #16]	@ (100043a4 <usbd_edpt_claim+0x24>)
10004394:	6819      	ldr	r1, [r3, #0]
10004396:	3004      	adds	r0, #4
10004398:	f001 fc66 	bl	10005c68 <tu_edpt_claim>
1000439c:	bd08      	pop	{r3, pc}
1000439e:	bf00      	nop
100043a0:	20001168 	.word	0x20001168
100043a4:	200011bc 	.word	0x200011bc

100043a8 <usbd_edpt_xfer>:
100043a8:	b570      	push	{r4, r5, r6, lr}
100043aa:	481f      	ldr	r0, [pc, #124]	@ (10004428 <usbd_edpt_xfer+0x80>)
100043ac:	7800      	ldrb	r0, [r0, #0]
100043ae:	f001 057f 	and.w	r5, r1, #127	@ 0x7f
100043b2:	4c1e      	ldr	r4, [pc, #120]	@ (1000442c <usbd_edpt_xfer+0x84>)
100043b4:	eb04 0c45 	add.w	ip, r4, r5, lsl #1
100043b8:	eb0c 1cd1 	add.w	ip, ip, r1, lsr #7
100043bc:	f89c 4034 	ldrb.w	r4, [ip, #52]	@ 0x34
100043c0:	f014 0f01 	tst.w	r4, #1
100043c4:	d11f      	bne.n	10004406 <usbd_edpt_xfer+0x5e>
100043c6:	09ce      	lsrs	r6, r1, #7
100043c8:	4c18      	ldr	r4, [pc, #96]	@ (1000442c <usbd_edpt_xfer+0x84>)
100043ca:	eb04 0445 	add.w	r4, r4, r5, lsl #1
100043ce:	4434      	add	r4, r6
100043d0:	f894 c034 	ldrb.w	ip, [r4, #52]	@ 0x34
100043d4:	f04c 0c01 	orr.w	ip, ip, #1
100043d8:	f884 c034 	strb.w	ip, [r4, #52]	@ 0x34
100043dc:	3430      	adds	r4, #48	@ 0x30
100043de:	f7ff fca9 	bl	10003d34 <dcd_edpt_xfer>
100043e2:	b9f8      	cbnz	r0, 10004424 <usbd_edpt_xfer+0x7c>
100043e4:	7922      	ldrb	r2, [r4, #4]
100043e6:	f022 0201 	bic.w	r2, r2, #1
100043ea:	7122      	strb	r2, [r4, #4]
100043ec:	7922      	ldrb	r2, [r4, #4]
100043ee:	f022 0204 	bic.w	r2, r2, #4
100043f2:	7122      	strb	r2, [r4, #4]
100043f4:	f04f 23e0 	mov.w	r3, #3758153728	@ 0xe000e000
100043f8:	f8d3 3df0 	ldr.w	r3, [r3, #3568]	@ 0xdf0
100043fc:	f013 0f01 	tst.w	r3, #1
10004400:	d010      	beq.n	10004424 <usbd_edpt_xfer+0x7c>
10004402:	be00      	bkpt	0x0000
10004404:	e00e      	b.n	10004424 <usbd_edpt_xfer+0x7c>
10004406:	f240 522a 	movw	r2, #1322	@ 0x52a
1000440a:	4909      	ldr	r1, [pc, #36]	@ (10004430 <usbd_edpt_xfer+0x88>)
1000440c:	4809      	ldr	r0, [pc, #36]	@ (10004434 <usbd_edpt_xfer+0x8c>)
1000440e:	f7ff f987 	bl	10003720 <__wrap_printf>
10004412:	f04f 23e0 	mov.w	r3, #3758153728	@ 0xe000e000
10004416:	f8d3 3df0 	ldr.w	r3, [r3, #3568]	@ 0xdf0
1000441a:	f013 0f01 	tst.w	r3, #1
1000441e:	d000      	beq.n	10004422 <usbd_edpt_xfer+0x7a>
10004420:	be00      	bkpt	0x0000
10004422:	2000      	movs	r0, #0
10004424:	bd70      	pop	{r4, r5, r6, pc}
10004426:	bf00      	nop
10004428:	20000ea8 	.word	0x20000ea8
1000442c:	20001168 	.word	0x20001168
10004430:	1000748c 	.word	0x1000748c
10004434:	100064f0 	.word	0x100064f0

10004438 <usbd_edpt_stall>:
10004438:	b538      	push	{r3, r4, r5, lr}
1000443a:	f001 057f 	and.w	r5, r1, #127	@ 0x7f
1000443e:	09cc      	lsrs	r4, r1, #7
10004440:	4b0a      	ldr	r3, [pc, #40]	@ (1000446c <usbd_edpt_stall+0x34>)
10004442:	7818      	ldrb	r0, [r3, #0]
10004444:	f7ff fc8c 	bl	10003d60 <dcd_edpt_stall>
10004448:	4b09      	ldr	r3, [pc, #36]	@ (10004470 <usbd_edpt_stall+0x38>)
1000444a:	eb03 0345 	add.w	r3, r3, r5, lsl #1
1000444e:	4423      	add	r3, r4
10004450:	f893 2034 	ldrb.w	r2, [r3, #52]	@ 0x34
10004454:	f042 0202 	orr.w	r2, r2, #2
10004458:	f883 2034 	strb.w	r2, [r3, #52]	@ 0x34
1000445c:	f893 2034 	ldrb.w	r2, [r3, #52]	@ 0x34
10004460:	f042 0201 	orr.w	r2, r2, #1
10004464:	f883 2034 	strb.w	r2, [r3, #52]	@ 0x34
10004468:	bd38      	pop	{r3, r4, r5, pc}
1000446a:	bf00      	nop
1000446c:	20000ea8 	.word	0x20000ea8
10004470:	20001168 	.word	0x20001168

10004474 <usbd_edpt_clear_stall>:
10004474:	b538      	push	{r3, r4, r5, lr}
10004476:	f001 057f 	and.w	r5, r1, #127	@ 0x7f
1000447a:	09cc      	lsrs	r4, r1, #7
1000447c:	4b0a      	ldr	r3, [pc, #40]	@ (100044a8 <usbd_edpt_clear_stall+0x34>)
1000447e:	7818      	ldrb	r0, [r3, #0]
10004480:	f7ff fc8a 	bl	10003d98 <dcd_edpt_clear_stall>
10004484:	4b09      	ldr	r3, [pc, #36]	@ (100044ac <usbd_edpt_clear_stall+0x38>)
10004486:	eb03 0345 	add.w	r3, r3, r5, lsl #1
1000448a:	4423      	add	r3, r4
1000448c:	f893 2034 	ldrb.w	r2, [r3, #52]	@ 0x34
10004490:	f022 0202 	bic.w	r2, r2, #2
10004494:	f883 2034 	strb.w	r2, [r3, #52]	@ 0x34
10004498:	f893 2034 	ldrb.w	r2, [r3, #52]	@ 0x34
1000449c:	f022 0201 	bic.w	r2, r2, #1
100044a0:	f883 2034 	strb.w	r2, [r3, #52]	@ 0x34
100044a4:	bd38      	pop	{r3, r4, r5, pc}
100044a6:	bf00      	nop
100044a8:	20000ea8 	.word	0x20000ea8
100044ac:	20001168 	.word	0x20001168

100044b0 <usbd_edpt_stalled>:
100044b0:	f001 027f 	and.w	r2, r1, #127	@ 0x7f
100044b4:	4b04      	ldr	r3, [pc, #16]	@ (100044c8 <usbd_edpt_stalled+0x18>)
100044b6:	eb03 0342 	add.w	r3, r3, r2, lsl #1
100044ba:	eb03 11d1 	add.w	r1, r3, r1, lsr #7
100044be:	f891 0034 	ldrb.w	r0, [r1, #52]	@ 0x34
100044c2:	f3c0 0040 	ubfx	r0, r0, #1, #1
100044c6:	4770      	bx	lr
100044c8:	20001168 	.word	0x20001168

100044cc <process_control_request>:
100044cc:	e92d 41f0 	stmdb	sp!, {r4, r5, r6, r7, r8, lr}
100044d0:	b082      	sub	sp, #8
100044d2:	4606      	mov	r6, r0
100044d4:	460c      	mov	r4, r1
100044d6:	2000      	movs	r0, #0
100044d8:	f000 fbe8 	bl	10004cac <usbd_control_set_complete_callback>
100044dc:	7823      	ldrb	r3, [r4, #0]
100044de:	f003 0360 	and.w	r3, r3, #96	@ 0x60
100044e2:	2b60      	cmp	r3, #96	@ 0x60
100044e4:	d021      	beq.n	1000452a <process_control_request+0x5e>
100044e6:	2b40      	cmp	r3, #64	@ 0x40
100044e8:	d032      	beq.n	10004550 <process_control_request+0x84>
100044ea:	7822      	ldrb	r2, [r4, #0]
100044ec:	f002 021f 	and.w	r2, r2, #31
100044f0:	2a01      	cmp	r2, #1
100044f2:	f000 8101 	beq.w	100046f8 <process_control_request+0x22c>
100044f6:	2a02      	cmp	r2, #2
100044f8:	f000 8141 	beq.w	1000477e <process_control_request+0x2b2>
100044fc:	2a00      	cmp	r2, #0
100044fe:	f040 81c7 	bne.w	10004890 <process_control_request+0x3c4>
10004502:	2b20      	cmp	r3, #32
10004504:	d02e      	beq.n	10004564 <process_control_request+0x98>
10004506:	2b00      	cmp	r3, #0
10004508:	d14c      	bne.n	100045a4 <process_control_request+0xd8>
1000450a:	7863      	ldrb	r3, [r4, #1]
1000450c:	2b09      	cmp	r3, #9
1000450e:	f200 80e8 	bhi.w	100046e2 <process_control_request+0x216>
10004512:	e8df f013 	tbh	[pc, r3, lsl #1]
10004516:	00d3      	.short	0x00d3
10004518:	00e600c3 	.word	0x00e600c3
1000451c:	00e600b3 	.word	0x00e600b3
10004520:	00ad0051 	.word	0x00ad0051
10004524:	006000e6 	.word	0x006000e6
10004528:	006d      	.short	0x006d
1000452a:	f240 22c5 	movw	r2, #709	@ 0x2c5
1000452e:	49b1      	ldr	r1, [pc, #708]	@ (100047f4 <process_control_request+0x328>)
10004530:	48b1      	ldr	r0, [pc, #708]	@ (100047f8 <process_control_request+0x32c>)
10004532:	f7ff f8f5 	bl	10003720 <__wrap_printf>
10004536:	f04f 23e0 	mov.w	r3, #3758153728	@ 0xe000e000
1000453a:	f8d3 3df0 	ldr.w	r3, [r3, #3568]	@ 0xdf0
1000453e:	f013 0f01 	tst.w	r3, #1
10004542:	d000      	beq.n	10004546 <process_control_request+0x7a>
10004544:	be00      	bkpt	0x0000
10004546:	2500      	movs	r5, #0
10004548:	4628      	mov	r0, r5
1000454a:	b002      	add	sp, #8
1000454c:	e8bd 81f0 	ldmia.w	sp!, {r4, r5, r6, r7, r8, pc}
10004550:	48aa      	ldr	r0, [pc, #680]	@ (100047fc <process_control_request+0x330>)
10004552:	f000 fbab 	bl	10004cac <usbd_control_set_complete_callback>
10004556:	4622      	mov	r2, r4
10004558:	2101      	movs	r1, #1
1000455a:	4630      	mov	r0, r6
1000455c:	f7ff fc9f 	bl	10003e9e <tud_vendor_control_xfer_cb>
10004560:	4605      	mov	r5, r0
10004562:	e7f1      	b.n	10004548 <process_control_request+0x7c>
10004564:	88a3      	ldrh	r3, [r4, #4]
10004566:	b2db      	uxtb	r3, r3
10004568:	2b0f      	cmp	r3, #15
1000456a:	f200 819b 	bhi.w	100048a4 <process_control_request+0x3d8>
1000456e:	4aa4      	ldr	r2, [pc, #656]	@ (10004800 <process_control_request+0x334>)
10004570:	4413      	add	r3, r2
10004572:	791b      	ldrb	r3, [r3, #4]
10004574:	4aa3      	ldr	r2, [pc, #652]	@ (10004804 <process_control_request+0x338>)
10004576:	7812      	ldrb	r2, [r2, #0]
10004578:	4293      	cmp	r3, r2
1000457a:	d206      	bcs.n	1000458a <process_control_request+0xbe>
1000457c:	4aa2      	ldr	r2, [pc, #648]	@ (10004808 <process_control_request+0x33c>)
1000457e:	6811      	ldr	r1, [r2, #0]
10004580:	eb11 1143 	adds.w	r1, r1, r3, lsl #5
10004584:	d108      	bne.n	10004598 <process_control_request+0xcc>
10004586:	2500      	movs	r5, #0
10004588:	e7de      	b.n	10004548 <process_control_request+0x7c>
1000458a:	4293      	cmp	r3, r2
1000458c:	f200 818c 	bhi.w	100048a8 <process_control_request+0x3dc>
10004590:	1a9b      	subs	r3, r3, r2
10004592:	499e      	ldr	r1, [pc, #632]	@ (1000480c <process_control_request+0x340>)
10004594:	eb01 1143 	add.w	r1, r1, r3, lsl #5
10004598:	4622      	mov	r2, r4
1000459a:	4630      	mov	r0, r6
1000459c:	f7ff fcce 	bl	10003f3c <invoke_class_control>
100045a0:	4605      	mov	r5, r0
100045a2:	e7d1      	b.n	10004548 <process_control_request+0x7c>
100045a4:	f04f 23e0 	mov.w	r3, #3758153728	@ 0xe000e000
100045a8:	f8d3 3df0 	ldr.w	r3, [r3, #3568]	@ 0xdf0
100045ac:	f013 0f01 	tst.w	r3, #1
100045b0:	d000      	beq.n	100045b4 <process_control_request+0xe8>
100045b2:	be00      	bkpt	0x0000
100045b4:	2500      	movs	r5, #0
100045b6:	e7c7      	b.n	10004548 <process_control_request+0x7c>
100045b8:	4620      	mov	r0, r4
100045ba:	f000 fb7d 	bl	10004cb8 <usbd_control_set_request>
100045be:	8861      	ldrh	r1, [r4, #2]
100045c0:	b2c9      	uxtb	r1, r1
100045c2:	4630      	mov	r0, r6
100045c4:	f7ff fb1a 	bl	10003bfc <dcd_set_address>
100045c8:	4a8d      	ldr	r2, [pc, #564]	@ (10004800 <process_control_request+0x334>)
100045ca:	7813      	ldrb	r3, [r2, #0]
100045cc:	f043 0302 	orr.w	r3, r3, #2
100045d0:	7013      	strb	r3, [r2, #0]
100045d2:	2501      	movs	r5, #1
100045d4:	e7b8      	b.n	10004548 <process_control_request+0x7c>
100045d6:	4b8a      	ldr	r3, [pc, #552]	@ (10004800 <process_control_request+0x334>)
100045d8:	785b      	ldrb	r3, [r3, #1]
100045da:	f88d 3006 	strb.w	r3, [sp, #6]
100045de:	2301      	movs	r3, #1
100045e0:	f10d 0206 	add.w	r2, sp, #6
100045e4:	4621      	mov	r1, r4
100045e6:	4630      	mov	r0, r6
100045e8:	f000 fb00 	bl	10004bec <tud_control_xfer>
100045ec:	2501      	movs	r5, #1
100045ee:	e7ab      	b.n	10004548 <process_control_request+0x7c>
100045f0:	8865      	ldrh	r5, [r4, #2]
100045f2:	b2ed      	uxtb	r5, r5
100045f4:	4b82      	ldr	r3, [pc, #520]	@ (10004800 <process_control_request+0x334>)
100045f6:	785b      	ldrb	r3, [r3, #1]
100045f8:	b2db      	uxtb	r3, r3
100045fa:	42ab      	cmp	r3, r5
100045fc:	d032      	beq.n	10004664 <process_control_request+0x198>
100045fe:	4b80      	ldr	r3, [pc, #512]	@ (10004800 <process_control_request+0x334>)
10004600:	785b      	ldrb	r3, [r3, #1]
10004602:	b95b      	cbnz	r3, 1000461c <process_control_request+0x150>
10004604:	4b7e      	ldr	r3, [pc, #504]	@ (10004800 <process_control_request+0x334>)
10004606:	705d      	strb	r5, [r3, #1]
10004608:	b355      	cbz	r5, 10004660 <process_control_request+0x194>
1000460a:	4629      	mov	r1, r5
1000460c:	4630      	mov	r0, r6
1000460e:	f7ff fca3 	bl	10003f58 <process_set_config>
10004612:	4605      	mov	r5, r0
10004614:	b190      	cbz	r0, 1000463c <process_control_request+0x170>
10004616:	f7fb ffc1 	bl	1000059c <tud_mount_cb>
1000461a:	e023      	b.n	10004664 <process_control_request+0x198>
1000461c:	2100      	movs	r1, #0
1000461e:	4630      	mov	r0, r6
10004620:	f7ff fb4a 	bl	10003cb8 <dcd_sof_enable>
10004624:	4630      	mov	r0, r6
10004626:	f7ff fb81 	bl	10003d2c <dcd_edpt_close_all>
1000462a:	4f75      	ldr	r7, [pc, #468]	@ (10004800 <process_control_request+0x334>)
1000462c:	f897 8002 	ldrb.w	r8, [r7, #2]
10004630:	4630      	mov	r0, r6
10004632:	f7ff fc37 	bl	10003ea4 <configuration_reset>
10004636:	f887 8002 	strb.w	r8, [r7, #2]
1000463a:	e7e3      	b.n	10004604 <process_control_request+0x138>
1000463c:	f240 3215 	movw	r2, #789	@ 0x315
10004640:	496c      	ldr	r1, [pc, #432]	@ (100047f4 <process_control_request+0x328>)
10004642:	486d      	ldr	r0, [pc, #436]	@ (100047f8 <process_control_request+0x32c>)
10004644:	f7ff f86c 	bl	10003720 <__wrap_printf>
10004648:	f04f 23e0 	mov.w	r3, #3758153728	@ 0xe000e000
1000464c:	f8d3 3df0 	ldr.w	r3, [r3, #3568]	@ 0xdf0
10004650:	f013 0f01 	tst.w	r3, #1
10004654:	d000      	beq.n	10004658 <process_control_request+0x18c>
10004656:	be00      	bkpt	0x0000
10004658:	4b69      	ldr	r3, [pc, #420]	@ (10004800 <process_control_request+0x334>)
1000465a:	2200      	movs	r2, #0
1000465c:	705a      	strb	r2, [r3, #1]
1000465e:	e773      	b.n	10004548 <process_control_request+0x7c>
10004660:	f7fb ffa4 	bl	100005ac <tud_umount_cb>
10004664:	4621      	mov	r1, r4
10004666:	4630      	mov	r0, r6
10004668:	f000 faac 	bl	10004bc4 <tud_control_status>
1000466c:	2501      	movs	r5, #1
1000466e:	e76b      	b.n	10004548 <process_control_request+0x7c>
10004670:	4621      	mov	r1, r4
10004672:	4630      	mov	r0, r6
10004674:	f7ff fd44 	bl	10004100 <process_get_descriptor>
10004678:	4605      	mov	r5, r0
1000467a:	e765      	b.n	10004548 <process_control_request+0x7c>
1000467c:	8863      	ldrh	r3, [r4, #2]
1000467e:	2b01      	cmp	r3, #1
10004680:	d001      	beq.n	10004686 <process_control_request+0x1ba>
10004682:	2500      	movs	r5, #0
10004684:	e760      	b.n	10004548 <process_control_request+0x7c>
10004686:	4a5e      	ldr	r2, [pc, #376]	@ (10004800 <process_control_request+0x334>)
10004688:	7813      	ldrb	r3, [r2, #0]
1000468a:	f043 0308 	orr.w	r3, r3, #8
1000468e:	7013      	strb	r3, [r2, #0]
10004690:	4621      	mov	r1, r4
10004692:	4630      	mov	r0, r6
10004694:	f000 fa96 	bl	10004bc4 <tud_control_status>
10004698:	2501      	movs	r5, #1
1000469a:	e755      	b.n	10004548 <process_control_request+0x7c>
1000469c:	8863      	ldrh	r3, [r4, #2]
1000469e:	2b01      	cmp	r3, #1
100046a0:	d001      	beq.n	100046a6 <process_control_request+0x1da>
100046a2:	2500      	movs	r5, #0
100046a4:	e750      	b.n	10004548 <process_control_request+0x7c>
100046a6:	4a56      	ldr	r2, [pc, #344]	@ (10004800 <process_control_request+0x334>)
100046a8:	7813      	ldrb	r3, [r2, #0]
100046aa:	f023 0308 	bic.w	r3, r3, #8
100046ae:	7013      	strb	r3, [r2, #0]
100046b0:	4621      	mov	r1, r4
100046b2:	4630      	mov	r0, r6
100046b4:	f000 fa86 	bl	10004bc4 <tud_control_status>
100046b8:	2501      	movs	r5, #1
100046ba:	e745      	b.n	10004548 <process_control_request+0x7c>
100046bc:	4b50      	ldr	r3, [pc, #320]	@ (10004800 <process_control_request+0x334>)
100046be:	781b      	ldrb	r3, [r3, #0]
100046c0:	089a      	lsrs	r2, r3, #2
100046c2:	f3c3 1340 	ubfx	r3, r3, #5, #1
100046c6:	f002 0202 	and.w	r2, r2, #2
100046ca:	4313      	orrs	r3, r2
100046cc:	f8ad 3006 	strh.w	r3, [sp, #6]
100046d0:	2302      	movs	r3, #2
100046d2:	f10d 0206 	add.w	r2, sp, #6
100046d6:	4621      	mov	r1, r4
100046d8:	4630      	mov	r0, r6
100046da:	f000 fa87 	bl	10004bec <tud_control_xfer>
100046de:	2501      	movs	r5, #1
100046e0:	e732      	b.n	10004548 <process_control_request+0x7c>
100046e2:	f04f 23e0 	mov.w	r3, #3758153728	@ 0xe000e000
100046e6:	f8d3 3df0 	ldr.w	r3, [r3, #3568]	@ 0xdf0
100046ea:	f013 0f01 	tst.w	r3, #1
100046ee:	f000 80dd 	beq.w	100048ac <process_control_request+0x3e0>
100046f2:	be00      	bkpt	0x0000
100046f4:	2500      	movs	r5, #0
100046f6:	e727      	b.n	10004548 <process_control_request+0x7c>
100046f8:	88a3      	ldrh	r3, [r4, #4]
100046fa:	b2db      	uxtb	r3, r3
100046fc:	2b0f      	cmp	r3, #15
100046fe:	f200 80d7 	bhi.w	100048b0 <process_control_request+0x3e4>
10004702:	4a3f      	ldr	r2, [pc, #252]	@ (10004800 <process_control_request+0x334>)
10004704:	4413      	add	r3, r2
10004706:	791b      	ldrb	r3, [r3, #4]
10004708:	4a3e      	ldr	r2, [pc, #248]	@ (10004804 <process_control_request+0x338>)
1000470a:	7812      	ldrb	r2, [r2, #0]
1000470c:	4293      	cmp	r3, r2
1000470e:	d222      	bcs.n	10004756 <process_control_request+0x28a>
10004710:	4a3d      	ldr	r2, [pc, #244]	@ (10004808 <process_control_request+0x33c>)
10004712:	6811      	ldr	r1, [r2, #0]
10004714:	eb11 1143 	adds.w	r1, r1, r3, lsl #5
10004718:	f000 80cc 	beq.w	100048b4 <process_control_request+0x3e8>
1000471c:	4622      	mov	r2, r4
1000471e:	4630      	mov	r0, r6
10004720:	f7ff fc0c 	bl	10003f3c <invoke_class_control>
10004724:	4605      	mov	r5, r0
10004726:	2800      	cmp	r0, #0
10004728:	f47f af0e 	bne.w	10004548 <process_control_request+0x7c>
1000472c:	7823      	ldrb	r3, [r4, #0]
1000472e:	f013 0f60 	tst.w	r3, #96	@ 0x60
10004732:	f47f af09 	bne.w	10004548 <process_control_request+0x7c>
10004736:	7863      	ldrb	r3, [r4, #1]
10004738:	3b0a      	subs	r3, #10
1000473a:	2b01      	cmp	r3, #1
1000473c:	f63f af04 	bhi.w	10004548 <process_control_request+0x7c>
10004740:	f000 fab4 	bl	10004cac <usbd_control_set_complete_callback>
10004744:	7863      	ldrb	r3, [r4, #1]
10004746:	2b0a      	cmp	r3, #10
10004748:	d00d      	beq.n	10004766 <process_control_request+0x29a>
1000474a:	4621      	mov	r1, r4
1000474c:	4630      	mov	r0, r6
1000474e:	f000 fa39 	bl	10004bc4 <tud_control_status>
10004752:	2501      	movs	r5, #1
10004754:	e6f8      	b.n	10004548 <process_control_request+0x7c>
10004756:	4293      	cmp	r3, r2
10004758:	f200 80ae 	bhi.w	100048b8 <process_control_request+0x3ec>
1000475c:	1a9b      	subs	r3, r3, r2
1000475e:	492b      	ldr	r1, [pc, #172]	@ (1000480c <process_control_request+0x340>)
10004760:	eb01 1143 	add.w	r1, r1, r3, lsl #5
10004764:	e7da      	b.n	1000471c <process_control_request+0x250>
10004766:	2300      	movs	r3, #0
10004768:	f88d 3006 	strb.w	r3, [sp, #6]
1000476c:	2301      	movs	r3, #1
1000476e:	f10d 0206 	add.w	r2, sp, #6
10004772:	4621      	mov	r1, r4
10004774:	4630      	mov	r0, r6
10004776:	f000 fa39 	bl	10004bec <tud_control_xfer>
1000477a:	2501      	movs	r5, #1
1000477c:	e6e4      	b.n	10004548 <process_control_request+0x7c>
1000477e:	88a2      	ldrh	r2, [r4, #4]
10004780:	b2d1      	uxtb	r1, r2
10004782:	f002 057f 	and.w	r5, r2, #127	@ 0x7f
10004786:	f3c2 10c0 	ubfx	r0, r2, #7, #1
1000478a:	f012 0f70 	tst.w	r2, #112	@ 0x70
1000478e:	d117      	bne.n	100047c0 <process_control_request+0x2f4>
10004790:	4a1b      	ldr	r2, [pc, #108]	@ (10004800 <process_control_request+0x334>)
10004792:	eb02 0245 	add.w	r2, r2, r5, lsl #1
10004796:	4402      	add	r2, r0
10004798:	7d12      	ldrb	r2, [r2, #20]
1000479a:	481a      	ldr	r0, [pc, #104]	@ (10004804 <process_control_request+0x338>)
1000479c:	7800      	ldrb	r0, [r0, #0]
1000479e:	4282      	cmp	r2, r0
100047a0:	d21e      	bcs.n	100047e0 <process_control_request+0x314>
100047a2:	4819      	ldr	r0, [pc, #100]	@ (10004808 <process_control_request+0x33c>)
100047a4:	6805      	ldr	r5, [r0, #0]
100047a6:	eb05 1542 	add.w	r5, r5, r2, lsl #5
100047aa:	b38b      	cbz	r3, 10004810 <process_control_request+0x344>
100047ac:	2d00      	cmp	r5, #0
100047ae:	f000 8085 	beq.w	100048bc <process_control_request+0x3f0>
100047b2:	4622      	mov	r2, r4
100047b4:	4629      	mov	r1, r5
100047b6:	4630      	mov	r0, r6
100047b8:	f7ff fbc0 	bl	10003f3c <invoke_class_control>
100047bc:	4605      	mov	r5, r0
100047be:	e6c3      	b.n	10004548 <process_control_request+0x7c>
100047c0:	f240 3286 	movw	r2, #902	@ 0x386
100047c4:	490b      	ldr	r1, [pc, #44]	@ (100047f4 <process_control_request+0x328>)
100047c6:	480c      	ldr	r0, [pc, #48]	@ (100047f8 <process_control_request+0x32c>)
100047c8:	f7fe ffaa 	bl	10003720 <__wrap_printf>
100047cc:	f04f 23e0 	mov.w	r3, #3758153728	@ 0xe000e000
100047d0:	f8d3 3df0 	ldr.w	r3, [r3, #3568]	@ 0xdf0
100047d4:	f013 0f01 	tst.w	r3, #1
100047d8:	d000      	beq.n	100047dc <process_control_request+0x310>
100047da:	be00      	bkpt	0x0000
100047dc:	2500      	movs	r5, #0
100047de:	e6b3      	b.n	10004548 <process_control_request+0x7c>
100047e0:	4282      	cmp	r2, r0
100047e2:	d804      	bhi.n	100047ee <process_control_request+0x322>
100047e4:	1a12      	subs	r2, r2, r0
100047e6:	4d09      	ldr	r5, [pc, #36]	@ (1000480c <process_control_request+0x340>)
100047e8:	eb05 1542 	add.w	r5, r5, r2, lsl #5
100047ec:	e7dd      	b.n	100047aa <process_control_request+0x2de>
100047ee:	2500      	movs	r5, #0
100047f0:	e7db      	b.n	100047aa <process_control_request+0x2de>
100047f2:	bf00      	nop
100047f4:	100074e4 	.word	0x100074e4
100047f8:	100064f0 	.word	0x100064f0
100047fc:	10003e9f 	.word	0x10003e9f
10004800:	20001168 	.word	0x20001168
10004804:	2000230a 	.word	0x2000230a
10004808:	20001038 	.word	0x20001038
1000480c:	1000752c 	.word	0x1000752c
10004810:	7863      	ldrb	r3, [r4, #1]
10004812:	2b01      	cmp	r3, #1
10004814:	d010      	beq.n	10004838 <process_control_request+0x36c>
10004816:	2b03      	cmp	r3, #3
10004818:	d00e      	beq.n	10004838 <process_control_request+0x36c>
1000481a:	bb7b      	cbnz	r3, 1000487c <process_control_request+0x3b0>
1000481c:	4630      	mov	r0, r6
1000481e:	f7ff fe47 	bl	100044b0 <usbd_edpt_stalled>
10004822:	f8ad 0006 	strh.w	r0, [sp, #6]
10004826:	2302      	movs	r3, #2
10004828:	f10d 0206 	add.w	r2, sp, #6
1000482c:	4621      	mov	r1, r4
1000482e:	4630      	mov	r0, r6
10004830:	f000 f9dc 	bl	10004bec <tud_control_xfer>
10004834:	2501      	movs	r5, #1
10004836:	e687      	b.n	10004548 <process_control_request+0x7c>
10004838:	8862      	ldrh	r2, [r4, #2]
1000483a:	b922      	cbnz	r2, 10004846 <process_control_request+0x37a>
1000483c:	2b01      	cmp	r3, #1
1000483e:	d019      	beq.n	10004874 <process_control_request+0x3a8>
10004840:	4630      	mov	r0, r6
10004842:	f7ff fdf9 	bl	10004438 <usbd_edpt_stall>
10004846:	2d00      	cmp	r5, #0
10004848:	d03a      	beq.n	100048c0 <process_control_request+0x3f4>
1000484a:	4622      	mov	r2, r4
1000484c:	4629      	mov	r1, r5
1000484e:	4630      	mov	r0, r6
10004850:	f7ff fb74 	bl	10003f3c <invoke_class_control>
10004854:	2000      	movs	r0, #0
10004856:	f000 fa29 	bl	10004cac <usbd_control_set_complete_callback>
1000485a:	4b1b      	ldr	r3, [pc, #108]	@ (100048c8 <process_control_request+0x3fc>)
1000485c:	f893 5035 	ldrb.w	r5, [r3, #53]	@ 0x35
10004860:	f015 0501 	ands.w	r5, r5, #1
10004864:	f47f ae70 	bne.w	10004548 <process_control_request+0x7c>
10004868:	4621      	mov	r1, r4
1000486a:	4630      	mov	r0, r6
1000486c:	f000 f9aa 	bl	10004bc4 <tud_control_status>
10004870:	2501      	movs	r5, #1
10004872:	e669      	b.n	10004548 <process_control_request+0x7c>
10004874:	4630      	mov	r0, r6
10004876:	f7ff fdfd 	bl	10004474 <usbd_edpt_clear_stall>
1000487a:	e7e4      	b.n	10004846 <process_control_request+0x37a>
1000487c:	f04f 23e0 	mov.w	r3, #3758153728	@ 0xe000e000
10004880:	f8d3 3df0 	ldr.w	r3, [r3, #3568]	@ 0xdf0
10004884:	f013 0f01 	tst.w	r3, #1
10004888:	d000      	beq.n	1000488c <process_control_request+0x3c0>
1000488a:	be00      	bkpt	0x0000
1000488c:	2500      	movs	r5, #0
1000488e:	e65b      	b.n	10004548 <process_control_request+0x7c>
10004890:	f04f 23e0 	mov.w	r3, #3758153728	@ 0xe000e000
10004894:	f8d3 3df0 	ldr.w	r3, [r3, #3568]	@ 0xdf0
10004898:	f013 0f01 	tst.w	r3, #1
1000489c:	d012      	beq.n	100048c4 <process_control_request+0x3f8>
1000489e:	be00      	bkpt	0x0000
100048a0:	2500      	movs	r5, #0
100048a2:	e651      	b.n	10004548 <process_control_request+0x7c>
100048a4:	2500      	movs	r5, #0
100048a6:	e64f      	b.n	10004548 <process_control_request+0x7c>
100048a8:	2500      	movs	r5, #0
100048aa:	e64d      	b.n	10004548 <process_control_request+0x7c>
100048ac:	2500      	movs	r5, #0
100048ae:	e64b      	b.n	10004548 <process_control_request+0x7c>
100048b0:	2500      	movs	r5, #0
100048b2:	e649      	b.n	10004548 <process_control_request+0x7c>
100048b4:	2500      	movs	r5, #0
100048b6:	e647      	b.n	10004548 <process_control_request+0x7c>
100048b8:	2500      	movs	r5, #0
100048ba:	e645      	b.n	10004548 <process_control_request+0x7c>
100048bc:	2500      	movs	r5, #0
100048be:	e643      	b.n	10004548 <process_control_request+0x7c>
100048c0:	2501      	movs	r5, #1
100048c2:	e641      	b.n	10004548 <process_control_request+0x7c>
100048c4:	2500      	movs	r5, #0
100048c6:	e63f      	b.n	10004548 <process_control_request+0x7c>
100048c8:	20001168 	.word	0x20001168

100048cc <tud_task_ext>:
100048cc:	b510      	push	{r4, lr}
100048ce:	b084      	sub	sp, #16
100048d0:	f7ff fca0 	bl	10004214 <tud_inited>
100048d4:	b948      	cbnz	r0, 100048ea <tud_task_ext+0x1e>
100048d6:	b004      	add	sp, #16
100048d8:	bd10      	pop	{r4, pc}
100048da:	f89d 0004 	ldrb.w	r0, [sp, #4]
100048de:	f7ff fb27 	bl	10003f30 <usbd_reset>
100048e2:	f89d 2008 	ldrb.w	r2, [sp, #8]
100048e6:	4b7f      	ldr	r3, [pc, #508]	@ (10004ae4 <tud_task_ext+0x218>)
100048e8:	709a      	strb	r2, [r3, #2]
100048ea:	4b7f      	ldr	r3, [pc, #508]	@ (10004ae8 <tud_task_ext+0x21c>)
100048ec:	681c      	ldr	r4, [r3, #0]
100048ee:	f104 0014 	add.w	r0, r4, #20
100048f2:	f7ff fac1 	bl	10003e78 <critical_section_enter_blocking>
100048f6:	a901      	add	r1, sp, #4
100048f8:	4620      	mov	r0, r4
100048fa:	f001 fc3c 	bl	10006176 <tu_fifo_read>
100048fe:	6961      	ldr	r1, [r4, #20]
10004900:	69a3      	ldr	r3, [r4, #24]
10004902:	2200      	movs	r2, #0
10004904:	e8c1 2f8f 	stlb	r2, [r1]
10004908:	f383 8810 	msr	PRIMASK, r3
1000490c:	2800      	cmp	r0, #0
1000490e:	d0e2      	beq.n	100048d6 <tud_task_ext+0xa>
10004910:	f89d 3005 	ldrb.w	r3, [sp, #5]
10004914:	3b01      	subs	r3, #1
10004916:	2b07      	cmp	r3, #7
10004918:	f200 80d9 	bhi.w	10004ace <tud_task_ext+0x202>
1000491c:	a201      	add	r2, pc, #4	@ (adr r2, 10004924 <tud_task_ext+0x58>)
1000491e:	f852 f023 	ldr.w	pc, [r2, r3, lsl #2]
10004922:	bf00      	nop
10004924:	100048db 	.word	0x100048db
10004928:	10004945 	.word	0x10004945
1000492c:	10004abb 	.word	0x10004abb
10004930:	10004a81 	.word	0x10004a81
10004934:	10004a9b 	.word	0x10004a9b
10004938:	10004953 	.word	0x10004953
1000493c:	100049e9 	.word	0x100049e9
10004940:	10004aad 	.word	0x10004aad
10004944:	f89d 0004 	ldrb.w	r0, [sp, #4]
10004948:	f7ff faf2 	bl	10003f30 <usbd_reset>
1000494c:	f7fb fe2e 	bl	100005ac <tud_umount_cb>
10004950:	e7cb      	b.n	100048ea <tud_task_ext+0x1e>
10004952:	4b66      	ldr	r3, [pc, #408]	@ (10004aec <tud_task_ext+0x220>)
10004954:	781b      	ldrb	r3, [r3, #0]
10004956:	2b00      	cmp	r3, #0
10004958:	d036      	beq.n	100049c8 <tud_task_ext+0xfc>
1000495a:	4a64      	ldr	r2, [pc, #400]	@ (10004aec <tud_task_ext+0x220>)
1000495c:	7813      	ldrb	r3, [r2, #0]
1000495e:	3b01      	subs	r3, #1
10004960:	b2db      	uxtb	r3, r3
10004962:	7013      	strb	r3, [r2, #0]
10004964:	7813      	ldrb	r3, [r2, #0]
10004966:	2b00      	cmp	r3, #0
10004968:	d1bf      	bne.n	100048ea <tud_task_ext+0x1e>
1000496a:	4b5e      	ldr	r3, [pc, #376]	@ (10004ae4 <tud_task_ext+0x218>)
1000496c:	781a      	ldrb	r2, [r3, #0]
1000496e:	f042 0201 	orr.w	r2, r2, #1
10004972:	701a      	strb	r2, [r3, #0]
10004974:	f893 2034 	ldrb.w	r2, [r3, #52]	@ 0x34
10004978:	f022 0201 	bic.w	r2, r2, #1
1000497c:	f883 2034 	strb.w	r2, [r3, #52]	@ 0x34
10004980:	f893 2034 	ldrb.w	r2, [r3, #52]	@ 0x34
10004984:	f022 0204 	bic.w	r2, r2, #4
10004988:	f883 2034 	strb.w	r2, [r3, #52]	@ 0x34
1000498c:	f893 2035 	ldrb.w	r2, [r3, #53]	@ 0x35
10004990:	f022 0201 	bic.w	r2, r2, #1
10004994:	f883 2035 	strb.w	r2, [r3, #53]	@ 0x35
10004998:	f893 2035 	ldrb.w	r2, [r3, #53]	@ 0x35
1000499c:	f022 0204 	bic.w	r2, r2, #4
100049a0:	f883 2035 	strb.w	r2, [r3, #53]	@ 0x35
100049a4:	a902      	add	r1, sp, #8
100049a6:	f89d 0004 	ldrb.w	r0, [sp, #4]
100049aa:	f7ff fd8f 	bl	100044cc <process_control_request>
100049ae:	2800      	cmp	r0, #0
100049b0:	d19b      	bne.n	100048ea <tud_task_ext+0x1e>
100049b2:	2100      	movs	r1, #0
100049b4:	f89d 0004 	ldrb.w	r0, [sp, #4]
100049b8:	f7ff f9d2 	bl	10003d60 <dcd_edpt_stall>
100049bc:	2180      	movs	r1, #128	@ 0x80
100049be:	f89d 0004 	ldrb.w	r0, [sp, #4]
100049c2:	f7ff f9cd 	bl	10003d60 <dcd_edpt_stall>
100049c6:	e790      	b.n	100048ea <tud_task_ext+0x1e>
100049c8:	f240 2256 	movw	r2, #598	@ 0x256
100049cc:	4948      	ldr	r1, [pc, #288]	@ (10004af0 <tud_task_ext+0x224>)
100049ce:	4849      	ldr	r0, [pc, #292]	@ (10004af4 <tud_task_ext+0x228>)
100049d0:	f7fe fea6 	bl	10003720 <__wrap_printf>
100049d4:	f04f 23e0 	mov.w	r3, #3758153728	@ 0xe000e000
100049d8:	f8d3 3df0 	ldr.w	r3, [r3, #3568]	@ 0xdf0
100049dc:	f013 0f01 	tst.w	r3, #1
100049e0:	f43f af79 	beq.w	100048d6 <tud_task_ext+0xa>
100049e4:	be00      	bkpt	0x0000
100049e6:	e776      	b.n	100048d6 <tud_task_ext+0xa>
100049e8:	f89d 1008 	ldrb.w	r1, [sp, #8]
100049ec:	f001 007f 	and.w	r0, r1, #127	@ 0x7f
100049f0:	09cc      	lsrs	r4, r1, #7
100049f2:	4b3c      	ldr	r3, [pc, #240]	@ (10004ae4 <tud_task_ext+0x218>)
100049f4:	eb03 0340 	add.w	r3, r3, r0, lsl #1
100049f8:	eb03 13d1 	add.w	r3, r3, r1, lsr #7
100049fc:	f893 2034 	ldrb.w	r2, [r3, #52]	@ 0x34
10004a00:	f022 0201 	bic.w	r2, r2, #1
10004a04:	f883 2034 	strb.w	r2, [r3, #52]	@ 0x34
10004a08:	f893 2034 	ldrb.w	r2, [r3, #52]	@ 0x34
10004a0c:	f022 0204 	bic.w	r2, r2, #4
10004a10:	f883 2034 	strb.w	r2, [r3, #52]	@ 0x34
10004a14:	b1a8      	cbz	r0, 10004a42 <tud_task_ext+0x176>
10004a16:	4b33      	ldr	r3, [pc, #204]	@ (10004ae4 <tud_task_ext+0x218>)
10004a18:	eb03 0340 	add.w	r3, r3, r0, lsl #1
10004a1c:	4423      	add	r3, r4
10004a1e:	7d1b      	ldrb	r3, [r3, #20]
10004a20:	4a35      	ldr	r2, [pc, #212]	@ (10004af8 <tud_task_ext+0x22c>)
10004a22:	7812      	ldrb	r2, [r2, #0]
10004a24:	4293      	cmp	r3, r2
10004a26:	d214      	bcs.n	10004a52 <tud_task_ext+0x186>
10004a28:	4a34      	ldr	r2, [pc, #208]	@ (10004afc <tud_task_ext+0x230>)
10004a2a:	6812      	ldr	r2, [r2, #0]
10004a2c:	eb12 1343 	adds.w	r3, r2, r3, lsl #5
10004a30:	d016      	beq.n	10004a60 <tud_task_ext+0x194>
10004a32:	699c      	ldr	r4, [r3, #24]
10004a34:	9b03      	ldr	r3, [sp, #12]
10004a36:	f89d 2009 	ldrb.w	r2, [sp, #9]
10004a3a:	f89d 0004 	ldrb.w	r0, [sp, #4]
10004a3e:	47a0      	blx	r4
10004a40:	e753      	b.n	100048ea <tud_task_ext+0x1e>
10004a42:	9b03      	ldr	r3, [sp, #12]
10004a44:	f89d 2009 	ldrb.w	r2, [sp, #9]
10004a48:	f89d 0004 	ldrb.w	r0, [sp, #4]
10004a4c:	f000 f942 	bl	10004cd4 <usbd_control_xfer_cb>
10004a50:	e74b      	b.n	100048ea <tud_task_ext+0x1e>
10004a52:	4293      	cmp	r3, r2
10004a54:	d804      	bhi.n	10004a60 <tud_task_ext+0x194>
10004a56:	1a9b      	subs	r3, r3, r2
10004a58:	4a29      	ldr	r2, [pc, #164]	@ (10004b00 <tud_task_ext+0x234>)
10004a5a:	eb02 1343 	add.w	r3, r2, r3, lsl #5
10004a5e:	e7e8      	b.n	10004a32 <tud_task_ext+0x166>
10004a60:	f240 2281 	movw	r2, #641	@ 0x281
10004a64:	4922      	ldr	r1, [pc, #136]	@ (10004af0 <tud_task_ext+0x224>)
10004a66:	4823      	ldr	r0, [pc, #140]	@ (10004af4 <tud_task_ext+0x228>)
10004a68:	f7fe fe5a 	bl	10003720 <__wrap_printf>
10004a6c:	f04f 23e0 	mov.w	r3, #3758153728	@ 0xe000e000
10004a70:	f8d3 3df0 	ldr.w	r3, [r3, #3568]	@ 0xdf0
10004a74:	f013 0f01 	tst.w	r3, #1
10004a78:	f43f af2d 	beq.w	100048d6 <tud_task_ext+0xa>
10004a7c:	be00      	bkpt	0x0000
10004a7e:	e72a      	b.n	100048d6 <tud_task_ext+0xa>
10004a80:	4b18      	ldr	r3, [pc, #96]	@ (10004ae4 <tud_task_ext+0x218>)
10004a82:	781b      	ldrb	r3, [r3, #0]
10004a84:	f013 0f01 	tst.w	r3, #1
10004a88:	f43f af2f 	beq.w	100048ea <tud_task_ext+0x1e>
10004a8c:	4b15      	ldr	r3, [pc, #84]	@ (10004ae4 <tud_task_ext+0x218>)
10004a8e:	7818      	ldrb	r0, [r3, #0]
10004a90:	f3c0 00c0 	ubfx	r0, r0, #3, #1
10004a94:	f7fb fd90 	bl	100005b8 <tud_suspend_cb>
10004a98:	e727      	b.n	100048ea <tud_task_ext+0x1e>
10004a9a:	4b12      	ldr	r3, [pc, #72]	@ (10004ae4 <tud_task_ext+0x218>)
10004a9c:	781b      	ldrb	r3, [r3, #0]
10004a9e:	f013 0f01 	tst.w	r3, #1
10004aa2:	f43f af22 	beq.w	100048ea <tud_task_ext+0x1e>
10004aa6:	f7fb fd8f 	bl	100005c8 <tud_resume_cb>
10004aaa:	e71e      	b.n	100048ea <tud_task_ext+0x1e>
10004aac:	9b02      	ldr	r3, [sp, #8]
10004aae:	2b00      	cmp	r3, #0
10004ab0:	f43f af1b 	beq.w	100048ea <tud_task_ext+0x1e>
10004ab4:	9803      	ldr	r0, [sp, #12]
10004ab6:	4798      	blx	r3
10004ab8:	e717      	b.n	100048ea <tud_task_ext+0x1e>
10004aba:	4b0a      	ldr	r3, [pc, #40]	@ (10004ae4 <tud_task_ext+0x218>)
10004abc:	78db      	ldrb	r3, [r3, #3]
10004abe:	f013 0f01 	tst.w	r3, #1
10004ac2:	f43f af12 	beq.w	100048ea <tud_task_ext+0x1e>
10004ac6:	9802      	ldr	r0, [sp, #8]
10004ac8:	f7ff fb13 	bl	100040f2 <tud_sof_cb>
10004acc:	e70d      	b.n	100048ea <tud_task_ext+0x1e>
10004ace:	f04f 23e0 	mov.w	r3, #3758153728	@ 0xe000e000
10004ad2:	f8d3 3df0 	ldr.w	r3, [r3, #3568]	@ 0xdf0
10004ad6:	f013 0f01 	tst.w	r3, #1
10004ada:	f43f af06 	beq.w	100048ea <tud_task_ext+0x1e>
10004ade:	be00      	bkpt	0x0000
10004ae0:	e703      	b.n	100048ea <tud_task_ext+0x1e>
10004ae2:	bf00      	nop
10004ae4:	20001168 	.word	0x20001168
10004ae8:	200011c0 	.word	0x200011c0
10004aec:	2000230c 	.word	0x2000230c
10004af0:	10007510 	.word	0x10007510
10004af4:	100064f0 	.word	0x100064f0
10004af8:	2000230a 	.word	0x2000230a
10004afc:	20001038 	.word	0x20001038
10004b00:	1000752c 	.word	0x1000752c

10004b04 <usbd_edpt_close>:
10004b04:	b538      	push	{r3, r4, r5, lr}
10004b06:	f001 057f 	and.w	r5, r1, #127	@ 0x7f
10004b0a:	09cc      	lsrs	r4, r1, #7
10004b0c:	4b0d      	ldr	r3, [pc, #52]	@ (10004b44 <usbd_edpt_close+0x40>)
10004b0e:	7818      	ldrb	r0, [r3, #0]
10004b10:	f7ff f956 	bl	10003dc0 <dcd_edpt_close>
10004b14:	4b0c      	ldr	r3, [pc, #48]	@ (10004b48 <usbd_edpt_close+0x44>)
10004b16:	eb03 0345 	add.w	r3, r3, r5, lsl #1
10004b1a:	4423      	add	r3, r4
10004b1c:	f893 2034 	ldrb.w	r2, [r3, #52]	@ 0x34
10004b20:	f022 0202 	bic.w	r2, r2, #2
10004b24:	f883 2034 	strb.w	r2, [r3, #52]	@ 0x34
10004b28:	f893 2034 	ldrb.w	r2, [r3, #52]	@ 0x34
10004b2c:	f022 0201 	bic.w	r2, r2, #1
10004b30:	f883 2034 	strb.w	r2, [r3, #52]	@ 0x34
10004b34:	f893 2034 	ldrb.w	r2, [r3, #52]	@ 0x34
10004b38:	f022 0204 	bic.w	r2, r2, #4
10004b3c:	f883 2034 	strb.w	r2, [r3, #52]	@ 0x34
10004b40:	bd38      	pop	{r3, r4, r5, pc}
10004b42:	bf00      	nop
10004b44:	20000ea8 	.word	0x20000ea8
10004b48:	20001168 	.word	0x20001168

10004b4c <_status_stage_xact>:
10004b4c:	b508      	push	{r3, lr}
10004b4e:	f991 3000 	ldrsb.w	r3, [r1]
10004b52:	2b00      	cmp	r3, #0
10004b54:	db05      	blt.n	10004b62 <_status_stage_xact+0x16>
10004b56:	2180      	movs	r1, #128	@ 0x80
10004b58:	2300      	movs	r3, #0
10004b5a:	461a      	mov	r2, r3
10004b5c:	f7ff fc24 	bl	100043a8 <usbd_edpt_xfer>
10004b60:	bd08      	pop	{r3, pc}
10004b62:	2100      	movs	r1, #0
10004b64:	e7f8      	b.n	10004b58 <_status_stage_xact+0xc>
	...

10004b68 <_data_stage_xact>:
10004b68:	b5f8      	push	{r3, r4, r5, r6, r7, lr}
10004b6a:	4607      	mov	r7, r0
10004b6c:	4b13      	ldr	r3, [pc, #76]	@ (10004bbc <_data_stage_xact+0x54>)
10004b6e:	899e      	ldrh	r6, [r3, #12]
10004b70:	89dd      	ldrh	r5, [r3, #14]
10004b72:	1b74      	subs	r4, r6, r5
10004b74:	b2a4      	uxth	r4, r4
10004b76:	2c40      	cmp	r4, #64	@ 0x40
10004b78:	bf28      	it	cs
10004b7a:	2440      	movcs	r4, #64	@ 0x40
10004b7c:	f993 3000 	ldrsb.w	r3, [r3]
10004b80:	2b00      	cmp	r3, #0
10004b82:	db08      	blt.n	10004b96 <_data_stage_xact+0x2e>
10004b84:	2100      	movs	r1, #0
10004b86:	42ae      	cmp	r6, r5
10004b88:	d013      	beq.n	10004bb2 <_data_stage_xact+0x4a>
10004b8a:	4a0d      	ldr	r2, [pc, #52]	@ (10004bc0 <_data_stage_xact+0x58>)
10004b8c:	4623      	mov	r3, r4
10004b8e:	4638      	mov	r0, r7
10004b90:	f7ff fc0a 	bl	100043a8 <usbd_edpt_xfer>
10004b94:	bdf8      	pop	{r3, r4, r5, r6, r7, pc}
10004b96:	42ae      	cmp	r6, r5
10004b98:	d009      	beq.n	10004bae <_data_stage_xact+0x46>
10004b9a:	4b08      	ldr	r3, [pc, #32]	@ (10004bbc <_data_stage_xact+0x54>)
10004b9c:	6899      	ldr	r1, [r3, #8]
10004b9e:	2c40      	cmp	r4, #64	@ 0x40
10004ba0:	d809      	bhi.n	10004bb6 <_data_stage_xact+0x4e>
10004ba2:	4622      	mov	r2, r4
10004ba4:	4806      	ldr	r0, [pc, #24]	@ (10004bc0 <_data_stage_xact+0x58>)
10004ba6:	f001 fbad 	bl	10006304 <memcpy>
10004baa:	2180      	movs	r1, #128	@ 0x80
10004bac:	e7eb      	b.n	10004b86 <_data_stage_xact+0x1e>
10004bae:	2180      	movs	r1, #128	@ 0x80
10004bb0:	e7e9      	b.n	10004b86 <_data_stage_xact+0x1e>
10004bb2:	2200      	movs	r2, #0
10004bb4:	e7ea      	b.n	10004b8c <_data_stage_xact+0x24>
10004bb6:	2000      	movs	r0, #0
10004bb8:	e7ec      	b.n	10004b94 <_data_stage_xact+0x2c>
10004bba:	bf00      	nop
10004bbc:	200010a8 	.word	0x200010a8
10004bc0:	20001128 	.word	0x20001128

10004bc4 <tud_control_status>:
10004bc4:	b508      	push	{r3, lr}
10004bc6:	4686      	mov	lr, r0
10004bc8:	460b      	mov	r3, r1
10004bca:	4a07      	ldr	r2, [pc, #28]	@ (10004be8 <tud_control_status+0x24>)
10004bcc:	4694      	mov	ip, r2
10004bce:	6808      	ldr	r0, [r1, #0]
10004bd0:	6849      	ldr	r1, [r1, #4]
10004bd2:	e8ac 0003 	stmia.w	ip!, {r0, r1}
10004bd6:	2100      	movs	r1, #0
10004bd8:	6091      	str	r1, [r2, #8]
10004bda:	81d1      	strh	r1, [r2, #14]
10004bdc:	8191      	strh	r1, [r2, #12]
10004bde:	4619      	mov	r1, r3
10004be0:	4670      	mov	r0, lr
10004be2:	f7ff ffb3 	bl	10004b4c <_status_stage_xact>
10004be6:	bd08      	pop	{r3, pc}
10004be8:	200010a8 	.word	0x200010a8

10004bec <tud_control_xfer>:
10004bec:	b538      	push	{r3, r4, r5, lr}
10004bee:	4605      	mov	r5, r0
10004bf0:	468c      	mov	ip, r1
10004bf2:	4c26      	ldr	r4, [pc, #152]	@ (10004c8c <tud_control_xfer+0xa0>)
10004bf4:	46a6      	mov	lr, r4
10004bf6:	6808      	ldr	r0, [r1, #0]
10004bf8:	6849      	ldr	r1, [r1, #4]
10004bfa:	e8ae 0003 	stmia.w	lr!, {r0, r1}
10004bfe:	60a2      	str	r2, [r4, #8]
10004c00:	2100      	movs	r1, #0
10004c02:	81e1      	strh	r1, [r4, #14]
10004c04:	f8bc 1006 	ldrh.w	r1, [ip, #6]
10004c08:	428b      	cmp	r3, r1
10004c0a:	bf28      	it	cs
10004c0c:	460b      	movcs	r3, r1
10004c0e:	81a3      	strh	r3, [r4, #12]
10004c10:	f8bc 1006 	ldrh.w	r1, [ip, #6]
10004c14:	b329      	cbz	r1, 10004c62 <tud_control_xfer+0x76>
10004c16:	b103      	cbz	r3, 10004c1a <tud_control_xfer+0x2e>
10004c18:	b132      	cbz	r2, 10004c28 <tud_control_xfer+0x3c>
10004c1a:	4628      	mov	r0, r5
10004c1c:	f7ff ffa4 	bl	10004b68 <_data_stage_xact>
10004c20:	4604      	mov	r4, r0
10004c22:	b180      	cbz	r0, 10004c46 <tud_control_xfer+0x5a>
10004c24:	4620      	mov	r0, r4
10004c26:	bd38      	pop	{r3, r4, r5, pc}
10004c28:	2277      	movs	r2, #119	@ 0x77
10004c2a:	4919      	ldr	r1, [pc, #100]	@ (10004c90 <tud_control_xfer+0xa4>)
10004c2c:	4819      	ldr	r0, [pc, #100]	@ (10004c94 <tud_control_xfer+0xa8>)
10004c2e:	f7fe fd77 	bl	10003720 <__wrap_printf>
10004c32:	f04f 23e0 	mov.w	r3, #3758153728	@ 0xe000e000
10004c36:	f8d3 3df0 	ldr.w	r3, [r3, #3568]	@ 0xdf0
10004c3a:	f013 0f01 	tst.w	r3, #1
10004c3e:	d000      	beq.n	10004c42 <tud_control_xfer+0x56>
10004c40:	be00      	bkpt	0x0000
10004c42:	2400      	movs	r4, #0
10004c44:	e7ee      	b.n	10004c24 <tud_control_xfer+0x38>
10004c46:	227d      	movs	r2, #125	@ 0x7d
10004c48:	4911      	ldr	r1, [pc, #68]	@ (10004c90 <tud_control_xfer+0xa4>)
10004c4a:	4812      	ldr	r0, [pc, #72]	@ (10004c94 <tud_control_xfer+0xa8>)
10004c4c:	f7fe fd68 	bl	10003720 <__wrap_printf>
10004c50:	f04f 23e0 	mov.w	r3, #3758153728	@ 0xe000e000
10004c54:	f8d3 3df0 	ldr.w	r3, [r3, #3568]	@ 0xdf0
10004c58:	f013 0f01 	tst.w	r3, #1
10004c5c:	d0e2      	beq.n	10004c24 <tud_control_xfer+0x38>
10004c5e:	be00      	bkpt	0x0000
10004c60:	e7e0      	b.n	10004c24 <tud_control_xfer+0x38>
10004c62:	4661      	mov	r1, ip
10004c64:	4628      	mov	r0, r5
10004c66:	f7ff ff71 	bl	10004b4c <_status_stage_xact>
10004c6a:	4604      	mov	r4, r0
10004c6c:	2800      	cmp	r0, #0
10004c6e:	d1d9      	bne.n	10004c24 <tud_control_xfer+0x38>
10004c70:	2280      	movs	r2, #128	@ 0x80
10004c72:	4907      	ldr	r1, [pc, #28]	@ (10004c90 <tud_control_xfer+0xa4>)
10004c74:	4807      	ldr	r0, [pc, #28]	@ (10004c94 <tud_control_xfer+0xa8>)
10004c76:	f7fe fd53 	bl	10003720 <__wrap_printf>
10004c7a:	f04f 23e0 	mov.w	r3, #3758153728	@ 0xe000e000
10004c7e:	f8d3 3df0 	ldr.w	r3, [r3, #3568]	@ 0xdf0
10004c82:	f013 0f01 	tst.w	r3, #1
10004c86:	d0cd      	beq.n	10004c24 <tud_control_xfer+0x38>
10004c88:	be00      	bkpt	0x0000
10004c8a:	e7cb      	b.n	10004c24 <tud_control_xfer+0x38>
10004c8c:	200010a8 	.word	0x200010a8
10004c90:	10007564 	.word	0x10007564
10004c94:	100064f0 	.word	0x100064f0

10004c98 <usbd_control_reset>:
10004c98:	4b03      	ldr	r3, [pc, #12]	@ (10004ca8 <usbd_control_reset+0x10>)
10004c9a:	2200      	movs	r2, #0
10004c9c:	601a      	str	r2, [r3, #0]
10004c9e:	605a      	str	r2, [r3, #4]
10004ca0:	609a      	str	r2, [r3, #8]
10004ca2:	60da      	str	r2, [r3, #12]
10004ca4:	611a      	str	r2, [r3, #16]
10004ca6:	4770      	bx	lr
10004ca8:	200010a8 	.word	0x200010a8

10004cac <usbd_control_set_complete_callback>:
10004cac:	4b01      	ldr	r3, [pc, #4]	@ (10004cb4 <usbd_control_set_complete_callback+0x8>)
10004cae:	6118      	str	r0, [r3, #16]
10004cb0:	4770      	bx	lr
10004cb2:	bf00      	nop
10004cb4:	200010a8 	.word	0x200010a8

10004cb8 <usbd_control_set_request>:
10004cb8:	4601      	mov	r1, r0
10004cba:	4b05      	ldr	r3, [pc, #20]	@ (10004cd0 <usbd_control_set_request+0x18>)
10004cbc:	461a      	mov	r2, r3
10004cbe:	6800      	ldr	r0, [r0, #0]
10004cc0:	6849      	ldr	r1, [r1, #4]
10004cc2:	c203      	stmia	r2!, {r0, r1}
10004cc4:	2200      	movs	r2, #0
10004cc6:	609a      	str	r2, [r3, #8]
10004cc8:	81da      	strh	r2, [r3, #14]
10004cca:	819a      	strh	r2, [r3, #12]
10004ccc:	4770      	bx	lr
10004cce:	bf00      	nop
10004cd0:	200010a8 	.word	0x200010a8

10004cd4 <usbd_control_xfer_cb>:
10004cd4:	b538      	push	{r3, r4, r5, lr}
10004cd6:	4605      	mov	r5, r0
10004cd8:	461c      	mov	r4, r3
10004cda:	4b3d      	ldr	r3, [pc, #244]	@ (10004dd0 <usbd_control_xfer_cb+0xfc>)
10004cdc:	781b      	ldrb	r3, [r3, #0]
10004cde:	09db      	lsrs	r3, r3, #7
10004ce0:	ebb3 1fd1 	cmp.w	r3, r1, lsr #7
10004ce4:	d01c      	beq.n	10004d20 <usbd_control_xfer_cb+0x4c>
10004ce6:	b17c      	cbz	r4, 10004d08 <usbd_control_xfer_cb+0x34>
10004ce8:	22a7      	movs	r2, #167	@ 0xa7
10004cea:	493a      	ldr	r1, [pc, #232]	@ (10004dd4 <usbd_control_xfer_cb+0x100>)
10004cec:	483a      	ldr	r0, [pc, #232]	@ (10004dd8 <usbd_control_xfer_cb+0x104>)
10004cee:	f7fe fd17 	bl	10003720 <__wrap_printf>
10004cf2:	f04f 23e0 	mov.w	r3, #3758153728	@ 0xe000e000
10004cf6:	f8d3 3df0 	ldr.w	r3, [r3, #3568]	@ 0xdf0
10004cfa:	f013 0f01 	tst.w	r3, #1
10004cfe:	d000      	beq.n	10004d02 <usbd_control_xfer_cb+0x2e>
10004d00:	be00      	bkpt	0x0000
10004d02:	2400      	movs	r4, #0
10004d04:	4620      	mov	r0, r4
10004d06:	bd38      	pop	{r3, r4, r5, pc}
10004d08:	4c31      	ldr	r4, [pc, #196]	@ (10004dd0 <usbd_control_xfer_cb+0xfc>)
10004d0a:	4621      	mov	r1, r4
10004d0c:	f7fe ffe2 	bl	10003cd4 <dcd_edpt0_status_complete>
10004d10:	6923      	ldr	r3, [r4, #16]
10004d12:	b11b      	cbz	r3, 10004d1c <usbd_control_xfer_cb+0x48>
10004d14:	4622      	mov	r2, r4
10004d16:	2103      	movs	r1, #3
10004d18:	4628      	mov	r0, r5
10004d1a:	4798      	blx	r3
10004d1c:	2401      	movs	r4, #1
10004d1e:	e7f1      	b.n	10004d04 <usbd_control_xfer_cb+0x30>
10004d20:	4b2b      	ldr	r3, [pc, #172]	@ (10004dd0 <usbd_control_xfer_cb+0xfc>)
10004d22:	f993 3000 	ldrsb.w	r3, [r3]
10004d26:	2b00      	cmp	r3, #0
10004d28:	db07      	blt.n	10004d3a <usbd_control_xfer_cb+0x66>
10004d2a:	4b29      	ldr	r3, [pc, #164]	@ (10004dd0 <usbd_control_xfer_cb+0xfc>)
10004d2c:	6898      	ldr	r0, [r3, #8]
10004d2e:	2800      	cmp	r0, #0
10004d30:	d04c      	beq.n	10004dcc <usbd_control_xfer_cb+0xf8>
10004d32:	4622      	mov	r2, r4
10004d34:	4929      	ldr	r1, [pc, #164]	@ (10004ddc <usbd_control_xfer_cb+0x108>)
10004d36:	f001 fae5 	bl	10006304 <memcpy>
10004d3a:	4a25      	ldr	r2, [pc, #148]	@ (10004dd0 <usbd_control_xfer_cb+0xfc>)
10004d3c:	89d3      	ldrh	r3, [r2, #14]
10004d3e:	fa13 f384 	uxtah	r3, r3, r4
10004d42:	b29b      	uxth	r3, r3
10004d44:	81d3      	strh	r3, [r2, #14]
10004d46:	6891      	ldr	r1, [r2, #8]
10004d48:	4421      	add	r1, r4
10004d4a:	6091      	str	r1, [r2, #8]
10004d4c:	88d2      	ldrh	r2, [r2, #6]
10004d4e:	4293      	cmp	r3, r2
10004d50:	d001      	beq.n	10004d56 <usbd_control_xfer_cb+0x82>
10004d52:	2c3f      	cmp	r4, #63	@ 0x3f
10004d54:	d826      	bhi.n	10004da4 <usbd_control_xfer_cb+0xd0>
10004d56:	4b1e      	ldr	r3, [pc, #120]	@ (10004dd0 <usbd_control_xfer_cb+0xfc>)
10004d58:	691b      	ldr	r3, [r3, #16]
10004d5a:	b123      	cbz	r3, 10004d66 <usbd_control_xfer_cb+0x92>
10004d5c:	4a1c      	ldr	r2, [pc, #112]	@ (10004dd0 <usbd_control_xfer_cb+0xfc>)
10004d5e:	2102      	movs	r1, #2
10004d60:	4628      	mov	r0, r5
10004d62:	4798      	blx	r3
10004d64:	b1a0      	cbz	r0, 10004d90 <usbd_control_xfer_cb+0xbc>
10004d66:	491a      	ldr	r1, [pc, #104]	@ (10004dd0 <usbd_control_xfer_cb+0xfc>)
10004d68:	4628      	mov	r0, r5
10004d6a:	f7ff feef 	bl	10004b4c <_status_stage_xact>
10004d6e:	4604      	mov	r4, r0
10004d70:	2800      	cmp	r0, #0
10004d72:	d1c7      	bne.n	10004d04 <usbd_control_xfer_cb+0x30>
10004d74:	22d0      	movs	r2, #208	@ 0xd0
10004d76:	4917      	ldr	r1, [pc, #92]	@ (10004dd4 <usbd_control_xfer_cb+0x100>)
10004d78:	4817      	ldr	r0, [pc, #92]	@ (10004dd8 <usbd_control_xfer_cb+0x104>)
10004d7a:	f7fe fcd1 	bl	10003720 <__wrap_printf>
10004d7e:	f04f 23e0 	mov.w	r3, #3758153728	@ 0xe000e000
10004d82:	f8d3 3df0 	ldr.w	r3, [r3, #3568]	@ 0xdf0
10004d86:	f013 0f01 	tst.w	r3, #1
10004d8a:	d0bb      	beq.n	10004d04 <usbd_control_xfer_cb+0x30>
10004d8c:	be00      	bkpt	0x0000
10004d8e:	e7b9      	b.n	10004d04 <usbd_control_xfer_cb+0x30>
10004d90:	2100      	movs	r1, #0
10004d92:	4628      	mov	r0, r5
10004d94:	f7fe ffe4 	bl	10003d60 <dcd_edpt_stall>
10004d98:	2180      	movs	r1, #128	@ 0x80
10004d9a:	4628      	mov	r0, r5
10004d9c:	f7fe ffe0 	bl	10003d60 <dcd_edpt_stall>
10004da0:	2401      	movs	r4, #1
10004da2:	e7af      	b.n	10004d04 <usbd_control_xfer_cb+0x30>
10004da4:	4628      	mov	r0, r5
10004da6:	f7ff fedf 	bl	10004b68 <_data_stage_xact>
10004daa:	4604      	mov	r4, r0
10004dac:	2800      	cmp	r0, #0
10004dae:	d1a9      	bne.n	10004d04 <usbd_control_xfer_cb+0x30>
10004db0:	22d8      	movs	r2, #216	@ 0xd8
10004db2:	4908      	ldr	r1, [pc, #32]	@ (10004dd4 <usbd_control_xfer_cb+0x100>)
10004db4:	4808      	ldr	r0, [pc, #32]	@ (10004dd8 <usbd_control_xfer_cb+0x104>)
10004db6:	f7fe fcb3 	bl	10003720 <__wrap_printf>
10004dba:	f04f 23e0 	mov.w	r3, #3758153728	@ 0xe000e000
10004dbe:	f8d3 3df0 	ldr.w	r3, [r3, #3568]	@ 0xdf0
10004dc2:	f013 0f01 	tst.w	r3, #1
10004dc6:	d09d      	beq.n	10004d04 <usbd_control_xfer_cb+0x30>
10004dc8:	be00      	bkpt	0x0000
10004dca:	e79b      	b.n	10004d04 <usbd_control_xfer_cb+0x30>
10004dcc:	2400      	movs	r4, #0
10004dce:	e799      	b.n	10004d04 <usbd_control_xfer_cb+0x30>
10004dd0:	200010a8 	.word	0x200010a8
10004dd4:	1000754c 	.word	0x1000754c
10004dd8:	100064f0 	.word	0x100064f0
10004ddc:	20001128 	.word	0x20001128

10004de0 <audiod_get_AS_interface_index>:
10004de0:	b510      	push	{r4, lr}
10004de2:	684c      	ldr	r4, [r1, #4]
10004de4:	b334      	cbz	r4, 10004e34 <audiod_get_AS_interface_index+0x54>
10004de6:	f8b1 c014 	ldrh.w	ip, [r1, #20]
10004dea:	f1ac 0c08 	sub.w	ip, ip, #8
10004dee:	44a4      	add	ip, r4
10004df0:	7821      	ldrb	r1, [r4, #0]
10004df2:	4421      	add	r1, r4
10004df4:	88cc      	ldrh	r4, [r1, #6]
10004df6:	4421      	add	r1, r4
10004df8:	f04f 0e00 	mov.w	lr, #0
10004dfc:	e006      	b.n	10004e0c <audiod_get_AS_interface_index+0x2c>
10004dfe:	f882 e000 	strb.w	lr, [r2]
10004e02:	6019      	str	r1, [r3, #0]
10004e04:	2001      	movs	r0, #1
10004e06:	e014      	b.n	10004e32 <audiod_get_AS_interface_index+0x52>
10004e08:	780c      	ldrb	r4, [r1, #0]
10004e0a:	4421      	add	r1, r4
10004e0c:	ebac 0401 	sub.w	r4, ip, r1
10004e10:	2c00      	cmp	r4, #0
10004e12:	dd0d      	ble.n	10004e30 <audiod_get_AS_interface_index+0x50>
10004e14:	784c      	ldrb	r4, [r1, #1]
10004e16:	2c04      	cmp	r4, #4
10004e18:	d1f6      	bne.n	10004e08 <audiod_get_AS_interface_index+0x28>
10004e1a:	78cc      	ldrb	r4, [r1, #3]
10004e1c:	2c00      	cmp	r4, #0
10004e1e:	d1f3      	bne.n	10004e08 <audiod_get_AS_interface_index+0x28>
10004e20:	788c      	ldrb	r4, [r1, #2]
10004e22:	4284      	cmp	r4, r0
10004e24:	d0eb      	beq.n	10004dfe <audiod_get_AS_interface_index+0x1e>
10004e26:	f10e 0e01 	add.w	lr, lr, #1
10004e2a:	fa5f fe8e 	uxtb.w	lr, lr
10004e2e:	e7eb      	b.n	10004e08 <audiod_get_AS_interface_index+0x28>
10004e30:	2000      	movs	r0, #0
10004e32:	bd10      	pop	{r4, pc}
10004e34:	2000      	movs	r0, #0
10004e36:	e7fc      	b.n	10004e32 <audiod_get_AS_interface_index+0x52>

10004e38 <audiod_get_AS_interface_index_global>:
10004e38:	e92d 41f0 	stmdb	sp!, {r4, r5, r6, r7, r8, lr}
10004e3c:	4606      	mov	r6, r0
10004e3e:	460f      	mov	r7, r1
10004e40:	4690      	mov	r8, r2
10004e42:	461d      	mov	r5, r3
10004e44:	2400      	movs	r4, #0
10004e46:	b124      	cbz	r4, 10004e52 <audiod_get_AS_interface_index_global+0x1a>
10004e48:	f04f 0c00 	mov.w	ip, #0
10004e4c:	4660      	mov	r0, ip
10004e4e:	e8bd 81f0 	ldmia.w	sp!, {r4, r5, r6, r7, r8, pc}
10004e52:	462b      	mov	r3, r5
10004e54:	4642      	mov	r2, r8
10004e56:	206c      	movs	r0, #108	@ 0x6c
10004e58:	4906      	ldr	r1, [pc, #24]	@ (10004e74 <audiod_get_AS_interface_index_global+0x3c>)
10004e5a:	fb00 1104 	mla	r1, r0, r4, r1
10004e5e:	4630      	mov	r0, r6
10004e60:	f7ff ffbe 	bl	10004de0 <audiod_get_AS_interface_index>
10004e64:	4684      	mov	ip, r0
10004e66:	b910      	cbnz	r0, 10004e6e <audiod_get_AS_interface_index_global+0x36>
10004e68:	3401      	adds	r4, #1
10004e6a:	b2e4      	uxtb	r4, r4
10004e6c:	e7eb      	b.n	10004e46 <audiod_get_AS_interface_index_global+0xe>
10004e6e:	703c      	strb	r4, [r7, #0]
10004e70:	e7ec      	b.n	10004e4c <audiod_get_AS_interface_index_global+0x14>
10004e72:	bf00      	nop
10004e74:	2000103c 	.word	0x2000103c

10004e78 <audiod_verify_entity_exists>:
10004e78:	2300      	movs	r3, #0
10004e7a:	b1c3      	cbz	r3, 10004eae <audiod_verify_entity_exists+0x36>
10004e7c:	2000      	movs	r0, #0
10004e7e:	4770      	bx	lr
10004e80:	7825      	ldrb	r5, [r4, #0]
10004e82:	eb04 0c05 	add.w	ip, r4, r5
10004e86:	f8bc e006 	ldrh.w	lr, [ip, #6]
10004e8a:	44e6      	add	lr, ip
10004e8c:	5d64      	ldrb	r4, [r4, r5]
10004e8e:	44a4      	add	ip, r4
10004e90:	ebae 040c 	sub.w	r4, lr, ip
10004e94:	2c00      	cmp	r4, #0
10004e96:	dd17      	ble.n	10004ec8 <audiod_verify_entity_exists+0x50>
10004e98:	f89c 4003 	ldrb.w	r4, [ip, #3]
10004e9c:	428c      	cmp	r4, r1
10004e9e:	d003      	beq.n	10004ea8 <audiod_verify_entity_exists+0x30>
10004ea0:	f89c 4000 	ldrb.w	r4, [ip]
10004ea4:	44a4      	add	ip, r4
10004ea6:	e7f3      	b.n	10004e90 <audiod_verify_entity_exists+0x18>
10004ea8:	7013      	strb	r3, [r2, #0]
10004eaa:	2001      	movs	r0, #1
10004eac:	e011      	b.n	10004ed2 <audiod_verify_entity_exists+0x5a>
10004eae:	b530      	push	{r4, r5, lr}
10004eb0:	4c08      	ldr	r4, [pc, #32]	@ (10004ed4 <audiod_verify_entity_exists+0x5c>)
10004eb2:	f04f 0c6c 	mov.w	ip, #108	@ 0x6c
10004eb6:	fb0c 4c03 	mla	ip, ip, r3, r4
10004eba:	f8dc 4004 	ldr.w	r4, [ip, #4]
10004ebe:	b11c      	cbz	r4, 10004ec8 <audiod_verify_entity_exists+0x50>
10004ec0:	f894 c002 	ldrb.w	ip, [r4, #2]
10004ec4:	4584      	cmp	ip, r0
10004ec6:	d0db      	beq.n	10004e80 <audiod_verify_entity_exists+0x8>
10004ec8:	3301      	adds	r3, #1
10004eca:	b2db      	uxtb	r3, r3
10004ecc:	2b00      	cmp	r3, #0
10004ece:	d0ef      	beq.n	10004eb0 <audiod_verify_entity_exists+0x38>
10004ed0:	2000      	movs	r0, #0
10004ed2:	bd30      	pop	{r4, r5, pc}
10004ed4:	2000103c 	.word	0x2000103c

10004ed8 <audiod_verify_itf_exists>:
10004ed8:	b430      	push	{r4, r5}
10004eda:	2400      	movs	r4, #0
10004edc:	b114      	cbz	r4, 10004ee4 <audiod_verify_itf_exists+0xc>
10004ede:	2000      	movs	r0, #0
10004ee0:	bc30      	pop	{r4, r5}
10004ee2:	4770      	bx	lr
10004ee4:	4b10      	ldr	r3, [pc, #64]	@ (10004f28 <audiod_verify_itf_exists+0x50>)
10004ee6:	226c      	movs	r2, #108	@ 0x6c
10004ee8:	fb02 3304 	mla	r3, r2, r4, r3
10004eec:	685d      	ldr	r5, [r3, #4]
10004eee:	b915      	cbnz	r5, 10004ef6 <audiod_verify_itf_exists+0x1e>
10004ef0:	3401      	adds	r4, #1
10004ef2:	b2e4      	uxtb	r4, r4
10004ef4:	e7f2      	b.n	10004edc <audiod_verify_itf_exists+0x4>
10004ef6:	4b0c      	ldr	r3, [pc, #48]	@ (10004f28 <audiod_verify_itf_exists+0x50>)
10004ef8:	fb02 3304 	mla	r3, r2, r4, r3
10004efc:	f8b3 c014 	ldrh.w	ip, [r3, #20]
10004f00:	f1ac 0c08 	sub.w	ip, ip, #8
10004f04:	44ac      	add	ip, r5
10004f06:	462b      	mov	r3, r5
10004f08:	e001      	b.n	10004f0e <audiod_verify_itf_exists+0x36>
10004f0a:	781a      	ldrb	r2, [r3, #0]
10004f0c:	4413      	add	r3, r2
10004f0e:	ebac 0203 	sub.w	r2, ip, r3
10004f12:	2a00      	cmp	r2, #0
10004f14:	ddec      	ble.n	10004ef0 <audiod_verify_itf_exists+0x18>
10004f16:	785a      	ldrb	r2, [r3, #1]
10004f18:	2a04      	cmp	r2, #4
10004f1a:	d1f6      	bne.n	10004f0a <audiod_verify_itf_exists+0x32>
10004f1c:	78aa      	ldrb	r2, [r5, #2]
10004f1e:	4282      	cmp	r2, r0
10004f20:	d1f3      	bne.n	10004f0a <audiod_verify_itf_exists+0x32>
10004f22:	700c      	strb	r4, [r1, #0]
10004f24:	2001      	movs	r0, #1
10004f26:	e7db      	b.n	10004ee0 <audiod_verify_itf_exists+0x8>
10004f28:	2000103c 	.word	0x2000103c

10004f2c <audiod_verify_ep_exists>:
10004f2c:	b410      	push	{r4}
10004f2e:	2400      	movs	r4, #0
10004f30:	b11c      	cbz	r4, 10004f3a <audiod_verify_ep_exists+0xe>
10004f32:	2000      	movs	r0, #0
10004f34:	f85d 4b04 	ldr.w	r4, [sp], #4
10004f38:	4770      	bx	lr
10004f3a:	4b12      	ldr	r3, [pc, #72]	@ (10004f84 <audiod_verify_ep_exists+0x58>)
10004f3c:	226c      	movs	r2, #108	@ 0x6c
10004f3e:	fb02 3304 	mla	r3, r2, r4, r3
10004f42:	685b      	ldr	r3, [r3, #4]
10004f44:	b913      	cbnz	r3, 10004f4c <audiod_verify_ep_exists+0x20>
10004f46:	3401      	adds	r4, #1
10004f48:	b2e4      	uxtb	r4, r4
10004f4a:	e7f1      	b.n	10004f30 <audiod_verify_ep_exists+0x4>
10004f4c:	4a0d      	ldr	r2, [pc, #52]	@ (10004f84 <audiod_verify_ep_exists+0x58>)
10004f4e:	f04f 0c6c 	mov.w	ip, #108	@ 0x6c
10004f52:	fb0c 2204 	mla	r2, ip, r4, r2
10004f56:	f8b2 c014 	ldrh.w	ip, [r2, #20]
10004f5a:	449c      	add	ip, r3
10004f5c:	781a      	ldrb	r2, [r3, #0]
10004f5e:	4413      	add	r3, r2
10004f60:	88da      	ldrh	r2, [r3, #6]
10004f62:	4413      	add	r3, r2
10004f64:	e001      	b.n	10004f6a <audiod_verify_ep_exists+0x3e>
10004f66:	781a      	ldrb	r2, [r3, #0]
10004f68:	4413      	add	r3, r2
10004f6a:	ebac 0203 	sub.w	r2, ip, r3
10004f6e:	2a00      	cmp	r2, #0
10004f70:	dde9      	ble.n	10004f46 <audiod_verify_ep_exists+0x1a>
10004f72:	785a      	ldrb	r2, [r3, #1]
10004f74:	2a05      	cmp	r2, #5
10004f76:	d1f6      	bne.n	10004f66 <audiod_verify_ep_exists+0x3a>
10004f78:	789a      	ldrb	r2, [r3, #2]
10004f7a:	4282      	cmp	r2, r0
10004f7c:	d1f3      	bne.n	10004f66 <audiod_verify_ep_exists+0x3a>
10004f7e:	700c      	strb	r4, [r1, #0]
10004f80:	2001      	movs	r0, #1
10004f82:	e7d7      	b.n	10004f34 <audiod_verify_ep_exists+0x8>
10004f84:	2000103c 	.word	0x2000103c

10004f88 <audiod_parse_for_AS_params>:
10004f88:	b500      	push	{lr}
10004f8a:	f890 e00c 	ldrb.w	lr, [r0, #12]
10004f8e:	459e      	cmp	lr, r3
10004f90:	d003      	beq.n	10004f9a <audiod_parse_for_AS_params+0x12>
10004f92:	f890 c010 	ldrb.w	ip, [r0, #16]
10004f96:	459c      	cmp	ip, r3
10004f98:	d13f      	bne.n	1000501a <audiod_parse_for_AS_params+0x92>
10004f9a:	f891 c000 	ldrb.w	ip, [r1]
10004f9e:	4461      	add	r1, ip
10004fa0:	e007      	b.n	10004fb2 <audiod_parse_for_AS_params+0x2a>
10004fa2:	f891 c001 	ldrb.w	ip, [r1, #1]
10004fa6:	f1bc 0f24 	cmp.w	ip, #36	@ 0x24
10004faa:	d01f      	beq.n	10004fec <audiod_parse_for_AS_params+0x64>
10004fac:	f891 c000 	ldrb.w	ip, [r1]
10004fb0:	4461      	add	r1, ip
10004fb2:	eba2 0c01 	sub.w	ip, r2, r1
10004fb6:	f1bc 0f00 	cmp.w	ip, #0
10004fba:	dd2e      	ble.n	1000501a <audiod_parse_for_AS_params+0x92>
10004fbc:	f891 c001 	ldrb.w	ip, [r1, #1]
10004fc0:	f1bc 0f04 	cmp.w	ip, #4
10004fc4:	d029      	beq.n	1000501a <audiod_parse_for_AS_params+0x92>
10004fc6:	f1bc 0f24 	cmp.w	ip, #36	@ 0x24
10004fca:	d1ea      	bne.n	10004fa2 <audiod_parse_for_AS_params+0x1a>
10004fcc:	f891 c002 	ldrb.w	ip, [r1, #2]
10004fd0:	f1bc 0f01 	cmp.w	ip, #1
10004fd4:	d1e5      	bne.n	10004fa2 <audiod_parse_for_AS_params+0x1a>
10004fd6:	459e      	cmp	lr, r3
10004fd8:	d1e3      	bne.n	10004fa2 <audiod_parse_for_AS_params+0x1a>
10004fda:	f891 c00a 	ldrb.w	ip, [r1, #10]
10004fde:	f880 c025 	strb.w	ip, [r0, #37]	@ 0x25
10004fe2:	f891 c005 	ldrb.w	ip, [r1, #5]
10004fe6:	f880 c024 	strb.w	ip, [r0, #36]	@ 0x24
10004fea:	e7da      	b.n	10004fa2 <audiod_parse_for_AS_params+0x1a>
10004fec:	f891 c002 	ldrb.w	ip, [r1, #2]
10004ff0:	f1bc 0f02 	cmp.w	ip, #2
10004ff4:	d1da      	bne.n	10004fac <audiod_parse_for_AS_params+0x24>
10004ff6:	f891 c003 	ldrb.w	ip, [r1, #3]
10004ffa:	f1bc 0f01 	cmp.w	ip, #1
10004ffe:	d1d5      	bne.n	10004fac <audiod_parse_for_AS_params+0x24>
10005000:	459e      	cmp	lr, r3
10005002:	d003      	beq.n	1000500c <audiod_parse_for_AS_params+0x84>
10005004:	f890 c010 	ldrb.w	ip, [r0, #16]
10005008:	459c      	cmp	ip, r3
1000500a:	d106      	bne.n	1000501a <audiod_parse_for_AS_params+0x92>
1000500c:	459e      	cmp	lr, r3
1000500e:	d1cd      	bne.n	10004fac <audiod_parse_for_AS_params+0x24>
10005010:	f891 c004 	ldrb.w	ip, [r1, #4]
10005014:	f880 c026 	strb.w	ip, [r0, #38]	@ 0x26
10005018:	e7c8      	b.n	10004fac <audiod_parse_for_AS_params+0x24>
1000501a:	f85d fb04 	ldr.w	pc, [sp], #4
	...

10005020 <audiod_tx_packet_size>:
10005020:	4684      	mov	ip, r0
10005022:	4618      	mov	r0, r3
10005024:	f8bc 3002 	ldrh.w	r3, [ip, #2]
10005028:	2b00      	cmp	r3, #0
1000502a:	d037      	beq.n	1000509c <audiod_tx_packet_size+0x7c>
1000502c:	ebb3 0f82 	cmp.w	r3, r2, lsl #2
10005030:	dc34      	bgt.n	1000509c <audiod_tx_packet_size+0x7c>
10005032:	b530      	push	{r4, r5, lr}
10005034:	f8bc 4004 	ldrh.w	r4, [ip, #4]
10005038:	eba4 0e03 	sub.w	lr, r4, r3
1000503c:	fa1f fe8e 	uxth.w	lr, lr
10005040:	f8bc c000 	ldrh.w	ip, [ip]
10005044:	458c      	cmp	ip, r1
10005046:	d824      	bhi.n	10005092 <audiod_tx_packet_size+0x72>
10005048:	0855      	lsrs	r5, r2, #1
1000504a:	ebce 0252 	rsb	r2, lr, r2, lsr #1
1000504e:	4291      	cmp	r1, r2
10005050:	da07      	bge.n	10005062 <audiod_tx_packet_size+0x42>
10005052:	4a14      	ldr	r2, [pc, #80]	@ (100050a4 <audiod_tx_packet_size+0x84>)
10005054:	6812      	ldr	r2, [r2, #0]
10005056:	b922      	cbnz	r2, 10005062 <audiod_tx_packet_size+0x42>
10005058:	4b12      	ldr	r3, [pc, #72]	@ (100050a4 <audiod_tx_packet_size+0x84>)
1000505a:	220a      	movs	r2, #10
1000505c:	601a      	str	r2, [r3, #0]
1000505e:	4663      	mov	r3, ip
10005060:	e018      	b.n	10005094 <audiod_tx_packet_size+0x74>
10005062:	4475      	add	r5, lr
10005064:	42a9      	cmp	r1, r5
10005066:	dd0d      	ble.n	10005084 <audiod_tx_packet_size+0x64>
10005068:	4a0e      	ldr	r2, [pc, #56]	@ (100050a4 <audiod_tx_packet_size+0x84>)
1000506a:	6812      	ldr	r2, [r2, #0]
1000506c:	b952      	cbnz	r2, 10005084 <audiod_tx_packet_size+0x64>
1000506e:	4563      	cmp	r3, ip
10005070:	d004      	beq.n	1000507c <audiod_tx_packet_size+0x5c>
10005072:	4b0c      	ldr	r3, [pc, #48]	@ (100050a4 <audiod_tx_packet_size+0x84>)
10005074:	220a      	movs	r2, #10
10005076:	601a      	str	r2, [r3, #0]
10005078:	4623      	mov	r3, r4
1000507a:	e00b      	b.n	10005094 <audiod_tx_packet_size+0x74>
1000507c:	4b09      	ldr	r3, [pc, #36]	@ (100050a4 <audiod_tx_packet_size+0x84>)
1000507e:	601a      	str	r2, [r3, #0]
10005080:	4623      	mov	r3, r4
10005082:	e007      	b.n	10005094 <audiod_tx_packet_size+0x74>
10005084:	4a07      	ldr	r2, [pc, #28]	@ (100050a4 <audiod_tx_packet_size+0x84>)
10005086:	6812      	ldr	r2, [r2, #0]
10005088:	b122      	cbz	r2, 10005094 <audiod_tx_packet_size+0x74>
1000508a:	3a01      	subs	r2, #1
1000508c:	4905      	ldr	r1, [pc, #20]	@ (100050a4 <audiod_tx_packet_size+0x84>)
1000508e:	600a      	str	r2, [r1, #0]
10005090:	e000      	b.n	10005094 <audiod_tx_packet_size+0x74>
10005092:	2300      	movs	r3, #0
10005094:	4298      	cmp	r0, r3
10005096:	bf28      	it	cs
10005098:	4618      	movcs	r0, r3
1000509a:	bd30      	pop	{r4, r5, pc}
1000509c:	4288      	cmp	r0, r1
1000509e:	bf28      	it	cs
100050a0:	4608      	movcs	r0, r1
100050a2:	4770      	bx	lr
100050a4:	2000175c 	.word	0x2000175c

100050a8 <audiod_get_audio_fct_idx>:
100050a8:	2300      	movs	r3, #0
100050aa:	b10b      	cbz	r3, 100050b0 <audiod_get_audio_fct_idx+0x8>
100050ac:	2000      	movs	r0, #0
100050ae:	4770      	bx	lr
100050b0:	216c      	movs	r1, #108	@ 0x6c
100050b2:	4a04      	ldr	r2, [pc, #16]	@ (100050c4 <audiod_get_audio_fct_idx+0x1c>)
100050b4:	fb01 2203 	mla	r2, r1, r3, r2
100050b8:	4282      	cmp	r2, r0
100050ba:	d0f7      	beq.n	100050ac <audiod_get_audio_fct_idx+0x4>
100050bc:	3301      	adds	r3, #1
100050be:	b2db      	uxtb	r3, r3
100050c0:	e7f3      	b.n	100050aa <audiod_get_audio_fct_idx+0x2>
100050c2:	bf00      	nop
100050c4:	2000103c 	.word	0x2000103c

100050c8 <audiod_get_interface>:
100050c8:	b530      	push	{r4, r5, lr}
100050ca:	b083      	sub	sp, #12
100050cc:	4605      	mov	r5, r0
100050ce:	460c      	mov	r4, r1
100050d0:	8888      	ldrh	r0, [r1, #4]
100050d2:	466b      	mov	r3, sp
100050d4:	f10d 0206 	add.w	r2, sp, #6
100050d8:	f10d 0107 	add.w	r1, sp, #7
100050dc:	b2c0      	uxtb	r0, r0
100050de:	f7ff feab 	bl	10004e38 <audiod_get_AS_interface_index_global>
100050e2:	4603      	mov	r3, r0
100050e4:	b910      	cbnz	r0, 100050ec <audiod_get_interface+0x24>
100050e6:	4618      	mov	r0, r3
100050e8:	b003      	add	sp, #12
100050ea:	bd30      	pop	{r4, r5, pc}
100050ec:	f89d 2007 	ldrb.w	r2, [sp, #7]
100050f0:	4b07      	ldr	r3, [pc, #28]	@ (10005110 <audiod_get_interface+0x48>)
100050f2:	216c      	movs	r1, #108	@ 0x6c
100050f4:	fb01 3302 	mla	r3, r1, r2, r3
100050f8:	6b19      	ldr	r1, [r3, #48]	@ 0x30
100050fa:	f89d 2006 	ldrb.w	r2, [sp, #6]
100050fe:	2301      	movs	r3, #1
10005100:	440a      	add	r2, r1
10005102:	4621      	mov	r1, r4
10005104:	4628      	mov	r0, r5
10005106:	f7ff fd71 	bl	10004bec <tud_control_xfer>
1000510a:	4603      	mov	r3, r0
1000510c:	e7eb      	b.n	100050e6 <audiod_get_interface+0x1e>
1000510e:	bf00      	nop
10005110:	2000103c 	.word	0x2000103c

10005114 <audiod_calc_tx_packet_sz>:
10005114:	f890 3024 	ldrb.w	r3, [r0, #36]	@ 0x24
10005118:	2b01      	cmp	r3, #1
1000511a:	d174      	bne.n	10005206 <audiod_calc_tx_packet_sz+0xf2>
1000511c:	b570      	push	{r4, r5, r6, lr}
1000511e:	4604      	mov	r4, r0
10005120:	f890 3025 	ldrb.w	r3, [r0, #37]	@ 0x25
10005124:	2b00      	cmp	r3, #0
10005126:	d070      	beq.n	1000520a <audiod_calc_tx_packet_sz+0xf6>
10005128:	f890 3026 	ldrb.w	r3, [r0, #38]	@ 0x26
1000512c:	2b00      	cmp	r3, #0
1000512e:	d06e      	beq.n	1000520e <audiod_calc_tx_packet_sz+0xfa>
10005130:	f890 3023 	ldrb.w	r3, [r0, #35]	@ 0x23
10005134:	2b00      	cmp	r3, #0
10005136:	d06c      	beq.n	10005212 <audiod_calc_tx_packet_sz+0xfe>
10005138:	6983      	ldr	r3, [r0, #24]
1000513a:	b90b      	cbnz	r3, 10005140 <audiod_calc_tx_packet_sz+0x2c>
1000513c:	2000      	movs	r0, #0
1000513e:	e065      	b.n	1000520c <audiod_calc_tx_packet_sz+0xf8>
10005140:	f7ff f85a 	bl	100041f8 <tud_speed_get>
10005144:	2800      	cmp	r0, #0
10005146:	d13c      	bne.n	100051c2 <audiod_calc_tx_packet_sz+0xae>
10005148:	f894 3023 	ldrb.w	r3, [r4, #35]	@ 0x23
1000514c:	69a5      	ldr	r5, [r4, #24]
1000514e:	461e      	mov	r6, r3
10005150:	fb03 f505 	mul.w	r5, r3, r5
10005154:	f7ff f850 	bl	100041f8 <tud_speed_get>
10005158:	2800      	cmp	r0, #0
1000515a:	d139      	bne.n	100051d0 <audiod_calc_tx_packet_sz+0xbc>
1000515c:	f44f 737a 	mov.w	r3, #1000	@ 0x3e8
10005160:	fbb5 f5f3 	udiv	r5, r5, r3
10005164:	b2ad      	uxth	r5, r5
10005166:	69a3      	ldr	r3, [r4, #24]
10005168:	fb03 f606 	mul.w	r6, r3, r6
1000516c:	f7ff f844 	bl	100041f8 <tud_speed_get>
10005170:	bb88      	cbnz	r0, 100051d6 <audiod_calc_tx_packet_sz+0xc2>
10005172:	f44f 737a 	mov.w	r3, #1000	@ 0x3e8
10005176:	fbb6 f2f3 	udiv	r2, r6, r3
1000517a:	fb03 6112 	mls	r1, r3, r2, r6
1000517e:	b289      	uxth	r1, r1
10005180:	f894 c025 	ldrb.w	ip, [r4, #37]	@ 0x25
10005184:	1e6a      	subs	r2, r5, #1
10005186:	fb12 f20c 	smulbb	r2, r2, ip
1000518a:	b292      	uxth	r2, r2
1000518c:	f894 3026 	ldrb.w	r3, [r4, #38]	@ 0x26
10005190:	fb12 f203 	smulbb	r2, r2, r3
10005194:	b290      	uxth	r0, r2
10005196:	fb1c f205 	smulbb	r2, ip, r5
1000519a:	b292      	uxth	r2, r2
1000519c:	fb13 f202 	smulbb	r2, r3, r2
100051a0:	b292      	uxth	r2, r2
100051a2:	3501      	adds	r5, #1
100051a4:	fb15 f50c 	smulbb	r5, r5, ip
100051a8:	b2ad      	uxth	r5, r5
100051aa:	fb13 f305 	smulbb	r3, r3, r5
100051ae:	b29b      	uxth	r3, r3
100051b0:	8965      	ldrh	r5, [r4, #10]
100051b2:	429d      	cmp	r5, r3
100051b4:	d312      	bcc.n	100051dc <audiod_calc_tx_packet_sz+0xc8>
100051b6:	b309      	cbz	r1, 100051fc <audiod_calc_tx_packet_sz+0xe8>
100051b8:	83a2      	strh	r2, [r4, #28]
100051ba:	83e2      	strh	r2, [r4, #30]
100051bc:	8423      	strh	r3, [r4, #32]
100051be:	2001      	movs	r0, #1
100051c0:	e024      	b.n	1000520c <audiod_calc_tx_packet_sz+0xf8>
100051c2:	f894 2023 	ldrb.w	r2, [r4, #35]	@ 0x23
100051c6:	3a01      	subs	r2, #1
100051c8:	2301      	movs	r3, #1
100051ca:	4093      	lsls	r3, r2
100051cc:	b2db      	uxtb	r3, r3
100051ce:	e7bd      	b.n	1000514c <audiod_calc_tx_packet_sz+0x38>
100051d0:	f44f 53fa 	mov.w	r3, #8000	@ 0x1f40
100051d4:	e7c4      	b.n	10005160 <audiod_calc_tx_packet_sz+0x4c>
100051d6:	f44f 53fa 	mov.w	r3, #8000	@ 0x1f40
100051da:	e7cc      	b.n	10005176 <audiod_calc_tx_packet_sz+0x62>
100051dc:	f640 3205 	movw	r2, #2821	@ 0xb05
100051e0:	490d      	ldr	r1, [pc, #52]	@ (10005218 <audiod_calc_tx_packet_sz+0x104>)
100051e2:	480e      	ldr	r0, [pc, #56]	@ (1000521c <audiod_calc_tx_packet_sz+0x108>)
100051e4:	f7fe fa9c 	bl	10003720 <__wrap_printf>
100051e8:	f04f 23e0 	mov.w	r3, #3758153728	@ 0xe000e000
100051ec:	f8d3 3df0 	ldr.w	r3, [r3, #3568]	@ 0xdf0
100051f0:	f013 0f01 	tst.w	r3, #1
100051f4:	d000      	beq.n	100051f8 <audiod_calc_tx_packet_sz+0xe4>
100051f6:	be00      	bkpt	0x0000
100051f8:	2000      	movs	r0, #0
100051fa:	e007      	b.n	1000520c <audiod_calc_tx_packet_sz+0xf8>
100051fc:	83a0      	strh	r0, [r4, #28]
100051fe:	83e2      	strh	r2, [r4, #30]
10005200:	8423      	strh	r3, [r4, #32]
10005202:	2001      	movs	r0, #1
10005204:	e002      	b.n	1000520c <audiod_calc_tx_packet_sz+0xf8>
10005206:	2000      	movs	r0, #0
10005208:	4770      	bx	lr
1000520a:	2000      	movs	r0, #0
1000520c:	bd70      	pop	{r4, r5, r6, pc}
1000520e:	2000      	movs	r0, #0
10005210:	e7fc      	b.n	1000520c <audiod_calc_tx_packet_sz+0xf8>
10005212:	2000      	movs	r0, #0
10005214:	e7fa      	b.n	1000520c <audiod_calc_tx_packet_sz+0xf8>
10005216:	bf00      	nop
10005218:	10007578 	.word	0x10007578
1000521c:	100064f0 	.word	0x100064f0

10005220 <tud_audio_tx_done_post_load_cb>:
10005220:	2001      	movs	r0, #1
10005222:	4770      	bx	lr

10005224 <audiod_tx_done_cb>:
10005224:	e92d 41f0 	stmdb	sp!, {r4, r5, r6, r7, r8, lr}
10005228:	b084      	sub	sp, #16
1000522a:	4606      	mov	r6, r0
1000522c:	460c      	mov	r4, r1
1000522e:	4608      	mov	r0, r1
10005230:	f7ff ff3a 	bl	100050a8 <audiod_get_audio_fct_idx>
10005234:	4605      	mov	r5, r0
10005236:	ab02      	add	r3, sp, #8
10005238:	f10d 020f 	add.w	r2, sp, #15
1000523c:	4621      	mov	r1, r4
1000523e:	7b20      	ldrb	r0, [r4, #12]
10005240:	f7ff fdce 	bl	10004de0 <audiod_get_AS_interface_index>
10005244:	4684      	mov	ip, r0
10005246:	b130      	cbz	r0, 10005256 <audiod_tx_done_cb+0x32>
10005248:	6b22      	ldr	r2, [r4, #48]	@ 0x30
1000524a:	f89d 300f 	ldrb.w	r3, [sp, #15]
1000524e:	5cd3      	ldrb	r3, [r2, r3]
10005250:	b92b      	cbnz	r3, 1000525e <audiod_tx_done_cb+0x3a>
10005252:	f04f 0c00 	mov.w	ip, #0
10005256:	4660      	mov	r0, ip
10005258:	b004      	add	sp, #16
1000525a:	e8bd 81f0 	ldmia.w	sp!, {r4, r5, r6, r7, r8, pc}
1000525e:	7a22      	ldrb	r2, [r4, #8]
10005260:	4629      	mov	r1, r5
10005262:	4630      	mov	r0, r6
10005264:	f7fb fa32 	bl	100006cc <tud_audio_tx_done_pre_load_cb>
10005268:	4684      	mov	ip, r0
1000526a:	2800      	cmp	r0, #0
1000526c:	d0f3      	beq.n	10005256 <audiod_tx_done_cb+0x32>
1000526e:	f104 071c 	add.w	r7, r4, #28
10005272:	f104 0848 	add.w	r8, r4, #72	@ 0x48
10005276:	4640      	mov	r0, r8
10005278:	f000 ff55 	bl	10006126 <tu_fifo_count>
1000527c:	4601      	mov	r1, r0
1000527e:	8963      	ldrh	r3, [r4, #10]
10005280:	f8b4 204c 	ldrh.w	r2, [r4, #76]	@ 0x4c
10005284:	4638      	mov	r0, r7
10005286:	f7ff fecb 	bl	10005020 <audiod_tx_packet_size>
1000528a:	4607      	mov	r7, r0
1000528c:	4602      	mov	r2, r0
1000528e:	6ea1      	ldr	r1, [r4, #104]	@ 0x68
10005290:	4640      	mov	r0, r8
10005292:	f000 ff8f 	bl	100061b4 <tu_fifo_read_n>
10005296:	463b      	mov	r3, r7
10005298:	6ea2      	ldr	r2, [r4, #104]	@ 0x68
1000529a:	7a21      	ldrb	r1, [r4, #8]
1000529c:	4630      	mov	r0, r6
1000529e:	f7ff f883 	bl	100043a8 <usbd_edpt_xfer>
100052a2:	4684      	mov	ip, r0
100052a4:	2800      	cmp	r0, #0
100052a6:	d0d6      	beq.n	10005256 <audiod_tx_done_cb+0x32>
100052a8:	6b22      	ldr	r2, [r4, #48]	@ 0x30
100052aa:	f89d 300f 	ldrb.w	r3, [sp, #15]
100052ae:	5cd3      	ldrb	r3, [r2, r3]
100052b0:	9300      	str	r3, [sp, #0]
100052b2:	7a23      	ldrb	r3, [r4, #8]
100052b4:	462a      	mov	r2, r5
100052b6:	4639      	mov	r1, r7
100052b8:	4630      	mov	r0, r6
100052ba:	f7ff ffb1 	bl	10005220 <tud_audio_tx_done_post_load_cb>
100052be:	4684      	mov	ip, r0
100052c0:	e7c9      	b.n	10005256 <audiod_tx_done_cb+0x32>

100052c2 <tud_audio_rx_done_post_read_cb>:
100052c2:	2001      	movs	r0, #1
100052c4:	4770      	bx	lr

100052c6 <audiod_rx_done_cb>:
100052c6:	b5f0      	push	{r4, r5, r6, r7, lr}
100052c8:	b085      	sub	sp, #20
100052ca:	4606      	mov	r6, r0
100052cc:	460c      	mov	r4, r1
100052ce:	4617      	mov	r7, r2
100052d0:	2300      	movs	r3, #0
100052d2:	f88d 300f 	strb.w	r3, [sp, #15]
100052d6:	4608      	mov	r0, r1
100052d8:	f7ff fee6 	bl	100050a8 <audiod_get_audio_fct_idx>
100052dc:	4605      	mov	r5, r0
100052de:	ab02      	add	r3, sp, #8
100052e0:	f10d 020f 	add.w	r2, sp, #15
100052e4:	4621      	mov	r1, r4
100052e6:	7c20      	ldrb	r0, [r4, #16]
100052e8:	f7ff fd7a 	bl	10004de0 <audiod_get_AS_interface_index>
100052ec:	b908      	cbnz	r0, 100052f2 <audiod_rx_done_cb+0x2c>
100052ee:	b005      	add	sp, #20
100052f0:	bdf0      	pop	{r4, r5, r6, r7, pc}
100052f2:	6b22      	ldr	r2, [r4, #48]	@ 0x30
100052f4:	f89d 300f 	ldrb.w	r3, [sp, #15]
100052f8:	5cd3      	ldrb	r3, [r2, r3]
100052fa:	9300      	str	r3, [sp, #0]
100052fc:	7b63      	ldrb	r3, [r4, #13]
100052fe:	462a      	mov	r2, r5
10005300:	4639      	mov	r1, r7
10005302:	4630      	mov	r0, r6
10005304:	f7fb f9d4 	bl	100006b0 <tud_audio_rx_done_pre_read_cb>
10005308:	2800      	cmp	r0, #0
1000530a:	d0f0      	beq.n	100052ee <audiod_rx_done_cb+0x28>
1000530c:	463a      	mov	r2, r7
1000530e:	6e61      	ldr	r1, [r4, #100]	@ 0x64
10005310:	f104 0034 	add.w	r0, r4, #52	@ 0x34
10005314:	f000 ff82 	bl	1000621c <tu_fifo_write_n>
10005318:	b908      	cbnz	r0, 1000531e <audiod_rx_done_cb+0x58>
1000531a:	2000      	movs	r0, #0
1000531c:	e7e7      	b.n	100052ee <audiod_rx_done_cb+0x28>
1000531e:	89e3      	ldrh	r3, [r4, #14]
10005320:	6e62      	ldr	r2, [r4, #100]	@ 0x64
10005322:	7b61      	ldrb	r1, [r4, #13]
10005324:	4630      	mov	r0, r6
10005326:	f7ff f83f 	bl	100043a8 <usbd_edpt_xfer>
1000532a:	2800      	cmp	r0, #0
1000532c:	d0df      	beq.n	100052ee <audiod_rx_done_cb+0x28>
1000532e:	6b22      	ldr	r2, [r4, #48]	@ 0x30
10005330:	f89d 300f 	ldrb.w	r3, [sp, #15]
10005334:	5cd3      	ldrb	r3, [r2, r3]
10005336:	9300      	str	r3, [sp, #0]
10005338:	7b63      	ldrb	r3, [r4, #13]
1000533a:	462a      	mov	r2, r5
1000533c:	4639      	mov	r1, r7
1000533e:	4630      	mov	r0, r6
10005340:	f7ff ffbf 	bl	100052c2 <tud_audio_rx_done_post_read_cb>
10005344:	e7d3      	b.n	100052ee <audiod_rx_done_cb+0x28>

10005346 <tud_audio_int_done_cb>:
10005346:	4770      	bx	lr

10005348 <audiod_set_interface>:
10005348:	e92d 4ff0 	stmdb	sp!, {r4, r5, r6, r7, r8, r9, sl, fp, lr}
1000534c:	b089      	sub	sp, #36	@ 0x24
1000534e:	4683      	mov	fp, r0
10005350:	9102      	str	r1, [sp, #8]
10005352:	888c      	ldrh	r4, [r1, #4]
10005354:	b2e4      	uxtb	r4, r4
10005356:	884e      	ldrh	r6, [r1, #2]
10005358:	ab06      	add	r3, sp, #24
1000535a:	f10d 021e 	add.w	r2, sp, #30
1000535e:	f10d 011f 	add.w	r1, sp, #31
10005362:	4620      	mov	r0, r4
10005364:	f7ff fd68 	bl	10004e38 <audiod_get_AS_interface_index_global>
10005368:	9001      	str	r0, [sp, #4]
1000536a:	2800      	cmp	r0, #0
1000536c:	f000 80d9 	beq.w	10005522 <audiod_set_interface+0x1da>
10005370:	b2f6      	uxtb	r6, r6
10005372:	f89d 701f 	ldrb.w	r7, [sp, #31]
10005376:	226c      	movs	r2, #108	@ 0x6c
10005378:	4b7d      	ldr	r3, [pc, #500]	@ (10005570 <audiod_set_interface+0x228>)
1000537a:	fb02 3907 	mla	r9, r2, r7, r3
1000537e:	f899 300c 	ldrb.w	r3, [r9, #12]
10005382:	42a3      	cmp	r3, r4
10005384:	d013      	beq.n	100053ae <audiod_set_interface+0x66>
10005386:	4b7a      	ldr	r3, [pc, #488]	@ (10005570 <audiod_set_interface+0x228>)
10005388:	226c      	movs	r2, #108	@ 0x6c
1000538a:	fb02 3307 	mla	r3, r2, r7, r3
1000538e:	7c1b      	ldrb	r3, [r3, #16]
10005390:	42a3      	cmp	r3, r4
10005392:	d02d      	beq.n	100053f0 <audiod_set_interface+0xa8>
10005394:	4b76      	ldr	r3, [pc, #472]	@ (10005570 <audiod_set_interface+0x228>)
10005396:	226c      	movs	r2, #108	@ 0x6c
10005398:	fb02 3307 	mla	r3, r2, r7, r3
1000539c:	6b19      	ldr	r1, [r3, #48]	@ 0x30
1000539e:	f89d 201e 	ldrb.w	r2, [sp, #30]
100053a2:	548e      	strb	r6, [r1, r2]
100053a4:	685a      	ldr	r2, [r3, #4]
100053a6:	8a9b      	ldrh	r3, [r3, #20]
100053a8:	3b08      	subs	r3, #8
100053aa:	441a      	add	r2, r3
100053ac:	e0c2      	b.n	10005534 <audiod_set_interface+0x1ec>
100053ae:	4d70      	ldr	r5, [pc, #448]	@ (10005570 <audiod_set_interface+0x228>)
100053b0:	fb02 f807 	mul.w	r8, r2, r7
100053b4:	2200      	movs	r2, #0
100053b6:	f889 200c 	strb.w	r2, [r9, #12]
100053ba:	f899 1008 	ldrb.w	r1, [r9, #8]
100053be:	4658      	mov	r0, fp
100053c0:	f7ff fba0 	bl	10004b04 <usbd_edpt_close>
100053c4:	f108 0048 	add.w	r0, r8, #72	@ 0x48
100053c8:	4428      	add	r0, r5
100053ca:	f000 ff2c 	bl	10006226 <tu_fifo_clear>
100053ce:	9902      	ldr	r1, [sp, #8]
100053d0:	4658      	mov	r0, fp
100053d2:	f7fb f939 	bl	10000648 <tud_audio_set_itf_close_EP_cb>
100053d6:	2800      	cmp	r0, #0
100053d8:	f000 80c4 	beq.w	10005564 <audiod_set_interface+0x21c>
100053dc:	2200      	movs	r2, #0
100053de:	f889 2008 	strb.w	r2, [r9, #8]
100053e2:	f8a9 201c 	strh.w	r2, [r9, #28]
100053e6:	f8a9 201e 	strh.w	r2, [r9, #30]
100053ea:	f8a9 2020 	strh.w	r2, [r9, #32]
100053ee:	e7ca      	b.n	10005386 <audiod_set_interface+0x3e>
100053f0:	4d5f      	ldr	r5, [pc, #380]	@ (10005570 <audiod_set_interface+0x228>)
100053f2:	fb02 f807 	mul.w	r8, r2, r7
100053f6:	eb05 0308 	add.w	r3, r5, r8
100053fa:	2200      	movs	r2, #0
100053fc:	741a      	strb	r2, [r3, #16]
100053fe:	7b59      	ldrb	r1, [r3, #13]
10005400:	4658      	mov	r0, fp
10005402:	f7ff fb7f 	bl	10004b04 <usbd_edpt_close>
10005406:	f108 0030 	add.w	r0, r8, #48	@ 0x30
1000540a:	4428      	add	r0, r5
1000540c:	3004      	adds	r0, #4
1000540e:	f000 ff0a 	bl	10006226 <tu_fifo_clear>
10005412:	9902      	ldr	r1, [sp, #8]
10005414:	4658      	mov	r0, fp
10005416:	f7fb f917 	bl	10000648 <tud_audio_set_itf_close_EP_cb>
1000541a:	2800      	cmp	r0, #0
1000541c:	f000 80a4 	beq.w	10005568 <audiod_set_interface+0x220>
10005420:	226c      	movs	r2, #108	@ 0x6c
10005422:	fb02 5307 	mla	r3, r2, r7, r5
10005426:	2200      	movs	r2, #0
10005428:	735a      	strb	r2, [r3, #13]
1000542a:	e7b3      	b.n	10005394 <audiod_set_interface+0x4c>
1000542c:	f240 7295 	movw	r2, #1941	@ 0x795
10005430:	4950      	ldr	r1, [pc, #320]	@ (10005574 <audiod_set_interface+0x22c>)
10005432:	4851      	ldr	r0, [pc, #324]	@ (10005578 <audiod_set_interface+0x230>)
10005434:	f7fe f974 	bl	10003720 <__wrap_printf>
10005438:	f04f 23e0 	mov.w	r3, #3758153728	@ 0xe000e000
1000543c:	f8d3 3df0 	ldr.w	r3, [r3, #3568]	@ 0xdf0
10005440:	f013 0f01 	tst.w	r3, #1
10005444:	d000      	beq.n	10005448 <audiod_set_interface+0x100>
10005446:	be00      	bkpt	0x0000
10005448:	9501      	str	r5, [sp, #4]
1000544a:	e06a      	b.n	10005522 <audiod_set_interface+0x1da>
1000544c:	4b48      	ldr	r3, [pc, #288]	@ (10005570 <audiod_set_interface+0x228>)
1000544e:	9a03      	ldr	r2, [sp, #12]
10005450:	216c      	movs	r1, #108	@ 0x6c
10005452:	fb01 3302 	mla	r3, r1, r2, r3
10005456:	721d      	strb	r5, [r3, #8]
10005458:	f883 900c 	strb.w	r9, [r3, #12]
1000545c:	88b2      	ldrh	r2, [r6, #4]
1000545e:	f3c2 020a 	ubfx	r2, r2, #0, #11
10005462:	815a      	strh	r2, [r3, #10]
10005464:	464b      	mov	r3, r9
10005466:	463a      	mov	r2, r7
10005468:	9905      	ldr	r1, [sp, #20]
1000546a:	9804      	ldr	r0, [sp, #16]
1000546c:	f7ff fd8c 	bl	10004f88 <audiod_parse_for_AS_params>
10005470:	f89d 101f 	ldrb.w	r1, [sp, #31]
10005474:	4b3e      	ldr	r3, [pc, #248]	@ (10005570 <audiod_set_interface+0x228>)
10005476:	226c      	movs	r2, #108	@ 0x6c
10005478:	fb02 3101 	mla	r1, r2, r1, r3
1000547c:	4658      	mov	r0, fp
1000547e:	f7ff fed1 	bl	10005224 <audiod_tx_done_cb>
10005482:	2800      	cmp	r0, #0
10005484:	d137      	bne.n	100054f6 <audiod_set_interface+0x1ae>
10005486:	9001      	str	r0, [sp, #4]
10005488:	e04b      	b.n	10005522 <audiod_set_interface+0x1da>
1000548a:	4a39      	ldr	r2, [pc, #228]	@ (10005570 <audiod_set_interface+0x228>)
1000548c:	236c      	movs	r3, #108	@ 0x6c
1000548e:	9903      	ldr	r1, [sp, #12]
10005490:	fb03 2201 	mla	r2, r3, r1, r2
10005494:	7355      	strb	r5, [r2, #13]
10005496:	f882 9010 	strb.w	r9, [r2, #16]
1000549a:	88b3      	ldrh	r3, [r6, #4]
1000549c:	f3c3 030a 	ubfx	r3, r3, #0, #11
100054a0:	81d3      	strh	r3, [r2, #14]
100054a2:	6e52      	ldr	r2, [r2, #100]	@ 0x64
100054a4:	4629      	mov	r1, r5
100054a6:	4658      	mov	r0, fp
100054a8:	f7fe ff7e 	bl	100043a8 <usbd_edpt_xfer>
100054ac:	2800      	cmp	r0, #0
100054ae:	d05d      	beq.n	1000556c <audiod_set_interface+0x224>
100054b0:	f10a 0a01 	add.w	sl, sl, #1
100054b4:	fa5f fa8a 	uxtb.w	sl, sl
100054b8:	9b06      	ldr	r3, [sp, #24]
100054ba:	781a      	ldrb	r2, [r3, #0]
100054bc:	4413      	add	r3, r2
100054be:	9306      	str	r3, [sp, #24]
100054c0:	45c2      	cmp	sl, r8
100054c2:	d21b      	bcs.n	100054fc <audiod_set_interface+0x1b4>
100054c4:	9e06      	ldr	r6, [sp, #24]
100054c6:	1bbb      	subs	r3, r7, r6
100054c8:	2b00      	cmp	r3, #0
100054ca:	dd17      	ble.n	100054fc <audiod_set_interface+0x1b4>
100054cc:	7873      	ldrb	r3, [r6, #1]
100054ce:	2b05      	cmp	r3, #5
100054d0:	d1f2      	bne.n	100054b8 <audiod_set_interface+0x170>
100054d2:	4631      	mov	r1, r6
100054d4:	4658      	mov	r0, fp
100054d6:	f7fe ff15 	bl	10004304 <usbd_edpt_open>
100054da:	4605      	mov	r5, r0
100054dc:	2800      	cmp	r0, #0
100054de:	d0a5      	beq.n	1000542c <audiod_set_interface+0xe4>
100054e0:	78b5      	ldrb	r5, [r6, #2]
100054e2:	4629      	mov	r1, r5
100054e4:	4658      	mov	r0, fp
100054e6:	f7fe ffc5 	bl	10004474 <usbd_edpt_clear_stall>
100054ea:	09ec      	lsrs	r4, r5, #7
100054ec:	d0cd      	beq.n	1000548a <audiod_set_interface+0x142>
100054ee:	78f3      	ldrb	r3, [r6, #3]
100054f0:	f013 0f30 	tst.w	r3, #48	@ 0x30
100054f4:	d0aa      	beq.n	1000544c <audiod_set_interface+0x104>
100054f6:	2c00      	cmp	r4, #0
100054f8:	d1da      	bne.n	100054b0 <audiod_set_interface+0x168>
100054fa:	e7c6      	b.n	1000548a <audiod_set_interface+0x142>
100054fc:	f8dd 9010 	ldr.w	r9, [sp, #16]
10005500:	45c2      	cmp	sl, r8
10005502:	d002      	beq.n	1000550a <audiod_set_interface+0x1c2>
10005504:	2300      	movs	r3, #0
10005506:	9301      	str	r3, [sp, #4]
10005508:	e00b      	b.n	10005522 <audiod_set_interface+0x1da>
1000550a:	9902      	ldr	r1, [sp, #8]
1000550c:	4658      	mov	r0, fp
1000550e:	f7fb f8ad 	bl	1000066c <tud_audio_set_itf_cb>
10005512:	b150      	cbz	r0, 1000552a <audiod_set_interface+0x1e2>
10005514:	4648      	mov	r0, r9
10005516:	f7ff fdfd 	bl	10005114 <audiod_calc_tx_packet_sz>
1000551a:	9902      	ldr	r1, [sp, #8]
1000551c:	4658      	mov	r0, fp
1000551e:	f7ff fb51 	bl	10004bc4 <tud_control_status>
10005522:	9801      	ldr	r0, [sp, #4]
10005524:	b009      	add	sp, #36	@ 0x24
10005526:	e8bd 8ff0 	ldmia.w	sp!, {r4, r5, r6, r7, r8, r9, sl, fp, pc}
1000552a:	9001      	str	r0, [sp, #4]
1000552c:	e7f9      	b.n	10005522 <audiod_set_interface+0x1da>
1000552e:	780b      	ldrb	r3, [r1, #0]
10005530:	4419      	add	r1, r3
10005532:	9106      	str	r1, [sp, #24]
10005534:	9906      	ldr	r1, [sp, #24]
10005536:	1a53      	subs	r3, r2, r1
10005538:	2b00      	cmp	r3, #0
1000553a:	ddeb      	ble.n	10005514 <audiod_set_interface+0x1cc>
1000553c:	784b      	ldrb	r3, [r1, #1]
1000553e:	2b04      	cmp	r3, #4
10005540:	d1f5      	bne.n	1000552e <audiod_set_interface+0x1e6>
10005542:	788b      	ldrb	r3, [r1, #2]
10005544:	42a3      	cmp	r3, r4
10005546:	d1f2      	bne.n	1000552e <audiod_set_interface+0x1e6>
10005548:	78cb      	ldrb	r3, [r1, #3]
1000554a:	42b3      	cmp	r3, r6
1000554c:	d1ef      	bne.n	1000552e <audiod_set_interface+0x1e6>
1000554e:	f891 8004 	ldrb.w	r8, [r1, #4]
10005552:	f04f 0a00 	mov.w	sl, #0
10005556:	9703      	str	r7, [sp, #12]
10005558:	9105      	str	r1, [sp, #20]
1000555a:	f8cd 9010 	str.w	r9, [sp, #16]
1000555e:	4617      	mov	r7, r2
10005560:	46a1      	mov	r9, r4
10005562:	e7ad      	b.n	100054c0 <audiod_set_interface+0x178>
10005564:	9001      	str	r0, [sp, #4]
10005566:	e7dc      	b.n	10005522 <audiod_set_interface+0x1da>
10005568:	9001      	str	r0, [sp, #4]
1000556a:	e7da      	b.n	10005522 <audiod_set_interface+0x1da>
1000556c:	9001      	str	r0, [sp, #4]
1000556e:	e7d8      	b.n	10005522 <audiod_set_interface+0x1da>
10005570:	2000103c 	.word	0x2000103c
10005574:	10007594 	.word	0x10007594
10005578:	100064f0 	.word	0x100064f0

1000557c <tud_audio_set_req_ep_cb>:
1000557c:	2000      	movs	r0, #0
1000557e:	4770      	bx	lr

10005580 <tud_audio_set_req_itf_cb>:
10005580:	2000      	movs	r0, #0
10005582:	4770      	bx	lr

10005584 <audiod_control_complete>:
10005584:	780b      	ldrb	r3, [r1, #0]
10005586:	f003 03e0 	and.w	r3, r3, #224	@ 0xe0
1000558a:	2b20      	cmp	r3, #32
1000558c:	d001      	beq.n	10005592 <audiod_control_complete+0xe>
1000558e:	2001      	movs	r0, #1
10005590:	4770      	bx	lr
10005592:	b530      	push	{r4, r5, lr}
10005594:	b083      	sub	sp, #12
10005596:	4605      	mov	r5, r0
10005598:	460c      	mov	r4, r1
1000559a:	780b      	ldrb	r3, [r1, #0]
1000559c:	f003 031f 	and.w	r3, r3, #31
100055a0:	2b01      	cmp	r3, #1
100055a2:	d00c      	beq.n	100055be <audiod_control_complete+0x3a>
100055a4:	2b02      	cmp	r3, #2
100055a6:	d032      	beq.n	1000560e <audiod_control_complete+0x8a>
100055a8:	f04f 23e0 	mov.w	r3, #3758153728	@ 0xe000e000
100055ac:	f8d3 3df0 	ldr.w	r3, [r3, #3568]	@ 0xdf0
100055b0:	f013 0f01 	tst.w	r3, #1
100055b4:	d000      	beq.n	100055b8 <audiod_control_complete+0x34>
100055b6:	be00      	bkpt	0x0000
100055b8:	2000      	movs	r0, #0
100055ba:	b003      	add	sp, #12
100055bc:	bd30      	pop	{r4, r5, pc}
100055be:	8889      	ldrh	r1, [r1, #4]
100055c0:	b2c8      	uxtb	r0, r1
100055c2:	0a09      	lsrs	r1, r1, #8
100055c4:	d011      	beq.n	100055ea <audiod_control_complete+0x66>
100055c6:	f10d 0207 	add.w	r2, sp, #7
100055ca:	f7ff fc55 	bl	10004e78 <audiod_verify_entity_exists>
100055ce:	2800      	cmp	r0, #0
100055d0:	d0f3      	beq.n	100055ba <audiod_control_complete+0x36>
100055d2:	f89d 2007 	ldrb.w	r2, [sp, #7]
100055d6:	4b18      	ldr	r3, [pc, #96]	@ (10005638 <audiod_control_complete+0xb4>)
100055d8:	216c      	movs	r1, #108	@ 0x6c
100055da:	fb01 3302 	mla	r3, r1, r2, r3
100055de:	6a9a      	ldr	r2, [r3, #40]	@ 0x28
100055e0:	4621      	mov	r1, r4
100055e2:	4628      	mov	r0, r5
100055e4:	f7fb f816 	bl	10000614 <tud_audio_set_req_entity_cb>
100055e8:	e7e7      	b.n	100055ba <audiod_control_complete+0x36>
100055ea:	f10d 0107 	add.w	r1, sp, #7
100055ee:	f7ff fc73 	bl	10004ed8 <audiod_verify_itf_exists>
100055f2:	2800      	cmp	r0, #0
100055f4:	d0e1      	beq.n	100055ba <audiod_control_complete+0x36>
100055f6:	f89d 2007 	ldrb.w	r2, [sp, #7]
100055fa:	4b0f      	ldr	r3, [pc, #60]	@ (10005638 <audiod_control_complete+0xb4>)
100055fc:	216c      	movs	r1, #108	@ 0x6c
100055fe:	fb01 3302 	mla	r3, r1, r2, r3
10005602:	6a9a      	ldr	r2, [r3, #40]	@ 0x28
10005604:	4621      	mov	r1, r4
10005606:	4628      	mov	r0, r5
10005608:	f7ff ffba 	bl	10005580 <tud_audio_set_req_itf_cb>
1000560c:	e7d5      	b.n	100055ba <audiod_control_complete+0x36>
1000560e:	8888      	ldrh	r0, [r1, #4]
10005610:	f10d 0107 	add.w	r1, sp, #7
10005614:	b2c0      	uxtb	r0, r0
10005616:	f7ff fc89 	bl	10004f2c <audiod_verify_ep_exists>
1000561a:	2800      	cmp	r0, #0
1000561c:	d0cd      	beq.n	100055ba <audiod_control_complete+0x36>
1000561e:	f89d 2007 	ldrb.w	r2, [sp, #7]
10005622:	4b05      	ldr	r3, [pc, #20]	@ (10005638 <audiod_control_complete+0xb4>)
10005624:	216c      	movs	r1, #108	@ 0x6c
10005626:	fb01 3302 	mla	r3, r1, r2, r3
1000562a:	6a9a      	ldr	r2, [r3, #40]	@ 0x28
1000562c:	4621      	mov	r1, r4
1000562e:	4628      	mov	r0, r5
10005630:	f7ff ffa4 	bl	1000557c <tud_audio_set_req_ep_cb>
10005634:	e7c1      	b.n	100055ba <audiod_control_complete+0x36>
10005636:	bf00      	nop
10005638:	2000103c 	.word	0x2000103c

1000563c <tud_audio_get_req_ep_cb>:
1000563c:	2000      	movs	r0, #0
1000563e:	4770      	bx	lr

10005640 <tud_audio_get_req_itf_cb>:
10005640:	2000      	movs	r0, #0
10005642:	4770      	bx	lr

10005644 <audiod_control_request>:
10005644:	b530      	push	{r4, r5, lr}
10005646:	b083      	sub	sp, #12
10005648:	4605      	mov	r5, r0
1000564a:	460c      	mov	r4, r1
1000564c:	780b      	ldrb	r3, [r1, #0]
1000564e:	f013 0360 	ands.w	r3, r3, #96	@ 0x60
10005652:	d116      	bne.n	10005682 <audiod_control_request+0x3e>
10005654:	784b      	ldrb	r3, [r1, #1]
10005656:	2b0a      	cmp	r3, #10
10005658:	d00d      	beq.n	10005676 <audiod_control_request+0x32>
1000565a:	2b0b      	cmp	r3, #11
1000565c:	d00e      	beq.n	1000567c <audiod_control_request+0x38>
1000565e:	2b01      	cmp	r3, #1
10005660:	d06c      	beq.n	1000573c <audiod_control_request+0xf8>
10005662:	f04f 23e0 	mov.w	r3, #3758153728	@ 0xe000e000
10005666:	f8d3 3df0 	ldr.w	r3, [r3, #3568]	@ 0xdf0
1000566a:	f013 0f01 	tst.w	r3, #1
1000566e:	d000      	beq.n	10005672 <audiod_control_request+0x2e>
10005670:	be00      	bkpt	0x0000
10005672:	2000      	movs	r0, #0
10005674:	e010      	b.n	10005698 <audiod_control_request+0x54>
10005676:	f7ff fd27 	bl	100050c8 <audiod_get_interface>
1000567a:	e00d      	b.n	10005698 <audiod_control_request+0x54>
1000567c:	f7ff fe64 	bl	10005348 <audiod_set_interface>
10005680:	e00a      	b.n	10005698 <audiod_control_request+0x54>
10005682:	2b20      	cmp	r3, #32
10005684:	d00a      	beq.n	1000569c <audiod_control_request+0x58>
10005686:	f04f 23e0 	mov.w	r3, #3758153728	@ 0xe000e000
1000568a:	f8d3 3df0 	ldr.w	r3, [r3, #3568]	@ 0xdf0
1000568e:	f013 0f01 	tst.w	r3, #1
10005692:	d055      	beq.n	10005740 <audiod_control_request+0xfc>
10005694:	be00      	bkpt	0x0000
10005696:	2000      	movs	r0, #0
10005698:	b003      	add	sp, #12
1000569a:	bd30      	pop	{r4, r5, pc}
1000569c:	8889      	ldrh	r1, [r1, #4]
1000569e:	b2c8      	uxtb	r0, r1
100056a0:	7823      	ldrb	r3, [r4, #0]
100056a2:	f003 031f 	and.w	r3, r3, #31
100056a6:	2b01      	cmp	r3, #1
100056a8:	d00b      	beq.n	100056c2 <audiod_control_request+0x7e>
100056aa:	2b02      	cmp	r3, #2
100056ac:	d029      	beq.n	10005702 <audiod_control_request+0xbe>
100056ae:	f04f 23e0 	mov.w	r3, #3758153728	@ 0xe000e000
100056b2:	f8d3 3df0 	ldr.w	r3, [r3, #3568]	@ 0xdf0
100056b6:	f013 0f01 	tst.w	r3, #1
100056ba:	d000      	beq.n	100056be <audiod_control_request+0x7a>
100056bc:	be00      	bkpt	0x0000
100056be:	2000      	movs	r0, #0
100056c0:	e7ea      	b.n	10005698 <audiod_control_request+0x54>
100056c2:	0a09      	lsrs	r1, r1, #8
100056c4:	d00e      	beq.n	100056e4 <audiod_control_request+0xa0>
100056c6:	f10d 0207 	add.w	r2, sp, #7
100056ca:	f7ff fbd5 	bl	10004e78 <audiod_verify_entity_exists>
100056ce:	2800      	cmp	r0, #0
100056d0:	d0e2      	beq.n	10005698 <audiod_control_request+0x54>
100056d2:	f994 3000 	ldrsb.w	r3, [r4]
100056d6:	2b00      	cmp	r3, #0
100056d8:	da1d      	bge.n	10005716 <audiod_control_request+0xd2>
100056da:	4621      	mov	r1, r4
100056dc:	4628      	mov	r0, r5
100056de:	f7fa ff81 	bl	100005e4 <tud_audio_get_req_entity_cb>
100056e2:	e7d9      	b.n	10005698 <audiod_control_request+0x54>
100056e4:	f10d 0107 	add.w	r1, sp, #7
100056e8:	f7ff fbf6 	bl	10004ed8 <audiod_verify_itf_exists>
100056ec:	2800      	cmp	r0, #0
100056ee:	d0d3      	beq.n	10005698 <audiod_control_request+0x54>
100056f0:	f994 3000 	ldrsb.w	r3, [r4]
100056f4:	2b00      	cmp	r3, #0
100056f6:	da0e      	bge.n	10005716 <audiod_control_request+0xd2>
100056f8:	4621      	mov	r1, r4
100056fa:	4628      	mov	r0, r5
100056fc:	f7ff ffa0 	bl	10005640 <tud_audio_get_req_itf_cb>
10005700:	e7ca      	b.n	10005698 <audiod_control_request+0x54>
10005702:	f10d 0107 	add.w	r1, sp, #7
10005706:	f7ff fc11 	bl	10004f2c <audiod_verify_ep_exists>
1000570a:	2800      	cmp	r0, #0
1000570c:	d0c4      	beq.n	10005698 <audiod_control_request+0x54>
1000570e:	f994 3000 	ldrsb.w	r3, [r4]
10005712:	2b00      	cmp	r3, #0
10005714:	db0d      	blt.n	10005732 <audiod_control_request+0xee>
10005716:	f89d 3007 	ldrb.w	r3, [sp, #7]
1000571a:	4a0a      	ldr	r2, [pc, #40]	@ (10005744 <audiod_control_request+0x100>)
1000571c:	216c      	movs	r1, #108	@ 0x6c
1000571e:	fb01 2203 	mla	r2, r1, r3, r2
10005722:	f892 302c 	ldrb.w	r3, [r2, #44]	@ 0x2c
10005726:	6a92      	ldr	r2, [r2, #40]	@ 0x28
10005728:	4621      	mov	r1, r4
1000572a:	4628      	mov	r0, r5
1000572c:	f7ff fa5e 	bl	10004bec <tud_control_xfer>
10005730:	e7b2      	b.n	10005698 <audiod_control_request+0x54>
10005732:	4621      	mov	r1, r4
10005734:	4628      	mov	r0, r5
10005736:	f7ff ff81 	bl	1000563c <tud_audio_get_req_ep_cb>
1000573a:	e7ad      	b.n	10005698 <audiod_control_request+0x54>
1000573c:	2001      	movs	r0, #1
1000573e:	e7ab      	b.n	10005698 <audiod_control_request+0x54>
10005740:	2000      	movs	r0, #0
10005742:	e7a9      	b.n	10005698 <audiod_control_request+0x54>
10005744:	2000103c 	.word	0x2000103c

10005748 <tud_audio_n_read>:
10005748:	b990      	cbnz	r0, 10005770 <tud_audio_n_read+0x28>
1000574a:	b508      	push	{r3, lr}
1000574c:	4603      	mov	r3, r0
1000574e:	480a      	ldr	r0, [pc, #40]	@ (10005778 <tud_audio_n_read+0x30>)
10005750:	f04f 0c6c 	mov.w	ip, #108	@ 0x6c
10005754:	fb0c 0003 	mla	r0, ip, r3, r0
10005758:	6840      	ldr	r0, [r0, #4]
1000575a:	b158      	cbz	r0, 10005774 <tud_audio_n_read+0x2c>
1000575c:	4660      	mov	r0, ip
1000575e:	fb03 f000 	mul.w	r0, r3, r0
10005762:	3030      	adds	r0, #48	@ 0x30
10005764:	4b04      	ldr	r3, [pc, #16]	@ (10005778 <tud_audio_n_read+0x30>)
10005766:	4418      	add	r0, r3
10005768:	3004      	adds	r0, #4
1000576a:	f000 fd23 	bl	100061b4 <tu_fifo_read_n>
1000576e:	bd08      	pop	{r3, pc}
10005770:	2000      	movs	r0, #0
10005772:	4770      	bx	lr
10005774:	2000      	movs	r0, #0
10005776:	e7fa      	b.n	1000576e <tud_audio_n_read+0x26>
10005778:	2000103c 	.word	0x2000103c

1000577c <tud_audio_n_write>:
1000577c:	b988      	cbnz	r0, 100057a2 <tud_audio_n_write+0x26>
1000577e:	b508      	push	{r3, lr}
10005780:	4603      	mov	r3, r0
10005782:	480a      	ldr	r0, [pc, #40]	@ (100057ac <tud_audio_n_write+0x30>)
10005784:	f04f 0c6c 	mov.w	ip, #108	@ 0x6c
10005788:	fb0c 0003 	mla	r0, ip, r3, r0
1000578c:	6840      	ldr	r0, [r0, #4]
1000578e:	b150      	cbz	r0, 100057a6 <tud_audio_n_write+0x2a>
10005790:	4660      	mov	r0, ip
10005792:	fb00 f303 	mul.w	r3, r0, r3
10005796:	3348      	adds	r3, #72	@ 0x48
10005798:	4804      	ldr	r0, [pc, #16]	@ (100057ac <tud_audio_n_write+0x30>)
1000579a:	4418      	add	r0, r3
1000579c:	f000 fd3e 	bl	1000621c <tu_fifo_write_n>
100057a0:	bd08      	pop	{r3, pc}
100057a2:	2000      	movs	r0, #0
100057a4:	4770      	bx	lr
100057a6:	2000      	movs	r0, #0
100057a8:	e7fa      	b.n	100057a0 <tud_audio_n_write+0x24>
100057aa:	bf00      	nop
100057ac:	2000103c 	.word	0x2000103c

100057b0 <tud_audio_int_n_write>:
100057b0:	b570      	push	{r4, r5, r6, lr}
100057b2:	2800      	cmp	r0, #0
100057b4:	d13b      	bne.n	1000582e <tud_audio_int_n_write+0x7e>
100057b6:	460c      	mov	r4, r1
100057b8:	4605      	mov	r5, r0
100057ba:	4b1f      	ldr	r3, [pc, #124]	@ (10005838 <tud_audio_int_n_write+0x88>)
100057bc:	226c      	movs	r2, #108	@ 0x6c
100057be:	fb02 3300 	mla	r3, r2, r0, r3
100057c2:	685b      	ldr	r3, [r3, #4]
100057c4:	2b00      	cmp	r3, #0
100057c6:	d035      	beq.n	10005834 <tud_audio_int_n_write+0x84>
100057c8:	4b1b      	ldr	r3, [pc, #108]	@ (10005838 <tud_audio_int_n_write+0x88>)
100057ca:	fb02 3300 	mla	r3, r2, r0, r3
100057ce:	7c59      	ldrb	r1, [r3, #17]
100057d0:	b909      	cbnz	r1, 100057d6 <tud_audio_int_n_write+0x26>
100057d2:	2600      	movs	r6, #0
100057d4:	e02c      	b.n	10005830 <tud_audio_int_n_write+0x80>
100057d6:	4613      	mov	r3, r2
100057d8:	fb00 f303 	mul.w	r3, r0, r3
100057dc:	4a16      	ldr	r2, [pc, #88]	@ (10005838 <tud_audio_int_n_write+0x88>)
100057de:	5cd0      	ldrb	r0, [r2, r3]
100057e0:	f7fe fdce 	bl	10004380 <usbd_edpt_claim>
100057e4:	4606      	mov	r6, r0
100057e6:	b318      	cbz	r0, 10005830 <tud_audio_int_n_write+0x80>
100057e8:	236c      	movs	r3, #108	@ 0x6c
100057ea:	fb03 f505 	mul.w	r5, r3, r5
100057ee:	f105 0258 	add.w	r2, r5, #88	@ 0x58
100057f2:	4811      	ldr	r0, [pc, #68]	@ (10005838 <tud_audio_int_n_write+0x88>)
100057f4:	4402      	add	r2, r0
100057f6:	6823      	ldr	r3, [r4, #0]
100057f8:	6053      	str	r3, [r2, #4]
100057fa:	88a3      	ldrh	r3, [r4, #4]
100057fc:	8113      	strh	r3, [r2, #8]
100057fe:	1941      	adds	r1, r0, r5
10005800:	2306      	movs	r3, #6
10005802:	3204      	adds	r2, #4
10005804:	7c49      	ldrb	r1, [r1, #17]
10005806:	5d40      	ldrb	r0, [r0, r5]
10005808:	f7fe fdce 	bl	100043a8 <usbd_edpt_xfer>
1000580c:	4606      	mov	r6, r0
1000580e:	b978      	cbnz	r0, 10005830 <tud_audio_int_n_write+0x80>
10005810:	f240 32ca 	movw	r2, #970	@ 0x3ca
10005814:	4909      	ldr	r1, [pc, #36]	@ (1000583c <tud_audio_int_n_write+0x8c>)
10005816:	480a      	ldr	r0, [pc, #40]	@ (10005840 <tud_audio_int_n_write+0x90>)
10005818:	f7fd ff82 	bl	10003720 <__wrap_printf>
1000581c:	f04f 23e0 	mov.w	r3, #3758153728	@ 0xe000e000
10005820:	f8d3 3df0 	ldr.w	r3, [r3, #3568]	@ 0xdf0
10005824:	f013 0f01 	tst.w	r3, #1
10005828:	d002      	beq.n	10005830 <tud_audio_int_n_write+0x80>
1000582a:	be00      	bkpt	0x0000
1000582c:	e000      	b.n	10005830 <tud_audio_int_n_write+0x80>
1000582e:	2600      	movs	r6, #0
10005830:	4630      	mov	r0, r6
10005832:	bd70      	pop	{r4, r5, r6, pc}
10005834:	2600      	movs	r6, #0
10005836:	e7fb      	b.n	10005830 <tud_audio_int_n_write+0x80>
10005838:	2000103c 	.word	0x2000103c
1000583c:	100075b8 	.word	0x100075b8
10005840:	100064f0 	.word	0x100064f0

10005844 <audiod_init>:
10005844:	e92d 43f0 	stmdb	sp!, {r4, r5, r6, r7, r8, r9, lr}
10005848:	b083      	sub	sp, #12
1000584a:	226c      	movs	r2, #108	@ 0x6c
1000584c:	2100      	movs	r1, #0
1000584e:	4822      	ldr	r0, [pc, #136]	@ (100058d8 <audiod_init+0x94>)
10005850:	f000 fd06 	bl	10006260 <memset>
10005854:	2600      	movs	r6, #0
10005856:	b116      	cbz	r6, 1000585e <audiod_init+0x1a>
10005858:	b003      	add	sp, #12
1000585a:	e8bd 83f0 	ldmia.w	sp!, {r4, r5, r6, r7, r8, r9, pc}
1000585e:	f8df 8078 	ldr.w	r8, [pc, #120]	@ 100058d8 <audiod_init+0x94>
10005862:	256c      	movs	r5, #108	@ 0x6c
10005864:	fb06 f505 	mul.w	r5, r6, r5
10005868:	eb08 0405 	add.w	r4, r8, r5
1000586c:	4b1b      	ldr	r3, [pc, #108]	@ (100058dc <audiod_init+0x98>)
1000586e:	62a3      	str	r3, [r4, #40]	@ 0x28
10005870:	2340      	movs	r3, #64	@ 0x40
10005872:	f884 302c 	strb.w	r3, [r4, #44]	@ 0x2c
10005876:	4b1a      	ldr	r3, [pc, #104]	@ (100058e0 <audiod_init+0x9c>)
10005878:	6323      	str	r3, [r4, #48]	@ 0x30
1000587a:	f105 0048 	add.w	r0, r5, #72	@ 0x48
1000587e:	2701      	movs	r7, #1
10005880:	9700      	str	r7, [sp, #0]
10005882:	463b      	mov	r3, r7
10005884:	f44f 72c4 	mov.w	r2, #392	@ 0x188
10005888:	4916      	ldr	r1, [pc, #88]	@ (100058e4 <audiod_init+0xa0>)
1000588a:	4440      	add	r0, r8
1000588c:	f000 fc1a 	bl	100060c4 <tu_fifo_config>
10005890:	f8df 9064 	ldr.w	r9, [pc, #100]	@ 100058f8 <audiod_init+0xb4>
10005894:	4648      	mov	r0, r9
10005896:	f7fb fc81 	bl	1000119c <mutex_init>
1000589a:	f8c4 9054 	str.w	r9, [r4, #84]	@ 0x54
1000589e:	f04f 0900 	mov.w	r9, #0
100058a2:	f8c4 9058 	str.w	r9, [r4, #88]	@ 0x58
100058a6:	4b10      	ldr	r3, [pc, #64]	@ (100058e8 <audiod_init+0xa4>)
100058a8:	66a3      	str	r3, [r4, #104]	@ 0x68
100058aa:	f105 0030 	add.w	r0, r5, #48	@ 0x30
100058ae:	4440      	add	r0, r8
100058b0:	9700      	str	r7, [sp, #0]
100058b2:	463b      	mov	r3, r7
100058b4:	f44f 7244 	mov.w	r2, #784	@ 0x310
100058b8:	490c      	ldr	r1, [pc, #48]	@ (100058ec <audiod_init+0xa8>)
100058ba:	3004      	adds	r0, #4
100058bc:	f000 fc02 	bl	100060c4 <tu_fifo_config>
100058c0:	4d0b      	ldr	r5, [pc, #44]	@ (100058f0 <audiod_init+0xac>)
100058c2:	4628      	mov	r0, r5
100058c4:	f7fb fc6a 	bl	1000119c <mutex_init>
100058c8:	f8c4 9040 	str.w	r9, [r4, #64]	@ 0x40
100058cc:	6465      	str	r5, [r4, #68]	@ 0x44
100058ce:	4b09      	ldr	r3, [pc, #36]	@ (100058f4 <audiod_init+0xb0>)
100058d0:	6663      	str	r3, [r4, #100]	@ 0x64
100058d2:	443e      	add	r6, r7
100058d4:	b2f6      	uxtb	r6, r6
100058d6:	e7be      	b.n	10005856 <audiod_init+0x12>
100058d8:	2000103c 	.word	0x2000103c
100058dc:	20001760 	.word	0x20001760
100058e0:	20001284 	.word	0x20001284
100058e4:	20001288 	.word	0x20001288
100058e8:	20001bbc 	.word	0x20001bbc
100058ec:	20001410 	.word	0x20001410
100058f0:	200017b0 	.word	0x200017b0
100058f4:	20001c80 	.word	0x20001c80
100058f8:	200017a8 	.word	0x200017a8

100058fc <audiod_deinit>:
100058fc:	2000      	movs	r0, #0
100058fe:	4770      	bx	lr

10005900 <audiod_reset>:
10005900:	b570      	push	{r4, r5, r6, lr}
10005902:	2500      	movs	r5, #0
10005904:	b105      	cbz	r5, 10005908 <audiod_reset+0x8>
10005906:	bd70      	pop	{r4, r5, r6, pc}
10005908:	246c      	movs	r4, #108	@ 0x6c
1000590a:	fb05 f404 	mul.w	r4, r5, r4
1000590e:	4e0a      	ldr	r6, [pc, #40]	@ (10005938 <audiod_reset+0x38>)
10005910:	2228      	movs	r2, #40	@ 0x28
10005912:	2100      	movs	r1, #0
10005914:	1930      	adds	r0, r6, r4
10005916:	f000 fca3 	bl	10006260 <memset>
1000591a:	f104 0048 	add.w	r0, r4, #72	@ 0x48
1000591e:	4430      	add	r0, r6
10005920:	f000 fc81 	bl	10006226 <tu_fifo_clear>
10005924:	f104 0030 	add.w	r0, r4, #48	@ 0x30
10005928:	4430      	add	r0, r6
1000592a:	3004      	adds	r0, #4
1000592c:	f000 fc7b 	bl	10006226 <tu_fifo_clear>
10005930:	3501      	adds	r5, #1
10005932:	b2ed      	uxtb	r5, r5
10005934:	e7e6      	b.n	10005904 <audiod_reset+0x4>
10005936:	bf00      	nop
10005938:	2000103c 	.word	0x2000103c

1000593c <audiod_open>:
1000593c:	b5f8      	push	{r3, r4, r5, r6, r7, lr}
1000593e:	794b      	ldrb	r3, [r1, #5]
10005940:	2b01      	cmp	r3, #1
10005942:	f040 80b4 	bne.w	10005aae <audiod_open+0x172>
10005946:	460c      	mov	r4, r1
10005948:	798b      	ldrb	r3, [r1, #6]
1000594a:	2b01      	cmp	r3, #1
1000594c:	f040 80b1 	bne.w	10005ab2 <audiod_open+0x176>
10005950:	79cb      	ldrb	r3, [r1, #7]
10005952:	2b20      	cmp	r3, #32
10005954:	f040 80af 	bne.w	10005ab6 <audiod_open+0x17a>
10005958:	790b      	ldrb	r3, [r1, #4]
1000595a:	2b01      	cmp	r3, #1
1000595c:	d80f      	bhi.n	1000597e <audiod_open+0x42>
1000595e:	78cd      	ldrb	r5, [r1, #3]
10005960:	2d00      	cmp	r5, #0
10005962:	f040 80aa 	bne.w	10005aba <audiod_open+0x17e>
10005966:	b1d5      	cbz	r5, 1000599e <audiod_open+0x62>
10005968:	2d00      	cmp	r5, #0
1000596a:	f040 8090 	bne.w	10005a8e <audiod_open+0x152>
1000596e:	4b54      	ldr	r3, [pc, #336]	@ (10005ac0 <audiod_open+0x184>)
10005970:	226c      	movs	r2, #108	@ 0x6c
10005972:	fb02 3305 	mla	r3, r2, r5, r3
10005976:	8a98      	ldrh	r0, [r3, #20]
10005978:	3808      	subs	r0, #8
1000597a:	b280      	uxth	r0, r0
1000597c:	e098      	b.n	10005ab0 <audiod_open+0x174>
1000597e:	f240 6251 	movw	r2, #1617	@ 0x651
10005982:	4950      	ldr	r1, [pc, #320]	@ (10005ac4 <audiod_open+0x188>)
10005984:	4850      	ldr	r0, [pc, #320]	@ (10005ac8 <audiod_open+0x18c>)
10005986:	f7fd fecb 	bl	10003720 <__wrap_printf>
1000598a:	f04f 23e0 	mov.w	r3, #3758153728	@ 0xe000e000
1000598e:	f8d3 3df0 	ldr.w	r3, [r3, #3568]	@ 0xdf0
10005992:	f013 0f01 	tst.w	r3, #1
10005996:	d000      	beq.n	1000599a <audiod_open+0x5e>
10005998:	be00      	bkpt	0x0000
1000599a:	2000      	movs	r0, #0
1000599c:	e088      	b.n	10005ab0 <audiod_open+0x174>
1000599e:	462e      	mov	r6, r5
100059a0:	4b47      	ldr	r3, [pc, #284]	@ (10005ac0 <audiod_open+0x184>)
100059a2:	226c      	movs	r2, #108	@ 0x6c
100059a4:	fb02 3305 	mla	r3, r2, r5, r3
100059a8:	685b      	ldr	r3, [r3, #4]
100059aa:	b113      	cbz	r3, 100059b2 <audiod_open+0x76>
100059ac:	3501      	adds	r5, #1
100059ae:	b2ed      	uxtb	r5, r5
100059b0:	e7d9      	b.n	10005966 <audiod_open+0x2a>
100059b2:	4943      	ldr	r1, [pc, #268]	@ (10005ac0 <audiod_open+0x184>)
100059b4:	4613      	mov	r3, r2
100059b6:	fb05 f303 	mul.w	r3, r5, r3
100059ba:	18ca      	adds	r2, r1, r3
100059bc:	6054      	str	r4, [r2, #4]
100059be:	54c8      	strb	r0, [r1, r3]
100059c0:	f240 133f 	movw	r3, #319	@ 0x13f
100059c4:	8293      	strh	r3, [r2, #20]
100059c6:	f204 1737 	addw	r7, r4, #311	@ 0x137
100059ca:	4623      	mov	r3, r4
100059cc:	e006      	b.n	100059dc <audiod_open+0xa0>
100059ce:	78da      	ldrb	r2, [r3, #3]
100059d0:	f002 0103 	and.w	r1, r2, #3
100059d4:	2901      	cmp	r1, #1
100059d6:	d019      	beq.n	10005a0c <audiod_open+0xd0>
100059d8:	781a      	ldrb	r2, [r3, #0]
100059da:	4413      	add	r3, r2
100059dc:	1afa      	subs	r2, r7, r3
100059de:	2a00      	cmp	r2, #0
100059e0:	dd24      	ble.n	10005a2c <audiod_open+0xf0>
100059e2:	785a      	ldrb	r2, [r3, #1]
100059e4:	2a05      	cmp	r2, #5
100059e6:	d0f2      	beq.n	100059ce <audiod_open+0x92>
100059e8:	2a24      	cmp	r2, #36	@ 0x24
100059ea:	d1f5      	bne.n	100059d8 <audiod_open+0x9c>
100059ec:	789a      	ldrb	r2, [r3, #2]
100059ee:	2a03      	cmp	r2, #3
100059f0:	d1f2      	bne.n	100059d8 <audiod_open+0x9c>
100059f2:	8899      	ldrh	r1, [r3, #4]
100059f4:	f240 1201 	movw	r2, #257	@ 0x101
100059f8:	4291      	cmp	r1, r2
100059fa:	d1ed      	bne.n	100059d8 <audiod_open+0x9c>
100059fc:	7a19      	ldrb	r1, [r3, #8]
100059fe:	4a30      	ldr	r2, [pc, #192]	@ (10005ac0 <audiod_open+0x184>)
10005a00:	206c      	movs	r0, #108	@ 0x6c
10005a02:	fb00 2206 	mla	r2, r0, r6, r2
10005a06:	f882 1022 	strb.w	r1, [r2, #34]	@ 0x22
10005a0a:	e7e5      	b.n	100059d8 <audiod_open+0x9c>
10005a0c:	f012 0f30 	tst.w	r2, #48	@ 0x30
10005a10:	d1e2      	bne.n	100059d8 <audiod_open+0x9c>
10005a12:	789a      	ldrb	r2, [r3, #2]
10005a14:	09d2      	lsrs	r2, r2, #7
10005a16:	d0df      	beq.n	100059d8 <audiod_open+0x9c>
10005a18:	7999      	ldrb	r1, [r3, #6]
10005a1a:	4a29      	ldr	r2, [pc, #164]	@ (10005ac0 <audiod_open+0x184>)
10005a1c:	206c      	movs	r0, #108	@ 0x6c
10005a1e:	fb00 2206 	mla	r2, r0, r6, r2
10005a22:	f882 1023 	strb.w	r1, [r2, #35]	@ 0x23
10005a26:	e7d7      	b.n	100059d8 <audiod_open+0x9c>
10005a28:	7823      	ldrb	r3, [r4, #0]
10005a2a:	441c      	add	r4, r3
10005a2c:	1b3b      	subs	r3, r7, r4
10005a2e:	2b00      	cmp	r3, #0
10005a30:	dd26      	ble.n	10005a80 <audiod_open+0x144>
10005a32:	7863      	ldrb	r3, [r4, #1]
10005a34:	2b05      	cmp	r3, #5
10005a36:	d1f7      	bne.n	10005a28 <audiod_open+0xec>
10005a38:	78a3      	ldrb	r3, [r4, #2]
10005a3a:	09da      	lsrs	r2, r3, #7
10005a3c:	d0f4      	beq.n	10005a28 <audiod_open+0xec>
10005a3e:	78e2      	ldrb	r2, [r4, #3]
10005a40:	f002 0203 	and.w	r2, r2, #3
10005a44:	2a03      	cmp	r2, #3
10005a46:	d1ef      	bne.n	10005a28 <audiod_open+0xec>
10005a48:	481d      	ldr	r0, [pc, #116]	@ (10005ac0 <audiod_open+0x184>)
10005a4a:	226c      	movs	r2, #108	@ 0x6c
10005a4c:	fb06 f202 	mul.w	r2, r6, r2
10005a50:	1881      	adds	r1, r0, r2
10005a52:	744b      	strb	r3, [r1, #17]
10005a54:	4621      	mov	r1, r4
10005a56:	5c80      	ldrb	r0, [r0, r2]
10005a58:	f7fe fc54 	bl	10004304 <usbd_edpt_open>
10005a5c:	2800      	cmp	r0, #0
10005a5e:	d1e3      	bne.n	10005a28 <audiod_open+0xec>
10005a60:	f240 62f6 	movw	r2, #1782	@ 0x6f6
10005a64:	4917      	ldr	r1, [pc, #92]	@ (10005ac4 <audiod_open+0x188>)
10005a66:	4818      	ldr	r0, [pc, #96]	@ (10005ac8 <audiod_open+0x18c>)
10005a68:	f7fd fe5a 	bl	10003720 <__wrap_printf>
10005a6c:	f04f 23e0 	mov.w	r3, #3758153728	@ 0xe000e000
10005a70:	f8d3 3df0 	ldr.w	r3, [r3, #3568]	@ 0xdf0
10005a74:	f013 0f01 	tst.w	r3, #1
10005a78:	d000      	beq.n	10005a7c <audiod_open+0x140>
10005a7a:	be00      	bkpt	0x0000
10005a7c:	2000      	movs	r0, #0
10005a7e:	e017      	b.n	10005ab0 <audiod_open+0x174>
10005a80:	4b0f      	ldr	r3, [pc, #60]	@ (10005ac0 <audiod_open+0x184>)
10005a82:	226c      	movs	r2, #108	@ 0x6c
10005a84:	fb02 3306 	mla	r3, r2, r6, r3
10005a88:	2201      	movs	r2, #1
10005a8a:	749a      	strb	r2, [r3, #18]
10005a8c:	e76c      	b.n	10005968 <audiod_open+0x2c>
10005a8e:	f240 7204 	movw	r2, #1796	@ 0x704
10005a92:	490c      	ldr	r1, [pc, #48]	@ (10005ac4 <audiod_open+0x188>)
10005a94:	480c      	ldr	r0, [pc, #48]	@ (10005ac8 <audiod_open+0x18c>)
10005a96:	f7fd fe43 	bl	10003720 <__wrap_printf>
10005a9a:	f04f 23e0 	mov.w	r3, #3758153728	@ 0xe000e000
10005a9e:	f8d3 3df0 	ldr.w	r3, [r3, #3568]	@ 0xdf0
10005aa2:	f013 0f01 	tst.w	r3, #1
10005aa6:	d000      	beq.n	10005aaa <audiod_open+0x16e>
10005aa8:	be00      	bkpt	0x0000
10005aaa:	2000      	movs	r0, #0
10005aac:	e000      	b.n	10005ab0 <audiod_open+0x174>
10005aae:	2000      	movs	r0, #0
10005ab0:	bdf8      	pop	{r3, r4, r5, r6, r7, pc}
10005ab2:	2000      	movs	r0, #0
10005ab4:	e7fc      	b.n	10005ab0 <audiod_open+0x174>
10005ab6:	2000      	movs	r0, #0
10005ab8:	e7fa      	b.n	10005ab0 <audiod_open+0x174>
10005aba:	2000      	movs	r0, #0
10005abc:	e7f8      	b.n	10005ab0 <audiod_open+0x174>
10005abe:	bf00      	nop
10005ac0:	2000103c 	.word	0x2000103c
10005ac4:	100075ac 	.word	0x100075ac
10005ac8:	100064f0 	.word	0x100064f0

10005acc <audiod_control_xfer_cb>:
10005acc:	b508      	push	{r3, lr}
10005ace:	2901      	cmp	r1, #1
10005ad0:	d003      	beq.n	10005ada <audiod_control_xfer_cb+0xe>
10005ad2:	2902      	cmp	r1, #2
10005ad4:	d005      	beq.n	10005ae2 <audiod_control_xfer_cb+0x16>
10005ad6:	2001      	movs	r0, #1
10005ad8:	bd08      	pop	{r3, pc}
10005ada:	4611      	mov	r1, r2
10005adc:	f7ff fdb2 	bl	10005644 <audiod_control_request>
10005ae0:	e7fa      	b.n	10005ad8 <audiod_control_xfer_cb+0xc>
10005ae2:	4611      	mov	r1, r2
10005ae4:	f7ff fd4e 	bl	10005584 <audiod_control_complete>
10005ae8:	e7f6      	b.n	10005ad8 <audiod_control_xfer_cb+0xc>
	...

10005aec <audiod_xfer_cb>:
10005aec:	2200      	movs	r2, #0
10005aee:	b1aa      	cbz	r2, 10005b1c <audiod_xfer_cb+0x30>
10005af0:	2000      	movs	r0, #0
10005af2:	4770      	bx	lr
10005af4:	f7ff fc27 	bl	10005346 <tud_audio_int_done_cb>
10005af8:	2001      	movs	r0, #1
10005afa:	e030      	b.n	10005b5e <audiod_xfer_cb+0x72>
10005afc:	4c18      	ldr	r4, [pc, #96]	@ (10005b60 <audiod_xfer_cb+0x74>)
10005afe:	f04f 0e6c 	mov.w	lr, #108	@ 0x6c
10005b02:	fb0e 4402 	mla	r4, lr, r2, r4
10005b06:	6b24      	ldr	r4, [r4, #48]	@ 0x30
10005b08:	b1e4      	cbz	r4, 10005b44 <audiod_xfer_cb+0x58>
10005b0a:	4661      	mov	r1, ip
10005b0c:	f7ff fb8a 	bl	10005224 <audiod_tx_done_cb>
10005b10:	e025      	b.n	10005b5e <audiod_xfer_cb+0x72>
10005b12:	b29a      	uxth	r2, r3
10005b14:	4661      	mov	r1, ip
10005b16:	f7ff fbd6 	bl	100052c6 <audiod_rx_done_cb>
10005b1a:	e020      	b.n	10005b5e <audiod_xfer_cb+0x72>
10005b1c:	b538      	push	{r3, r4, r5, lr}
10005b1e:	4615      	mov	r5, r2
10005b20:	f04f 0c6c 	mov.w	ip, #108	@ 0x6c
10005b24:	4c0e      	ldr	r4, [pc, #56]	@ (10005b60 <audiod_xfer_cb+0x74>)
10005b26:	fb0c 4c02 	mla	ip, ip, r2, r4
10005b2a:	f89c 4011 	ldrb.w	r4, [ip, #17]
10005b2e:	428c      	cmp	r4, r1
10005b30:	d0e0      	beq.n	10005af4 <audiod_xfer_cb+0x8>
10005b32:	4c0b      	ldr	r4, [pc, #44]	@ (10005b60 <audiod_xfer_cb+0x74>)
10005b34:	f04f 0e6c 	mov.w	lr, #108	@ 0x6c
10005b38:	fb0e 4e02 	mla	lr, lr, r2, r4
10005b3c:	f89e 4008 	ldrb.w	r4, [lr, #8]
10005b40:	428c      	cmp	r4, r1
10005b42:	d0db      	beq.n	10005afc <audiod_xfer_cb+0x10>
10005b44:	4c06      	ldr	r4, [pc, #24]	@ (10005b60 <audiod_xfer_cb+0x74>)
10005b46:	f04f 0e6c 	mov.w	lr, #108	@ 0x6c
10005b4a:	fb0e 4405 	mla	r4, lr, r5, r4
10005b4e:	7b64      	ldrb	r4, [r4, #13]
10005b50:	428c      	cmp	r4, r1
10005b52:	d0de      	beq.n	10005b12 <audiod_xfer_cb+0x26>
10005b54:	3201      	adds	r2, #1
10005b56:	b2d2      	uxtb	r2, r2
10005b58:	2a00      	cmp	r2, #0
10005b5a:	d0e0      	beq.n	10005b1e <audiod_xfer_cb+0x32>
10005b5c:	2000      	movs	r0, #0
10005b5e:	bd38      	pop	{r3, r4, r5, pc}
10005b60:	2000103c 	.word	0x2000103c

10005b64 <tud_audio_buffer_and_schedule_control_xfer>:
10005b64:	f991 c000 	ldrsb.w	ip, [r1]
10005b68:	f1bc 0f00 	cmp.w	ip, #0
10005b6c:	da74      	bge.n	10005c58 <tud_audio_buffer_and_schedule_control_xfer+0xf4>
10005b6e:	e92d 41f0 	stmdb	sp!, {r4, r5, r6, r7, r8, lr}
10005b72:	b082      	sub	sp, #8
10005b74:	4605      	mov	r5, r0
10005b76:	460c      	mov	r4, r1
10005b78:	4616      	mov	r6, r2
10005b7a:	461f      	mov	r7, r3
10005b7c:	8889      	ldrh	r1, [r1, #4]
10005b7e:	b2c8      	uxtb	r0, r1
10005b80:	f894 c000 	ldrb.w	ip, [r4]
10005b84:	f00c 0c1f 	and.w	ip, ip, #31
10005b88:	f1bc 0f01 	cmp.w	ip, #1
10005b8c:	d00c      	beq.n	10005ba8 <tud_audio_buffer_and_schedule_control_xfer+0x44>
10005b8e:	f1bc 0f02 	cmp.w	ip, #2
10005b92:	d017      	beq.n	10005bc4 <tud_audio_buffer_and_schedule_control_xfer+0x60>
10005b94:	f04f 23e0 	mov.w	r3, #3758153728	@ 0xe000e000
10005b98:	f8d3 3df0 	ldr.w	r3, [r3, #3568]	@ 0xdf0
10005b9c:	f013 0f01 	tst.w	r3, #1
10005ba0:	d05c      	beq.n	10005c5c <tud_audio_buffer_and_schedule_control_xfer+0xf8>
10005ba2:	be00      	bkpt	0x0000
10005ba4:	2000      	movs	r0, #0
10005ba6:	e03a      	b.n	10005c1e <tud_audio_buffer_and_schedule_control_xfer+0xba>
10005ba8:	0a09      	lsrs	r1, r1, #8
10005baa:	d005      	beq.n	10005bb8 <tud_audio_buffer_and_schedule_control_xfer+0x54>
10005bac:	f10d 0207 	add.w	r2, sp, #7
10005bb0:	f7ff f962 	bl	10004e78 <audiod_verify_entity_exists>
10005bb4:	b958      	cbnz	r0, 10005bce <tud_audio_buffer_and_schedule_control_xfer+0x6a>
10005bb6:	e032      	b.n	10005c1e <tud_audio_buffer_and_schedule_control_xfer+0xba>
10005bb8:	f10d 0107 	add.w	r1, sp, #7
10005bbc:	f7ff f98c 	bl	10004ed8 <audiod_verify_itf_exists>
10005bc0:	b928      	cbnz	r0, 10005bce <tud_audio_buffer_and_schedule_control_xfer+0x6a>
10005bc2:	e02c      	b.n	10005c1e <tud_audio_buffer_and_schedule_control_xfer+0xba>
10005bc4:	f10d 0107 	add.w	r1, sp, #7
10005bc8:	f7ff f9b0 	bl	10004f2c <audiod_verify_ep_exists>
10005bcc:	b338      	cbz	r0, 10005c1e <tud_audio_buffer_and_schedule_control_xfer+0xba>
10005bce:	f89d 1007 	ldrb.w	r1, [sp, #7]
10005bd2:	4b24      	ldr	r3, [pc, #144]	@ (10005c64 <tud_audio_buffer_and_schedule_control_xfer+0x100>)
10005bd4:	226c      	movs	r2, #108	@ 0x6c
10005bd6:	fb02 3301 	mla	r3, r2, r1, r3
10005bda:	f893 302c 	ldrb.w	r3, [r3, #44]	@ 0x2c
10005bde:	4698      	mov	r8, r3
10005be0:	42bb      	cmp	r3, r7
10005be2:	d300      	bcc.n	10005be6 <tud_audio_buffer_and_schedule_control_xfer+0x82>
10005be4:	46b8      	mov	r8, r7
10005be6:	4a1f      	ldr	r2, [pc, #124]	@ (10005c64 <tud_audio_buffer_and_schedule_control_xfer+0x100>)
10005be8:	206c      	movs	r0, #108	@ 0x6c
10005bea:	fb00 2201 	mla	r2, r0, r1, r2
10005bee:	6a90      	ldr	r0, [r2, #40]	@ 0x28
10005bf0:	4543      	cmp	r3, r8
10005bf2:	d335      	bcc.n	10005c60 <tud_audio_buffer_and_schedule_control_xfer+0xfc>
10005bf4:	4642      	mov	r2, r8
10005bf6:	4631      	mov	r1, r6
10005bf8:	f000 fb84 	bl	10006304 <memcpy>
10005bfc:	7823      	ldrb	r3, [r4, #0]
10005bfe:	f003 037f 	and.w	r3, r3, #127	@ 0x7f
10005c02:	2b21      	cmp	r3, #33	@ 0x21
10005c04:	d00e      	beq.n	10005c24 <tud_audio_buffer_and_schedule_control_xfer+0xc0>
10005c06:	f89d 3007 	ldrb.w	r3, [sp, #7]
10005c0a:	4a16      	ldr	r2, [pc, #88]	@ (10005c64 <tud_audio_buffer_and_schedule_control_xfer+0x100>)
10005c0c:	216c      	movs	r1, #108	@ 0x6c
10005c0e:	fb01 2203 	mla	r2, r1, r3, r2
10005c12:	4643      	mov	r3, r8
10005c14:	6a92      	ldr	r2, [r2, #40]	@ 0x28
10005c16:	4621      	mov	r1, r4
10005c18:	4628      	mov	r0, r5
10005c1a:	f7fe ffe7 	bl	10004bec <tud_control_xfer>
10005c1e:	b002      	add	sp, #8
10005c20:	e8bd 81f0 	ldmia.w	sp!, {r4, r5, r6, r7, r8, pc}
10005c24:	88a0      	ldrh	r0, [r4, #4]
10005c26:	8863      	ldrh	r3, [r4, #2]
10005c28:	0a1a      	lsrs	r2, r3, #8
10005c2a:	f89d 1007 	ldrb.w	r1, [sp, #7]
10005c2e:	4b0d      	ldr	r3, [pc, #52]	@ (10005c64 <tud_audio_buffer_and_schedule_control_xfer+0x100>)
10005c30:	266c      	movs	r6, #108	@ 0x6c
10005c32:	fb06 3301 	mla	r3, r6, r1, r3
10005c36:	f893 3022 	ldrb.w	r3, [r3, #34]	@ 0x22
10005c3a:	ebb3 2f10 	cmp.w	r3, r0, lsr #8
10005c3e:	d1e2      	bne.n	10005c06 <tud_audio_buffer_and_schedule_control_xfer+0xa2>
10005c40:	2a01      	cmp	r2, #1
10005c42:	d1e0      	bne.n	10005c06 <tud_audio_buffer_and_schedule_control_xfer+0xa2>
10005c44:	7863      	ldrb	r3, [r4, #1]
10005c46:	2b01      	cmp	r3, #1
10005c48:	d1dd      	bne.n	10005c06 <tud_audio_buffer_and_schedule_control_xfer+0xa2>
10005c4a:	4b06      	ldr	r3, [pc, #24]	@ (10005c64 <tud_audio_buffer_and_schedule_control_xfer+0x100>)
10005c4c:	fb06 3301 	mla	r3, r6, r1, r3
10005c50:	6a9a      	ldr	r2, [r3, #40]	@ 0x28
10005c52:	6812      	ldr	r2, [r2, #0]
10005c54:	619a      	str	r2, [r3, #24]
10005c56:	e7d6      	b.n	10005c06 <tud_audio_buffer_and_schedule_control_xfer+0xa2>
10005c58:	2000      	movs	r0, #0
10005c5a:	4770      	bx	lr
10005c5c:	2000      	movs	r0, #0
10005c5e:	e7de      	b.n	10005c1e <tud_audio_buffer_and_schedule_control_xfer+0xba>
10005c60:	2000      	movs	r0, #0
10005c62:	e7dc      	b.n	10005c1e <tud_audio_buffer_and_schedule_control_xfer+0xba>
10005c64:	2000103c 	.word	0x2000103c

10005c68 <tu_edpt_claim>:
10005c68:	b570      	push	{r4, r5, r6, lr}
10005c6a:	4604      	mov	r4, r0
10005c6c:	7803      	ldrb	r3, [r0, #0]
10005c6e:	f013 0001 	ands.w	r0, r3, #1
10005c72:	d11f      	bne.n	10005cb4 <tu_edpt_claim+0x4c>
10005c74:	460d      	mov	r5, r1
10005c76:	7823      	ldrb	r3, [r4, #0]
10005c78:	f3c3 0680 	ubfx	r6, r3, #2, #1
10005c7c:	f013 0f04 	tst.w	r3, #4
10005c80:	d119      	bne.n	10005cb6 <tu_edpt_claim+0x4e>
10005c82:	f04f 31ff 	mov.w	r1, #4294967295
10005c86:	4628      	mov	r0, r5
10005c88:	f000 fbe6 	bl	10006458 <__mutex_enter_timeout_ms_veneer>
10005c8c:	7823      	ldrb	r3, [r4, #0]
10005c8e:	f013 0301 	ands.w	r3, r3, #1
10005c92:	d108      	bne.n	10005ca6 <tu_edpt_claim+0x3e>
10005c94:	7822      	ldrb	r2, [r4, #0]
10005c96:	f012 0f04 	tst.w	r2, #4
10005c9a:	d109      	bne.n	10005cb0 <tu_edpt_claim+0x48>
10005c9c:	7823      	ldrb	r3, [r4, #0]
10005c9e:	f043 0304 	orr.w	r3, r3, #4
10005ca2:	7023      	strb	r3, [r4, #0]
10005ca4:	2601      	movs	r6, #1
10005ca6:	4628      	mov	r0, r5
10005ca8:	f000 fbea 	bl	10006480 <__mutex_exit_veneer>
10005cac:	4630      	mov	r0, r6
10005cae:	e002      	b.n	10005cb6 <tu_edpt_claim+0x4e>
10005cb0:	461e      	mov	r6, r3
10005cb2:	e7f8      	b.n	10005ca6 <tu_edpt_claim+0x3e>
10005cb4:	2000      	movs	r0, #0
10005cb6:	bd70      	pop	{r4, r5, r6, pc}

10005cb8 <tu_edpt_validate>:
10005cb8:	b508      	push	{r3, lr}
10005cba:	8883      	ldrh	r3, [r0, #4]
10005cbc:	f3c3 020a 	ubfx	r2, r3, #0, #11
10005cc0:	78c3      	ldrb	r3, [r0, #3]
10005cc2:	f003 0303 	and.w	r3, r3, #3
10005cc6:	2b02      	cmp	r3, #2
10005cc8:	d01d      	beq.n	10005d06 <tu_edpt_validate+0x4e>
10005cca:	2b03      	cmp	r3, #3
10005ccc:	d044      	beq.n	10005d58 <tu_edpt_validate+0xa0>
10005cce:	2b01      	cmp	r3, #1
10005cd0:	d15b      	bne.n	10005d8a <tu_edpt_validate+0xd2>
10005cd2:	2902      	cmp	r1, #2
10005cd4:	d005      	beq.n	10005ce2 <tu_edpt_validate+0x2a>
10005cd6:	f240 33ff 	movw	r3, #1023	@ 0x3ff
10005cda:	4293      	cmp	r3, r2
10005cdc:	d304      	bcc.n	10005ce8 <tu_edpt_validate+0x30>
10005cde:	2001      	movs	r0, #1
10005ce0:	e054      	b.n	10005d8c <tu_edpt_validate+0xd4>
10005ce2:	f44f 6380 	mov.w	r3, #1024	@ 0x400
10005ce6:	e7f8      	b.n	10005cda <tu_edpt_validate+0x22>
10005ce8:	2290      	movs	r2, #144	@ 0x90
10005cea:	4929      	ldr	r1, [pc, #164]	@ (10005d90 <tu_edpt_validate+0xd8>)
10005cec:	4829      	ldr	r0, [pc, #164]	@ (10005d94 <tu_edpt_validate+0xdc>)
10005cee:	f7fd fd17 	bl	10003720 <__wrap_printf>
10005cf2:	f04f 23e0 	mov.w	r3, #3758153728	@ 0xe000e000
10005cf6:	f8d3 3df0 	ldr.w	r3, [r3, #3568]	@ 0xdf0
10005cfa:	f013 0f01 	tst.w	r3, #1
10005cfe:	d000      	beq.n	10005d02 <tu_edpt_validate+0x4a>
10005d00:	be00      	bkpt	0x0000
10005d02:	2000      	movs	r0, #0
10005d04:	e042      	b.n	10005d8c <tu_edpt_validate+0xd4>
10005d06:	2902      	cmp	r1, #2
10005d08:	d003      	beq.n	10005d12 <tu_edpt_validate+0x5a>
10005d0a:	2a40      	cmp	r2, #64	@ 0x40
10005d0c:	d815      	bhi.n	10005d3a <tu_edpt_validate+0x82>
10005d0e:	2001      	movs	r0, #1
10005d10:	e03c      	b.n	10005d8c <tu_edpt_validate+0xd4>
10005d12:	f5b2 7f00 	cmp.w	r2, #512	@ 0x200
10005d16:	d101      	bne.n	10005d1c <tu_edpt_validate+0x64>
10005d18:	2001      	movs	r0, #1
10005d1a:	e037      	b.n	10005d8c <tu_edpt_validate+0xd4>
10005d1c:	2297      	movs	r2, #151	@ 0x97
10005d1e:	491c      	ldr	r1, [pc, #112]	@ (10005d90 <tu_edpt_validate+0xd8>)
10005d20:	481c      	ldr	r0, [pc, #112]	@ (10005d94 <tu_edpt_validate+0xdc>)
10005d22:	f7fd fcfd 	bl	10003720 <__wrap_printf>
10005d26:	f04f 23e0 	mov.w	r3, #3758153728	@ 0xe000e000
10005d2a:	f8d3 3df0 	ldr.w	r3, [r3, #3568]	@ 0xdf0
10005d2e:	f013 0f01 	tst.w	r3, #1
10005d32:	d000      	beq.n	10005d36 <tu_edpt_validate+0x7e>
10005d34:	be00      	bkpt	0x0000
10005d36:	2000      	movs	r0, #0
10005d38:	e028      	b.n	10005d8c <tu_edpt_validate+0xd4>
10005d3a:	229a      	movs	r2, #154	@ 0x9a
10005d3c:	4914      	ldr	r1, [pc, #80]	@ (10005d90 <tu_edpt_validate+0xd8>)
10005d3e:	4815      	ldr	r0, [pc, #84]	@ (10005d94 <tu_edpt_validate+0xdc>)
10005d40:	f7fd fcee 	bl	10003720 <__wrap_printf>
10005d44:	f04f 23e0 	mov.w	r3, #3758153728	@ 0xe000e000
10005d48:	f8d3 3df0 	ldr.w	r3, [r3, #3568]	@ 0xdf0
10005d4c:	f013 0f01 	tst.w	r3, #1
10005d50:	d000      	beq.n	10005d54 <tu_edpt_validate+0x9c>
10005d52:	be00      	bkpt	0x0000
10005d54:	2000      	movs	r0, #0
10005d56:	e019      	b.n	10005d8c <tu_edpt_validate+0xd4>
10005d58:	2902      	cmp	r1, #2
10005d5a:	d004      	beq.n	10005d66 <tu_edpt_validate+0xae>
10005d5c:	2340      	movs	r3, #64	@ 0x40
10005d5e:	4293      	cmp	r3, r2
10005d60:	d304      	bcc.n	10005d6c <tu_edpt_validate+0xb4>
10005d62:	2001      	movs	r0, #1
10005d64:	e012      	b.n	10005d8c <tu_edpt_validate+0xd4>
10005d66:	f44f 6380 	mov.w	r3, #1024	@ 0x400
10005d6a:	e7f8      	b.n	10005d5e <tu_edpt_validate+0xa6>
10005d6c:	22a0      	movs	r2, #160	@ 0xa0
10005d6e:	4908      	ldr	r1, [pc, #32]	@ (10005d90 <tu_edpt_validate+0xd8>)
10005d70:	4808      	ldr	r0, [pc, #32]	@ (10005d94 <tu_edpt_validate+0xdc>)
10005d72:	f7fd fcd5 	bl	10003720 <__wrap_printf>
10005d76:	f04f 23e0 	mov.w	r3, #3758153728	@ 0xe000e000
10005d7a:	f8d3 3df0 	ldr.w	r3, [r3, #3568]	@ 0xdf0
10005d7e:	f013 0f01 	tst.w	r3, #1
10005d82:	d000      	beq.n	10005d86 <tu_edpt_validate+0xce>
10005d84:	be00      	bkpt	0x0000
10005d86:	2000      	movs	r0, #0
10005d88:	e000      	b.n	10005d8c <tu_edpt_validate+0xd4>
10005d8a:	2000      	movs	r0, #0
10005d8c:	bd08      	pop	{r3, pc}
10005d8e:	bf00      	nop
10005d90:	100075d0 	.word	0x100075d0
10005d94:	100064f0 	.word	0x100064f0

10005d98 <tu_edpt_bind_driver>:
10005d98:	440a      	add	r2, r1
10005d9a:	e004      	b.n	10005da6 <tu_edpt_bind_driver+0xe>
10005d9c:	f85d fb04 	ldr.w	pc, [sp], #4
10005da0:	f891 c000 	ldrb.w	ip, [r1]
10005da4:	4461      	add	r1, ip
10005da6:	4291      	cmp	r1, r2
10005da8:	d21a      	bcs.n	10005de0 <tu_edpt_bind_driver+0x48>
10005daa:	f891 c001 	ldrb.w	ip, [r1, #1]
10005dae:	f1bc 0f05 	cmp.w	ip, #5
10005db2:	d1f5      	bne.n	10005da0 <tu_edpt_bind_driver+0x8>
10005db4:	b500      	push	{lr}
10005db6:	f891 c002 	ldrb.w	ip, [r1, #2]
10005dba:	f00c 0e7f 	and.w	lr, ip, #127	@ 0x7f
10005dbe:	eb00 0e4e 	add.w	lr, r0, lr, lsl #1
10005dc2:	ea4f 1cdc 	mov.w	ip, ip, lsr #7
10005dc6:	f80e 300c 	strb.w	r3, [lr, ip]
10005dca:	f891 c000 	ldrb.w	ip, [r1]
10005dce:	4461      	add	r1, ip
10005dd0:	4291      	cmp	r1, r2
10005dd2:	d2e3      	bcs.n	10005d9c <tu_edpt_bind_driver+0x4>
10005dd4:	f891 c001 	ldrb.w	ip, [r1, #1]
10005dd8:	f1bc 0f05 	cmp.w	ip, #5
10005ddc:	d1f5      	bne.n	10005dca <tu_edpt_bind_driver+0x32>
10005dde:	e7ea      	b.n	10005db6 <tu_edpt_bind_driver+0x1e>
10005de0:	4770      	bx	lr

10005de2 <advance_index>:
10005de2:	4603      	mov	r3, r0
10005de4:	440a      	add	r2, r1
10005de6:	b290      	uxth	r0, r2
10005de8:	4281      	cmp	r1, r0
10005dea:	d802      	bhi.n	10005df2 <advance_index+0x10>
10005dec:	ebb0 0f43 	cmp.w	r0, r3, lsl #1
10005df0:	db03      	blt.n	10005dfa <advance_index+0x18>
10005df2:	005b      	lsls	r3, r3, #1
10005df4:	b29b      	uxth	r3, r3
10005df6:	1ac0      	subs	r0, r0, r3
10005df8:	b280      	uxth	r0, r0
10005dfa:	4770      	bx	lr

10005dfc <_tu_fifo_peek>:
10005dfc:	b510      	push	{r4, lr}
10005dfe:	4686      	mov	lr, r0
10005e00:	4608      	mov	r0, r1
10005e02:	f8be c004 	ldrh.w	ip, [lr, #4]
10005e06:	429a      	cmp	r2, r3
10005e08:	d30c      	bcc.n	10005e24 <_tu_fifo_peek+0x28>
10005e0a:	1ad4      	subs	r4, r2, r3
10005e0c:	b2a4      	uxth	r4, r4
10005e0e:	b324      	cbz	r4, 10005e5a <_tu_fifo_peek+0x5e>
10005e10:	45a4      	cmp	ip, r4
10005e12:	d214      	bcs.n	10005e3e <_tu_fifo_peek+0x42>
10005e14:	4594      	cmp	ip, r2
10005e16:	d80c      	bhi.n	10005e32 <_tu_fifo_peek+0x36>
10005e18:	eba2 020c 	sub.w	r2, r2, ip
10005e1c:	b293      	uxth	r3, r2
10005e1e:	f8ae 300a 	strh.w	r3, [lr, #10]
10005e22:	e00c      	b.n	10005e3e <_tu_fifo_peek+0x42>
10005e24:	1ad4      	subs	r4, r2, r3
10005e26:	ea4f 014c 	mov.w	r1, ip, lsl #1
10005e2a:	fa11 f484 	uxtah	r4, r1, r4
10005e2e:	b2a4      	uxth	r4, r4
10005e30:	e7ed      	b.n	10005e0e <_tu_fifo_peek+0x12>
10005e32:	4462      	add	r2, ip
10005e34:	b293      	uxth	r3, r2
10005e36:	e7f2      	b.n	10005e1e <_tu_fifo_peek+0x22>
10005e38:	eba3 030c 	sub.w	r3, r3, ip
10005e3c:	b29b      	uxth	r3, r3
10005e3e:	459c      	cmp	ip, r3
10005e40:	d9fa      	bls.n	10005e38 <_tu_fifo_peek+0x3c>
10005e42:	f8de 1000 	ldr.w	r1, [lr]
10005e46:	f8be 2006 	ldrh.w	r2, [lr, #6]
10005e4a:	f3c2 020e 	ubfx	r2, r2, #0, #15
10005e4e:	fb02 1103 	mla	r1, r2, r3, r1
10005e52:	f000 fa57 	bl	10006304 <memcpy>
10005e56:	2001      	movs	r0, #1
10005e58:	bd10      	pop	{r4, pc}
10005e5a:	2000      	movs	r0, #0
10005e5c:	e7fc      	b.n	10005e58 <_tu_fifo_peek+0x5c>

10005e5e <_ff_pull_n>:
10005e5e:	e92d 43f8 	stmdb	sp!, {r3, r4, r5, r6, r7, r8, r9, lr}
10005e62:	4604      	mov	r4, r0
10005e64:	460d      	mov	r5, r1
10005e66:	f89d 8020 	ldrb.w	r8, [sp, #32]
10005e6a:	f8b0 c004 	ldrh.w	ip, [r0, #4]
10005e6e:	ebac 0003 	sub.w	r0, ip, r3
10005e72:	b280      	uxth	r0, r0
10005e74:	eba3 0c0c 	sub.w	ip, r3, ip
10005e78:	4494      	add	ip, r2
10005e7a:	fa1f fc8c 	uxth.w	ip, ip
10005e7e:	88e1      	ldrh	r1, [r4, #6]
10005e80:	f3c1 0e0e 	ubfx	lr, r1, #0, #15
10005e84:	46f1      	mov	r9, lr
10005e86:	fb1e f700 	smulbb	r7, lr, r0
10005e8a:	fb1e fe0c 	smulbb	lr, lr, ip
10005e8e:	6821      	ldr	r1, [r4, #0]
10005e90:	fb09 1103 	mla	r1, r9, r3, r1
10005e94:	f1b8 0f00 	cmp.w	r8, #0
10005e98:	d109      	bne.n	10005eae <_ff_pull_n+0x50>
10005e9a:	b2bf      	uxth	r7, r7
10005e9c:	fa1f f68e 	uxth.w	r6, lr
10005ea0:	4290      	cmp	r0, r2
10005ea2:	d306      	bcc.n	10005eb2 <_ff_pull_n+0x54>
10005ea4:	fb09 f202 	mul.w	r2, r9, r2
10005ea8:	4628      	mov	r0, r5
10005eaa:	f000 fa2b 	bl	10006304 <memcpy>
10005eae:	e8bd 83f8 	ldmia.w	sp!, {r3, r4, r5, r6, r7, r8, r9, pc}
10005eb2:	463a      	mov	r2, r7
10005eb4:	4628      	mov	r0, r5
10005eb6:	f000 fa25 	bl	10006304 <memcpy>
10005eba:	4632      	mov	r2, r6
10005ebc:	6821      	ldr	r1, [r4, #0]
10005ebe:	19e8      	adds	r0, r5, r7
10005ec0:	f000 fa20 	bl	10006304 <memcpy>
10005ec4:	e7f3      	b.n	10005eae <_ff_pull_n+0x50>

10005ec6 <_tu_fifo_peek_n>:
10005ec6:	b530      	push	{r4, r5, lr}
10005ec8:	b083      	sub	sp, #12
10005eca:	469e      	mov	lr, r3
10005ecc:	f8bd 3018 	ldrh.w	r3, [sp, #24]
10005ed0:	f8b0 c004 	ldrh.w	ip, [r0, #4]
10005ed4:	459e      	cmp	lr, r3
10005ed6:	d311      	bcc.n	10005efc <_tu_fifo_peek_n+0x36>
10005ed8:	ebae 0403 	sub.w	r4, lr, r3
10005edc:	b2a4      	uxth	r4, r4
10005ede:	b324      	cbz	r4, 10005f2a <_tu_fifo_peek_n+0x64>
10005ee0:	45a4      	cmp	ip, r4
10005ee2:	d207      	bcs.n	10005ef4 <_tu_fifo_peek_n+0x2e>
10005ee4:	45f4      	cmp	ip, lr
10005ee6:	d811      	bhi.n	10005f0c <_tu_fifo_peek_n+0x46>
10005ee8:	ebae 0e0c 	sub.w	lr, lr, ip
10005eec:	fa1f f38e 	uxth.w	r3, lr
10005ef0:	8143      	strh	r3, [r0, #10]
10005ef2:	4664      	mov	r4, ip
10005ef4:	4294      	cmp	r4, r2
10005ef6:	d310      	bcc.n	10005f1a <_tu_fifo_peek_n+0x54>
10005ef8:	4614      	mov	r4, r2
10005efa:	e00e      	b.n	10005f1a <_tu_fifo_peek_n+0x54>
10005efc:	ebae 0403 	sub.w	r4, lr, r3
10005f00:	ea4f 054c 	mov.w	r5, ip, lsl #1
10005f04:	fa15 f484 	uxtah	r4, r5, r4
10005f08:	b2a4      	uxth	r4, r4
10005f0a:	e7e8      	b.n	10005ede <_tu_fifo_peek_n+0x18>
10005f0c:	44e6      	add	lr, ip
10005f0e:	fa1f f38e 	uxth.w	r3, lr
10005f12:	e7ed      	b.n	10005ef0 <_tu_fifo_peek_n+0x2a>
10005f14:	eba3 030c 	sub.w	r3, r3, ip
10005f18:	b29b      	uxth	r3, r3
10005f1a:	459c      	cmp	ip, r3
10005f1c:	d9fa      	bls.n	10005f14 <_tu_fifo_peek_n+0x4e>
10005f1e:	f89d 201c 	ldrb.w	r2, [sp, #28]
10005f22:	9200      	str	r2, [sp, #0]
10005f24:	4622      	mov	r2, r4
10005f26:	f7ff ff9a 	bl	10005e5e <_ff_pull_n>
10005f2a:	4620      	mov	r0, r4
10005f2c:	b003      	add	sp, #12
10005f2e:	bd30      	pop	{r4, r5, pc}

10005f30 <_tu_fifo_read_n>:
10005f30:	b5f0      	push	{r4, r5, r6, r7, lr}
10005f32:	b083      	sub	sp, #12
10005f34:	4604      	mov	r4, r0
10005f36:	460d      	mov	r5, r1
10005f38:	4616      	mov	r6, r2
10005f3a:	461f      	mov	r7, r3
10005f3c:	6900      	ldr	r0, [r0, #16]
10005f3e:	b118      	cbz	r0, 10005f48 <_tu_fifo_read_n+0x18>
10005f40:	f04f 31ff 	mov.w	r1, #4294967295
10005f44:	f000 fa88 	bl	10006458 <__mutex_enter_timeout_ms_veneer>
10005f48:	8923      	ldrh	r3, [r4, #8]
10005f4a:	8962      	ldrh	r2, [r4, #10]
10005f4c:	b292      	uxth	r2, r2
10005f4e:	9701      	str	r7, [sp, #4]
10005f50:	9200      	str	r2, [sp, #0]
10005f52:	b29b      	uxth	r3, r3
10005f54:	4632      	mov	r2, r6
10005f56:	4629      	mov	r1, r5
10005f58:	4620      	mov	r0, r4
10005f5a:	f7ff ffb4 	bl	10005ec6 <_tu_fifo_peek_n>
10005f5e:	4605      	mov	r5, r0
10005f60:	8961      	ldrh	r1, [r4, #10]
10005f62:	4602      	mov	r2, r0
10005f64:	b289      	uxth	r1, r1
10005f66:	88a0      	ldrh	r0, [r4, #4]
10005f68:	f7ff ff3b 	bl	10005de2 <advance_index>
10005f6c:	8160      	strh	r0, [r4, #10]
10005f6e:	6920      	ldr	r0, [r4, #16]
10005f70:	b108      	cbz	r0, 10005f76 <_tu_fifo_read_n+0x46>
10005f72:	f000 fa85 	bl	10006480 <__mutex_exit_veneer>
10005f76:	4628      	mov	r0, r5
10005f78:	b003      	add	sp, #12
10005f7a:	bdf0      	pop	{r4, r5, r6, r7, pc}

10005f7c <_ff_push_n>:
10005f7c:	e92d 41f0 	stmdb	sp!, {r4, r5, r6, r7, r8, lr}
10005f80:	4604      	mov	r4, r0
10005f82:	460d      	mov	r5, r1
10005f84:	f89d e018 	ldrb.w	lr, [sp, #24]
10005f88:	f8b0 c004 	ldrh.w	ip, [r0, #4]
10005f8c:	ebac 0103 	sub.w	r1, ip, r3
10005f90:	b289      	uxth	r1, r1
10005f92:	eba3 0c0c 	sub.w	ip, r3, ip
10005f96:	4494      	add	ip, r2
10005f98:	fa1f fc8c 	uxth.w	ip, ip
10005f9c:	88c6      	ldrh	r6, [r0, #6]
10005f9e:	f3c6 000e 	ubfx	r0, r6, #0, #15
10005fa2:	4680      	mov	r8, r0
10005fa4:	fb10 f701 	smulbb	r7, r0, r1
10005fa8:	fb10 f00c 	smulbb	r0, r0, ip
10005fac:	b286      	uxth	r6, r0
10005fae:	6820      	ldr	r0, [r4, #0]
10005fb0:	fb08 0003 	mla	r0, r8, r3, r0
10005fb4:	f1be 0f00 	cmp.w	lr, #0
10005fb8:	d107      	bne.n	10005fca <_ff_push_n+0x4e>
10005fba:	b2bf      	uxth	r7, r7
10005fbc:	4291      	cmp	r1, r2
10005fbe:	d306      	bcc.n	10005fce <_ff_push_n+0x52>
10005fc0:	fb08 f202 	mul.w	r2, r8, r2
10005fc4:	4629      	mov	r1, r5
10005fc6:	f000 f99d 	bl	10006304 <memcpy>
10005fca:	e8bd 81f0 	ldmia.w	sp!, {r4, r5, r6, r7, r8, pc}
10005fce:	463a      	mov	r2, r7
10005fd0:	4629      	mov	r1, r5
10005fd2:	f000 f997 	bl	10006304 <memcpy>
10005fd6:	4632      	mov	r2, r6
10005fd8:	19e9      	adds	r1, r5, r7
10005fda:	6820      	ldr	r0, [r4, #0]
10005fdc:	f000 f992 	bl	10006304 <memcpy>
10005fe0:	e7f3      	b.n	10005fca <_ff_push_n+0x4e>

10005fe2 <_tu_fifo_write_n>:
10005fe2:	e92d 43f0 	stmdb	sp!, {r4, r5, r6, r7, r8, r9, lr}
10005fe6:	b083      	sub	sp, #12
10005fe8:	4691      	mov	r9, r2
10005fea:	2a00      	cmp	r2, #0
10005fec:	d068      	beq.n	100060c0 <_tu_fifo_write_n+0xde>
10005fee:	4604      	mov	r4, r0
10005ff0:	4688      	mov	r8, r1
10005ff2:	461f      	mov	r7, r3
10005ff4:	68c0      	ldr	r0, [r0, #12]
10005ff6:	b118      	cbz	r0, 10006000 <_tu_fifo_write_n+0x1e>
10005ff8:	f04f 31ff 	mov.w	r1, #4294967295
10005ffc:	f000 fa2c 	bl	10006458 <__mutex_enter_timeout_ms_veneer>
10006000:	8926      	ldrh	r6, [r4, #8]
10006002:	b2b6      	uxth	r6, r6
10006004:	8961      	ldrh	r1, [r4, #10]
10006006:	b289      	uxth	r1, r1
10006008:	79e3      	ldrb	r3, [r4, #7]
1000600a:	09db      	lsrs	r3, r3, #7
1000600c:	d118      	bne.n	10006040 <_tu_fifo_write_n+0x5e>
1000600e:	88a3      	ldrh	r3, [r4, #4]
10006010:	428e      	cmp	r6, r1
10006012:	d30d      	bcc.n	10006030 <_tu_fifo_write_n+0x4e>
10006014:	1a71      	subs	r1, r6, r1
10006016:	b289      	uxth	r1, r1
10006018:	428b      	cmp	r3, r1
1000601a:	d90f      	bls.n	1000603c <_tu_fifo_write_n+0x5a>
1000601c:	1a5d      	subs	r5, r3, r1
1000601e:	b2ad      	uxth	r5, r5
10006020:	454d      	cmp	r5, r9
10006022:	bf28      	it	cs
10006024:	464d      	movcs	r5, r9
10006026:	2d00      	cmp	r5, #0
10006028:	d042      	beq.n	100060b0 <_tu_fifo_write_n+0xce>
1000602a:	88a2      	ldrh	r2, [r4, #4]
1000602c:	4633      	mov	r3, r6
1000602e:	e031      	b.n	10006094 <_tu_fifo_write_n+0xb2>
10006030:	1a71      	subs	r1, r6, r1
10006032:	005a      	lsls	r2, r3, #1
10006034:	fa12 f181 	uxtah	r1, r2, r1
10006038:	b289      	uxth	r1, r1
1000603a:	e7ed      	b.n	10006018 <_tu_fifo_write_n+0x36>
1000603c:	2500      	movs	r5, #0
1000603e:	e7ef      	b.n	10006020 <_tu_fifo_write_n+0x3e>
10006040:	88a5      	ldrh	r5, [r4, #4]
10006042:	454d      	cmp	r5, r9
10006044:	d809      	bhi.n	1000605a <_tu_fifo_write_n+0x78>
10006046:	b9ff      	cbnz	r7, 10006088 <_tu_fifo_write_n+0xa6>
10006048:	eba9 0905 	sub.w	r9, r9, r5
1000604c:	88e3      	ldrh	r3, [r4, #6]
1000604e:	f3c3 030e 	ubfx	r3, r3, #0, #15
10006052:	fb03 8809 	mla	r8, r3, r9, r8
10006056:	460e      	mov	r6, r1
10006058:	e7e5      	b.n	10006026 <_tu_fifo_write_n+0x44>
1000605a:	428e      	cmp	r6, r1
1000605c:	d30e      	bcc.n	1000607c <_tu_fifo_write_n+0x9a>
1000605e:	1a73      	subs	r3, r6, r1
10006060:	b29b      	uxth	r3, r3
10006062:	444b      	add	r3, r9
10006064:	ebb3 0f45 	cmp.w	r3, r5, lsl #1
10006068:	db10      	blt.n	1000608c <_tu_fifo_write_n+0xaa>
1000606a:	eba5 0209 	sub.w	r2, r5, r9
1000606e:	b292      	uxth	r2, r2
10006070:	4628      	mov	r0, r5
10006072:	f7ff feb6 	bl	10005de2 <advance_index>
10006076:	4606      	mov	r6, r0
10006078:	464d      	mov	r5, r9
1000607a:	e7d4      	b.n	10006026 <_tu_fifo_write_n+0x44>
1000607c:	1a73      	subs	r3, r6, r1
1000607e:	006a      	lsls	r2, r5, #1
10006080:	fa12 f383 	uxtah	r3, r2, r3
10006084:	b29b      	uxth	r3, r3
10006086:	e7ec      	b.n	10006062 <_tu_fifo_write_n+0x80>
10006088:	460e      	mov	r6, r1
1000608a:	e7cc      	b.n	10006026 <_tu_fifo_write_n+0x44>
1000608c:	464d      	mov	r5, r9
1000608e:	e7ca      	b.n	10006026 <_tu_fifo_write_n+0x44>
10006090:	1a9b      	subs	r3, r3, r2
10006092:	b29b      	uxth	r3, r3
10006094:	429a      	cmp	r2, r3
10006096:	d9fb      	bls.n	10006090 <_tu_fifo_write_n+0xae>
10006098:	9700      	str	r7, [sp, #0]
1000609a:	462a      	mov	r2, r5
1000609c:	4641      	mov	r1, r8
1000609e:	4620      	mov	r0, r4
100060a0:	f7ff ff6c 	bl	10005f7c <_ff_push_n>
100060a4:	462a      	mov	r2, r5
100060a6:	4631      	mov	r1, r6
100060a8:	88a0      	ldrh	r0, [r4, #4]
100060aa:	f7ff fe9a 	bl	10005de2 <advance_index>
100060ae:	8120      	strh	r0, [r4, #8]
100060b0:	68e0      	ldr	r0, [r4, #12]
100060b2:	b108      	cbz	r0, 100060b8 <_tu_fifo_write_n+0xd6>
100060b4:	f000 f9e4 	bl	10006480 <__mutex_exit_veneer>
100060b8:	4628      	mov	r0, r5
100060ba:	b003      	add	sp, #12
100060bc:	e8bd 83f0 	ldmia.w	sp!, {r4, r5, r6, r7, r8, r9, pc}
100060c0:	4615      	mov	r5, r2
100060c2:	e7f9      	b.n	100060b8 <_tu_fifo_write_n+0xd6>

100060c4 <tu_fifo_config>:
100060c4:	f5b2 4f00 	cmp.w	r2, #32768	@ 0x8000
100060c8:	d829      	bhi.n	1000611e <tu_fifo_config+0x5a>
100060ca:	b5f8      	push	{r3, r4, r5, r6, r7, lr}
100060cc:	4604      	mov	r4, r0
100060ce:	460f      	mov	r7, r1
100060d0:	4615      	mov	r5, r2
100060d2:	461e      	mov	r6, r3
100060d4:	68c0      	ldr	r0, [r0, #12]
100060d6:	b118      	cbz	r0, 100060e0 <tu_fifo_config+0x1c>
100060d8:	f04f 31ff 	mov.w	r1, #4294967295
100060dc:	f000 f9bc 	bl	10006458 <__mutex_enter_timeout_ms_veneer>
100060e0:	6920      	ldr	r0, [r4, #16]
100060e2:	b118      	cbz	r0, 100060ec <tu_fifo_config+0x28>
100060e4:	f04f 31ff 	mov.w	r1, #4294967295
100060e8:	f000 f9b6 	bl	10006458 <__mutex_enter_timeout_ms_veneer>
100060ec:	6027      	str	r7, [r4, #0]
100060ee:	80a5      	strh	r5, [r4, #4]
100060f0:	88e3      	ldrh	r3, [r4, #6]
100060f2:	f366 030e 	bfi	r3, r6, #0, #15
100060f6:	80e3      	strh	r3, [r4, #6]
100060f8:	79e3      	ldrb	r3, [r4, #7]
100060fa:	f89d 2018 	ldrb.w	r2, [sp, #24]
100060fe:	f362 13c7 	bfi	r3, r2, #7, #1
10006102:	71e3      	strb	r3, [r4, #7]
10006104:	2300      	movs	r3, #0
10006106:	8163      	strh	r3, [r4, #10]
10006108:	8123      	strh	r3, [r4, #8]
1000610a:	68e0      	ldr	r0, [r4, #12]
1000610c:	b108      	cbz	r0, 10006112 <tu_fifo_config+0x4e>
1000610e:	f000 f9b7 	bl	10006480 <__mutex_exit_veneer>
10006112:	6920      	ldr	r0, [r4, #16]
10006114:	b128      	cbz	r0, 10006122 <tu_fifo_config+0x5e>
10006116:	f000 f9b3 	bl	10006480 <__mutex_exit_veneer>
1000611a:	2001      	movs	r0, #1
1000611c:	bdf8      	pop	{r3, r4, r5, r6, r7, pc}
1000611e:	2000      	movs	r0, #0
10006120:	4770      	bx	lr
10006122:	2001      	movs	r0, #1
10006124:	e7fa      	b.n	1000611c <tu_fifo_config+0x58>

10006126 <tu_fifo_count>:
10006126:	4602      	mov	r2, r0
10006128:	8880      	ldrh	r0, [r0, #4]
1000612a:	8913      	ldrh	r3, [r2, #8]
1000612c:	b29b      	uxth	r3, r3
1000612e:	8952      	ldrh	r2, [r2, #10]
10006130:	b292      	uxth	r2, r2
10006132:	4293      	cmp	r3, r2
10006134:	d305      	bcc.n	10006142 <tu_fifo_count+0x1c>
10006136:	1a9b      	subs	r3, r3, r2
10006138:	b29b      	uxth	r3, r3
1000613a:	4298      	cmp	r0, r3
1000613c:	bf28      	it	cs
1000613e:	4618      	movcs	r0, r3
10006140:	4770      	bx	lr
10006142:	1a9b      	subs	r3, r3, r2
10006144:	0042      	lsls	r2, r0, #1
10006146:	fa12 f383 	uxtah	r3, r2, r3
1000614a:	b29b      	uxth	r3, r3
1000614c:	e7f5      	b.n	1000613a <tu_fifo_count+0x14>

1000614e <tu_fifo_full>:
1000614e:	8881      	ldrh	r1, [r0, #4]
10006150:	8903      	ldrh	r3, [r0, #8]
10006152:	b29b      	uxth	r3, r3
10006154:	8942      	ldrh	r2, [r0, #10]
10006156:	b292      	uxth	r2, r2
10006158:	4293      	cmp	r3, r2
1000615a:	d306      	bcc.n	1000616a <tu_fifo_full+0x1c>
1000615c:	1a9b      	subs	r3, r3, r2
1000615e:	b298      	uxth	r0, r3
10006160:	4281      	cmp	r1, r0
10006162:	bf8c      	ite	hi
10006164:	2000      	movhi	r0, #0
10006166:	2001      	movls	r0, #1
10006168:	4770      	bx	lr
1000616a:	1a9b      	subs	r3, r3, r2
1000616c:	004a      	lsls	r2, r1, #1
1000616e:	fa12 f383 	uxtah	r3, r2, r3
10006172:	b298      	uxth	r0, r3
10006174:	e7f4      	b.n	10006160 <tu_fifo_full+0x12>

10006176 <tu_fifo_read>:
10006176:	b538      	push	{r3, r4, r5, lr}
10006178:	4604      	mov	r4, r0
1000617a:	460d      	mov	r5, r1
1000617c:	6900      	ldr	r0, [r0, #16]
1000617e:	b118      	cbz	r0, 10006188 <tu_fifo_read+0x12>
10006180:	f04f 31ff 	mov.w	r1, #4294967295
10006184:	f000 f968 	bl	10006458 <__mutex_enter_timeout_ms_veneer>
10006188:	8922      	ldrh	r2, [r4, #8]
1000618a:	8963      	ldrh	r3, [r4, #10]
1000618c:	b29b      	uxth	r3, r3
1000618e:	b292      	uxth	r2, r2
10006190:	4629      	mov	r1, r5
10006192:	4620      	mov	r0, r4
10006194:	f7ff fe32 	bl	10005dfc <_tu_fifo_peek>
10006198:	4605      	mov	r5, r0
1000619a:	8961      	ldrh	r1, [r4, #10]
1000619c:	4602      	mov	r2, r0
1000619e:	b289      	uxth	r1, r1
100061a0:	88a0      	ldrh	r0, [r4, #4]
100061a2:	f7ff fe1e 	bl	10005de2 <advance_index>
100061a6:	8160      	strh	r0, [r4, #10]
100061a8:	6920      	ldr	r0, [r4, #16]
100061aa:	b108      	cbz	r0, 100061b0 <tu_fifo_read+0x3a>
100061ac:	f000 f968 	bl	10006480 <__mutex_exit_veneer>
100061b0:	4628      	mov	r0, r5
100061b2:	bd38      	pop	{r3, r4, r5, pc}

100061b4 <tu_fifo_read_n>:
100061b4:	b508      	push	{r3, lr}
100061b6:	2300      	movs	r3, #0
100061b8:	f7ff feba 	bl	10005f30 <_tu_fifo_read_n>
100061bc:	bd08      	pop	{r3, pc}

100061be <tu_fifo_write>:
100061be:	b5f8      	push	{r3, r4, r5, r6, r7, lr}
100061c0:	4604      	mov	r4, r0
100061c2:	460e      	mov	r6, r1
100061c4:	68c0      	ldr	r0, [r0, #12]
100061c6:	b118      	cbz	r0, 100061d0 <tu_fifo_write+0x12>
100061c8:	f04f 31ff 	mov.w	r1, #4294967295
100061cc:	f000 f944 	bl	10006458 <__mutex_enter_timeout_ms_veneer>
100061d0:	8925      	ldrh	r5, [r4, #8]
100061d2:	b2ad      	uxth	r5, r5
100061d4:	4620      	mov	r0, r4
100061d6:	f7ff ffba 	bl	1000614e <tu_fifo_full>
100061da:	b110      	cbz	r0, 100061e2 <tu_fifo_write+0x24>
100061dc:	79e7      	ldrb	r7, [r4, #7]
100061de:	09ff      	lsrs	r7, r7, #7
100061e0:	d016      	beq.n	10006210 <tu_fifo_write+0x52>
100061e2:	88a2      	ldrh	r2, [r4, #4]
100061e4:	462b      	mov	r3, r5
100061e6:	e001      	b.n	100061ec <tu_fifo_write+0x2e>
100061e8:	1a9b      	subs	r3, r3, r2
100061ea:	b29b      	uxth	r3, r3
100061ec:	429a      	cmp	r2, r3
100061ee:	d9fb      	bls.n	100061e8 <tu_fifo_write+0x2a>
100061f0:	6820      	ldr	r0, [r4, #0]
100061f2:	88e2      	ldrh	r2, [r4, #6]
100061f4:	f3c2 020e 	ubfx	r2, r2, #0, #15
100061f8:	4631      	mov	r1, r6
100061fa:	fb02 0003 	mla	r0, r2, r3, r0
100061fe:	f000 f881 	bl	10006304 <memcpy>
10006202:	2201      	movs	r2, #1
10006204:	4629      	mov	r1, r5
10006206:	88a0      	ldrh	r0, [r4, #4]
10006208:	f7ff fdeb 	bl	10005de2 <advance_index>
1000620c:	8120      	strh	r0, [r4, #8]
1000620e:	2701      	movs	r7, #1
10006210:	68e0      	ldr	r0, [r4, #12]
10006212:	b108      	cbz	r0, 10006218 <tu_fifo_write+0x5a>
10006214:	f000 f934 	bl	10006480 <__mutex_exit_veneer>
10006218:	4638      	mov	r0, r7
1000621a:	bdf8      	pop	{r3, r4, r5, r6, r7, pc}

1000621c <tu_fifo_write_n>:
1000621c:	b508      	push	{r3, lr}
1000621e:	2300      	movs	r3, #0
10006220:	f7ff fedf 	bl	10005fe2 <_tu_fifo_write_n>
10006224:	bd08      	pop	{r3, pc}

10006226 <tu_fifo_clear>:
10006226:	b510      	push	{r4, lr}
10006228:	4604      	mov	r4, r0
1000622a:	68c0      	ldr	r0, [r0, #12]
1000622c:	b118      	cbz	r0, 10006236 <tu_fifo_clear+0x10>
1000622e:	f04f 31ff 	mov.w	r1, #4294967295
10006232:	f000 f911 	bl	10006458 <__mutex_enter_timeout_ms_veneer>
10006236:	6920      	ldr	r0, [r4, #16]
10006238:	b118      	cbz	r0, 10006242 <tu_fifo_clear+0x1c>
1000623a:	f04f 31ff 	mov.w	r1, #4294967295
1000623e:	f000 f90b 	bl	10006458 <__mutex_enter_timeout_ms_veneer>
10006242:	2300      	movs	r3, #0
10006244:	8163      	strh	r3, [r4, #10]
10006246:	8123      	strh	r3, [r4, #8]
10006248:	68e0      	ldr	r0, [r4, #12]
1000624a:	b108      	cbz	r0, 10006250 <tu_fifo_clear+0x2a>
1000624c:	f000 f918 	bl	10006480 <__mutex_exit_veneer>
10006250:	6920      	ldr	r0, [r4, #16]
10006252:	b108      	cbz	r0, 10006258 <tu_fifo_clear+0x32>
10006254:	f000 f914 	bl	10006480 <__mutex_exit_veneer>
10006258:	2001      	movs	r0, #1
1000625a:	bd10      	pop	{r4, pc}

1000625c <rp2040_usb_device_enumeration_fix>:
1000625c:	4770      	bx	lr
	...

10006260 <memset>:
10006260:	b570      	push	{r4, r5, r6, lr}
10006262:	0786      	lsls	r6, r0, #30
10006264:	d047      	beq.n	100062f6 <memset+0x96>
10006266:	1e54      	subs	r4, r2, #1
10006268:	2a00      	cmp	r2, #0
1000626a:	d03e      	beq.n	100062ea <memset+0x8a>
1000626c:	b2ca      	uxtb	r2, r1
1000626e:	4603      	mov	r3, r0
10006270:	e001      	b.n	10006276 <memset+0x16>
10006272:	3c01      	subs	r4, #1
10006274:	d339      	bcc.n	100062ea <memset+0x8a>
10006276:	f803 2b01 	strb.w	r2, [r3], #1
1000627a:	079d      	lsls	r5, r3, #30
1000627c:	d1f9      	bne.n	10006272 <memset+0x12>
1000627e:	2c03      	cmp	r4, #3
10006280:	d92c      	bls.n	100062dc <memset+0x7c>
10006282:	b2cd      	uxtb	r5, r1
10006284:	2c0f      	cmp	r4, #15
10006286:	eb05 2505 	add.w	r5, r5, r5, lsl #8
1000628a:	eb05 4505 	add.w	r5, r5, r5, lsl #16
1000628e:	d935      	bls.n	100062fc <memset+0x9c>
10006290:	f1a4 0c10 	sub.w	ip, r4, #16
10006294:	f103 0e10 	add.w	lr, r3, #16
10006298:	461a      	mov	r2, r3
1000629a:	f02c 060f 	bic.w	r6, ip, #15
1000629e:	ea4f 1c1c 	mov.w	ip, ip, lsr #4
100062a2:	44b6      	add	lr, r6
100062a4:	e9c2 5500 	strd	r5, r5, [r2]
100062a8:	e9c2 5502 	strd	r5, r5, [r2, #8]
100062ac:	3210      	adds	r2, #16
100062ae:	4572      	cmp	r2, lr
100062b0:	d1f8      	bne.n	100062a4 <memset+0x44>
100062b2:	f10c 0201 	add.w	r2, ip, #1
100062b6:	f014 0f0c 	tst.w	r4, #12
100062ba:	f004 0c0f 	and.w	ip, r4, #15
100062be:	eb03 1202 	add.w	r2, r3, r2, lsl #4
100062c2:	d013      	beq.n	100062ec <memset+0x8c>
100062c4:	f1ac 0304 	sub.w	r3, ip, #4
100062c8:	f023 0303 	bic.w	r3, r3, #3
100062cc:	3304      	adds	r3, #4
100062ce:	4413      	add	r3, r2
100062d0:	f842 5b04 	str.w	r5, [r2], #4
100062d4:	4293      	cmp	r3, r2
100062d6:	d1fb      	bne.n	100062d0 <memset+0x70>
100062d8:	f00c 0403 	and.w	r4, ip, #3
100062dc:	b12c      	cbz	r4, 100062ea <memset+0x8a>
100062de:	b2c9      	uxtb	r1, r1
100062e0:	441c      	add	r4, r3
100062e2:	f803 1b01 	strb.w	r1, [r3], #1
100062e6:	42a3      	cmp	r3, r4
100062e8:	d1fb      	bne.n	100062e2 <memset+0x82>
100062ea:	bd70      	pop	{r4, r5, r6, pc}
100062ec:	4664      	mov	r4, ip
100062ee:	4613      	mov	r3, r2
100062f0:	2c00      	cmp	r4, #0
100062f2:	d1f4      	bne.n	100062de <memset+0x7e>
100062f4:	e7f9      	b.n	100062ea <memset+0x8a>
100062f6:	4603      	mov	r3, r0
100062f8:	4614      	mov	r4, r2
100062fa:	e7c0      	b.n	1000627e <memset+0x1e>
100062fc:	461a      	mov	r2, r3
100062fe:	46a4      	mov	ip, r4
10006300:	e7e0      	b.n	100062c4 <memset+0x64>
10006302:	bf00      	nop

10006304 <memcpy>:
10006304:	4684      	mov	ip, r0
10006306:	ea41 0300 	orr.w	r3, r1, r0
1000630a:	f013 0303 	ands.w	r3, r3, #3
1000630e:	d149      	bne.n	100063a4 <memcpy+0xa0>
10006310:	3a40      	subs	r2, #64	@ 0x40
10006312:	d323      	bcc.n	1000635c <memcpy+0x58>
10006314:	680b      	ldr	r3, [r1, #0]
10006316:	6003      	str	r3, [r0, #0]
10006318:	684b      	ldr	r3, [r1, #4]
1000631a:	6043      	str	r3, [r0, #4]
1000631c:	688b      	ldr	r3, [r1, #8]
1000631e:	6083      	str	r3, [r0, #8]
10006320:	68cb      	ldr	r3, [r1, #12]
10006322:	60c3      	str	r3, [r0, #12]
10006324:	690b      	ldr	r3, [r1, #16]
10006326:	6103      	str	r3, [r0, #16]
10006328:	694b      	ldr	r3, [r1, #20]
1000632a:	6143      	str	r3, [r0, #20]
1000632c:	698b      	ldr	r3, [r1, #24]
1000632e:	6183      	str	r3, [r0, #24]
10006330:	69cb      	ldr	r3, [r1, #28]
10006332:	61c3      	str	r3, [r0, #28]
10006334:	6a0b      	ldr	r3, [r1, #32]
10006336:	6203      	str	r3, [r0, #32]
10006338:	6a4b      	ldr	r3, [r1, #36]	@ 0x24
1000633a:	6243      	str	r3, [r0, #36]	@ 0x24
1000633c:	6a8b      	ldr	r3, [r1, #40]	@ 0x28
1000633e:	6283      	str	r3, [r0, #40]	@ 0x28
10006340:	6acb      	ldr	r3, [r1, #44]	@ 0x2c
10006342:	62c3      	str	r3, [r0, #44]	@ 0x2c
10006344:	6b0b      	ldr	r3, [r1, #48]	@ 0x30
10006346:	6303      	str	r3, [r0, #48]	@ 0x30
10006348:	6b4b      	ldr	r3, [r1, #52]	@ 0x34
1000634a:	6343      	str	r3, [r0, #52]	@ 0x34
1000634c:	6b8b      	ldr	r3, [r1, #56]	@ 0x38
1000634e:	6383      	str	r3, [r0, #56]	@ 0x38
10006350:	6bcb      	ldr	r3, [r1, #60]	@ 0x3c
10006352:	63c3      	str	r3, [r0, #60]	@ 0x3c
10006354:	3040      	adds	r0, #64	@ 0x40
10006356:	3140      	adds	r1, #64	@ 0x40
10006358:	3a40      	subs	r2, #64	@ 0x40
1000635a:	d2db      	bcs.n	10006314 <memcpy+0x10>
1000635c:	3230      	adds	r2, #48	@ 0x30
1000635e:	d30b      	bcc.n	10006378 <memcpy+0x74>
10006360:	680b      	ldr	r3, [r1, #0]
10006362:	6003      	str	r3, [r0, #0]
10006364:	684b      	ldr	r3, [r1, #4]
10006366:	6043      	str	r3, [r0, #4]
10006368:	688b      	ldr	r3, [r1, #8]
1000636a:	6083      	str	r3, [r0, #8]
1000636c:	68cb      	ldr	r3, [r1, #12]
1000636e:	60c3      	str	r3, [r0, #12]
10006370:	3010      	adds	r0, #16
10006372:	3110      	adds	r1, #16
10006374:	3a10      	subs	r2, #16
10006376:	d2f3      	bcs.n	10006360 <memcpy+0x5c>
10006378:	320c      	adds	r2, #12
1000637a:	d305      	bcc.n	10006388 <memcpy+0x84>
1000637c:	f851 3b04 	ldr.w	r3, [r1], #4
10006380:	f840 3b04 	str.w	r3, [r0], #4
10006384:	3a04      	subs	r2, #4
10006386:	d2f9      	bcs.n	1000637c <memcpy+0x78>
10006388:	3204      	adds	r2, #4
1000638a:	d008      	beq.n	1000639e <memcpy+0x9a>
1000638c:	07d2      	lsls	r2, r2, #31
1000638e:	bf1c      	itt	ne
10006390:	f811 3b01 	ldrbne.w	r3, [r1], #1
10006394:	f800 3b01 	strbne.w	r3, [r0], #1
10006398:	d301      	bcc.n	1000639e <memcpy+0x9a>
1000639a:	880b      	ldrh	r3, [r1, #0]
1000639c:	8003      	strh	r3, [r0, #0]
1000639e:	4660      	mov	r0, ip
100063a0:	4770      	bx	lr
100063a2:	bf00      	nop
100063a4:	2a08      	cmp	r2, #8
100063a6:	d313      	bcc.n	100063d0 <memcpy+0xcc>
100063a8:	078b      	lsls	r3, r1, #30
100063aa:	d0b1      	beq.n	10006310 <memcpy+0xc>
100063ac:	f010 0303 	ands.w	r3, r0, #3
100063b0:	d0ae      	beq.n	10006310 <memcpy+0xc>
100063b2:	f1c3 0304 	rsb	r3, r3, #4
100063b6:	1ad2      	subs	r2, r2, r3
100063b8:	07db      	lsls	r3, r3, #31
100063ba:	bf1c      	itt	ne
100063bc:	f811 3b01 	ldrbne.w	r3, [r1], #1
100063c0:	f800 3b01 	strbne.w	r3, [r0], #1
100063c4:	d3a4      	bcc.n	10006310 <memcpy+0xc>
100063c6:	f831 3b02 	ldrh.w	r3, [r1], #2
100063ca:	f820 3b02 	strh.w	r3, [r0], #2
100063ce:	e79f      	b.n	10006310 <memcpy+0xc>
100063d0:	3a04      	subs	r2, #4
100063d2:	d3d9      	bcc.n	10006388 <memcpy+0x84>
100063d4:	3a01      	subs	r2, #1
100063d6:	f811 3b01 	ldrb.w	r3, [r1], #1
100063da:	f800 3b01 	strb.w	r3, [r0], #1
100063de:	d2f9      	bcs.n	100063d4 <memcpy+0xd0>
100063e0:	780b      	ldrb	r3, [r1, #0]
100063e2:	7003      	strb	r3, [r0, #0]
100063e4:	784b      	ldrb	r3, [r1, #1]
100063e6:	7043      	strb	r3, [r0, #1]
100063e8:	788b      	ldrb	r3, [r1, #2]
100063ea:	7083      	strb	r3, [r0, #2]
100063ec:	4660      	mov	r0, ip
100063ee:	4770      	bx	lr

100063f0 <strlen>:
100063f0:	f020 0103 	bic.w	r1, r0, #3
100063f4:	f010 0003 	ands.w	r0, r0, #3
100063f8:	f1c0 0000 	rsb	r0, r0, #0
100063fc:	f851 3b04 	ldr.w	r3, [r1], #4
10006400:	f100 0c04 	add.w	ip, r0, #4
10006404:	ea4f 0ccc 	mov.w	ip, ip, lsl #3
10006408:	f06f 0200 	mvn.w	r2, #0
1000640c:	bf1c      	itt	ne
1000640e:	fa22 f20c 	lsrne.w	r2, r2, ip
10006412:	4313      	orrne	r3, r2
10006414:	f04f 0c01 	mov.w	ip, #1
10006418:	ea4c 2c0c 	orr.w	ip, ip, ip, lsl #8
1000641c:	ea4c 4c0c 	orr.w	ip, ip, ip, lsl #16
10006420:	eba3 020c 	sub.w	r2, r3, ip
10006424:	ea22 0203 	bic.w	r2, r2, r3
10006428:	ea12 12cc 	ands.w	r2, r2, ip, lsl #7
1000642c:	bf04      	itt	eq
1000642e:	f851 3b04 	ldreq.w	r3, [r1], #4
10006432:	3004      	addeq	r0, #4
10006434:	d0f4      	beq.n	10006420 <strlen+0x30>
10006436:	f1c2 0100 	rsb	r1, r2, #0
1000643a:	ea02 0201 	and.w	r2, r2, r1
1000643e:	fab2 f282 	clz	r2, r2
10006442:	f1c2 021f 	rsb	r2, r2, #31
10006446:	eb00 00d2 	add.w	r0, r0, r2, lsr #3
1000644a:	4770      	bx	lr

1000644c <_fini>:
1000644c:	b5f8      	push	{r3, r4, r5, r6, r7, lr}
1000644e:	bf00      	nop

10006450 <__hw_endpoint_reset_transfer_veneer>:
10006450:	f85f f000 	ldr.w	pc, [pc]	@ 10006454 <__hw_endpoint_reset_transfer_veneer+0x4>
10006454:	2000074b 	.word	0x2000074b

10006458 <__mutex_enter_timeout_ms_veneer>:
10006458:	f85f f000 	ldr.w	pc, [pc]	@ 1000645c <__mutex_enter_timeout_ms_veneer+0x4>
1000645c:	2000021f 	.word	0x2000021f

10006460 <__hw_endpoint_start_next_buffer_veneer>:
10006460:	f85f f000 	ldr.w	pc, [pc]	@ 10006464 <__hw_endpoint_start_next_buffer_veneer+0x4>
10006464:	200007a5 	.word	0x200007a5

10006468 <__get_bootsel_button_veneer>:
10006468:	f85f f000 	ldr.w	pc, [pc]	@ 1000646c <__get_bootsel_button_veneer+0x4>
1000646c:	200002c9 	.word	0x200002c9

10006470 <__e15_is_critical_frame_period_veneer>:
10006470:	f85f f000 	ldr.w	pc, [pc]	@ 10006474 <__e15_is_critical_frame_period_veneer+0x4>
10006474:	2000067d 	.word	0x2000067d

10006478 <____aeabi_uldivmod_veneer>:
10006478:	f85f f000 	ldr.w	pc, [pc]	@ 1000647c <____aeabi_uldivmod_veneer+0x4>
1000647c:	20000a61 	.word	0x20000a61

10006480 <__mutex_exit_veneer>:
10006480:	f85f f000 	ldr.w	pc, [pc]	@ 10006484 <__mutex_exit_veneer+0x4>
10006484:	20000271 	.word	0x20000271

10006488 <__reset_non_control_endpoints_veneer>:
10006488:	f85f f000 	ldr.w	pc, [pc]	@ 1000648c <__reset_non_control_endpoints_veneer+0x4>
1000648c:	2000031d 	.word	0x2000031d

10006490 <___hw_endpoint_buffer_control_update32_veneer>:
10006490:	f85f f000 	ldr.w	pc, [pc]	@ 10006494 <___hw_endpoint_buffer_control_update32_veneer+0x4>
10006494:	20000759 	.word	0x20000759

10006498 <__mutex_try_enter_block_until_veneer>:
10006498:	f85f f000 	ldr.w	pc, [pc]	@ 1000649c <__mutex_try_enter_block_until_veneer+0x4>
1000649c:	200001ed 	.word	0x200001ed

100064a0 <__e15_is_bulkin_ep_veneer>:
100064a0:	f85f f000 	ldr.w	pc, [pc]	@ 100064a4 <__e15_is_bulkin_ep_veneer+0x4>
100064a4:	20000651 	.word	0x20000651

100064a8 <__pre_init_runtime_init_bootrom_reset>:
100064a8:	10001e71                                q...

100064ac <__pre_init_runtime_init_early_resets>:
100064ac:	10001de9                                ....

100064b0 <__pre_init_runtime_init_usb_power_down>:
100064b0:	10001e15                                ....

100064b4 <__pre_init_runtime_init_clocks>:
100064b4:	10001ee5                                ....

100064b8 <__pre_init_runtime_init_post_clock_resets>:
100064b8:	10001e51                                Q...

100064bc <__pre_init_runtime_init_boot_locks_reset>:
100064bc:	10001d8d                                ....

100064c0 <__pre_init_runtime_init_spin_locks_reset>:
100064c0:	10001e95                                ....

100064c4 <__pre_init_runtime_init_bootrom_locking_enable>:
100064c4:	10001d59                                Y...

100064c8 <__pre_init_runtime_init_mutex>:
100064c8:	100011d5                                ....

100064cc <__pre_init_runtime_init_install_ram_vector_table>:
100064cc:	10001e9d                                ....

100064d0 <__pre_init_runtime_init_default_alarm_pool>:
100064d0:	10001911                                ....

100064d4 <__pre_init_first_per_core_initializer>:
100064d4:	10001dd5                                ....

100064d8 <__pre_init_runtime_init_per_core_bootrom_reset>:
100064d8:	10001e83                                ....

100064dc <__pre_init_runtime_init_per_core_enable_coprocessors>:
100064dc:	10001e35                                5...

100064e0 <__pre_init_spinlock_set_extexclall>:
100064e0:	10000afd                                ....

100064e4 <__pre_init_runtime_init_per_core_irq_priorities>:
100064e4:	10000b55                                U...

100064e8 <__frame_dummy_init_array_entry>:
100064e8:	10000219 100039c5                       .....9..

Disassembly of section .data:

20000110 <mutex_try_enter>:
20000110:	b500      	push	{lr}
20000112:	4603      	mov	r3, r0
20000114:	6800      	ldr	r0, [r0, #0]
20000116:	f3ef 8210 	mrs	r2, PRIMASK
2000011a:	b672      	cpsid	i
2000011c:	e8d0 efcf 	ldaexb	lr, [r0]
20000120:	f05f 0c01 	movs.w	ip, #1
20000124:	f1be 0f00 	cmp.w	lr, #0
20000128:	d1f8      	bne.n	2000011c <mutex_try_enter+0xc>
2000012a:	e8c0 cf4e 	strexb	lr, ip, [r0]
2000012e:	f1be 0f00 	cmp.w	lr, #0
20000132:	d1f3      	bne.n	2000011c <mutex_try_enter+0xc>
20000134:	f3bf 8f5f 	dmb	sy
20000138:	f993 0004 	ldrsb.w	r0, [r3, #4]
2000013c:	2800      	cmp	r0, #0
2000013e:	db0a      	blt.n	20000156 <mutex_try_enter+0x46>
20000140:	b181      	cbz	r1, 20000164 <mutex_try_enter+0x54>
20000142:	6008      	str	r0, [r1, #0]
20000144:	2000      	movs	r0, #0
20000146:	6819      	ldr	r1, [r3, #0]
20000148:	2300      	movs	r3, #0
2000014a:	e8c1 3f8f 	stlb	r3, [r1]
2000014e:	f382 8810 	msr	PRIMASK, r2
20000152:	f85d fb04 	ldr.w	pc, [sp], #4
20000156:	f04f 4150 	mov.w	r1, #3489660928	@ 0xd0000000
2000015a:	f991 1000 	ldrsb.w	r1, [r1]
2000015e:	7119      	strb	r1, [r3, #4]
20000160:	2001      	movs	r0, #1
20000162:	e7f0      	b.n	20000146 <mutex_try_enter+0x36>
20000164:	2000      	movs	r0, #0
20000166:	e7ee      	b.n	20000146 <mutex_try_enter+0x36>

20000168 <mutex_enter_block_until>:
20000168:	b5f8      	push	{r3, r4, r5, r6, r7, lr}
2000016a:	461e      	mov	r6, r3
2000016c:	6803      	ldr	r3, [r0, #0]
2000016e:	2b00      	cmp	r3, #0
20000170:	d027      	beq.n	200001c2 <mutex_enter_block_until+0x5a>
20000172:	4604      	mov	r4, r0
20000174:	4615      	mov	r5, r2
20000176:	f04f 4350 	mov.w	r3, #3489660928	@ 0xd0000000
2000017a:	f993 7000 	ldrsb.w	r7, [r3]
2000017e:	6821      	ldr	r1, [r4, #0]
20000180:	f3ef 8c10 	mrs	ip, PRIMASK
20000184:	b672      	cpsid	i
20000186:	e8d1 2fcf 	ldaexb	r2, [r1]
2000018a:	2301      	movs	r3, #1
2000018c:	2a00      	cmp	r2, #0
2000018e:	d1fa      	bne.n	20000186 <mutex_enter_block_until+0x1e>
20000190:	e8c1 3f42 	strexb	r2, r3, [r1]
20000194:	2a00      	cmp	r2, #0
20000196:	d1f6      	bne.n	20000186 <mutex_enter_block_until+0x1e>
20000198:	f3bf 8f5f 	dmb	sy
2000019c:	f994 e004 	ldrsb.w	lr, [r4, #4]
200001a0:	f1be 0f00 	cmp.w	lr, #0
200001a4:	db13      	blt.n	200001ce <mutex_enter_block_until+0x66>
200001a6:	6822      	ldr	r2, [r4, #0]
200001a8:	2300      	movs	r3, #0
200001aa:	e8c2 3f8f 	stlb	r3, [r2]
200001ae:	f38c 8810 	msr	PRIMASK, ip
200001b2:	4628      	mov	r0, r5
200001b4:	4631      	mov	r1, r6
200001b6:	f000 fe13 	bl	20000de0 <__best_effort_wfe_or_timeout_veneer>
200001ba:	2800      	cmp	r0, #0
200001bc:	d0df      	beq.n	2000017e <mutex_enter_block_until+0x16>
200001be:	2000      	movs	r0, #0
200001c0:	e00d      	b.n	200001de <mutex_enter_block_until+0x76>
200001c2:	4b07      	ldr	r3, [pc, #28]	@ (200001e0 <mutex_enter_block_until+0x78>)
200001c4:	4a07      	ldr	r2, [pc, #28]	@ (200001e4 <mutex_enter_block_until+0x7c>)
200001c6:	21a6      	movs	r1, #166	@ 0xa6
200001c8:	4807      	ldr	r0, [pc, #28]	@ (200001e8 <mutex_enter_block_until+0x80>)
200001ca:	f000 fded 	bl	20000da8 <____assert_func_veneer>
200001ce:	7127      	strb	r7, [r4, #4]
200001d0:	6822      	ldr	r2, [r4, #0]
200001d2:	2300      	movs	r3, #0
200001d4:	e8c2 3f8f 	stlb	r3, [r2]
200001d8:	f38c 8810 	msr	PRIMASK, ip
200001dc:	2001      	movs	r0, #1
200001de:	bdf8      	pop	{r3, r4, r5, r6, r7, pc}
200001e0:	10006b24 	.word	0x10006b24
200001e4:	100072d8 	.word	0x100072d8
200001e8:	10006adc 	.word	0x10006adc

200001ec <mutex_try_enter_block_until>:
200001ec:	b570      	push	{r4, r5, r6, lr}
200001ee:	b082      	sub	sp, #8
200001f0:	4606      	mov	r6, r0
200001f2:	4615      	mov	r5, r2
200001f4:	461c      	mov	r4, r3
200001f6:	a901      	add	r1, sp, #4
200001f8:	f7ff ff8a 	bl	20000110 <mutex_try_enter>
200001fc:	b938      	cbnz	r0, 2000020e <mutex_try_enter_block_until+0x22>
200001fe:	f99d 2004 	ldrsb.w	r2, [sp, #4]
20000202:	f04f 4350 	mov.w	r3, #3489660928	@ 0xd0000000
20000206:	f993 3000 	ldrsb.w	r3, [r3]
2000020a:	429a      	cmp	r2, r3
2000020c:	d101      	bne.n	20000212 <mutex_try_enter_block_until+0x26>
2000020e:	b002      	add	sp, #8
20000210:	bd70      	pop	{r4, r5, r6, pc}
20000212:	462a      	mov	r2, r5
20000214:	4623      	mov	r3, r4
20000216:	4630      	mov	r0, r6
20000218:	f7ff ffa6 	bl	20000168 <mutex_enter_block_until>
2000021c:	e7f7      	b.n	2000020e <mutex_try_enter_block_until+0x22>

2000021e <mutex_enter_timeout_ms>:
2000021e:	b538      	push	{r3, r4, r5, lr}
20000220:	4604      	mov	r4, r0
20000222:	460d      	mov	r5, r1
20000224:	f000 fdcc 	bl	20000dc0 <__time_us_64_veneer>
20000228:	0eeb      	lsrs	r3, r5, #27
2000022a:	ea4f 1c45 	mov.w	ip, r5, lsl #5
2000022e:	ebbc 0c05 	subs.w	ip, ip, r5
20000232:	f163 0300 	sbc.w	r3, r3, #0
20000236:	009b      	lsls	r3, r3, #2
20000238:	ea43 739c 	orr.w	r3, r3, ip, lsr #30
2000023c:	ea4f 0c8c 	mov.w	ip, ip, lsl #2
20000240:	eb1c 0c05 	adds.w	ip, ip, r5
20000244:	f143 0300 	adc.w	r3, r3, #0
20000248:	00db      	lsls	r3, r3, #3
2000024a:	ea43 735c 	orr.w	r3, r3, ip, lsr #29
2000024e:	ea4f 0ccc 	mov.w	ip, ip, lsl #3
20000252:	eb10 020c 	adds.w	r2, r0, ip
20000256:	eb43 0301 	adc.w	r3, r3, r1
2000025a:	2b00      	cmp	r3, #0
2000025c:	db03      	blt.n	20000266 <mutex_enter_timeout_ms+0x48>
2000025e:	4620      	mov	r0, r4
20000260:	f7ff ff82 	bl	20000168 <mutex_enter_block_until>
20000264:	bd38      	pop	{r3, r4, r5, pc}
20000266:	f04f 32ff 	mov.w	r2, #4294967295
2000026a:	f06f 4300 	mvn.w	r3, #2147483648	@ 0x80000000
2000026e:	e7f6      	b.n	2000025e <mutex_enter_timeout_ms+0x40>

20000270 <mutex_exit>:
20000270:	b508      	push	{r3, lr}
20000272:	6802      	ldr	r2, [r0, #0]
20000274:	f3ef 8310 	mrs	r3, PRIMASK
20000278:	b672      	cpsid	i
2000027a:	e8d2 cfcf 	ldaexb	ip, [r2]
2000027e:	2101      	movs	r1, #1
20000280:	f1bc 0f00 	cmp.w	ip, #0
20000284:	d1f9      	bne.n	2000027a <mutex_exit+0xa>
20000286:	e8c2 1f4c 	strexb	ip, r1, [r2]
2000028a:	f1bc 0f00 	cmp.w	ip, #0
2000028e:	d1f4      	bne.n	2000027a <mutex_exit+0xa>
20000290:	f3bf 8f5f 	dmb	sy
20000294:	f990 2004 	ldrsb.w	r2, [r0, #4]
20000298:	2a00      	cmp	r2, #0
2000029a:	db09      	blt.n	200002b0 <mutex_exit+0x40>
2000029c:	22ff      	movs	r2, #255	@ 0xff
2000029e:	7102      	strb	r2, [r0, #4]
200002a0:	6801      	ldr	r1, [r0, #0]
200002a2:	2200      	movs	r2, #0
200002a4:	e8c1 2f8f 	stlb	r2, [r1]
200002a8:	f383 8810 	msr	PRIMASK, r3
200002ac:	bf40      	sev
200002ae:	bd08      	pop	{r3, pc}
200002b0:	4b02      	ldr	r3, [pc, #8]	@ (200002bc <mutex_exit+0x4c>)
200002b2:	4a03      	ldr	r2, [pc, #12]	@ (200002c0 <mutex_exit+0x50>)
200002b4:	21d5      	movs	r1, #213	@ 0xd5
200002b6:	4803      	ldr	r0, [pc, #12]	@ (200002c4 <mutex_exit+0x54>)
200002b8:	f000 fd76 	bl	20000da8 <____assert_func_veneer>
200002bc:	10006b38 	.word	0x10006b38
200002c0:	100072cc 	.word	0x100072cc
200002c4:	10006adc 	.word	0x10006adc

200002c8 <get_bootsel_button>:
200002c8:	b082      	sub	sp, #8
200002ca:	f3ef 8210 	mrs	r2, PRIMASK
200002ce:	b672      	cpsid	i
200002d0:	4b10      	ldr	r3, [pc, #64]	@ (20000314 <get_bootsel_button+0x4c>)
200002d2:	69db      	ldr	r3, [r3, #28]
200002d4:	f483 4300 	eor.w	r3, r3, #32768	@ 0x8000
200002d8:	f403 4340 	and.w	r3, r3, #49152	@ 0xc000
200002dc:	490e      	ldr	r1, [pc, #56]	@ (20000318 <get_bootsel_button+0x50>)
200002de:	61cb      	str	r3, [r1, #28]
200002e0:	2300      	movs	r3, #0
200002e2:	9301      	str	r3, [sp, #4]
200002e4:	e002      	b.n	200002ec <get_bootsel_button+0x24>
200002e6:	9b01      	ldr	r3, [sp, #4]
200002e8:	3301      	adds	r3, #1
200002ea:	9301      	str	r3, [sp, #4]
200002ec:	9b01      	ldr	r3, [sp, #4]
200002ee:	f5b3 7f7a 	cmp.w	r3, #1000	@ 0x3e8
200002f2:	dbf8      	blt.n	200002e6 <get_bootsel_button+0x1e>
200002f4:	f04f 4350 	mov.w	r3, #3489660928	@ 0xd0000000
200002f8:	6898      	ldr	r0, [r3, #8]
200002fa:	f3c0 0040 	ubfx	r0, r0, #1, #1
200002fe:	4b05      	ldr	r3, [pc, #20]	@ (20000314 <get_bootsel_button+0x4c>)
20000300:	69db      	ldr	r3, [r3, #28]
20000302:	f403 4340 	and.w	r3, r3, #49152	@ 0xc000
20000306:	4904      	ldr	r1, [pc, #16]	@ (20000318 <get_bootsel_button+0x50>)
20000308:	61cb      	str	r3, [r1, #28]
2000030a:	f382 8810 	msr	PRIMASK, r2
2000030e:	b002      	add	sp, #8
20000310:	4770      	bx	lr
20000312:	bf00      	nop
20000314:	40030000 	.word	0x40030000
20000318:	40031000 	.word	0x40031000

2000031c <reset_non_control_endpoints>:
2000031c:	b508      	push	{r3, lr}
2000031e:	2300      	movs	r3, #0
20000320:	e008      	b.n	20000334 <reset_non_control_endpoints+0x18>
20000322:	4a0a      	ldr	r2, [pc, #40]	@ (2000034c <reset_non_control_endpoints+0x30>)
20000324:	3301      	adds	r3, #1
20000326:	2100      	movs	r1, #0
20000328:	f842 1033 	str.w	r1, [r2, r3, lsl #3]
2000032c:	eb02 02c3 	add.w	r2, r2, r3, lsl #3
20000330:	6051      	str	r1, [r2, #4]
20000332:	b2db      	uxtb	r3, r3
20000334:	2b0e      	cmp	r3, #14
20000336:	d9f4      	bls.n	20000322 <reset_non_control_endpoints+0x6>
20000338:	f44f 7270 	mov.w	r2, #960	@ 0x3c0
2000033c:	2100      	movs	r1, #0
2000033e:	4804      	ldr	r0, [pc, #16]	@ (20000350 <reset_non_control_endpoints+0x34>)
20000340:	f000 fd36 	bl	20000db0 <__memset_veneer>
20000344:	4b03      	ldr	r3, [pc, #12]	@ (20000354 <reset_non_control_endpoints+0x38>)
20000346:	4a04      	ldr	r2, [pc, #16]	@ (20000358 <reset_non_control_endpoints+0x3c>)
20000348:	601a      	str	r2, [r3, #0]
2000034a:	bd08      	pop	{r3, pc}
2000034c:	50100000 	.word	0x50100000
20000350:	200017fc 	.word	0x200017fc
20000354:	20001f94 	.word	0x20001f94
20000358:	50100180 	.word	0x50100180

2000035c <hw_handle_buff_status>:
2000035c:	e92d 43f0 	stmdb	sp!, {r4, r5, r6, r7, r8, r9, lr}
20000360:	b085      	sub	sp, #20
20000362:	4b1f      	ldr	r3, [pc, #124]	@ (200003e0 <hw_handle_buff_status+0x84>)
20000364:	6d9e      	ldr	r6, [r3, #88]	@ 0x58
20000366:	2400      	movs	r4, #0
20000368:	2501      	movs	r5, #1
2000036a:	e004      	b.n	20000376 <hw_handle_buff_status+0x1a>
2000036c:	ea26 0605 	bic.w	r6, r6, r5
20000370:	006d      	lsls	r5, r5, #1
20000372:	3401      	adds	r4, #1
20000374:	b2e4      	uxtb	r4, r4
20000376:	b37e      	cbz	r6, 200003d8 <hw_handle_buff_status+0x7c>
20000378:	2c1f      	cmp	r4, #31
2000037a:	d82d      	bhi.n	200003d8 <hw_handle_buff_status+0x7c>
2000037c:	422e      	tst	r6, r5
2000037e:	d0f7      	beq.n	20000370 <hw_handle_buff_status+0x14>
20000380:	4b18      	ldr	r3, [pc, #96]	@ (200003e4 <hw_handle_buff_status+0x88>)
20000382:	659d      	str	r5, [r3, #88]	@ 0x58
20000384:	ea4f 0954 	mov.w	r9, r4, lsr #1
20000388:	f084 0701 	eor.w	r7, r4, #1
2000038c:	f007 0701 	and.w	r7, r7, #1
20000390:	f004 03fe 	and.w	r3, r4, #254	@ 0xfe
20000394:	443b      	add	r3, r7
20000396:	4a14      	ldr	r2, [pc, #80]	@ (200003e8 <hw_handle_buff_status+0x8c>)
20000398:	eb02 1843 	add.w	r8, r2, r3, lsl #5
2000039c:	4640      	mov	r0, r8
2000039e:	f000 fa39 	bl	20000814 <hw_endpoint_xfer_continue>
200003a2:	2800      	cmp	r0, #0
200003a4:	d0e2      	beq.n	2000036c <hw_handle_buff_status+0x10>
200003a6:	eb07 0749 	add.w	r7, r7, r9, lsl #1
200003aa:	4b0f      	ldr	r3, [pc, #60]	@ (200003e8 <hw_handle_buff_status+0x8c>)
200003ac:	eb03 1347 	add.w	r3, r3, r7, lsl #5
200003b0:	7899      	ldrb	r1, [r3, #2]
200003b2:	8ada      	ldrh	r2, [r3, #22]
200003b4:	2300      	movs	r3, #0
200003b6:	9301      	str	r3, [sp, #4]
200003b8:	9302      	str	r3, [sp, #8]
200003ba:	9303      	str	r3, [sp, #12]
200003bc:	2307      	movs	r3, #7
200003be:	f88d 3005 	strb.w	r3, [sp, #5]
200003c2:	f88d 1008 	strb.w	r1, [sp, #8]
200003c6:	9203      	str	r2, [sp, #12]
200003c8:	2101      	movs	r1, #1
200003ca:	a801      	add	r0, sp, #4
200003cc:	f000 fa40 	bl	20000850 <dcd_event_handler>
200003d0:	4640      	mov	r0, r8
200003d2:	f000 f9ba 	bl	2000074a <hw_endpoint_reset_transfer>
200003d6:	e7c9      	b.n	2000036c <hw_handle_buff_status+0x10>
200003d8:	b005      	add	sp, #20
200003da:	e8bd 83f0 	ldmia.w	sp!, {r4, r5, r6, r7, r8, r9, pc}
200003de:	bf00      	nop
200003e0:	50110000 	.word	0x50110000
200003e4:	50113000 	.word	0x50113000
200003e8:	200017bc 	.word	0x200017bc

200003ec <dcd_rp2040_irq>:
200003ec:	e92d 43f0 	stmdb	sp!, {r4, r5, r6, r7, r8, r9, lr}
200003f0:	b085      	sub	sp, #20
200003f2:	4b77      	ldr	r3, [pc, #476]	@ (200005d0 <dcd_rp2040_irq+0x1e4>)
200003f4:	f8d3 5098 	ldr.w	r5, [r3, #152]	@ 0x98
200003f8:	f415 3700 	ands.w	r7, r5, #131072	@ 0x20000
200003fc:	d048      	beq.n	20000490 <dcd_rp2040_irq+0xa4>
200003fe:	4b75      	ldr	r3, [pc, #468]	@ (200005d4 <dcd_rp2040_irq+0x1e8>)
20000400:	6a9a      	ldr	r2, [r3, #40]	@ 0x28
20000402:	4b75      	ldr	r3, [pc, #468]	@ (200005d8 <dcd_rp2040_irq+0x1ec>)
20000404:	601a      	str	r2, [r3, #0]
20000406:	2400      	movs	r4, #0
20000408:	4627      	mov	r7, r4
2000040a:	e00a      	b.n	20000422 <dcd_rp2040_irq+0x36>
2000040c:	4b73      	ldr	r3, [pc, #460]	@ (200005dc <dcd_rp2040_irq+0x1f0>)
2000040e:	eb03 1384 	add.w	r3, r3, r4, lsl #6
20000412:	2200      	movs	r2, #0
20000414:	f883 203c 	strb.w	r2, [r3, #60]	@ 0x3c
20000418:	f000 f9c4 	bl	200007a4 <hw_endpoint_start_next_buffer>
2000041c:	4637      	mov	r7, r6
2000041e:	3401      	adds	r4, #1
20000420:	b2e4      	uxtb	r4, r4
20000422:	2c0f      	cmp	r4, #15
20000424:	d819      	bhi.n	2000045a <dcd_rp2040_irq+0x6e>
20000426:	01a2      	lsls	r2, r4, #6
20000428:	f102 0020 	add.w	r0, r2, #32
2000042c:	4b6b      	ldr	r3, [pc, #428]	@ (200005dc <dcd_rp2040_irq+0x1f0>)
2000042e:	4418      	add	r0, r3
20000430:	4413      	add	r3, r2
20000432:	f893 303b 	ldrb.w	r3, [r3, #59]	@ 0x3b
20000436:	2b02      	cmp	r3, #2
20000438:	d1f1      	bne.n	2000041e <dcd_rp2040_irq+0x32>
2000043a:	4b68      	ldr	r3, [pc, #416]	@ (200005dc <dcd_rp2040_irq+0x1f0>)
2000043c:	eb03 1384 	add.w	r3, r3, r4, lsl #6
20000440:	f893 603a 	ldrb.w	r6, [r3, #58]	@ 0x3a
20000444:	2e00      	cmp	r6, #0
20000446:	d0ea      	beq.n	2000041e <dcd_rp2040_irq+0x32>
20000448:	4b64      	ldr	r3, [pc, #400]	@ (200005dc <dcd_rp2040_irq+0x1f0>)
2000044a:	eb03 1384 	add.w	r3, r3, r4, lsl #6
2000044e:	f893 303c 	ldrb.w	r3, [r3, #60]	@ 0x3c
20000452:	2b00      	cmp	r3, #0
20000454:	d1da      	bne.n	2000040c <dcd_rp2040_irq+0x20>
20000456:	4637      	mov	r7, r6
20000458:	e7e1      	b.n	2000041e <dcd_rp2040_irq+0x32>
2000045a:	b93f      	cbnz	r7, 2000046c <dcd_rp2040_irq+0x80>
2000045c:	4b60      	ldr	r3, [pc, #384]	@ (200005e0 <dcd_rp2040_irq+0x1f4>)
2000045e:	781b      	ldrb	r3, [r3, #0]
20000460:	b923      	cbnz	r3, 2000046c <dcd_rp2040_irq+0x80>
20000462:	4b60      	ldr	r3, [pc, #384]	@ (200005e4 <dcd_rp2040_irq+0x1f8>)
20000464:	f44f 3200 	mov.w	r2, #131072	@ 0x20000
20000468:	f8c3 2090 	str.w	r2, [r3, #144]	@ 0x90
2000046c:	4b58      	ldr	r3, [pc, #352]	@ (200005d0 <dcd_rp2040_irq+0x1e4>)
2000046e:	6c9b      	ldr	r3, [r3, #72]	@ 0x48
20000470:	f3c3 030a 	ubfx	r3, r3, #0, #11
20000474:	2200      	movs	r2, #0
20000476:	9201      	str	r2, [sp, #4]
20000478:	9202      	str	r2, [sp, #8]
2000047a:	9203      	str	r2, [sp, #12]
2000047c:	2203      	movs	r2, #3
2000047e:	f88d 2005 	strb.w	r2, [sp, #5]
20000482:	9302      	str	r3, [sp, #8]
20000484:	2101      	movs	r1, #1
20000486:	a801      	add	r0, sp, #4
20000488:	f000 f9e2 	bl	20000850 <dcd_event_handler>
2000048c:	f44f 3700 	mov.w	r7, #131072	@ 0x20000
20000490:	f015 0f10 	tst.w	r5, #16
20000494:	d106      	bne.n	200004a4 <dcd_rp2040_irq+0xb8>
20000496:	f415 3f80 	tst.w	r5, #65536	@ 0x10000
2000049a:	d046      	beq.n	2000052a <dcd_rp2040_irq+0x13e>
2000049c:	f447 3780 	orr.w	r7, r7, #65536	@ 0x10000
200004a0:	2400      	movs	r4, #0
200004a2:	e01f      	b.n	200004e4 <dcd_rp2040_irq+0xf8>
200004a4:	f047 0710 	orr.w	r7, r7, #16
200004a8:	f7ff ff58 	bl	2000035c <hw_handle_buff_status>
200004ac:	e7f3      	b.n	20000496 <dcd_rp2040_irq+0xaa>
200004ae:	2602      	movs	r6, #2
200004b0:	4b4d      	ldr	r3, [pc, #308]	@ (200005e8 <dcd_rp2040_irq+0x1fc>)
200004b2:	661e      	str	r6, [r3, #96]	@ 0x60
200004b4:	4b46      	ldr	r3, [pc, #280]	@ (200005d0 <dcd_rp2040_irq+0x1e4>)
200004b6:	6e5b      	ldr	r3, [r3, #100]	@ 0x64
200004b8:	ea36 0303 	bics.w	r3, r6, r3
200004bc:	d1fa      	bne.n	200004b4 <dcd_rp2040_irq+0xc8>
200004be:	f44f 5240 	mov.w	r2, #12288	@ 0x3000
200004c2:	2100      	movs	r1, #0
200004c4:	4640      	mov	r0, r8
200004c6:	f000 f947 	bl	20000758 <_hw_endpoint_buffer_control_update32>
200004ca:	4640      	mov	r0, r8
200004cc:	f000 f93d 	bl	2000074a <hw_endpoint_reset_transfer>
200004d0:	4b44      	ldr	r3, [pc, #272]	@ (200005e4 <dcd_rp2040_irq+0x1f8>)
200004d2:	665e      	str	r6, [r3, #100]	@ 0x64
200004d4:	661e      	str	r6, [r3, #96]	@ 0x60
200004d6:	4b41      	ldr	r3, [pc, #260]	@ (200005dc <dcd_rp2040_irq+0x1f0>)
200004d8:	eb03 1349 	add.w	r3, r3, r9, lsl #5
200004dc:	2201      	movs	r2, #1
200004de:	70da      	strb	r2, [r3, #3]
200004e0:	4414      	add	r4, r2
200004e2:	b2e4      	uxtb	r4, r4
200004e4:	2c01      	cmp	r4, #1
200004e6:	d80b      	bhi.n	20000500 <dcd_rp2040_irq+0x114>
200004e8:	46a1      	mov	r9, r4
200004ea:	4b3c      	ldr	r3, [pc, #240]	@ (200005dc <dcd_rp2040_irq+0x1f0>)
200004ec:	eb03 1844 	add.w	r8, r3, r4, lsl #5
200004f0:	f898 301a 	ldrb.w	r3, [r8, #26]
200004f4:	2b00      	cmp	r3, #0
200004f6:	d0ee      	beq.n	200004d6 <dcd_rp2040_irq+0xea>
200004f8:	2c00      	cmp	r4, #0
200004fa:	d0d8      	beq.n	200004ae <dcd_rp2040_irq+0xc2>
200004fc:	2601      	movs	r6, #1
200004fe:	e7d7      	b.n	200004b0 <dcd_rp2040_irq+0xc4>
20000500:	2300      	movs	r3, #0
20000502:	9301      	str	r3, [sp, #4]
20000504:	9302      	str	r3, [sp, #8]
20000506:	9303      	str	r3, [sp, #12]
20000508:	2306      	movs	r3, #6
2000050a:	f88d 3005 	strb.w	r3, [sp, #5]
2000050e:	4b37      	ldr	r3, [pc, #220]	@ (200005ec <dcd_rp2040_irq+0x200>)
20000510:	e893 0003 	ldmia.w	r3, {r0, r1}
20000514:	ab04      	add	r3, sp, #16
20000516:	e903 0003 	stmdb	r3, {r0, r1}
2000051a:	2101      	movs	r1, #1
2000051c:	a801      	add	r0, sp, #4
2000051e:	f000 f997 	bl	20000850 <dcd_event_handler>
20000522:	4b30      	ldr	r3, [pc, #192]	@ (200005e4 <dcd_rp2040_irq+0x1f8>)
20000524:	f44f 3200 	mov.w	r2, #131072	@ 0x20000
20000528:	651a      	str	r2, [r3, #80]	@ 0x50
2000052a:	f415 5f80 	tst.w	r5, #4096	@ 0x1000
2000052e:	d10a      	bne.n	20000546 <dcd_rp2040_irq+0x15a>
20000530:	f415 4f80 	tst.w	r5, #16384	@ 0x4000
20000534:	d122      	bne.n	2000057c <dcd_rp2040_irq+0x190>
20000536:	f415 4f00 	tst.w	r5, #32768	@ 0x8000
2000053a:	d131      	bne.n	200005a0 <dcd_rp2040_irq+0x1b4>
2000053c:	42af      	cmp	r7, r5
2000053e:	d141      	bne.n	200005c4 <dcd_rp2040_irq+0x1d8>
20000540:	b005      	add	sp, #20
20000542:	e8bd 83f0 	ldmia.w	sp!, {r4, r5, r6, r7, r8, r9, pc}
20000546:	f447 5780 	orr.w	r7, r7, #4096	@ 0x1000
2000054a:	4e21      	ldr	r6, [pc, #132]	@ (200005d0 <dcd_rp2040_irq+0x1e4>)
2000054c:	2400      	movs	r4, #0
2000054e:	6034      	str	r4, [r6, #0]
20000550:	f7ff fee4 	bl	2000031c <reset_non_control_endpoints>
20000554:	9401      	str	r4, [sp, #4]
20000556:	9402      	str	r4, [sp, #8]
20000558:	9403      	str	r4, [sp, #12]
2000055a:	2101      	movs	r1, #1
2000055c:	f88d 1005 	strb.w	r1, [sp, #5]
20000560:	a801      	add	r0, sp, #4
20000562:	f000 f975 	bl	20000850 <dcd_event_handler>
20000566:	4b1f      	ldr	r3, [pc, #124]	@ (200005e4 <dcd_rp2040_irq+0x1f8>)
20000568:	f44f 2200 	mov.w	r2, #524288	@ 0x80000
2000056c:	651a      	str	r2, [r3, #80]	@ 0x50
2000056e:	6cf3      	ldr	r3, [r6, #76]	@ 0x4c
20000570:	f413 3f80 	tst.w	r3, #65536	@ 0x10000
20000574:	d0dc      	beq.n	20000530 <dcd_rp2040_irq+0x144>
20000576:	f000 fc27 	bl	20000dc8 <__rp2040_usb_device_enumeration_fix_veneer>
2000057a:	e7d9      	b.n	20000530 <dcd_rp2040_irq+0x144>
2000057c:	f447 4780 	orr.w	r7, r7, #16384	@ 0x4000
20000580:	2300      	movs	r3, #0
20000582:	9301      	str	r3, [sp, #4]
20000584:	9302      	str	r3, [sp, #8]
20000586:	9303      	str	r3, [sp, #12]
20000588:	2304      	movs	r3, #4
2000058a:	f88d 3005 	strb.w	r3, [sp, #5]
2000058e:	2101      	movs	r1, #1
20000590:	eb0d 0003 	add.w	r0, sp, r3
20000594:	f000 f95c 	bl	20000850 <dcd_event_handler>
20000598:	4b12      	ldr	r3, [pc, #72]	@ (200005e4 <dcd_rp2040_irq+0x1f8>)
2000059a:	2210      	movs	r2, #16
2000059c:	651a      	str	r2, [r3, #80]	@ 0x50
2000059e:	e7ca      	b.n	20000536 <dcd_rp2040_irq+0x14a>
200005a0:	f447 4700 	orr.w	r7, r7, #32768	@ 0x8000
200005a4:	2300      	movs	r3, #0
200005a6:	9301      	str	r3, [sp, #4]
200005a8:	9302      	str	r3, [sp, #8]
200005aa:	9303      	str	r3, [sp, #12]
200005ac:	2305      	movs	r3, #5
200005ae:	f88d 3005 	strb.w	r3, [sp, #5]
200005b2:	2101      	movs	r1, #1
200005b4:	a801      	add	r0, sp, #4
200005b6:	f000 f94b 	bl	20000850 <dcd_event_handler>
200005ba:	4b0a      	ldr	r3, [pc, #40]	@ (200005e4 <dcd_rp2040_irq+0x1f8>)
200005bc:	f44f 6200 	mov.w	r2, #2048	@ 0x800
200005c0:	651a      	str	r2, [r3, #80]	@ 0x50
200005c2:	e7bb      	b.n	2000053c <dcd_rp2040_irq+0x150>
200005c4:	ea87 0105 	eor.w	r1, r7, r5
200005c8:	4809      	ldr	r0, [pc, #36]	@ (200005f0 <dcd_rp2040_irq+0x204>)
200005ca:	f000 fbf5 	bl	20000db8 <__panic_veneer>
200005ce:	bf00      	nop
200005d0:	50110000 	.word	0x50110000
200005d4:	400b0000 	.word	0x400b0000
200005d8:	200017a4 	.word	0x200017a4
200005dc:	200017bc 	.word	0x200017bc
200005e0:	2000230b 	.word	0x2000230b
200005e4:	50113000 	.word	0x50113000
200005e8:	50112000 	.word	0x50112000
200005ec:	50100000 	.word	0x50100000
200005f0:	10006f04 	.word	0x10006f04

200005f4 <prepare_ep_buffer>:
200005f4:	b5f8      	push	{r3, r4, r5, r6, r7, lr}
200005f6:	4604      	mov	r4, r0
200005f8:	460f      	mov	r7, r1
200005fa:	8a83      	ldrh	r3, [r0, #20]
200005fc:	8b06      	ldrh	r6, [r0, #24]
200005fe:	429e      	cmp	r6, r3
20000600:	bf28      	it	cs
20000602:	461e      	movcs	r6, r3
20000604:	1b9b      	subs	r3, r3, r6
20000606:	8283      	strh	r3, [r0, #20]
20000608:	f446 6280 	orr.w	r2, r6, #1024	@ 0x400
2000060c:	78c3      	ldrb	r3, [r0, #3]
2000060e:	b17b      	cbz	r3, 20000630 <prepare_ep_buffer+0x3c>
20000610:	f44f 5500 	mov.w	r5, #8192	@ 0x2000
20000614:	4315      	orrs	r5, r2
20000616:	f083 0301 	eor.w	r3, r3, #1
2000061a:	70e3      	strb	r3, [r4, #3]
2000061c:	7863      	ldrb	r3, [r4, #1]
2000061e:	b14b      	cbz	r3, 20000634 <prepare_ep_buffer+0x40>
20000620:	8aa3      	ldrh	r3, [r4, #20]
20000622:	b90b      	cbnz	r3, 20000628 <prepare_ep_buffer+0x34>
20000624:	f445 4580 	orr.w	r5, r5, #16384	@ 0x4000
20000628:	b107      	cbz	r7, 2000062c <prepare_ep_buffer+0x38>
2000062a:	042d      	lsls	r5, r5, #16
2000062c:	4628      	mov	r0, r5
2000062e:	bdf8      	pop	{r3, r4, r5, r6, r7, pc}
20000630:	2500      	movs	r5, #0
20000632:	e7ef      	b.n	20000614 <prepare_ep_buffer+0x20>
20000634:	68e0      	ldr	r0, [r4, #12]
20000636:	4632      	mov	r2, r6
20000638:	6921      	ldr	r1, [r4, #16]
2000063a:	eb00 1087 	add.w	r0, r0, r7, lsl #6
2000063e:	f000 fbab 	bl	20000d98 <__unaligned_memcpy_veneer>
20000642:	6923      	ldr	r3, [r4, #16]
20000644:	4433      	add	r3, r6
20000646:	6123      	str	r3, [r4, #16]
20000648:	f445 4500 	orr.w	r5, r5, #32768	@ 0x8000
2000064c:	e7e8      	b.n	20000620 <prepare_ep_buffer+0x2c>
	...

20000650 <e15_is_bulkin_ep>:
20000650:	4b09      	ldr	r3, [pc, #36]	@ (20000678 <e15_is_bulkin_ep+0x28>)
20000652:	6c1b      	ldr	r3, [r3, #64]	@ 0x40
20000654:	f013 0f02 	tst.w	r3, #2
20000658:	d10b      	bne.n	20000672 <e15_is_bulkin_ep+0x22>
2000065a:	7883      	ldrb	r3, [r0, #2]
2000065c:	09db      	lsrs	r3, r3, #7
2000065e:	d101      	bne.n	20000664 <e15_is_bulkin_ep+0x14>
20000660:	2000      	movs	r0, #0
20000662:	4770      	bx	lr
20000664:	7ec3      	ldrb	r3, [r0, #27]
20000666:	2b02      	cmp	r3, #2
20000668:	d001      	beq.n	2000066e <e15_is_bulkin_ep+0x1e>
2000066a:	2000      	movs	r0, #0
2000066c:	4770      	bx	lr
2000066e:	2001      	movs	r0, #1
20000670:	4770      	bx	lr
20000672:	2000      	movs	r0, #0
20000674:	4770      	bx	lr
20000676:	bf00      	nop
20000678:	50110000 	.word	0x50110000

2000067c <e15_is_critical_frame_period>:
2000067c:	b508      	push	{r3, lr}
2000067e:	f7ff ffe7 	bl	20000650 <e15_is_bulkin_ep>
20000682:	b140      	cbz	r0, 20000696 <e15_is_critical_frame_period+0x1a>
20000684:	4b05      	ldr	r3, [pc, #20]	@ (2000069c <e15_is_critical_frame_period+0x20>)
20000686:	6a9b      	ldr	r3, [r3, #40]	@ 0x28
20000688:	4a05      	ldr	r2, [pc, #20]	@ (200006a0 <e15_is_critical_frame_period+0x24>)
2000068a:	6812      	ldr	r2, [r2, #0]
2000068c:	1a9b      	subs	r3, r3, r2
2000068e:	f5a3 7348 	sub.w	r3, r3, #800	@ 0x320
20000692:	2bc6      	cmp	r3, #198	@ 0xc6
20000694:	d800      	bhi.n	20000698 <e15_is_critical_frame_period+0x1c>
20000696:	bd08      	pop	{r3, pc}
20000698:	2000      	movs	r0, #0
2000069a:	e7fc      	b.n	20000696 <e15_is_critical_frame_period+0x1a>
2000069c:	400b0000 	.word	0x400b0000
200006a0:	200017a4 	.word	0x200017a4

200006a4 <sync_ep_buffer>:
200006a4:	b538      	push	{r3, r4, r5, lr}
200006a6:	4604      	mov	r4, r0
200006a8:	6883      	ldr	r3, [r0, #8]
200006aa:	681b      	ldr	r3, [r3, #0]
200006ac:	4608      	mov	r0, r1
200006ae:	b101      	cbz	r1, 200006b2 <sync_ep_buffer+0xe>
200006b0:	0c1b      	lsrs	r3, r3, #16
200006b2:	f3c3 0509 	ubfx	r5, r3, #0, #10
200006b6:	7862      	ldrb	r2, [r4, #1]
200006b8:	b992      	cbnz	r2, 200006e0 <sync_ep_buffer+0x3c>
200006ba:	f413 4f00 	tst.w	r3, #32768	@ 0x8000
200006be:	d109      	bne.n	200006d4 <sync_ep_buffer+0x30>
200006c0:	8ae3      	ldrh	r3, [r4, #22]
200006c2:	442b      	add	r3, r5
200006c4:	82e3      	strh	r3, [r4, #22]
200006c6:	8b23      	ldrh	r3, [r4, #24]
200006c8:	42ab      	cmp	r3, r5
200006ca:	d901      	bls.n	200006d0 <sync_ep_buffer+0x2c>
200006cc:	2300      	movs	r3, #0
200006ce:	82a3      	strh	r3, [r4, #20]
200006d0:	4628      	mov	r0, r5
200006d2:	bd38      	pop	{r3, r4, r5, pc}
200006d4:	4b0e      	ldr	r3, [pc, #56]	@ (20000710 <sync_ep_buffer+0x6c>)
200006d6:	4a0f      	ldr	r2, [pc, #60]	@ (20000714 <sync_ep_buffer+0x70>)
200006d8:	21e8      	movs	r1, #232	@ 0xe8
200006da:	480f      	ldr	r0, [pc, #60]	@ (20000718 <sync_ep_buffer+0x74>)
200006dc:	f000 fb64 	bl	20000da8 <____assert_func_veneer>
200006e0:	f413 4f00 	tst.w	r3, #32768	@ 0x8000
200006e4:	d00d      	beq.n	20000702 <sync_ep_buffer+0x5e>
200006e6:	68e1      	ldr	r1, [r4, #12]
200006e8:	462a      	mov	r2, r5
200006ea:	eb01 1180 	add.w	r1, r1, r0, lsl #6
200006ee:	6920      	ldr	r0, [r4, #16]
200006f0:	f000 fb52 	bl	20000d98 <__unaligned_memcpy_veneer>
200006f4:	8ae3      	ldrh	r3, [r4, #22]
200006f6:	442b      	add	r3, r5
200006f8:	82e3      	strh	r3, [r4, #22]
200006fa:	6923      	ldr	r3, [r4, #16]
200006fc:	442b      	add	r3, r5
200006fe:	6123      	str	r3, [r4, #16]
20000700:	e7e1      	b.n	200006c6 <sync_ep_buffer+0x22>
20000702:	4b06      	ldr	r3, [pc, #24]	@ (2000071c <sync_ep_buffer+0x78>)
20000704:	4a03      	ldr	r2, [pc, #12]	@ (20000714 <sync_ep_buffer+0x70>)
20000706:	21ee      	movs	r1, #238	@ 0xee
20000708:	4803      	ldr	r0, [pc, #12]	@ (20000718 <sync_ep_buffer+0x74>)
2000070a:	f000 fb4d 	bl	20000da8 <____assert_func_veneer>
2000070e:	bf00      	nop
20000710:	10006f24 	.word	0x10006f24
20000714:	1000747c 	.word	0x1000747c
20000718:	10006f44 	.word	0x10006f44
2000071c:	10006fa0 	.word	0x10006fa0

20000720 <_hw_endpoint_xfer_sync>:
20000720:	b510      	push	{r4, lr}
20000722:	4604      	mov	r4, r0
20000724:	6883      	ldr	r3, [r0, #8]
20000726:	681b      	ldr	r3, [r3, #0]
20000728:	2100      	movs	r1, #0
2000072a:	f7ff ffbb 	bl	200006a4 <sync_ep_buffer>
2000072e:	6863      	ldr	r3, [r4, #4]
20000730:	681b      	ldr	r3, [r3, #0]
20000732:	f013 4f80 	tst.w	r3, #1073741824	@ 0x40000000
20000736:	d002      	beq.n	2000073e <_hw_endpoint_xfer_sync+0x1e>
20000738:	8b23      	ldrh	r3, [r4, #24]
2000073a:	4283      	cmp	r3, r0
2000073c:	d000      	beq.n	20000740 <_hw_endpoint_xfer_sync+0x20>
2000073e:	bd10      	pop	{r4, pc}
20000740:	2101      	movs	r1, #1
20000742:	4620      	mov	r0, r4
20000744:	f7ff ffae 	bl	200006a4 <sync_ep_buffer>
20000748:	e7f9      	b.n	2000073e <_hw_endpoint_xfer_sync+0x1e>

2000074a <hw_endpoint_reset_transfer>:
2000074a:	2300      	movs	r3, #0
2000074c:	7683      	strb	r3, [r0, #26]
2000074e:	8283      	strh	r3, [r0, #20]
20000750:	82c3      	strh	r3, [r0, #22]
20000752:	6103      	str	r3, [r0, #16]
20000754:	4770      	bx	lr
	...

20000758 <_hw_endpoint_buffer_control_update32>:
20000758:	b508      	push	{r3, lr}
2000075a:	460b      	mov	r3, r1
2000075c:	b111      	cbz	r1, 20000764 <_hw_endpoint_buffer_control_update32+0xc>
2000075e:	6881      	ldr	r1, [r0, #8]
20000760:	6809      	ldr	r1, [r1, #0]
20000762:	400b      	ands	r3, r1
20000764:	b19a      	cbz	r2, 2000078e <_hw_endpoint_buffer_control_update32+0x36>
20000766:	4313      	orrs	r3, r2
20000768:	f412 6f80 	tst.w	r2, #1024	@ 0x400
2000076c:	d00f      	beq.n	2000078e <_hw_endpoint_buffer_control_update32+0x36>
2000076e:	6882      	ldr	r2, [r0, #8]
20000770:	6811      	ldr	r1, [r2, #0]
20000772:	f411 6f80 	tst.w	r1, #1024	@ 0x400
20000776:	d10d      	bne.n	20000794 <_hw_endpoint_buffer_control_update32+0x3c>
20000778:	f423 6180 	bic.w	r1, r3, #1024	@ 0x400
2000077c:	6011      	str	r1, [r2, #0]
2000077e:	4a07      	ldr	r2, [pc, #28]	@ (2000079c <_hw_endpoint_buffer_control_update32+0x44>)
20000780:	6c12      	ldr	r2, [r2, #64]	@ 0x40
20000782:	f012 0f02 	tst.w	r2, #2
20000786:	d102      	bne.n	2000078e <_hw_endpoint_buffer_control_update32+0x36>
20000788:	220c      	movs	r2, #12
2000078a:	3a03      	subs	r2, #3
2000078c:	d2fd      	bcs.n	2000078a <_hw_endpoint_buffer_control_update32+0x32>
2000078e:	6882      	ldr	r2, [r0, #8]
20000790:	6013      	str	r3, [r2, #0]
20000792:	bd08      	pop	{r3, pc}
20000794:	7881      	ldrb	r1, [r0, #2]
20000796:	4802      	ldr	r0, [pc, #8]	@ (200007a0 <_hw_endpoint_buffer_control_update32+0x48>)
20000798:	f000 fb0e 	bl	20000db8 <__panic_veneer>
2000079c:	50110000 	.word	0x50110000
200007a0:	10006fc0 	.word	0x10006fc0

200007a4 <hw_endpoint_start_next_buffer>:
200007a4:	b570      	push	{r4, r5, r6, lr}
200007a6:	4604      	mov	r4, r0
200007a8:	6843      	ldr	r3, [r0, #4]
200007aa:	681d      	ldr	r5, [r3, #0]
200007ac:	2100      	movs	r1, #0
200007ae:	f7ff ff21 	bl	200005f4 <prepare_ep_buffer>
200007b2:	f440 5680 	orr.w	r6, r0, #4096	@ 0x1000
200007b6:	4b16      	ldr	r3, [pc, #88]	@ (20000810 <hw_endpoint_start_next_buffer+0x6c>)
200007b8:	6c1b      	ldr	r3, [r3, #64]	@ 0x40
200007ba:	f013 0302 	ands.w	r3, r3, #2
200007be:	d103      	bne.n	200007c8 <hw_endpoint_start_next_buffer+0x24>
200007c0:	78a2      	ldrb	r2, [r4, #2]
200007c2:	09d2      	lsrs	r2, r2, #7
200007c4:	d014      	beq.n	200007f0 <hw_endpoint_start_next_buffer+0x4c>
200007c6:	b1ab      	cbz	r3, 200007f4 <hw_endpoint_start_next_buffer+0x50>
200007c8:	78a3      	ldrb	r3, [r4, #2]
200007ca:	f013 0f7f 	tst.w	r3, #127	@ 0x7f
200007ce:	d113      	bne.n	200007f8 <hw_endpoint_start_next_buffer+0x54>
200007d0:	2300      	movs	r3, #0
200007d2:	8aa2      	ldrh	r2, [r4, #20]
200007d4:	b102      	cbz	r2, 200007d8 <hw_endpoint_start_next_buffer+0x34>
200007d6:	b18b      	cbz	r3, 200007fc <hw_endpoint_start_next_buffer+0x58>
200007d8:	f025 45a0 	bic.w	r5, r5, #1342177280	@ 0x50000000
200007dc:	f045 5500 	orr.w	r5, r5, #536870912	@ 0x20000000
200007e0:	6863      	ldr	r3, [r4, #4]
200007e2:	601d      	str	r5, [r3, #0]
200007e4:	4632      	mov	r2, r6
200007e6:	2100      	movs	r1, #0
200007e8:	4620      	mov	r0, r4
200007ea:	f7ff ffb5 	bl	20000758 <_hw_endpoint_buffer_control_update32>
200007ee:	bd70      	pop	{r4, r5, r6, pc}
200007f0:	2301      	movs	r3, #1
200007f2:	e7ee      	b.n	200007d2 <hw_endpoint_start_next_buffer+0x2e>
200007f4:	2300      	movs	r3, #0
200007f6:	e7ec      	b.n	200007d2 <hw_endpoint_start_next_buffer+0x2e>
200007f8:	2301      	movs	r3, #1
200007fa:	e7ea      	b.n	200007d2 <hw_endpoint_start_next_buffer+0x2e>
200007fc:	2101      	movs	r1, #1
200007fe:	4620      	mov	r0, r4
20000800:	f7ff fef8 	bl	200005f4 <prepare_ep_buffer>
20000804:	4306      	orrs	r6, r0
20000806:	f025 5500 	bic.w	r5, r5, #536870912	@ 0x20000000
2000080a:	f045 45a0 	orr.w	r5, r5, #1342177280	@ 0x50000000
2000080e:	e7e7      	b.n	200007e0 <hw_endpoint_start_next_buffer+0x3c>
20000810:	50110000 	.word	0x50110000

20000814 <hw_endpoint_xfer_continue>:
20000814:	b538      	push	{r3, r4, r5, lr}
20000816:	4604      	mov	r4, r0
20000818:	7e85      	ldrb	r5, [r0, #26]
2000081a:	b12d      	cbz	r5, 20000828 <hw_endpoint_xfer_continue+0x14>
2000081c:	f7ff ff80 	bl	20000720 <_hw_endpoint_xfer_sync>
20000820:	8aa3      	ldrh	r3, [r4, #20]
20000822:	b92b      	cbnz	r3, 20000830 <hw_endpoint_xfer_continue+0x1c>
20000824:	4628      	mov	r0, r5
20000826:	bd38      	pop	{r3, r4, r5, pc}
20000828:	7881      	ldrb	r1, [r0, #2]
2000082a:	4808      	ldr	r0, [pc, #32]	@ (2000084c <hw_endpoint_xfer_continue+0x38>)
2000082c:	f000 fac4 	bl	20000db8 <__panic_veneer>
20000830:	4620      	mov	r0, r4
20000832:	f7ff ff23 	bl	2000067c <e15_is_critical_frame_period>
20000836:	4605      	mov	r5, r0
20000838:	b118      	cbz	r0, 20000842 <hw_endpoint_xfer_continue+0x2e>
2000083a:	2301      	movs	r3, #1
2000083c:	7723      	strb	r3, [r4, #28]
2000083e:	2500      	movs	r5, #0
20000840:	e7f0      	b.n	20000824 <hw_endpoint_xfer_continue+0x10>
20000842:	4620      	mov	r0, r4
20000844:	f7ff ffae 	bl	200007a4 <hw_endpoint_start_next_buffer>
20000848:	e7ec      	b.n	20000824 <hw_endpoint_xfer_continue+0x10>
2000084a:	bf00      	nop
2000084c:	10006fe0 	.word	0x10006fe0

20000850 <dcd_event_handler>:
20000850:	b5f0      	push	{r4, r5, r6, r7, lr}
20000852:	b085      	sub	sp, #20
20000854:	4605      	mov	r5, r0
20000856:	460e      	mov	r6, r1
20000858:	7843      	ldrb	r3, [r0, #1]
2000085a:	3b02      	subs	r3, #2
2000085c:	2b04      	cmp	r3, #4
2000085e:	d815      	bhi.n	2000088c <dcd_event_handler+0x3c>
20000860:	e8df f013 	tbh	[pc, r3, lsl #1]
20000864:	005c0005 	.word	0x005c0005
20000868:	003a002f 	.word	0x003a002f
2000086c:	00d5      	.short	0x00d5
2000086e:	4b73      	ldr	r3, [pc, #460]	@ (20000a3c <dcd_event_handler+0x1ec>)
20000870:	781a      	ldrb	r2, [r3, #0]
20000872:	f022 0201 	bic.w	r2, r2, #1
20000876:	701a      	strb	r2, [r3, #0]
20000878:	781a      	ldrb	r2, [r3, #0]
2000087a:	f022 0202 	bic.w	r2, r2, #2
2000087e:	701a      	strb	r2, [r3, #0]
20000880:	2100      	movs	r1, #0
20000882:	7059      	strb	r1, [r3, #1]
20000884:	781a      	ldrb	r2, [r3, #0]
20000886:	f361 0282 	bfi	r2, r1, #2, #1
2000088a:	701a      	strb	r2, [r3, #0]
2000088c:	4b6c      	ldr	r3, [pc, #432]	@ (20000a40 <dcd_event_handler+0x1f0>)
2000088e:	681c      	ldr	r4, [r3, #0]
20000890:	f104 0014 	add.w	r0, r4, #20
20000894:	f000 fa9c 	bl	20000dd0 <__critical_section_enter_blocking_veneer>
20000898:	4629      	mov	r1, r5
2000089a:	4620      	mov	r0, r4
2000089c:	f000 fa9c 	bl	20000dd8 <__tu_fifo_write_veneer>
200008a0:	6961      	ldr	r1, [r4, #20]
200008a2:	69a3      	ldr	r3, [r4, #24]
200008a4:	2200      	movs	r2, #0
200008a6:	e8c1 2f8f 	stlb	r2, [r1]
200008aa:	f383 8810 	msr	PRIMASK, r3
200008ae:	2800      	cmp	r0, #0
200008b0:	f000 80b3 	beq.w	20000a1a <dcd_event_handler+0x1ca>
200008b4:	4632      	mov	r2, r6
200008b6:	7869      	ldrb	r1, [r5, #1]
200008b8:	7828      	ldrb	r0, [r5, #0]
200008ba:	f000 fa95 	bl	20000de8 <__tud_event_hook_cb_veneer>
200008be:	b005      	add	sp, #20
200008c0:	bdf0      	pop	{r4, r5, r6, r7, pc}
200008c2:	4b5e      	ldr	r3, [pc, #376]	@ (20000a3c <dcd_event_handler+0x1ec>)
200008c4:	781b      	ldrb	r3, [r3, #0]
200008c6:	f013 0f01 	tst.w	r3, #1
200008ca:	d0f8      	beq.n	200008be <dcd_event_handler+0x6e>
200008cc:	4a5b      	ldr	r2, [pc, #364]	@ (20000a3c <dcd_event_handler+0x1ec>)
200008ce:	7813      	ldrb	r3, [r2, #0]
200008d0:	f043 0304 	orr.w	r3, r3, #4
200008d4:	7013      	strb	r3, [r2, #0]
200008d6:	e7d9      	b.n	2000088c <dcd_event_handler+0x3c>
200008d8:	4b58      	ldr	r3, [pc, #352]	@ (20000a3c <dcd_event_handler+0x1ec>)
200008da:	781b      	ldrb	r3, [r3, #0]
200008dc:	f013 0f01 	tst.w	r3, #1
200008e0:	d0ed      	beq.n	200008be <dcd_event_handler+0x6e>
200008e2:	4a56      	ldr	r2, [pc, #344]	@ (20000a3c <dcd_event_handler+0x1ec>)
200008e4:	7813      	ldrb	r3, [r2, #0]
200008e6:	f023 0304 	bic.w	r3, r3, #4
200008ea:	7013      	strb	r3, [r2, #0]
200008ec:	e7ce      	b.n	2000088c <dcd_event_handler+0x3c>
200008ee:	1ae3      	subs	r3, r4, r3
200008f0:	4854      	ldr	r0, [pc, #336]	@ (20000a44 <dcd_event_handler+0x1f4>)
200008f2:	eb00 1343 	add.w	r3, r0, r3, lsl #5
200008f6:	69db      	ldr	r3, [r3, #28]
200008f8:	b113      	cbz	r3, 20000900 <dcd_event_handler+0xb0>
200008fa:	6869      	ldr	r1, [r5, #4]
200008fc:	7828      	ldrb	r0, [r5, #0]
200008fe:	4798      	blx	r3
20000900:	3401      	adds	r4, #1
20000902:	b2e4      	uxtb	r4, r4
20000904:	4b50      	ldr	r3, [pc, #320]	@ (20000a48 <dcd_event_handler+0x1f8>)
20000906:	781b      	ldrb	r3, [r3, #0]
20000908:	42a3      	cmp	r3, r4
2000090a:	d309      	bcc.n	20000920 <dcd_event_handler+0xd0>
2000090c:	42a3      	cmp	r3, r4
2000090e:	d9ee      	bls.n	200008ee <dcd_event_handler+0x9e>
20000910:	4b4e      	ldr	r3, [pc, #312]	@ (20000a4c <dcd_event_handler+0x1fc>)
20000912:	681b      	ldr	r3, [r3, #0]
20000914:	eb13 1344 	adds.w	r3, r3, r4, lsl #5
20000918:	d1ed      	bne.n	200008f6 <dcd_event_handler+0xa6>
2000091a:	e7f1      	b.n	20000900 <dcd_event_handler+0xb0>
2000091c:	2400      	movs	r4, #0
2000091e:	e7f1      	b.n	20000904 <dcd_event_handler+0xb4>
20000920:	4b46      	ldr	r3, [pc, #280]	@ (20000a3c <dcd_event_handler+0x1ec>)
20000922:	781b      	ldrb	r3, [r3, #0]
20000924:	f013 0f04 	tst.w	r3, #4
20000928:	d12a      	bne.n	20000980 <dcd_event_handler+0x130>
2000092a:	4b44      	ldr	r3, [pc, #272]	@ (20000a3c <dcd_event_handler+0x1ec>)
2000092c:	78db      	ldrb	r3, [r3, #3]
2000092e:	f013 0f01 	tst.w	r3, #1
20000932:	d0c4      	beq.n	200008be <dcd_event_handler+0x6e>
20000934:	2400      	movs	r4, #0
20000936:	9401      	str	r4, [sp, #4]
20000938:	9402      	str	r4, [sp, #8]
2000093a:	9403      	str	r4, [sp, #12]
2000093c:	782b      	ldrb	r3, [r5, #0]
2000093e:	f88d 3004 	strb.w	r3, [sp, #4]
20000942:	2303      	movs	r3, #3
20000944:	f88d 3005 	strb.w	r3, [sp, #5]
20000948:	686b      	ldr	r3, [r5, #4]
2000094a:	9302      	str	r3, [sp, #8]
2000094c:	4b3c      	ldr	r3, [pc, #240]	@ (20000a40 <dcd_event_handler+0x1f0>)
2000094e:	681d      	ldr	r5, [r3, #0]
20000950:	f105 0014 	add.w	r0, r5, #20
20000954:	f000 fa3c 	bl	20000dd0 <__critical_section_enter_blocking_veneer>
20000958:	a901      	add	r1, sp, #4
2000095a:	4628      	mov	r0, r5
2000095c:	f000 fa3c 	bl	20000dd8 <__tu_fifo_write_veneer>
20000960:	696a      	ldr	r2, [r5, #20]
20000962:	69ab      	ldr	r3, [r5, #24]
20000964:	e8c2 4f8f 	stlb	r4, [r2]
20000968:	f383 8810 	msr	PRIMASK, r3
2000096c:	2800      	cmp	r0, #0
2000096e:	d03e      	beq.n	200009ee <dcd_event_handler+0x19e>
20000970:	4632      	mov	r2, r6
20000972:	f89d 1005 	ldrb.w	r1, [sp, #5]
20000976:	f89d 0004 	ldrb.w	r0, [sp, #4]
2000097a:	f000 fa35 	bl	20000de8 <__tud_event_hook_cb_veneer>
2000097e:	e79e      	b.n	200008be <dcd_event_handler+0x6e>
20000980:	4a2e      	ldr	r2, [pc, #184]	@ (20000a3c <dcd_event_handler+0x1ec>)
20000982:	7813      	ldrb	r3, [r2, #0]
20000984:	f023 0304 	bic.w	r3, r3, #4
20000988:	7013      	strb	r3, [r2, #0]
2000098a:	2400      	movs	r4, #0
2000098c:	9401      	str	r4, [sp, #4]
2000098e:	9402      	str	r4, [sp, #8]
20000990:	9403      	str	r4, [sp, #12]
20000992:	782b      	ldrb	r3, [r5, #0]
20000994:	f88d 3004 	strb.w	r3, [sp, #4]
20000998:	2305      	movs	r3, #5
2000099a:	f88d 3005 	strb.w	r3, [sp, #5]
2000099e:	4b28      	ldr	r3, [pc, #160]	@ (20000a40 <dcd_event_handler+0x1f0>)
200009a0:	681f      	ldr	r7, [r3, #0]
200009a2:	f107 0014 	add.w	r0, r7, #20
200009a6:	f000 fa13 	bl	20000dd0 <__critical_section_enter_blocking_veneer>
200009aa:	a901      	add	r1, sp, #4
200009ac:	4638      	mov	r0, r7
200009ae:	f000 fa13 	bl	20000dd8 <__tu_fifo_write_veneer>
200009b2:	697a      	ldr	r2, [r7, #20]
200009b4:	69bb      	ldr	r3, [r7, #24]
200009b6:	e8c2 4f8f 	stlb	r4, [r2]
200009ba:	f383 8810 	msr	PRIMASK, r3
200009be:	b138      	cbz	r0, 200009d0 <dcd_event_handler+0x180>
200009c0:	4632      	mov	r2, r6
200009c2:	f89d 1005 	ldrb.w	r1, [sp, #5]
200009c6:	f89d 0004 	ldrb.w	r0, [sp, #4]
200009ca:	f000 fa0d 	bl	20000de8 <__tud_event_hook_cb_veneer>
200009ce:	e7ac      	b.n	2000092a <dcd_event_handler+0xda>
200009d0:	f44f 72ad 	mov.w	r2, #346	@ 0x15a
200009d4:	491e      	ldr	r1, [pc, #120]	@ (20000a50 <dcd_event_handler+0x200>)
200009d6:	481f      	ldr	r0, [pc, #124]	@ (20000a54 <dcd_event_handler+0x204>)
200009d8:	f000 f9e2 	bl	20000da0 <____wrap_printf_veneer>
200009dc:	f04f 23e0 	mov.w	r3, #3758153728	@ 0xe000e000
200009e0:	f8d3 3df0 	ldr.w	r3, [r3, #3568]	@ 0xdf0
200009e4:	f013 0f01 	tst.w	r3, #1
200009e8:	d09f      	beq.n	2000092a <dcd_event_handler+0xda>
200009ea:	be00      	bkpt	0x0000
200009ec:	e79d      	b.n	2000092a <dcd_event_handler+0xda>
200009ee:	f44f 72ad 	mov.w	r2, #346	@ 0x15a
200009f2:	4917      	ldr	r1, [pc, #92]	@ (20000a50 <dcd_event_handler+0x200>)
200009f4:	4817      	ldr	r0, [pc, #92]	@ (20000a54 <dcd_event_handler+0x204>)
200009f6:	f000 f9d3 	bl	20000da0 <____wrap_printf_veneer>
200009fa:	f04f 23e0 	mov.w	r3, #3758153728	@ 0xe000e000
200009fe:	f8d3 3df0 	ldr.w	r3, [r3, #3568]	@ 0xdf0
20000a02:	f013 0f01 	tst.w	r3, #1
20000a06:	f43f af5a 	beq.w	200008be <dcd_event_handler+0x6e>
20000a0a:	be00      	bkpt	0x0000
20000a0c:	e757      	b.n	200008be <dcd_event_handler+0x6e>
20000a0e:	4a12      	ldr	r2, [pc, #72]	@ (20000a58 <dcd_event_handler+0x208>)
20000a10:	7813      	ldrb	r3, [r2, #0]
20000a12:	3301      	adds	r3, #1
20000a14:	b2db      	uxtb	r3, r3
20000a16:	7013      	strb	r3, [r2, #0]
20000a18:	e738      	b.n	2000088c <dcd_event_handler+0x3c>
20000a1a:	f44f 72ad 	mov.w	r2, #346	@ 0x15a
20000a1e:	490c      	ldr	r1, [pc, #48]	@ (20000a50 <dcd_event_handler+0x200>)
20000a20:	480c      	ldr	r0, [pc, #48]	@ (20000a54 <dcd_event_handler+0x204>)
20000a22:	f000 f9bd 	bl	20000da0 <____wrap_printf_veneer>
20000a26:	f04f 23e0 	mov.w	r3, #3758153728	@ 0xe000e000
20000a2a:	f8d3 3df0 	ldr.w	r3, [r3, #3568]	@ 0xdf0
20000a2e:	f013 0f01 	tst.w	r3, #1
20000a32:	f43f af44 	beq.w	200008be <dcd_event_handler+0x6e>
20000a36:	be00      	bkpt	0x0000
20000a38:	e741      	b.n	200008be <dcd_event_handler+0x6e>
20000a3a:	bf00      	nop
20000a3c:	20001168 	.word	0x20001168
20000a40:	200011c0 	.word	0x200011c0
20000a44:	1000752c 	.word	0x1000752c
20000a48:	2000230a 	.word	0x2000230a
20000a4c:	20001038 	.word	0x20001038
20000a50:	100074ac 	.word	0x100074ac
20000a54:	100064f0 	.word	0x100064f0
20000a58:	2000230c 	.word	0x2000230c

20000a5c <tud_audio_feedback_interval_isr>:
20000a5c:	4770      	bx	lr

20000a5e <audiod_sof_isr>:
20000a5e:	4770      	bx	lr

20000a60 <__aeabi_uldivmod>:
20000a60:	b953      	cbnz	r3, 20000a78 <__aeabi_uldivmod+0x18>
20000a62:	b94a      	cbnz	r2, 20000a78 <__aeabi_uldivmod+0x18>
20000a64:	2900      	cmp	r1, #0
20000a66:	bf08      	it	eq
20000a68:	2800      	cmpeq	r0, #0
20000a6a:	bf1c      	itt	ne
20000a6c:	f04f 31ff 	movne.w	r1, #4294967295
20000a70:	f04f 30ff 	movne.w	r0, #4294967295
20000a74:	f000 b98c 	b.w	20000d90 <__aeabi_idiv0>
20000a78:	f1ad 0c08 	sub.w	ip, sp, #8
20000a7c:	e96d ce04 	strd	ip, lr, [sp, #-16]!
20000a80:	f000 f806 	bl	20000a90 <__udivmoddi4>
20000a84:	f8dd e004 	ldr.w	lr, [sp, #4]
20000a88:	e9dd 2302 	ldrd	r2, r3, [sp, #8]
20000a8c:	b004      	add	sp, #16
20000a8e:	4770      	bx	lr

20000a90 <__udivmoddi4>:
20000a90:	e92d 4ff0 	stmdb	sp!, {r4, r5, r6, r7, r8, r9, sl, fp, lr}
20000a94:	9d09      	ldr	r5, [sp, #36]	@ 0x24
20000a96:	460e      	mov	r6, r1
20000a98:	4604      	mov	r4, r0
20000a9a:	460f      	mov	r7, r1
20000a9c:	2b00      	cmp	r3, #0
20000a9e:	d147      	bne.n	20000b30 <__udivmoddi4+0xa0>
20000aa0:	428a      	cmp	r2, r1
20000aa2:	4694      	mov	ip, r2
20000aa4:	fab2 f382 	clz	r3, r2
20000aa8:	d95a      	bls.n	20000b60 <__udivmoddi4+0xd0>
20000aaa:	b143      	cbz	r3, 20000abe <__udivmoddi4+0x2e>
20000aac:	fa02 fc03 	lsl.w	ip, r2, r3
20000ab0:	f1c3 0220 	rsb	r2, r3, #32
20000ab4:	409f      	lsls	r7, r3
20000ab6:	409c      	lsls	r4, r3
20000ab8:	fa20 f202 	lsr.w	r2, r0, r2
20000abc:	4317      	orrs	r7, r2
20000abe:	ea4f 461c 	mov.w	r6, ip, lsr #16
20000ac2:	fa1f fe8c 	uxth.w	lr, ip
20000ac6:	0c22      	lsrs	r2, r4, #16
20000ac8:	fbb7 f1f6 	udiv	r1, r7, r6
20000acc:	fb06 7711 	mls	r7, r6, r1, r7
20000ad0:	fb01 f00e 	mul.w	r0, r1, lr
20000ad4:	ea42 4207 	orr.w	r2, r2, r7, lsl #16
20000ad8:	4290      	cmp	r0, r2
20000ada:	d908      	bls.n	20000aee <__udivmoddi4+0x5e>
20000adc:	eb1c 0202 	adds.w	r2, ip, r2
20000ae0:	f101 37ff 	add.w	r7, r1, #4294967295
20000ae4:	d202      	bcs.n	20000aec <__udivmoddi4+0x5c>
20000ae6:	4290      	cmp	r0, r2
20000ae8:	f200 813c 	bhi.w	20000d64 <__udivmoddi4+0x2d4>
20000aec:	4639      	mov	r1, r7
20000aee:	1a12      	subs	r2, r2, r0
20000af0:	b2a4      	uxth	r4, r4
20000af2:	fbb2 f0f6 	udiv	r0, r2, r6
20000af6:	fb06 2210 	mls	r2, r6, r0, r2
20000afa:	fb00 fe0e 	mul.w	lr, r0, lr
20000afe:	ea44 4402 	orr.w	r4, r4, r2, lsl #16
20000b02:	45a6      	cmp	lr, r4
20000b04:	d908      	bls.n	20000b18 <__udivmoddi4+0x88>
20000b06:	eb1c 0404 	adds.w	r4, ip, r4
20000b0a:	f100 32ff 	add.w	r2, r0, #4294967295
20000b0e:	d202      	bcs.n	20000b16 <__udivmoddi4+0x86>
20000b10:	45a6      	cmp	lr, r4
20000b12:	f200 812a 	bhi.w	20000d6a <__udivmoddi4+0x2da>
20000b16:	4610      	mov	r0, r2
20000b18:	ea40 4001 	orr.w	r0, r0, r1, lsl #16
20000b1c:	eba4 040e 	sub.w	r4, r4, lr
20000b20:	2100      	movs	r1, #0
20000b22:	b11d      	cbz	r5, 20000b2c <__udivmoddi4+0x9c>
20000b24:	40dc      	lsrs	r4, r3
20000b26:	2300      	movs	r3, #0
20000b28:	e9c5 4300 	strd	r4, r3, [r5]
20000b2c:	e8bd 8ff0 	ldmia.w	sp!, {r4, r5, r6, r7, r8, r9, sl, fp, pc}
20000b30:	428b      	cmp	r3, r1
20000b32:	d905      	bls.n	20000b40 <__udivmoddi4+0xb0>
20000b34:	b10d      	cbz	r5, 20000b3a <__udivmoddi4+0xaa>
20000b36:	e9c5 0100 	strd	r0, r1, [r5]
20000b3a:	2100      	movs	r1, #0
20000b3c:	4608      	mov	r0, r1
20000b3e:	e7f5      	b.n	20000b2c <__udivmoddi4+0x9c>
20000b40:	fab3 f183 	clz	r1, r3
20000b44:	2900      	cmp	r1, #0
20000b46:	d14f      	bne.n	20000be8 <__udivmoddi4+0x158>
20000b48:	42b3      	cmp	r3, r6
20000b4a:	f0c0 8102 	bcc.w	20000d52 <__udivmoddi4+0x2c2>
20000b4e:	4282      	cmp	r2, r0
20000b50:	f240 80ff 	bls.w	20000d52 <__udivmoddi4+0x2c2>
20000b54:	4608      	mov	r0, r1
20000b56:	2d00      	cmp	r5, #0
20000b58:	d0e8      	beq.n	20000b2c <__udivmoddi4+0x9c>
20000b5a:	e9c5 4700 	strd	r4, r7, [r5]
20000b5e:	e7e5      	b.n	20000b2c <__udivmoddi4+0x9c>
20000b60:	2b00      	cmp	r3, #0
20000b62:	f040 80af 	bne.w	20000cc4 <__udivmoddi4+0x234>
20000b66:	1a8a      	subs	r2, r1, r2
20000b68:	ea4f 4e1c 	mov.w	lr, ip, lsr #16
20000b6c:	fa1f f78c 	uxth.w	r7, ip
20000b70:	2101      	movs	r1, #1
20000b72:	fbb2 f6fe 	udiv	r6, r2, lr
20000b76:	fb0e 2016 	mls	r0, lr, r6, r2
20000b7a:	0c22      	lsrs	r2, r4, #16
20000b7c:	ea42 4200 	orr.w	r2, r2, r0, lsl #16
20000b80:	fb07 f006 	mul.w	r0, r7, r6
20000b84:	4290      	cmp	r0, r2
20000b86:	d90f      	bls.n	20000ba8 <__udivmoddi4+0x118>
20000b88:	eb1c 0202 	adds.w	r2, ip, r2
20000b8c:	f106 38ff 	add.w	r8, r6, #4294967295
20000b90:	bf2c      	ite	cs
20000b92:	f04f 0901 	movcs.w	r9, #1
20000b96:	f04f 0900 	movcc.w	r9, #0
20000b9a:	4290      	cmp	r0, r2
20000b9c:	d903      	bls.n	20000ba6 <__udivmoddi4+0x116>
20000b9e:	f1b9 0f00 	cmp.w	r9, #0
20000ba2:	f000 80dc 	beq.w	20000d5e <__udivmoddi4+0x2ce>
20000ba6:	4646      	mov	r6, r8
20000ba8:	1a12      	subs	r2, r2, r0
20000baa:	b2a4      	uxth	r4, r4
20000bac:	fbb2 f0fe 	udiv	r0, r2, lr
20000bb0:	fb0e 2210 	mls	r2, lr, r0, r2
20000bb4:	fb00 f707 	mul.w	r7, r0, r7
20000bb8:	ea44 4402 	orr.w	r4, r4, r2, lsl #16
20000bbc:	42a7      	cmp	r7, r4
20000bbe:	d90f      	bls.n	20000be0 <__udivmoddi4+0x150>
20000bc0:	eb1c 0404 	adds.w	r4, ip, r4
20000bc4:	f100 32ff 	add.w	r2, r0, #4294967295
20000bc8:	bf2c      	ite	cs
20000bca:	f04f 0e01 	movcs.w	lr, #1
20000bce:	f04f 0e00 	movcc.w	lr, #0
20000bd2:	42a7      	cmp	r7, r4
20000bd4:	d903      	bls.n	20000bde <__udivmoddi4+0x14e>
20000bd6:	f1be 0f00 	cmp.w	lr, #0
20000bda:	f000 80c9 	beq.w	20000d70 <__udivmoddi4+0x2e0>
20000bde:	4610      	mov	r0, r2
20000be0:	1be4      	subs	r4, r4, r7
20000be2:	ea40 4006 	orr.w	r0, r0, r6, lsl #16
20000be6:	e79c      	b.n	20000b22 <__udivmoddi4+0x92>
20000be8:	f1c1 0420 	rsb	r4, r1, #32
20000bec:	408b      	lsls	r3, r1
20000bee:	fa06 fc01 	lsl.w	ip, r6, r1
20000bf2:	fa00 fe01 	lsl.w	lr, r0, r1
20000bf6:	fa22 f704 	lsr.w	r7, r2, r4
20000bfa:	40e6      	lsrs	r6, r4
20000bfc:	408a      	lsls	r2, r1
20000bfe:	431f      	orrs	r7, r3
20000c00:	fa20 f304 	lsr.w	r3, r0, r4
20000c04:	ea4f 4817 	mov.w	r8, r7, lsr #16
20000c08:	ea43 030c 	orr.w	r3, r3, ip
20000c0c:	fa1f fc87 	uxth.w	ip, r7
20000c10:	ea4f 4913 	mov.w	r9, r3, lsr #16
20000c14:	fbb6 f0f8 	udiv	r0, r6, r8
20000c18:	fb08 6610 	mls	r6, r8, r0, r6
20000c1c:	ea49 4606 	orr.w	r6, r9, r6, lsl #16
20000c20:	fb00 f90c 	mul.w	r9, r0, ip
20000c24:	45b1      	cmp	r9, r6
20000c26:	d90e      	bls.n	20000c46 <__udivmoddi4+0x1b6>
20000c28:	19be      	adds	r6, r7, r6
20000c2a:	f100 3aff 	add.w	sl, r0, #4294967295
20000c2e:	bf2c      	ite	cs
20000c30:	f04f 0b01 	movcs.w	fp, #1
20000c34:	f04f 0b00 	movcc.w	fp, #0
20000c38:	45b1      	cmp	r9, r6
20000c3a:	d903      	bls.n	20000c44 <__udivmoddi4+0x1b4>
20000c3c:	f1bb 0f00 	cmp.w	fp, #0
20000c40:	f000 80a2 	beq.w	20000d88 <__udivmoddi4+0x2f8>
20000c44:	4650      	mov	r0, sl
20000c46:	eba6 0609 	sub.w	r6, r6, r9
20000c4a:	fa1f f983 	uxth.w	r9, r3
20000c4e:	fbb6 f3f8 	udiv	r3, r6, r8
20000c52:	fb08 6613 	mls	r6, r8, r3, r6
20000c56:	fb03 fc0c 	mul.w	ip, r3, ip
20000c5a:	ea49 4606 	orr.w	r6, r9, r6, lsl #16
20000c5e:	45b4      	cmp	ip, r6
20000c60:	d90e      	bls.n	20000c80 <__udivmoddi4+0x1f0>
20000c62:	19be      	adds	r6, r7, r6
20000c64:	f103 38ff 	add.w	r8, r3, #4294967295
20000c68:	bf2c      	ite	cs
20000c6a:	f04f 0901 	movcs.w	r9, #1
20000c6e:	f04f 0900 	movcc.w	r9, #0
20000c72:	45b4      	cmp	ip, r6
20000c74:	d903      	bls.n	20000c7e <__udivmoddi4+0x1ee>
20000c76:	f1b9 0f00 	cmp.w	r9, #0
20000c7a:	f000 8082 	beq.w	20000d82 <__udivmoddi4+0x2f2>
20000c7e:	4643      	mov	r3, r8
20000c80:	ea43 4000 	orr.w	r0, r3, r0, lsl #16
20000c84:	eba6 060c 	sub.w	r6, r6, ip
20000c88:	fba0 8c02 	umull	r8, ip, r0, r2
20000c8c:	4566      	cmp	r6, ip
20000c8e:	4643      	mov	r3, r8
20000c90:	46e1      	mov	r9, ip
20000c92:	d302      	bcc.n	20000c9a <__udivmoddi4+0x20a>
20000c94:	d107      	bne.n	20000ca6 <__udivmoddi4+0x216>
20000c96:	45c6      	cmp	lr, r8
20000c98:	d205      	bcs.n	20000ca6 <__udivmoddi4+0x216>
20000c9a:	ebb8 0302 	subs.w	r3, r8, r2
20000c9e:	eb6c 0c07 	sbc.w	ip, ip, r7
20000ca2:	3801      	subs	r0, #1
20000ca4:	46e1      	mov	r9, ip
20000ca6:	b15d      	cbz	r5, 20000cc0 <__udivmoddi4+0x230>
20000ca8:	ebbe 0203 	subs.w	r2, lr, r3
20000cac:	eb66 0609 	sbc.w	r6, r6, r9
20000cb0:	fa06 f404 	lsl.w	r4, r6, r4
20000cb4:	fa22 f301 	lsr.w	r3, r2, r1
20000cb8:	40ce      	lsrs	r6, r1
20000cba:	431c      	orrs	r4, r3
20000cbc:	e9c5 4600 	strd	r4, r6, [r5]
20000cc0:	2100      	movs	r1, #0
20000cc2:	e733      	b.n	20000b2c <__udivmoddi4+0x9c>
20000cc4:	fa02 fc03 	lsl.w	ip, r2, r3
20000cc8:	f1c3 0220 	rsb	r2, r3, #32
20000ccc:	4099      	lsls	r1, r3
20000cce:	409c      	lsls	r4, r3
20000cd0:	40d6      	lsrs	r6, r2
20000cd2:	ea4f 4e1c 	mov.w	lr, ip, lsr #16
20000cd6:	fa20 f202 	lsr.w	r2, r0, r2
20000cda:	fa1f f78c 	uxth.w	r7, ip
20000cde:	fbb6 f0fe 	udiv	r0, r6, lr
20000ce2:	430a      	orrs	r2, r1
20000ce4:	fb0e 6610 	mls	r6, lr, r0, r6
20000ce8:	0c11      	lsrs	r1, r2, #16
20000cea:	ea41 4106 	orr.w	r1, r1, r6, lsl #16
20000cee:	fb00 f607 	mul.w	r6, r0, r7
20000cf2:	428e      	cmp	r6, r1
20000cf4:	d90e      	bls.n	20000d14 <__udivmoddi4+0x284>
20000cf6:	eb1c 0101 	adds.w	r1, ip, r1
20000cfa:	f100 38ff 	add.w	r8, r0, #4294967295
20000cfe:	bf2c      	ite	cs
20000d00:	f04f 0901 	movcs.w	r9, #1
20000d04:	f04f 0900 	movcc.w	r9, #0
20000d08:	428e      	cmp	r6, r1
20000d0a:	d902      	bls.n	20000d12 <__udivmoddi4+0x282>
20000d0c:	f1b9 0f00 	cmp.w	r9, #0
20000d10:	d034      	beq.n	20000d7c <__udivmoddi4+0x2ec>
20000d12:	4640      	mov	r0, r8
20000d14:	1b89      	subs	r1, r1, r6
20000d16:	b292      	uxth	r2, r2
20000d18:	fbb1 f6fe 	udiv	r6, r1, lr
20000d1c:	fb0e 1116 	mls	r1, lr, r6, r1
20000d20:	ea42 4201 	orr.w	r2, r2, r1, lsl #16
20000d24:	fb06 f107 	mul.w	r1, r6, r7
20000d28:	4291      	cmp	r1, r2
20000d2a:	d90e      	bls.n	20000d4a <__udivmoddi4+0x2ba>
20000d2c:	eb1c 0202 	adds.w	r2, ip, r2
20000d30:	f106 38ff 	add.w	r8, r6, #4294967295
20000d34:	bf2c      	ite	cs
20000d36:	f04f 0901 	movcs.w	r9, #1
20000d3a:	f04f 0900 	movcc.w	r9, #0
20000d3e:	4291      	cmp	r1, r2
20000d40:	d902      	bls.n	20000d48 <__udivmoddi4+0x2b8>
20000d42:	f1b9 0f00 	cmp.w	r9, #0
20000d46:	d016      	beq.n	20000d76 <__udivmoddi4+0x2e6>
20000d48:	4646      	mov	r6, r8
20000d4a:	1a52      	subs	r2, r2, r1
20000d4c:	ea46 4100 	orr.w	r1, r6, r0, lsl #16
20000d50:	e70f      	b.n	20000b72 <__udivmoddi4+0xe2>
20000d52:	1a84      	subs	r4, r0, r2
20000d54:	eb66 0203 	sbc.w	r2, r6, r3
20000d58:	2001      	movs	r0, #1
20000d5a:	4617      	mov	r7, r2
20000d5c:	e6fb      	b.n	20000b56 <__udivmoddi4+0xc6>
20000d5e:	3e02      	subs	r6, #2
20000d60:	4462      	add	r2, ip
20000d62:	e721      	b.n	20000ba8 <__udivmoddi4+0x118>
20000d64:	3902      	subs	r1, #2
20000d66:	4462      	add	r2, ip
20000d68:	e6c1      	b.n	20000aee <__udivmoddi4+0x5e>
20000d6a:	4464      	add	r4, ip
20000d6c:	3802      	subs	r0, #2
20000d6e:	e6d3      	b.n	20000b18 <__udivmoddi4+0x88>
20000d70:	4464      	add	r4, ip
20000d72:	3802      	subs	r0, #2
20000d74:	e734      	b.n	20000be0 <__udivmoddi4+0x150>
20000d76:	3e02      	subs	r6, #2
20000d78:	4462      	add	r2, ip
20000d7a:	e7e6      	b.n	20000d4a <__udivmoddi4+0x2ba>
20000d7c:	3802      	subs	r0, #2
20000d7e:	4461      	add	r1, ip
20000d80:	e7c8      	b.n	20000d14 <__udivmoddi4+0x284>
20000d82:	3b02      	subs	r3, #2
20000d84:	443e      	add	r6, r7
20000d86:	e77b      	b.n	20000c80 <__udivmoddi4+0x1f0>
20000d88:	3802      	subs	r0, #2
20000d8a:	443e      	add	r6, r7
20000d8c:	e75b      	b.n	20000c46 <__udivmoddi4+0x1b6>
20000d8e:	bf00      	nop

20000d90 <__aeabi_idiv0>:
20000d90:	4770      	bx	lr
20000d92:	bf00      	nop
20000d94:	0000      	movs	r0, r0
	...

20000d98 <__unaligned_memcpy_veneer>:
20000d98:	f85f f000 	ldr.w	pc, [pc]	@ 20000d9c <__unaligned_memcpy_veneer+0x4>
20000d9c:	10003dcb 	.word	0x10003dcb

20000da0 <____wrap_printf_veneer>:
20000da0:	f85f f000 	ldr.w	pc, [pc]	@ 20000da4 <____wrap_printf_veneer+0x4>
20000da4:	10003721 	.word	0x10003721

20000da8 <____assert_func_veneer>:
20000da8:	f85f f000 	ldr.w	pc, [pc]	@ 20000dac <____assert_func_veneer+0x4>
20000dac:	10003469 	.word	0x10003469

20000db0 <__memset_veneer>:
20000db0:	f85f f000 	ldr.w	pc, [pc]	@ 20000db4 <__memset_veneer+0x4>
20000db4:	10006261 	.word	0x10006261

20000db8 <__panic_veneer>:
20000db8:	f85f f000 	ldr.w	pc, [pc]	@ 20000dbc <__panic_veneer+0x4>
20000dbc:	100009d5 	.word	0x100009d5

20000dc0 <__time_us_64_veneer>:
20000dc0:	f85f f000 	ldr.w	pc, [pc]	@ 20000dc4 <__time_us_64_veneer+0x4>
20000dc4:	100019bd 	.word	0x100019bd

20000dc8 <__rp2040_usb_device_enumeration_fix_veneer>:
20000dc8:	f85f f000 	ldr.w	pc, [pc]	@ 20000dcc <__rp2040_usb_device_enumeration_fix_veneer+0x4>
20000dcc:	1000625d 	.word	0x1000625d

20000dd0 <__critical_section_enter_blocking_veneer>:
20000dd0:	f85f f000 	ldr.w	pc, [pc]	@ 20000dd4 <__critical_section_enter_blocking_veneer+0x4>
20000dd4:	10003e79 	.word	0x10003e79

20000dd8 <__tu_fifo_write_veneer>:
20000dd8:	f85f f000 	ldr.w	pc, [pc]	@ 20000ddc <__tu_fifo_write_veneer+0x4>
20000ddc:	100061bf 	.word	0x100061bf

20000de0 <__best_effort_wfe_or_timeout_veneer>:
20000de0:	f85f f000 	ldr.w	pc, [pc]	@ 20000de4 <__best_effort_wfe_or_timeout_veneer+0x4>
20000de4:	10001809 	.word	0x10001809

20000de8 <__tud_event_hook_cb_veneer>:
20000de8:	f85f f000 	ldr.w	pc, [pc]	@ 20000dec <__tud_event_hook_cb_veneer+0x4>
20000dec:	100040f1 	.word	0x100040f1

20000df0 <blink_interval_ms>:
20000df0:	000000fa                                ....

20000df4 <current_sample_rate>:
20000df4:	0000ac44                                D...

20000df8 <string_desc_arr>:
20000df8:	100070dc 1000682c 10006834 00000000     .p..,h..4h......
20000e08:	10006844 10006858                       Dh..Xh..

20000e10 <striped_spin_lock_num>:
20000e10:	00000010                                ....

20000e14 <irq_handler_chain_slots>:
20000e14:	00000000 	.word	0x00000000
20000e18:	00010000 	.word	0x00010000
	...
20000e24:	00020000 	.word	0x00020000
	...
20000e30:	00030000 	.word	0x00030000
	...
20000e3c:	00ff0000 	.word	0x00ff0000
20000e40:	00000000 	.word	0x00000000

20000e44 <irq_handler_chain_first_slot>:
20000e44:	b501      	push	{r0, lr}
20000e46:	6848      	ldr	r0, [r1, #4]
20000e48:	3101      	adds	r1, #1
20000e4a:	468e      	mov	lr, r1
20000e4c:	4700      	bx	r0

20000e4e <irq_handler_chain_remove_tail>:
20000e4e:	4670      	mov	r0, lr
20000e50:	3809      	subs	r0, #9
20000e52:	4901      	ldr	r1, [pc, #4]	@ (20000e58 <irq_handler_chain_remove_tail+0xa>)
20000e54:	4788      	blx	r1
20000e56:	bd01      	pop	{r0, pc}
20000e58:	10001099 	.word	0x10001099

20000e5c <default_alarm_pool>:
	...
20000e70:	20000eb8                                ... 

20000e74 <stdio_uart>:
20000e74:	100037dd 10003875 100037fd 10003889     .7..u8...7...8..
20000e84:	00000000 00000100                       ........

20000e8c <_usbd_qdef>:
20000e8c:	200011c4 000c0010 00000000 00000000     ... ............
	...

20000ea8 <_usbd_rhport>:
20000ea8:	000000ff                                ....

20000eac <print_mutex>:
	...
