
C:/Users/agras/pico/pico-examples/build/freertos/hello_freertos/hello_freertos2.elf:     file format elf32-littlearm

Sections:
Idx Name          Size      VMA       LMA       File off  Algn
  0 .text         000077c0  10000000  10000000  00001000  2**4
                  CONTENTS, ALLOC, LOAD, READONLY, CODE
  1 .rodata       00002090  100077c0  100077c0  000087c0  2**3
                  CONTENTS, ALLOC, LOAD, READONLY, DATA
  2 .ARM.exidx    00000008  10009850  10009850  0000a850  2**2
                  CONTENTS, ALLOC, LOAD, READONLY, DATA
  3 .binary_info  00000028  10009858  10009858  0000a858  2**2
                  CONTENTS, ALLOC, LOAD, READONLY, DATA
  4 .ram_vector_table 00000110  20000000  20000000  0000c000  2**2
                  ALLOC
  5 .uninitialized_data 00000000  20000110  20000110  0000be88  2**0
                  CONTENTS
  6 .data         000005f4  20000110  10009880  0000b110  2**3
                  CONTENTS, ALLOC, LOAD, READONLY, CODE
  7 .tdata        00000000  20000704  20000704  0000be88  2**0
                  CONTENTS, ALLOC, LOAD, DATA, THREAD_LOCAL
  8 .tbss         00000000  20000704  20000704  00000000  2**0
                  ALLOC, THREAD_LOCAL
  9 .bss          00020644  20000708  10009e74  0000c708  2**3
                  ALLOC
 10 .heap         00000800  20020d4c  20020d4c  0000be88  2**2
                  CONTENTS, READONLY
 11 .scratch_x    00000000  20080000  20080000  0000c688  2**0
                  CONTENTS
 12 .scratch_y    00000000  20081000  20081000  0000c688  2**0
                  CONTENTS
 13 .stack1_dummy 00000800  20080000  20080000  0000c000  2**2
                  ALLOC
 14 .stack_dummy  00000800  20081000  20081000  0000c6a0  2**5
                  CONTENTS, READONLY
 15 .flash_end    00000014  10009e74  10009e74  0000be74  2**2
                  CONTENTS, ALLOC, LOAD, READONLY, DATA
 16 .ARM.attributes 00000034  00000000  00000000  0000cea0  2**0
                  CONTENTS, READONLY
 17 .comment      00000045  00000000  00000000  0000ced4  2**0
                  CONTENTS, READONLY
 18 .debug_info   0002d983  00000000  00000000  0000cf19  2**0
                  CONTENTS, READONLY, DEBUGGING, OCTETS
 19 .debug_abbrev 00007a7e  00000000  00000000  0003a89c  2**0
                  CONTENTS, READONLY, DEBUGGING, OCTETS
 20 .debug_loclists 00011fa8  00000000  00000000  0004231a  2**0
                  CONTENTS, READONLY, DEBUGGING, OCTETS
 21 .debug_aranges 00001700  00000000  00000000  000542c8  2**3
                  CONTENTS, READONLY, DEBUGGING, OCTETS
 22 .debug_rnglists 0000188d  00000000  00000000  000559c8  2**0
                  CONTENTS, READONLY, DEBUGGING, OCTETS
 23 .debug_line   0001af9b  00000000  00000000  00057255  2**0
                  CONTENTS, READONLY, DEBUGGING, OCTETS
 24 .debug_str    000093b3  00000000  00000000  000721f0  2**0
                  CONTENTS, READONLY, DEBUGGING, OCTETS
 25 .debug_frame  00003dd4  00000000  00000000  0007b5a4  2**2
                  CONTENTS, READONLY, DEBUGGING, OCTETS
 26 .debug_line_str 00000280  00000000  00000000  0007f378  2**0
                  CONTENTS, READONLY, DEBUGGING, OCTETS

C:/Users/agras/pico/pico-examples/build/freertos/hello_freertos/hello_freertos2.elf:     file format elf32-littlearm


Disassembly of section .text:

10000000 <__VECTOR_TABLE>:
10000000:	20082000 	.word	0x20082000
10000004:	1000015d 	.word	0x1000015d
10000008:	10000113 	.word	0x10000113
1000000c:	10000115 	.word	0x10000115
10000010:	10000111 	.word	0x10000111
10000014:	10000111 	.word	0x10000111
10000018:	10000111 	.word	0x10000111
1000001c:	10000111 	.word	0x10000111
10000020:	10000111 	.word	0x10000111
10000024:	10000111 	.word	0x10000111
10000028:	10000111 	.word	0x10000111
1000002c:	10000117 	.word	0x10000117
10000030:	10000111 	.word	0x10000111
10000034:	10000111 	.word	0x10000111
10000038:	10000119 	.word	0x10000119
1000003c:	1000011b 	.word	0x1000011b
10000040:	1000011d 	.word	0x1000011d
10000044:	1000011d 	.word	0x1000011d
10000048:	1000011d 	.word	0x1000011d
1000004c:	1000011d 	.word	0x1000011d
10000050:	1000011d 	.word	0x1000011d
10000054:	1000011d 	.word	0x1000011d
10000058:	1000011d 	.word	0x1000011d
1000005c:	1000011d 	.word	0x1000011d
10000060:	1000011d 	.word	0x1000011d
10000064:	1000011d 	.word	0x1000011d
10000068:	1000011d 	.word	0x1000011d
1000006c:	1000011d 	.word	0x1000011d
10000070:	1000011d 	.word	0x1000011d
10000074:	1000011d 	.word	0x1000011d
10000078:	1000011d 	.word	0x1000011d
1000007c:	1000011d 	.word	0x1000011d
10000080:	1000011d 	.word	0x1000011d
10000084:	1000011d 	.word	0x1000011d
10000088:	1000011d 	.word	0x1000011d
1000008c:	1000011d 	.word	0x1000011d
10000090:	1000011d 	.word	0x1000011d
10000094:	1000011d 	.word	0x1000011d
10000098:	1000011d 	.word	0x1000011d
1000009c:	1000011d 	.word	0x1000011d
100000a0:	1000011d 	.word	0x1000011d
100000a4:	1000011d 	.word	0x1000011d
100000a8:	1000011d 	.word	0x1000011d
100000ac:	1000011d 	.word	0x1000011d
100000b0:	1000011d 	.word	0x1000011d
100000b4:	1000011d 	.word	0x1000011d
100000b8:	1000011d 	.word	0x1000011d
100000bc:	1000011d 	.word	0x1000011d
100000c0:	1000011d 	.word	0x1000011d
100000c4:	1000011d 	.word	0x1000011d
100000c8:	1000011d 	.word	0x1000011d
100000cc:	1000011d 	.word	0x1000011d
100000d0:	1000011d 	.word	0x1000011d
100000d4:	1000011d 	.word	0x1000011d
100000d8:	1000011d 	.word	0x1000011d
100000dc:	1000011d 	.word	0x1000011d
100000e0:	1000011d 	.word	0x1000011d
100000e4:	1000011d 	.word	0x1000011d
100000e8:	1000011d 	.word	0x1000011d
100000ec:	1000011d 	.word	0x1000011d
100000f0:	1000011d 	.word	0x1000011d
100000f4:	1000011d 	.word	0x1000011d
100000f8:	1000011d 	.word	0x1000011d
100000fc:	1000011d 	.word	0x1000011d
10000100:	1000011d 	.word	0x1000011d
10000104:	1000011d 	.word	0x1000011d
10000108:	1000011d 	.word	0x1000011d
1000010c:	1000011d 	.word	0x1000011d

10000110 <isr_invalid>:
10000110:	be00      	bkpt	0x0000

10000112 <isr_nmi>:
10000112:	be00      	bkpt	0x0000

10000114 <isr_hardfault>:
10000114:	be00      	bkpt	0x0000

10000116 <isr_svcall>:
10000116:	be00      	bkpt	0x0000

10000118 <isr_pendsv>:
10000118:	be00      	bkpt	0x0000

1000011a <isr_systick>:
1000011a:	be00      	bkpt	0x0000

1000011c <__unhandled_user_irq>:
1000011c:	f3ef 8005 	mrs	r0, IPSR
10000120:	3810      	subs	r0, #16

10000122 <unhandled_user_irq_num_in_r0>:
10000122:	be00      	bkpt	0x0000

10000124 <binary_info_header>:
10000124:	7188ebf2 	.word	0x7188ebf2
10000128:	10009858 	.word	0x10009858
1000012c:	10009880 	.word	0x10009880
10000130:	100001a8 	.word	0x100001a8
10000134:	e71aa390 	.word	0xe71aa390

10000138 <__binary_info_header_end>:
10000138:	ffffded3 	.word	0xffffded3
1000013c:	10210142 	.word	0x10210142
10000140:	000001ff 	.word	0x000001ff
10000144:	00009d3c 	.word	0x00009d3c
10000148:	ab123579 	.word	0xab123579

1000014c <_entry_point>:
1000014c:	f04f 0000 	mov.w	r0, #0

10000150 <_enter_vtable_in_r0>:
10000150:	4920      	ldr	r1, [pc, #128]	@ (100001d4 <data_cpy_table+0x2c>)
10000152:	6008      	str	r0, [r1, #0]
10000154:	c806      	ldmia	r0!, {r1, r2}
10000156:	f381 8808 	msr	MSP, r1
1000015a:	4710      	bx	r2

1000015c <_reset_handler>:
1000015c:	f04f 4050 	mov.w	r0, #3489660928	@ 0xd0000000
10000160:	6800      	ldr	r0, [r0, #0]
10000162:	b110      	cbz	r0, 1000016a <hold_non_core0_in_bootrom+0x6>

10000164 <hold_non_core0_in_bootrom>:
10000164:	f04f 0000 	mov.w	r0, #0
10000168:	e7f2      	b.n	10000150 <_enter_vtable_in_r0>
1000016a:	a40f      	add	r4, pc, #60	@ (adr r4, 100001a8 <data_cpy_table>)
1000016c:	cc0e      	ldmia	r4!, {r1, r2, r3}
1000016e:	2900      	cmp	r1, #0
10000170:	d002      	beq.n	10000178 <hold_non_core0_in_bootrom+0x14>
10000172:	f000 f815 	bl	100001a0 <data_cpy>
10000176:	e7f9      	b.n	1000016c <hold_non_core0_in_bootrom+0x8>
10000178:	4917      	ldr	r1, [pc, #92]	@ (100001d8 <data_cpy_table+0x30>)
1000017a:	4a18      	ldr	r2, [pc, #96]	@ (100001dc <data_cpy_table+0x34>)
1000017c:	2000      	movs	r0, #0
1000017e:	e000      	b.n	10000182 <bss_fill_test>

10000180 <bss_fill_loop>:
10000180:	c101      	stmia	r1!, {r0}

10000182 <bss_fill_test>:
10000182:	4291      	cmp	r1, r2
10000184:	d1fc      	bne.n	10000180 <bss_fill_loop>

10000186 <platform_entry>:
10000186:	2000      	movs	r0, #0
10000188:	f380 880a 	msr	MSPLIM, r0
1000018c:	4914      	ldr	r1, [pc, #80]	@ (100001e0 <data_cpy_table+0x38>)
1000018e:	4788      	blx	r1
10000190:	4914      	ldr	r1, [pc, #80]	@ (100001e4 <data_cpy_table+0x3c>)
10000192:	4788      	blx	r1
10000194:	4914      	ldr	r1, [pc, #80]	@ (100001e8 <data_cpy_table+0x40>)
10000196:	4788      	blx	r1
10000198:	be00      	bkpt	0x0000
1000019a:	e7fd      	b.n	10000198 <platform_entry+0x12>

1000019c <data_cpy_loop>:
1000019c:	c901      	ldmia	r1!, {r0}
1000019e:	c201      	stmia	r2!, {r0}

100001a0 <data_cpy>:
100001a0:	429a      	cmp	r2, r3
100001a2:	d3fb      	bcc.n	1000019c <data_cpy_loop>
100001a4:	4770      	bx	lr
100001a6:	bf00      	nop

100001a8 <data_cpy_table>:
100001a8:	10009880 	.word	0x10009880
100001ac:	20000110 	.word	0x20000110
100001b0:	20000704 	.word	0x20000704
100001b4:	10009e74 	.word	0x10009e74
100001b8:	20080000 	.word	0x20080000
100001bc:	20080000 	.word	0x20080000
100001c0:	10009e74 	.word	0x10009e74
100001c4:	20081000 	.word	0x20081000
100001c8:	20081000 	.word	0x20081000
100001cc:	00000000 	.word	0x00000000
100001d0:	4770      	bx	lr
100001d2:	0000      	.short	0x0000
100001d4:	e000ed08 	.word	0xe000ed08
100001d8:	20000704 	.word	0x20000704
100001dc:	20020d4c 	.word	0x20020d4c
100001e0:	1000706d 	.word	0x1000706d
100001e4:	10000429 	.word	0x10000429
100001e8:	10007031 	.word	0x10007031

100001ec <_init>:
100001ec:	b5f8      	push	{r3, r4, r5, r6, r7, lr}
100001ee:	bf00      	nop

100001f0 <register_tm_clones>:
100001f0:	4b06      	ldr	r3, [pc, #24]	@ (1000020c <register_tm_clones+0x1c>)
100001f2:	4907      	ldr	r1, [pc, #28]	@ (10000210 <register_tm_clones+0x20>)
100001f4:	1ac9      	subs	r1, r1, r3
100001f6:	1089      	asrs	r1, r1, #2
100001f8:	bf48      	it	mi
100001fa:	3101      	addmi	r1, #1
100001fc:	1049      	asrs	r1, r1, #1
100001fe:	d003      	beq.n	10000208 <register_tm_clones+0x18>
10000200:	4b04      	ldr	r3, [pc, #16]	@ (10000214 <register_tm_clones+0x24>)
10000202:	b10b      	cbz	r3, 10000208 <register_tm_clones+0x18>
10000204:	4801      	ldr	r0, [pc, #4]	@ (1000020c <register_tm_clones+0x1c>)
10000206:	4718      	bx	r3
10000208:	4770      	bx	lr
1000020a:	bf00      	nop
1000020c:	20000704 	.word	0x20000704
10000210:	20000704 	.word	0x20000704
10000214:	00000000 	.word	0x00000000

10000218 <frame_dummy>:
10000218:	b508      	push	{r3, lr}
1000021a:	4b05      	ldr	r3, [pc, #20]	@ (10000230 <frame_dummy+0x18>)
1000021c:	b11b      	cbz	r3, 10000226 <frame_dummy+0xe>
1000021e:	4905      	ldr	r1, [pc, #20]	@ (10000234 <frame_dummy+0x1c>)
10000220:	4805      	ldr	r0, [pc, #20]	@ (10000238 <frame_dummy+0x20>)
10000222:	f3af 8000 	nop.w
10000226:	e8bd 4008 	ldmia.w	sp!, {r3, lr}
1000022a:	f7ff bfe1 	b.w	100001f0 <register_tm_clones>
1000022e:	bf00      	nop
10000230:	00000000 	.word	0x00000000
10000234:	20000928 	.word	0x20000928
10000238:	100077c0 	.word	0x100077c0

1000023c <async_context_freertos_default_config>:
1000023c:	4603      	mov	r3, r0
1000023e:	4a03      	ldr	r2, [pc, #12]	@ (1000024c <async_context_freertos_default_config+0x10>)
10000240:	ca07      	ldmia	r2, {r0, r1, r2}
10000242:	e883 0007 	stmia.w	r3, {r0, r1, r2}
10000246:	4618      	mov	r0, r3
10000248:	4770      	bx	lr
1000024a:	bf00      	nop
1000024c:	10008fe8 	.word	0x10008fe8

10000250 <pico_set_led>:
10000250:	2319      	movs	r3, #25
10000252:	ec40 3040 	gpioc_bit_out_put r3, r0
10000256:	4770      	bx	lr

10000258 <pico_init_led>:
10000258:	b508      	push	{r3, lr}
1000025a:	2019      	movs	r0, #25
1000025c:	f004 fa4c 	bl	100046f8 <gpio_init>
10000260:	2319      	movs	r3, #25
10000262:	f04f 0201 	mov.w	r2, #1
10000266:	ec42 3044 	gpioc_bit_oe_put r3, r2
1000026a:	bd08      	pop	{r3, pc}

1000026c <blink_task>:
1000026c:	b510      	push	{r4, lr}
1000026e:	480e      	ldr	r0, [pc, #56]	@ (100002a8 <blink_task+0x3c>)
10000270:	f007 f815 	bl	1000729e <__wrap_puts>
10000274:	f7ff fff0 	bl	10000258 <pico_init_led>
10000278:	2400      	movs	r4, #0
1000027a:	e00d      	b.n	10000298 <blink_task+0x2c>
1000027c:	4b0b      	ldr	r3, [pc, #44]	@ (100002ac <blink_task+0x40>)
1000027e:	6019      	str	r1, [r3, #0]
10000280:	480b      	ldr	r0, [pc, #44]	@ (100002b0 <blink_task+0x44>)
10000282:	f007 f839 	bl	100072f8 <__wrap_printf>
10000286:	4620      	mov	r0, r4
10000288:	f7ff ffe2 	bl	10000250 <pico_set_led>
1000028c:	f084 0401 	eor.w	r4, r4, #1
10000290:	f44f 60fa 	mov.w	r0, #2000	@ 0x7d0
10000294:	f005 f8ae 	bl	100053f4 <busy_wait_ms>
10000298:	f04f 4350 	mov.w	r3, #3489660928	@ 0xd0000000
1000029c:	6819      	ldr	r1, [r3, #0]
1000029e:	4b03      	ldr	r3, [pc, #12]	@ (100002ac <blink_task+0x40>)
100002a0:	681b      	ldr	r3, [r3, #0]
100002a2:	428b      	cmp	r3, r1
100002a4:	d1ea      	bne.n	1000027c <blink_task+0x10>
100002a6:	e7ee      	b.n	10000286 <blink_task+0x1a>
100002a8:	100077c0 	.word	0x100077c0
100002ac:	20000658 	.word	0x20000658
100002b0:	100077d4 	.word	0x100077d4

100002b4 <async_context_add_at_time_worker_in_ms>:
100002b4:	b570      	push	{r4, r5, r6, lr}
100002b6:	4605      	mov	r5, r0
100002b8:	460c      	mov	r4, r1
100002ba:	4616      	mov	r6, r2
100002bc:	f005 f85a 	bl	10005374 <time_us_64>
100002c0:	0ef3      	lsrs	r3, r6, #27
100002c2:	ea4f 1c46 	mov.w	ip, r6, lsl #5
100002c6:	ebbc 0c06 	subs.w	ip, ip, r6
100002ca:	f163 0300 	sbc.w	r3, r3, #0
100002ce:	009b      	lsls	r3, r3, #2
100002d0:	ea43 739c 	orr.w	r3, r3, ip, lsr #30
100002d4:	ea4f 0c8c 	mov.w	ip, ip, lsl #2
100002d8:	eb1c 0c06 	adds.w	ip, ip, r6
100002dc:	f143 0300 	adc.w	r3, r3, #0
100002e0:	00db      	lsls	r3, r3, #3
100002e2:	ea43 735c 	orr.w	r3, r3, ip, lsr #29
100002e6:	ea4f 0ccc 	mov.w	ip, ip, lsl #3
100002ea:	eb10 000c 	adds.w	r0, r0, ip
100002ee:	eb43 0301 	adc.w	r3, r3, r1
100002f2:	2b00      	cmp	r3, #0
100002f4:	db07      	blt.n	10000306 <async_context_add_at_time_worker_in_ms+0x52>
100002f6:	60a0      	str	r0, [r4, #8]
100002f8:	60e3      	str	r3, [r4, #12]
100002fa:	682b      	ldr	r3, [r5, #0]
100002fc:	695b      	ldr	r3, [r3, #20]
100002fe:	4621      	mov	r1, r4
10000300:	4628      	mov	r0, r5
10000302:	4798      	blx	r3
10000304:	bd70      	pop	{r4, r5, r6, pc}
10000306:	f04f 30ff 	mov.w	r0, #4294967295
1000030a:	f06f 4300 	mvn.w	r3, #2147483648	@ 0x80000000
1000030e:	e7f2      	b.n	100002f6 <async_context_add_at_time_worker_in_ms+0x42>

10000310 <do_work>:
10000310:	b508      	push	{r3, lr}
10000312:	f242 7210 	movw	r2, #10000	@ 0x2710
10000316:	f7ff ffcd 	bl	100002b4 <async_context_add_at_time_worker_in_ms>
1000031a:	4b0a      	ldr	r3, [pc, #40]	@ (10000344 <do_work+0x34>)
1000031c:	6819      	ldr	r1, [r3, #0]
1000031e:	1c4a      	adds	r2, r1, #1
10000320:	601a      	str	r2, [r3, #0]
10000322:	4809      	ldr	r0, [pc, #36]	@ (10000348 <do_work+0x38>)
10000324:	f006 ffe8 	bl	100072f8 <__wrap_printf>
10000328:	f04f 4350 	mov.w	r3, #3489660928	@ 0xd0000000
1000032c:	6819      	ldr	r1, [r3, #0]
1000032e:	4b07      	ldr	r3, [pc, #28]	@ (1000034c <do_work+0x3c>)
10000330:	681b      	ldr	r3, [r3, #0]
10000332:	428b      	cmp	r3, r1
10000334:	d100      	bne.n	10000338 <do_work+0x28>
10000336:	bd08      	pop	{r3, pc}
10000338:	4b04      	ldr	r3, [pc, #16]	@ (1000034c <do_work+0x3c>)
1000033a:	6019      	str	r1, [r3, #0]
1000033c:	4804      	ldr	r0, [pc, #16]	@ (10000350 <do_work+0x40>)
1000033e:	f006 ffdb 	bl	100072f8 <__wrap_printf>
10000342:	e7f8      	b.n	10000336 <do_work+0x26>
10000344:	20000918 	.word	0x20000918
10000348:	100077f0 	.word	0x100077f0
1000034c:	20000654 	.word	0x20000654
10000350:	1000780c 	.word	0x1000780c

10000354 <example_async_context>:
10000354:	b500      	push	{lr}
10000356:	b085      	sub	sp, #20
10000358:	a801      	add	r0, sp, #4
1000035a:	f7ff ff6f 	bl	1000023c <async_context_freertos_default_config>
1000035e:	2304      	movs	r3, #4
10000360:	9301      	str	r3, [sp, #4]
10000362:	f44f 7300 	mov.w	r3, #512	@ 0x200
10000366:	9302      	str	r3, [sp, #8]
10000368:	a901      	add	r1, sp, #4
1000036a:	4805      	ldr	r0, [pc, #20]	@ (10000380 <example_async_context+0x2c>)
1000036c:	f000 fa78 	bl	10000860 <async_context_freertos_init>
10000370:	b118      	cbz	r0, 1000037a <example_async_context+0x26>
10000372:	4803      	ldr	r0, [pc, #12]	@ (10000380 <example_async_context+0x2c>)
10000374:	b005      	add	sp, #20
10000376:	f85d fb04 	ldr.w	pc, [sp], #4
1000037a:	2000      	movs	r0, #0
1000037c:	e7fa      	b.n	10000374 <example_async_context+0x20>
1000037e:	bf00      	nop
10000380:	20000708 	.word	0x20000708

10000384 <main_task>:
10000384:	b530      	push	{r4, r5, lr}
10000386:	b083      	sub	sp, #12
10000388:	f7ff ffe4 	bl	10000354 <example_async_context>
1000038c:	2200      	movs	r2, #0
1000038e:	4913      	ldr	r1, [pc, #76]	@ (100003dc <main_task+0x58>)
10000390:	f7ff ff90 	bl	100002b4 <async_context_add_at_time_worker_in_ms>
10000394:	2400      	movs	r4, #0
10000396:	9401      	str	r4, [sp, #4]
10000398:	2301      	movs	r3, #1
1000039a:	9300      	str	r3, [sp, #0]
1000039c:	4623      	mov	r3, r4
1000039e:	f44f 7200 	mov.w	r2, #512	@ 0x200
100003a2:	490f      	ldr	r1, [pc, #60]	@ (100003e0 <main_task+0x5c>)
100003a4:	480f      	ldr	r0, [pc, #60]	@ (100003e4 <main_task+0x60>)
100003a6:	f003 f917 	bl	100035d8 <xTaskCreate>
100003aa:	e00e      	b.n	100003ca <main_task+0x46>
100003ac:	4b0e      	ldr	r3, [pc, #56]	@ (100003e8 <main_task+0x64>)
100003ae:	6019      	str	r1, [r3, #0]
100003b0:	480e      	ldr	r0, [pc, #56]	@ (100003ec <main_task+0x68>)
100003b2:	f006 ffa1 	bl	100072f8 <__wrap_printf>
100003b6:	1c65      	adds	r5, r4, #1
100003b8:	4621      	mov	r1, r4
100003ba:	480d      	ldr	r0, [pc, #52]	@ (100003f0 <main_task+0x6c>)
100003bc:	f006 ff9c 	bl	100072f8 <__wrap_printf>
100003c0:	f640 30b8 	movw	r0, #3000	@ 0xbb8
100003c4:	f003 fb3a 	bl	10003a3c <vTaskDelay>
100003c8:	462c      	mov	r4, r5
100003ca:	f04f 4350 	mov.w	r3, #3489660928	@ 0xd0000000
100003ce:	6819      	ldr	r1, [r3, #0]
100003d0:	4b05      	ldr	r3, [pc, #20]	@ (100003e8 <main_task+0x64>)
100003d2:	681b      	ldr	r3, [r3, #0]
100003d4:	428b      	cmp	r3, r1
100003d6:	d1e9      	bne.n	100003ac <main_task+0x28>
100003d8:	e7ed      	b.n	100003b6 <main_task+0x32>
100003da:	bf00      	nop
100003dc:	20000660 	.word	0x20000660
100003e0:	10007824 	.word	0x10007824
100003e4:	1000026d 	.word	0x1000026d
100003e8:	20000650 	.word	0x20000650
100003ec:	10007830 	.word	0x10007830
100003f0:	1000784c 	.word	0x1000784c

100003f4 <vLaunch>:
100003f4:	b500      	push	{lr}
100003f6:	b085      	sub	sp, #20
100003f8:	ab03      	add	r3, sp, #12
100003fa:	9301      	str	r3, [sp, #4]
100003fc:	2302      	movs	r3, #2
100003fe:	9300      	str	r3, [sp, #0]
10000400:	2300      	movs	r3, #0
10000402:	f44f 7200 	mov.w	r2, #512	@ 0x200
10000406:	4906      	ldr	r1, [pc, #24]	@ (10000420 <vLaunch+0x2c>)
10000408:	4806      	ldr	r0, [pc, #24]	@ (10000424 <vLaunch+0x30>)
1000040a:	f003 f8e5 	bl	100035d8 <xTaskCreate>
1000040e:	2101      	movs	r1, #1
10000410:	9803      	ldr	r0, [sp, #12]
10000412:	f003 fa1d 	bl	10003850 <vTaskCoreAffinitySet>
10000416:	f003 f941 	bl	1000369c <vTaskStartScheduler>
1000041a:	b005      	add	sp, #20
1000041c:	f85d fb04 	ldr.w	pc, [sp], #4
10000420:	1000786c 	.word	0x1000786c
10000424:	10000385 	.word	0x10000385

10000428 <main>:
10000428:	b508      	push	{r3, lr}
1000042a:	f006 ff33 	bl	10007294 <stdio_init_all>
1000042e:	4904      	ldr	r1, [pc, #16]	@ (10000440 <main+0x18>)
10000430:	4804      	ldr	r0, [pc, #16]	@ (10000444 <main+0x1c>)
10000432:	f006 ff61 	bl	100072f8 <__wrap_printf>
10000436:	f7ff ffdd 	bl	100003f4 <vLaunch>
1000043a:	2000      	movs	r0, #0
1000043c:	bd08      	pop	{r3, pc}
1000043e:	bf00      	nop
10000440:	10007878 	.word	0x10007878
10000444:	10007888 	.word	0x10007888

10000448 <end_task_func>:
10000448:	2301      	movs	r3, #1
1000044a:	f880 3031 	strb.w	r3, [r0, #49]	@ 0x31
1000044e:	2000      	movs	r0, #0
10000450:	4770      	bx	lr
	...

10000454 <async_context_freertos_acquire_lock_blocking>:
10000454:	b510      	push	{r4, lr}
10000456:	f3ef 8305 	mrs	r3, IPSR
1000045a:	f013 0fff 	tst.w	r3, #255	@ 0xff
1000045e:	d10b      	bne.n	10000478 <async_context_freertos_acquire_lock_blocking+0x24>
10000460:	4604      	mov	r4, r0
10000462:	f04f 31ff 	mov.w	r1, #4294967295
10000466:	6a00      	ldr	r0, [r0, #32]
10000468:	f001 febc 	bl	100021e4 <xQueueTakeMutexRecursive>
1000046c:	f894 3030 	ldrb.w	r3, [r4, #48]	@ 0x30
10000470:	3301      	adds	r3, #1
10000472:	f884 3030 	strb.w	r3, [r4, #48]	@ 0x30
10000476:	bd10      	pop	{r4, pc}
10000478:	4b02      	ldr	r3, [pc, #8]	@ (10000484 <async_context_freertos_acquire_lock_blocking+0x30>)
1000047a:	4a03      	ldr	r2, [pc, #12]	@ (10000488 <async_context_freertos_acquire_lock_blocking+0x34>)
1000047c:	21a6      	movs	r1, #166	@ 0xa6
1000047e:	4803      	ldr	r0, [pc, #12]	@ (1000048c <async_context_freertos_acquire_lock_blocking+0x38>)
10000480:	f006 fdda 	bl	10007038 <__assert_func>
10000484:	100078a4 	.word	0x100078a4
10000488:	1000908c 	.word	0x1000908c
1000048c:	100078bc 	.word	0x100078bc

10000490 <async_context_freertos_lock_check>:
10000490:	b510      	push	{r4, lr}
10000492:	6a00      	ldr	r0, [r0, #32]
10000494:	f001 fb1c 	bl	10001ad0 <xQueueGetMutexHolder>
10000498:	4604      	mov	r4, r0
1000049a:	f002 fcd9 	bl	10002e50 <xTaskGetCurrentTaskHandle>
1000049e:	4284      	cmp	r4, r0
100004a0:	d100      	bne.n	100004a4 <async_context_freertos_lock_check+0x14>
100004a2:	bd10      	pop	{r4, pc}
100004a4:	4b02      	ldr	r3, [pc, #8]	@ (100004b0 <async_context_freertos_lock_check+0x20>)
100004a6:	4a03      	ldr	r2, [pc, #12]	@ (100004b4 <async_context_freertos_lock_check+0x24>)
100004a8:	21af      	movs	r1, #175	@ 0xaf
100004aa:	4803      	ldr	r0, [pc, #12]	@ (100004b8 <async_context_freertos_lock_check+0x28>)
100004ac:	f006 fdc4 	bl	10007038 <__assert_func>
100004b0:	1000791c 	.word	0x1000791c
100004b4:	10009068 	.word	0x10009068
100004b8:	100078bc 	.word	0x100078bc

100004bc <sensible_ticks_until>:
100004bc:	b538      	push	{r3, r4, r5, lr}
100004be:	4604      	mov	r4, r0
100004c0:	460d      	mov	r5, r1
100004c2:	f004 ff57 	bl	10005374 <time_us_64>
100004c6:	1a24      	subs	r4, r4, r0
100004c8:	eb65 0101 	sbc.w	r1, r5, r1
100004cc:	2c01      	cmp	r4, #1
100004ce:	f171 0300 	sbcs.w	r3, r1, #0
100004d2:	db22      	blt.n	1000051a <sensible_ticks_until+0x5e>
100004d4:	4b12      	ldr	r3, [pc, #72]	@ (10000520 <sensible_ticks_until+0x64>)
100004d6:	42a3      	cmp	r3, r4
100004d8:	f04f 0300 	mov.w	r3, #0
100004dc:	418b      	sbcs	r3, r1
100004de:	da00      	bge.n	100004e2 <sensible_ticks_until+0x26>
100004e0:	4c0f      	ldr	r4, [pc, #60]	@ (10000520 <sensible_ticks_until+0x64>)
100004e2:	f204 33e7 	addw	r3, r4, #999	@ 0x3e7
100004e6:	4a0f      	ldr	r2, [pc, #60]	@ (10000524 <sensible_ticks_until+0x68>)
100004e8:	fba2 2303 	umull	r2, r3, r2, r3
100004ec:	099b      	lsrs	r3, r3, #6
100004ee:	0159      	lsls	r1, r3, #5
100004f0:	1ac9      	subs	r1, r1, r3
100004f2:	eb62 0202 	sbc.w	r2, r2, r2
100004f6:	0092      	lsls	r2, r2, #2
100004f8:	ea42 7291 	orr.w	r2, r2, r1, lsr #30
100004fc:	0089      	lsls	r1, r1, #2
100004fe:	18c9      	adds	r1, r1, r3
10000500:	f142 0200 	adc.w	r2, r2, #0
10000504:	00d4      	lsls	r4, r2, #3
10000506:	f44f 727a 	mov.w	r2, #1000	@ 0x3e8
1000050a:	2300      	movs	r3, #0
1000050c:	00c8      	lsls	r0, r1, #3
1000050e:	ea44 7151 	orr.w	r1, r4, r1, lsr #29
10000512:	f007 f921 	bl	10007758 <____aeabi_uldivmod_veneer>
10000516:	3001      	adds	r0, #1
10000518:	bd38      	pop	{r3, r4, r5, pc}
1000051a:	2000      	movs	r0, #0
1000051c:	e7fc      	b.n	10000518 <sensible_ticks_until+0x5c>
1000051e:	bf00      	nop
10000520:	03938700 	.word	0x03938700
10000524:	10624dd3 	.word	0x10624dd3

10000528 <process_under_lock>:
10000528:	b510      	push	{r4, lr}
1000052a:	b082      	sub	sp, #8
1000052c:	4604      	mov	r4, r0
1000052e:	f7ff ffaf 	bl	10000490 <async_context_freertos_lock_check>
10000532:	e00b      	b.n	1000054c <process_under_lock+0x24>
10000534:	f04f 32ff 	mov.w	r2, #4294967295
10000538:	9200      	str	r2, [sp, #0]
1000053a:	2300      	movs	r3, #0
1000053c:	2104      	movs	r1, #4
1000053e:	6aa0      	ldr	r0, [r4, #40]	@ 0x28
10000540:	f003 ff86 	bl	10004450 <xTimerGenericCommandFromTask>
10000544:	fab0 f080 	clz	r0, r0
10000548:	0940      	lsrs	r0, r0, #5
1000054a:	b180      	cbz	r0, 1000056e <process_under_lock+0x46>
1000054c:	4620      	mov	r0, r4
1000054e:	f000 fa69 	bl	10000a24 <async_context_base_execute_once>
10000552:	4b08      	ldr	r3, [pc, #32]	@ (10000574 <process_under_lock+0x4c>)
10000554:	681a      	ldr	r2, [r3, #0]
10000556:	685b      	ldr	r3, [r3, #4]
10000558:	4299      	cmp	r1, r3
1000055a:	bf08      	it	eq
1000055c:	4290      	cmpeq	r0, r2
1000055e:	d0e9      	beq.n	10000534 <process_under_lock+0xc>
10000560:	f7ff ffac 	bl	100004bc <sensible_ticks_until>
10000564:	4602      	mov	r2, r0
10000566:	2800      	cmp	r0, #0
10000568:	d1e6      	bne.n	10000538 <process_under_lock+0x10>
1000056a:	2001      	movs	r0, #1
1000056c:	e7ed      	b.n	1000054a <process_under_lock+0x22>
1000056e:	b002      	add	sp, #8
10000570:	bd10      	pop	{r4, pc}
10000572:	bf00      	nop
10000574:	10009730 	.word	0x10009730

10000578 <async_context_freertos_wake_up>:
10000578:	b570      	push	{r4, r5, r6, lr}
1000057a:	b082      	sub	sp, #8
1000057c:	4604      	mov	r4, r0
1000057e:	6ac0      	ldr	r0, [r0, #44]	@ 0x2c
10000580:	b160      	cbz	r0, 1000059c <async_context_freertos_wake_up+0x24>
10000582:	f3ef 8305 	mrs	r3, IPSR
10000586:	f013 0fff 	tst.w	r3, #255	@ 0xff
1000058a:	d009      	beq.n	100005a0 <async_context_freertos_wake_up+0x28>
1000058c:	2200      	movs	r2, #0
1000058e:	4611      	mov	r1, r2
10000590:	f003 fcbc 	bl	10003f0c <vTaskGenericNotifyGiveFromISR>
10000594:	2100      	movs	r1, #0
10000596:	6a60      	ldr	r0, [r4, #36]	@ 0x24
10000598:	f001 fc48 	bl	10001e2c <xQueueGiveFromISR>
1000059c:	b002      	add	sp, #8
1000059e:	bd70      	pop	{r4, r5, r6, pc}
100005a0:	f002 fc56 	bl	10002e50 <xTaskGetCurrentTaskHandle>
100005a4:	6ae6      	ldr	r6, [r4, #44]	@ 0x2c
100005a6:	4286      	cmp	r6, r0
100005a8:	d00e      	beq.n	100005c8 <async_context_freertos_wake_up+0x50>
100005aa:	2500      	movs	r5, #0
100005ac:	9500      	str	r5, [sp, #0]
100005ae:	2302      	movs	r3, #2
100005b0:	462a      	mov	r2, r5
100005b2:	4629      	mov	r1, r5
100005b4:	4630      	mov	r0, r6
100005b6:	f003 fbf7 	bl	10003da8 <xTaskGenericNotify>
100005ba:	462b      	mov	r3, r5
100005bc:	462a      	mov	r2, r5
100005be:	4629      	mov	r1, r5
100005c0:	6a60      	ldr	r0, [r4, #36]	@ 0x24
100005c2:	f001 faa1 	bl	10001b08 <xQueueGenericSend>
100005c6:	e7e9      	b.n	1000059c <async_context_freertos_wake_up+0x24>
100005c8:	4620      	mov	r0, r4
100005ca:	f7ff ff61 	bl	10000490 <async_context_freertos_lock_check>
100005ce:	e7e5      	b.n	1000059c <async_context_freertos_wake_up+0x24>

100005d0 <async_context_freertos_release_lock>:
100005d0:	b538      	push	{r3, r4, r5, lr}
100005d2:	4604      	mov	r4, r0
100005d4:	f890 3030 	ldrb.w	r3, [r0, #48]	@ 0x30
100005d8:	2b01      	cmp	r3, #1
100005da:	d00a      	beq.n	100005f2 <async_context_freertos_release_lock+0x22>
100005dc:	2500      	movs	r5, #0
100005de:	f894 3030 	ldrb.w	r3, [r4, #48]	@ 0x30
100005e2:	3b01      	subs	r3, #1
100005e4:	f884 3030 	strb.w	r3, [r4, #48]	@ 0x30
100005e8:	6a20      	ldr	r0, [r4, #32]
100005ea:	f001 fb65 	bl	10001cb8 <xQueueGiveMutexRecursive>
100005ee:	b965      	cbnz	r5, 1000060a <async_context_freertos_release_lock+0x3a>
100005f0:	bd38      	pop	{r3, r4, r5, pc}
100005f2:	6ac5      	ldr	r5, [r0, #44]	@ 0x2c
100005f4:	f002 fc2c 	bl	10002e50 <xTaskGetCurrentTaskHandle>
100005f8:	4285      	cmp	r5, r0
100005fa:	d001      	beq.n	10000600 <async_context_freertos_release_lock+0x30>
100005fc:	2501      	movs	r5, #1
100005fe:	e7ee      	b.n	100005de <async_context_freertos_release_lock+0xe>
10000600:	4620      	mov	r0, r4
10000602:	f7ff ff91 	bl	10000528 <process_under_lock>
10000606:	2500      	movs	r5, #0
10000608:	e7e9      	b.n	100005de <async_context_freertos_release_lock+0xe>
1000060a:	4620      	mov	r0, r4
1000060c:	f7ff ffb4 	bl	10000578 <async_context_freertos_wake_up>
10000610:	e7ee      	b.n	100005f0 <async_context_freertos_release_lock+0x20>

10000612 <async_context_task>:
10000612:	b510      	push	{r4, lr}
10000614:	4604      	mov	r4, r0
10000616:	f04f 32ff 	mov.w	r2, #4294967295
1000061a:	2100      	movs	r1, #0
1000061c:	4608      	mov	r0, r1
1000061e:	f003 fb61 	bl	10003ce4 <ulTaskGenericNotifyTake>
10000622:	f894 3031 	ldrb.w	r3, [r4, #49]	@ 0x31
10000626:	b96b      	cbnz	r3, 10000644 <async_context_task+0x32>
10000628:	4620      	mov	r0, r4
1000062a:	f7ff ff13 	bl	10000454 <async_context_freertos_acquire_lock_blocking>
1000062e:	4620      	mov	r0, r4
10000630:	f7ff ff7a 	bl	10000528 <process_under_lock>
10000634:	4620      	mov	r0, r4
10000636:	f7ff ffcb 	bl	100005d0 <async_context_freertos_release_lock>
1000063a:	bf40      	sev
1000063c:	f894 3031 	ldrb.w	r3, [r4, #49]	@ 0x31
10000640:	2b00      	cmp	r3, #0
10000642:	d0e8      	beq.n	10000616 <async_context_task+0x4>
10000644:	2000      	movs	r0, #0
10000646:	f003 f871 	bl	1000372c <vTaskDelete>
1000064a:	bd10      	pop	{r4, pc}

1000064c <async_context_freertos_set_work_pending>:
1000064c:	b508      	push	{r3, lr}
1000064e:	2301      	movs	r3, #1
10000650:	720b      	strb	r3, [r1, #8]
10000652:	f7ff ff91 	bl	10000578 <async_context_freertos_wake_up>
10000656:	bd08      	pop	{r3, pc}

10000658 <handle_sync_func_call>:
10000658:	b510      	push	{r4, lr}
1000065a:	460c      	mov	r4, r1
1000065c:	694b      	ldr	r3, [r1, #20]
1000065e:	6988      	ldr	r0, [r1, #24]
10000660:	4798      	blx	r3
10000662:	61e0      	str	r0, [r4, #28]
10000664:	2300      	movs	r3, #0
10000666:	461a      	mov	r2, r3
10000668:	4619      	mov	r1, r3
1000066a:	6920      	ldr	r0, [r4, #16]
1000066c:	f001 fa4c 	bl	10001b08 <xQueueGenericSend>
10000670:	bd10      	pop	{r4, pc}

10000672 <timer_handler>:
10000672:	b508      	push	{r3, lr}
10000674:	f003 ff26 	bl	100044c4 <pvTimerGetTimerID>
10000678:	f7ff ff7e 	bl	10000578 <async_context_freertos_wake_up>
1000067c:	bd08      	pop	{r3, pc}
	...

10000680 <async_context_freertos_wait_for_work_until>:
10000680:	b570      	push	{r4, r5, r6, lr}
10000682:	4606      	mov	r6, r0
10000684:	4615      	mov	r5, r2
10000686:	461c      	mov	r4, r3
10000688:	f3ef 8305 	mrs	r3, IPSR
1000068c:	f013 0fff 	tst.w	r3, #255	@ 0xff
10000690:	d014      	beq.n	100006bc <async_context_freertos_wait_for_work_until+0x3c>
10000692:	4b12      	ldr	r3, [pc, #72]	@ (100006dc <async_context_freertos_wait_for_work_until+0x5c>)
10000694:	4a12      	ldr	r2, [pc, #72]	@ (100006e0 <async_context_freertos_wait_for_work_until+0x60>)
10000696:	f240 1111 	movw	r1, #273	@ 0x111
1000069a:	4812      	ldr	r0, [pc, #72]	@ (100006e4 <async_context_freertos_wait_for_work_until+0x64>)
1000069c:	f006 fccc 	bl	10007038 <__assert_func>
100006a0:	2300      	movs	r3, #0
100006a2:	e000      	b.n	100006a6 <async_context_freertos_wait_for_work_until+0x26>
100006a4:	2300      	movs	r3, #0
100006a6:	b9bb      	cbnz	r3, 100006d8 <async_context_freertos_wait_for_work_until+0x58>
100006a8:	4628      	mov	r0, r5
100006aa:	4621      	mov	r1, r4
100006ac:	f7ff ff06 	bl	100004bc <sensible_ticks_until>
100006b0:	4601      	mov	r1, r0
100006b2:	b188      	cbz	r0, 100006d8 <async_context_freertos_wait_for_work_until+0x58>
100006b4:	6a70      	ldr	r0, [r6, #36]	@ 0x24
100006b6:	f001 fcd7 	bl	10002068 <xQueueSemaphoreTake>
100006ba:	b968      	cbnz	r0, 100006d8 <async_context_freertos_wait_for_work_until+0x58>
100006bc:	4b0a      	ldr	r3, [pc, #40]	@ (100006e8 <async_context_freertos_wait_for_work_until+0x68>)
100006be:	6a5b      	ldr	r3, [r3, #36]	@ 0x24
100006c0:	429c      	cmp	r4, r3
100006c2:	d8ef      	bhi.n	100006a4 <async_context_freertos_wait_for_work_until+0x24>
100006c4:	4a08      	ldr	r2, [pc, #32]	@ (100006e8 <async_context_freertos_wait_for_work_until+0x68>)
100006c6:	6a92      	ldr	r2, [r2, #40]	@ 0x28
100006c8:	42aa      	cmp	r2, r5
100006ca:	d203      	bcs.n	100006d4 <async_context_freertos_wait_for_work_until+0x54>
100006cc:	429c      	cmp	r4, r3
100006ce:	d0e7      	beq.n	100006a0 <async_context_freertos_wait_for_work_until+0x20>
100006d0:	2301      	movs	r3, #1
100006d2:	e7e8      	b.n	100006a6 <async_context_freertos_wait_for_work_until+0x26>
100006d4:	2301      	movs	r3, #1
100006d6:	e7e6      	b.n	100006a6 <async_context_freertos_wait_for_work_until+0x26>
100006d8:	bd70      	pop	{r4, r5, r6, pc}
100006da:	bf00      	nop
100006dc:	100078a4 	.word	0x100078a4
100006e0:	1000903c 	.word	0x1000903c
100006e4:	100078bc 	.word	0x100078bc
100006e8:	400b0000 	.word	0x400b0000

100006ec <async_context_freertos_wait_until>:
100006ec:	b508      	push	{r3, lr}
100006ee:	4619      	mov	r1, r3
100006f0:	f3ef 8305 	mrs	r3, IPSR
100006f4:	f013 0fff 	tst.w	r3, #255	@ 0xff
100006f8:	d105      	bne.n	10000706 <async_context_freertos_wait_until+0x1a>
100006fa:	4610      	mov	r0, r2
100006fc:	f7ff fede 	bl	100004bc <sensible_ticks_until>
10000700:	f003 f99c 	bl	10003a3c <vTaskDelay>
10000704:	bd08      	pop	{r3, pc}
10000706:	4b03      	ldr	r3, [pc, #12]	@ (10000714 <async_context_freertos_wait_until+0x28>)
10000708:	4a03      	ldr	r2, [pc, #12]	@ (10000718 <async_context_freertos_wait_until+0x2c>)
1000070a:	f44f 7185 	mov.w	r1, #266	@ 0x10a
1000070e:	4803      	ldr	r0, [pc, #12]	@ (1000071c <async_context_freertos_wait_until+0x30>)
10000710:	f006 fc92 	bl	10007038 <__assert_func>
10000714:	100078a4 	.word	0x100078a4
10000718:	10009018 	.word	0x10009018
1000071c:	100078bc 	.word	0x100078bc

10000720 <async_context_freertos_remove_when_pending_worker>:
10000720:	b538      	push	{r3, r4, r5, lr}
10000722:	4604      	mov	r4, r0
10000724:	460d      	mov	r5, r1
10000726:	f7ff fe95 	bl	10000454 <async_context_freertos_acquire_lock_blocking>
1000072a:	4629      	mov	r1, r5
1000072c:	4620      	mov	r0, r4
1000072e:	f000 f916 	bl	1000095e <async_context_base_remove_when_pending_worker>
10000732:	4605      	mov	r5, r0
10000734:	4620      	mov	r0, r4
10000736:	f7ff ff4b 	bl	100005d0 <async_context_freertos_release_lock>
1000073a:	4628      	mov	r0, r5
1000073c:	bd38      	pop	{r3, r4, r5, pc}

1000073e <async_context_freertos_add_when_pending_worker>:
1000073e:	b538      	push	{r3, r4, r5, lr}
10000740:	4604      	mov	r4, r0
10000742:	460d      	mov	r5, r1
10000744:	f7ff fe86 	bl	10000454 <async_context_freertos_acquire_lock_blocking>
10000748:	4629      	mov	r1, r5
1000074a:	4620      	mov	r0, r4
1000074c:	f000 f8fa 	bl	10000944 <async_context_base_add_when_pending_worker>
10000750:	4605      	mov	r5, r0
10000752:	4620      	mov	r0, r4
10000754:	f7ff ff3c 	bl	100005d0 <async_context_freertos_release_lock>
10000758:	4628      	mov	r0, r5
1000075a:	bd38      	pop	{r3, r4, r5, pc}

1000075c <async_context_freertos_remove_at_time_worker>:
1000075c:	b538      	push	{r3, r4, r5, lr}
1000075e:	4604      	mov	r4, r0
10000760:	460d      	mov	r5, r1
10000762:	f7ff fe77 	bl	10000454 <async_context_freertos_acquire_lock_blocking>
10000766:	4629      	mov	r1, r5
10000768:	4620      	mov	r0, r4
1000076a:	f000 f8de 	bl	1000092a <async_context_base_remove_at_time_worker>
1000076e:	4605      	mov	r5, r0
10000770:	4620      	mov	r0, r4
10000772:	f7ff ff2d 	bl	100005d0 <async_context_freertos_release_lock>
10000776:	4628      	mov	r0, r5
10000778:	bd38      	pop	{r3, r4, r5, pc}

1000077a <async_context_freertos_add_at_time_worker>:
1000077a:	b538      	push	{r3, r4, r5, lr}
1000077c:	4604      	mov	r4, r0
1000077e:	460d      	mov	r5, r1
10000780:	f7ff fe68 	bl	10000454 <async_context_freertos_acquire_lock_blocking>
10000784:	4629      	mov	r1, r5
10000786:	4620      	mov	r0, r4
10000788:	f000 f8c2 	bl	10000910 <async_context_base_add_at_time_worker>
1000078c:	4605      	mov	r5, r0
1000078e:	4620      	mov	r0, r4
10000790:	f7ff ff1e 	bl	100005d0 <async_context_freertos_release_lock>
10000794:	4628      	mov	r0, r5
10000796:	bd38      	pop	{r3, r4, r5, pc}

10000798 <async_context_freertos_deinit>:
10000798:	b510      	push	{r4, lr}
1000079a:	b082      	sub	sp, #8
1000079c:	4604      	mov	r4, r0
1000079e:	6ac3      	ldr	r3, [r0, #44]	@ 0x2c
100007a0:	b123      	cbz	r3, 100007ac <async_context_freertos_deinit+0x14>
100007a2:	6803      	ldr	r3, [r0, #0]
100007a4:	691b      	ldr	r3, [r3, #16]
100007a6:	4602      	mov	r2, r0
100007a8:	490c      	ldr	r1, [pc, #48]	@ (100007dc <async_context_freertos_deinit+0x44>)
100007aa:	4798      	blx	r3
100007ac:	6aa0      	ldr	r0, [r4, #40]	@ 0x28
100007ae:	b128      	cbz	r0, 100007bc <async_context_freertos_deinit+0x24>
100007b0:	2200      	movs	r2, #0
100007b2:	9200      	str	r2, [sp, #0]
100007b4:	4613      	mov	r3, r2
100007b6:	2105      	movs	r1, #5
100007b8:	f003 fe4a 	bl	10004450 <xTimerGenericCommandFromTask>
100007bc:	6a20      	ldr	r0, [r4, #32]
100007be:	b108      	cbz	r0, 100007c4 <async_context_freertos_deinit+0x2c>
100007c0:	f001 fd8c 	bl	100022dc <vQueueDelete>
100007c4:	6a60      	ldr	r0, [r4, #36]	@ 0x24
100007c6:	b108      	cbz	r0, 100007cc <async_context_freertos_deinit+0x34>
100007c8:	f001 fd88 	bl	100022dc <vQueueDelete>
100007cc:	2238      	movs	r2, #56	@ 0x38
100007ce:	2100      	movs	r1, #0
100007d0:	4620      	mov	r0, r4
100007d2:	f006 fec7 	bl	10007564 <memset>
100007d6:	b002      	add	sp, #8
100007d8:	bd10      	pop	{r4, pc}
100007da:	bf00      	nop
100007dc:	10000449 	.word	0x10000449

100007e0 <async_context_freertos_execute_sync>:
100007e0:	b5f0      	push	{r4, r5, r6, r7, lr}
100007e2:	b089      	sub	sp, #36	@ 0x24
100007e4:	4604      	mov	r4, r0
100007e6:	460f      	mov	r7, r1
100007e8:	4616      	mov	r6, r2
100007ea:	6a00      	ldr	r0, [r0, #32]
100007ec:	f001 f970 	bl	10001ad0 <xQueueGetMutexHolder>
100007f0:	4605      	mov	r5, r0
100007f2:	f002 fb2d 	bl	10002e50 <xTaskGetCurrentTaskHandle>
100007f6:	4285      	cmp	r5, r0
100007f8:	d023      	beq.n	10000842 <async_context_freertos_execute_sync+0x62>
100007fa:	4b15      	ldr	r3, [pc, #84]	@ (10000850 <async_context_freertos_execute_sync+0x70>)
100007fc:	9301      	str	r3, [sp, #4]
100007fe:	9705      	str	r7, [sp, #20]
10000800:	9606      	str	r6, [sp, #24]
10000802:	2203      	movs	r2, #3
10000804:	2100      	movs	r1, #0
10000806:	2001      	movs	r0, #1
10000808:	f001 f932 	bl	10001a70 <xQueueGenericCreate>
1000080c:	9004      	str	r0, [sp, #16]
1000080e:	6823      	ldr	r3, [r4, #0]
10000810:	69db      	ldr	r3, [r3, #28]
10000812:	4669      	mov	r1, sp
10000814:	4620      	mov	r0, r4
10000816:	4798      	blx	r3
10000818:	6823      	ldr	r3, [r4, #0]
1000081a:	6a5b      	ldr	r3, [r3, #36]	@ 0x24
1000081c:	4669      	mov	r1, sp
1000081e:	4620      	mov	r0, r4
10000820:	4798      	blx	r3
10000822:	f04f 31ff 	mov.w	r1, #4294967295
10000826:	9804      	ldr	r0, [sp, #16]
10000828:	f001 fc1e 	bl	10002068 <xQueueSemaphoreTake>
1000082c:	6823      	ldr	r3, [r4, #0]
1000082e:	6a1b      	ldr	r3, [r3, #32]
10000830:	4669      	mov	r1, sp
10000832:	4620      	mov	r0, r4
10000834:	4798      	blx	r3
10000836:	9804      	ldr	r0, [sp, #16]
10000838:	f001 fd50 	bl	100022dc <vQueueDelete>
1000083c:	9807      	ldr	r0, [sp, #28]
1000083e:	b009      	add	sp, #36	@ 0x24
10000840:	bdf0      	pop	{r4, r5, r6, r7, pc}
10000842:	4b04      	ldr	r3, [pc, #16]	@ (10000854 <async_context_freertos_execute_sync+0x74>)
10000844:	4a04      	ldr	r2, [pc, #16]	@ (10000858 <async_context_freertos_execute_sync+0x78>)
10000846:	21c3      	movs	r1, #195	@ 0xc3
10000848:	4804      	ldr	r0, [pc, #16]	@ (1000085c <async_context_freertos_execute_sync+0x7c>)
1000084a:	f006 fbf5 	bl	10007038 <__assert_func>
1000084e:	bf00      	nop
10000850:	10000659 	.word	0x10000659
10000854:	10007968 	.word	0x10007968
10000858:	10008ff4 	.word	0x10008ff4
1000085c:	100078bc 	.word	0x100078bc

10000860 <async_context_freertos_init>:
10000860:	b570      	push	{r4, r5, r6, lr}
10000862:	b082      	sub	sp, #8
10000864:	4604      	mov	r4, r0
10000866:	460d      	mov	r5, r1
10000868:	2238      	movs	r2, #56	@ 0x38
1000086a:	2100      	movs	r1, #0
1000086c:	f006 fe7a 	bl	10007564 <memset>
10000870:	4b22      	ldr	r3, [pc, #136]	@ (100008fc <async_context_freertos_init+0x9c>)
10000872:	6023      	str	r3, [r4, #0]
10000874:	2601      	movs	r6, #1
10000876:	8326      	strh	r6, [r4, #24]
10000878:	f04f 4350 	mov.w	r3, #3489660928	@ 0xd0000000
1000087c:	681b      	ldr	r3, [r3, #0]
1000087e:	76a3      	strb	r3, [r4, #26]
10000880:	2004      	movs	r0, #4
10000882:	f001 fa0d 	bl	10001ca0 <xQueueCreateMutex>
10000886:	6220      	str	r0, [r4, #32]
10000888:	2203      	movs	r2, #3
1000088a:	2100      	movs	r1, #0
1000088c:	4630      	mov	r0, r6
1000088e:	f001 f8ef 	bl	10001a70 <xQueueGenericCreate>
10000892:	6260      	str	r0, [r4, #36]	@ 0x24
10000894:	4b1a      	ldr	r3, [pc, #104]	@ (10000900 <async_context_freertos_init+0xa0>)
10000896:	9300      	str	r3, [sp, #0]
10000898:	4623      	mov	r3, r4
1000089a:	2200      	movs	r2, #0
1000089c:	f04f 31ff 	mov.w	r1, #4294967295
100008a0:	4818      	ldr	r0, [pc, #96]	@ (10000904 <async_context_freertos_init+0xa4>)
100008a2:	f003 fdb9 	bl	10004418 <xTimerCreate>
100008a6:	62a0      	str	r0, [r4, #40]	@ 0x28
100008a8:	6a23      	ldr	r3, [r4, #32]
100008aa:	b17b      	cbz	r3, 100008cc <async_context_freertos_init+0x6c>
100008ac:	6a63      	ldr	r3, [r4, #36]	@ 0x24
100008ae:	b16b      	cbz	r3, 100008cc <async_context_freertos_init+0x6c>
100008b0:	b160      	cbz	r0, 100008cc <async_context_freertos_init+0x6c>
100008b2:	f104 032c 	add.w	r3, r4, #44	@ 0x2c
100008b6:	9301      	str	r3, [sp, #4]
100008b8:	682b      	ldr	r3, [r5, #0]
100008ba:	9300      	str	r3, [sp, #0]
100008bc:	4623      	mov	r3, r4
100008be:	686a      	ldr	r2, [r5, #4]
100008c0:	4911      	ldr	r1, [pc, #68]	@ (10000908 <async_context_freertos_init+0xa8>)
100008c2:	4812      	ldr	r0, [pc, #72]	@ (1000090c <async_context_freertos_init+0xac>)
100008c4:	f002 fe88 	bl	100035d8 <xTaskCreate>
100008c8:	42b0      	cmp	r0, r6
100008ca:	d006      	beq.n	100008da <async_context_freertos_init+0x7a>
100008cc:	6823      	ldr	r3, [r4, #0]
100008ce:	6b5b      	ldr	r3, [r3, #52]	@ 0x34
100008d0:	4620      	mov	r0, r4
100008d2:	4798      	blx	r3
100008d4:	2000      	movs	r0, #0
100008d6:	b002      	add	sp, #8
100008d8:	bd70      	pop	{r4, r5, r6, pc}
100008da:	68a9      	ldr	r1, [r5, #8]
100008dc:	f1b1 3fff 	cmp.w	r1, #4294967295
100008e0:	d007      	beq.n	100008f2 <async_context_freertos_init+0x92>
100008e2:	2501      	movs	r5, #1
100008e4:	fa05 f101 	lsl.w	r1, r5, r1
100008e8:	6ae0      	ldr	r0, [r4, #44]	@ 0x2c
100008ea:	f002 ffb1 	bl	10003850 <vTaskCoreAffinitySet>
100008ee:	4628      	mov	r0, r5
100008f0:	e7f1      	b.n	100008d6 <async_context_freertos_init+0x76>
100008f2:	f04f 4350 	mov.w	r3, #3489660928	@ 0xd0000000
100008f6:	6819      	ldr	r1, [r3, #0]
100008f8:	e7f3      	b.n	100008e2 <async_context_freertos_init+0x82>
100008fa:	bf00      	nop
100008fc:	100090bc 	.word	0x100090bc
10000900:	10000673 	.word	0x10000673
10000904:	100079b4 	.word	0x100079b4
10000908:	100079c8 	.word	0x100079c8
1000090c:	10000613 	.word	0x10000613

10000910 <async_context_base_add_at_time_worker>:
10000910:	3008      	adds	r0, #8
10000912:	e000      	b.n	10000916 <async_context_base_add_at_time_worker+0x6>
10000914:	4618      	mov	r0, r3
10000916:	6803      	ldr	r3, [r0, #0]
10000918:	b11b      	cbz	r3, 10000922 <async_context_base_add_at_time_worker+0x12>
1000091a:	428b      	cmp	r3, r1
1000091c:	d1fa      	bne.n	10000914 <async_context_base_add_at_time_worker+0x4>
1000091e:	2000      	movs	r0, #0
10000920:	4770      	bx	lr
10000922:	6001      	str	r1, [r0, #0]
10000924:	600b      	str	r3, [r1, #0]
10000926:	2001      	movs	r0, #1
10000928:	4770      	bx	lr

1000092a <async_context_base_remove_at_time_worker>:
1000092a:	3008      	adds	r0, #8
1000092c:	e000      	b.n	10000930 <async_context_base_remove_at_time_worker+0x6>
1000092e:	4618      	mov	r0, r3
10000930:	6803      	ldr	r3, [r0, #0]
10000932:	b12b      	cbz	r3, 10000940 <async_context_base_remove_at_time_worker+0x16>
10000934:	428b      	cmp	r3, r1
10000936:	d1fa      	bne.n	1000092e <async_context_base_remove_at_time_worker+0x4>
10000938:	680b      	ldr	r3, [r1, #0]
1000093a:	6003      	str	r3, [r0, #0]
1000093c:	2001      	movs	r0, #1
1000093e:	4770      	bx	lr
10000940:	2000      	movs	r0, #0
10000942:	4770      	bx	lr

10000944 <async_context_base_add_when_pending_worker>:
10000944:	3004      	adds	r0, #4
10000946:	e000      	b.n	1000094a <async_context_base_add_when_pending_worker+0x6>
10000948:	4618      	mov	r0, r3
1000094a:	6803      	ldr	r3, [r0, #0]
1000094c:	b11b      	cbz	r3, 10000956 <async_context_base_add_when_pending_worker+0x12>
1000094e:	428b      	cmp	r3, r1
10000950:	d1fa      	bne.n	10000948 <async_context_base_add_when_pending_worker+0x4>
10000952:	2000      	movs	r0, #0
10000954:	4770      	bx	lr
10000956:	6001      	str	r1, [r0, #0]
10000958:	600b      	str	r3, [r1, #0]
1000095a:	2001      	movs	r0, #1
1000095c:	4770      	bx	lr

1000095e <async_context_base_remove_when_pending_worker>:
1000095e:	3004      	adds	r0, #4
10000960:	e000      	b.n	10000964 <async_context_base_remove_when_pending_worker+0x6>
10000962:	4618      	mov	r0, r3
10000964:	6803      	ldr	r3, [r0, #0]
10000966:	b12b      	cbz	r3, 10000974 <async_context_base_remove_when_pending_worker+0x16>
10000968:	428b      	cmp	r3, r1
1000096a:	d1fa      	bne.n	10000962 <async_context_base_remove_when_pending_worker+0x4>
1000096c:	680b      	ldr	r3, [r1, #0]
1000096e:	6003      	str	r3, [r0, #0]
10000970:	2001      	movs	r0, #1
10000972:	4770      	bx	lr
10000974:	2000      	movs	r0, #0
10000976:	4770      	bx	lr

10000978 <async_context_base_remove_ready_at_time_worker>:
10000978:	b538      	push	{r3, r4, r5, lr}
1000097a:	4604      	mov	r4, r0
1000097c:	6880      	ldr	r0, [r0, #8]
1000097e:	b338      	cbz	r0, 100009d0 <async_context_base_remove_ready_at_time_worker+0x58>
10000980:	f004 fcf8 	bl	10005374 <time_us_64>
10000984:	f104 0c08 	add.w	ip, r4, #8
10000988:	2500      	movs	r5, #0
1000098a:	e006      	b.n	1000099a <async_context_base_remove_ready_at_time_worker+0x22>
1000098c:	4b12      	ldr	r3, [pc, #72]	@ (100009d8 <async_context_base_remove_ready_at_time_worker+0x60>)
1000098e:	4a13      	ldr	r2, [pc, #76]	@ (100009dc <async_context_base_remove_ready_at_time_worker+0x64>)
10000990:	2142      	movs	r1, #66	@ 0x42
10000992:	4813      	ldr	r0, [pc, #76]	@ (100009e0 <async_context_base_remove_ready_at_time_worker+0x68>)
10000994:	f006 fb50 	bl	10007038 <__assert_func>
10000998:	469c      	mov	ip, r3
1000099a:	f8dc 3000 	ldr.w	r3, [ip]
1000099e:	b19b      	cbz	r3, 100009c8 <async_context_base_remove_ready_at_time_worker+0x50>
100009a0:	689a      	ldr	r2, [r3, #8]
100009a2:	68dc      	ldr	r4, [r3, #12]
100009a4:	ebb0 0e02 	subs.w	lr, r0, r2
100009a8:	eb61 0e04 	sbc.w	lr, r1, r4
100009ac:	f1be 0f00 	cmp.w	lr, #0
100009b0:	dbf2      	blt.n	10000998 <async_context_base_remove_ready_at_time_worker+0x20>
100009b2:	490c      	ldr	r1, [pc, #48]	@ (100009e4 <async_context_base_remove_ready_at_time_worker+0x6c>)
100009b4:	6808      	ldr	r0, [r1, #0]
100009b6:	6849      	ldr	r1, [r1, #4]
100009b8:	428c      	cmp	r4, r1
100009ba:	bf08      	it	eq
100009bc:	4282      	cmpeq	r2, r0
100009be:	d0e5      	beq.n	1000098c <async_context_base_remove_ready_at_time_worker+0x14>
100009c0:	4610      	mov	r0, r2
100009c2:	4621      	mov	r1, r4
100009c4:	4665      	mov	r5, ip
100009c6:	e7e7      	b.n	10000998 <async_context_base_remove_ready_at_time_worker+0x20>
100009c8:	b11d      	cbz	r5, 100009d2 <async_context_base_remove_ready_at_time_worker+0x5a>
100009ca:	6828      	ldr	r0, [r5, #0]
100009cc:	6803      	ldr	r3, [r0, #0]
100009ce:	602b      	str	r3, [r5, #0]
100009d0:	bd38      	pop	{r3, r4, r5, pc}
100009d2:	4628      	mov	r0, r5
100009d4:	e7fc      	b.n	100009d0 <async_context_base_remove_ready_at_time_worker+0x58>
100009d6:	bf00      	nop
100009d8:	100079dc 	.word	0x100079dc
100009dc:	100090f4 	.word	0x100090f4
100009e0:	10007a00 	.word	0x10007a00
100009e4:	10009730 	.word	0x10009730

100009e8 <async_context_base_refresh_next_timeout>:
100009e8:	b470      	push	{r4, r5, r6}
100009ea:	4b0d      	ldr	r3, [pc, #52]	@ (10000a20 <async_context_base_refresh_next_timeout+0x38>)
100009ec:	6819      	ldr	r1, [r3, #0]
100009ee:	685e      	ldr	r6, [r3, #4]
100009f0:	6883      	ldr	r3, [r0, #8]
100009f2:	e000      	b.n	100009f6 <async_context_base_refresh_next_timeout+0xe>
100009f4:	462b      	mov	r3, r5
100009f6:	b173      	cbz	r3, 10000a16 <async_context_base_refresh_next_timeout+0x2e>
100009f8:	681d      	ldr	r5, [r3, #0]
100009fa:	689a      	ldr	r2, [r3, #8]
100009fc:	68dc      	ldr	r4, [r3, #12]
100009fe:	ebb1 0c02 	subs.w	ip, r1, r2
10000a02:	eb66 0304 	sbc.w	r3, r6, r4
10000a06:	f1bc 0f01 	cmp.w	ip, #1
10000a0a:	f173 0300 	sbcs.w	r3, r3, #0
10000a0e:	dbf1      	blt.n	100009f4 <async_context_base_refresh_next_timeout+0xc>
10000a10:	4611      	mov	r1, r2
10000a12:	4626      	mov	r6, r4
10000a14:	e7ee      	b.n	100009f4 <async_context_base_refresh_next_timeout+0xc>
10000a16:	6101      	str	r1, [r0, #16]
10000a18:	6146      	str	r6, [r0, #20]
10000a1a:	bc70      	pop	{r4, r5, r6}
10000a1c:	4770      	bx	lr
10000a1e:	bf00      	nop
10000a20:	10009730 	.word	0x10009730

10000a24 <async_context_base_execute_once>:
10000a24:	b538      	push	{r3, r4, r5, lr}
10000a26:	4605      	mov	r5, r0
10000a28:	e002      	b.n	10000a30 <async_context_base_execute_once+0xc>
10000a2a:	684b      	ldr	r3, [r1, #4]
10000a2c:	4628      	mov	r0, r5
10000a2e:	4798      	blx	r3
10000a30:	4628      	mov	r0, r5
10000a32:	f7ff ffa1 	bl	10000978 <async_context_base_remove_ready_at_time_worker>
10000a36:	4601      	mov	r1, r0
10000a38:	2800      	cmp	r0, #0
10000a3a:	d1f6      	bne.n	10000a2a <async_context_base_execute_once+0x6>
10000a3c:	686c      	ldr	r4, [r5, #4]
10000a3e:	e000      	b.n	10000a42 <async_context_base_execute_once+0x1e>
10000a40:	6824      	ldr	r4, [r4, #0]
10000a42:	b14c      	cbz	r4, 10000a58 <async_context_base_execute_once+0x34>
10000a44:	7a23      	ldrb	r3, [r4, #8]
10000a46:	2b00      	cmp	r3, #0
10000a48:	d0fa      	beq.n	10000a40 <async_context_base_execute_once+0x1c>
10000a4a:	2300      	movs	r3, #0
10000a4c:	7223      	strb	r3, [r4, #8]
10000a4e:	6863      	ldr	r3, [r4, #4]
10000a50:	4621      	mov	r1, r4
10000a52:	4628      	mov	r0, r5
10000a54:	4798      	blx	r3
10000a56:	e7f3      	b.n	10000a40 <async_context_base_execute_once+0x1c>
10000a58:	4628      	mov	r0, r5
10000a5a:	f7ff ffc5 	bl	100009e8 <async_context_base_refresh_next_timeout>
10000a5e:	e9d5 0104 	ldrd	r0, r1, [r5, #16]
10000a62:	bd38      	pop	{r3, r4, r5, pc}

10000a64 <panic>:
10000a64:	b40f      	push	{r0, r1, r2, r3}
10000a66:	b500      	push	{lr}
10000a68:	b083      	sub	sp, #12
10000a6a:	9c04      	ldr	r4, [sp, #16]
10000a6c:	4807      	ldr	r0, [pc, #28]	@ (10000a8c <panic+0x28>)
10000a6e:	f006 fc16 	bl	1000729e <__wrap_puts>
10000a72:	b13c      	cbz	r4, 10000a84 <panic+0x20>
10000a74:	a905      	add	r1, sp, #20
10000a76:	9101      	str	r1, [sp, #4]
10000a78:	4620      	mov	r0, r4
10000a7a:	f006 fc1f 	bl	100072bc <__wrap_vprintf>
10000a7e:	4804      	ldr	r0, [pc, #16]	@ (10000a90 <panic+0x2c>)
10000a80:	f006 fc0d 	bl	1000729e <__wrap_puts>
10000a84:	2001      	movs	r0, #1
10000a86:	f006 fad1 	bl	1000702c <_exit>
10000a8a:	bf00      	nop
10000a8c:	10007a5c 	.word	0x10007a5c
10000a90:	100077ec 	.word	0x100077ec

10000a94 <prvHeapInit>:
10000a94:	4a10      	ldr	r2, [pc, #64]	@ (10000ad8 <prvHeapInit+0x44>)
10000a96:	f012 0f07 	tst.w	r2, #7
10000a9a:	d01a      	beq.n	10000ad2 <prvHeapInit+0x3e>
10000a9c:	1dd1      	adds	r1, r2, #7
10000a9e:	f021 0107 	bic.w	r1, r1, #7
10000aa2:	f5c1 3300 	rsb	r3, r1, #131072	@ 0x20000
10000aa6:	4413      	add	r3, r2
10000aa8:	460a      	mov	r2, r1
10000aaa:	480c      	ldr	r0, [pc, #48]	@ (10000adc <prvHeapInit+0x48>)
10000aac:	6002      	str	r2, [r0, #0]
10000aae:	2100      	movs	r1, #0
10000ab0:	6041      	str	r1, [r0, #4]
10000ab2:	4413      	add	r3, r2
10000ab4:	3b08      	subs	r3, #8
10000ab6:	f023 0307 	bic.w	r3, r3, #7
10000aba:	4809      	ldr	r0, [pc, #36]	@ (10000ae0 <prvHeapInit+0x4c>)
10000abc:	6003      	str	r3, [r0, #0]
10000abe:	6059      	str	r1, [r3, #4]
10000ac0:	6019      	str	r1, [r3, #0]
10000ac2:	1a99      	subs	r1, r3, r2
10000ac4:	6051      	str	r1, [r2, #4]
10000ac6:	6013      	str	r3, [r2, #0]
10000ac8:	4b06      	ldr	r3, [pc, #24]	@ (10000ae4 <prvHeapInit+0x50>)
10000aca:	6019      	str	r1, [r3, #0]
10000acc:	4b06      	ldr	r3, [pc, #24]	@ (10000ae8 <prvHeapInit+0x54>)
10000ace:	6019      	str	r1, [r3, #0]
10000ad0:	4770      	bx	lr
10000ad2:	f44f 3300 	mov.w	r3, #131072	@ 0x20000
10000ad6:	e7e8      	b.n	10000aaa <prvHeapInit+0x16>
10000ad8:	20000c08 	.word	0x20000c08
10000adc:	20020d04 	.word	0x20020d04
10000ae0:	20000970 	.word	0x20000970
10000ae4:	20020c94 	.word	0x20020c94
10000ae8:	20020c84 	.word	0x20020c84

10000aec <prvInsertBlockIntoFreeList>:
10000aec:	b510      	push	{r4, lr}
10000aee:	4b1b      	ldr	r3, [pc, #108]	@ (10000b5c <prvInsertBlockIntoFreeList+0x70>)
10000af0:	4619      	mov	r1, r3
10000af2:	681b      	ldr	r3, [r3, #0]
10000af4:	4283      	cmp	r3, r0
10000af6:	d3fb      	bcc.n	10000af0 <prvInsertBlockIntoFreeList+0x4>
10000af8:	4a18      	ldr	r2, [pc, #96]	@ (10000b5c <prvInsertBlockIntoFreeList+0x70>)
10000afa:	4291      	cmp	r1, r2
10000afc:	d005      	beq.n	10000b0a <prvInsertBlockIntoFreeList+0x1e>
10000afe:	4a18      	ldr	r2, [pc, #96]	@ (10000b60 <prvInsertBlockIntoFreeList+0x74>)
10000b00:	4291      	cmp	r1, r2
10000b02:	d311      	bcc.n	10000b28 <prvInsertBlockIntoFreeList+0x3c>
10000b04:	4a17      	ldr	r2, [pc, #92]	@ (10000b64 <prvInsertBlockIntoFreeList+0x78>)
10000b06:	4291      	cmp	r1, r2
10000b08:	d80e      	bhi.n	10000b28 <prvInsertBlockIntoFreeList+0x3c>
10000b0a:	684a      	ldr	r2, [r1, #4]
10000b0c:	eb01 0c02 	add.w	ip, r1, r2
10000b10:	4584      	cmp	ip, r0
10000b12:	d010      	beq.n	10000b36 <prvInsertBlockIntoFreeList+0x4a>
10000b14:	6842      	ldr	r2, [r0, #4]
10000b16:	eb00 0c02 	add.w	ip, r0, r2
10000b1a:	4563      	cmp	r3, ip
10000b1c:	d010      	beq.n	10000b40 <prvInsertBlockIntoFreeList+0x54>
10000b1e:	6003      	str	r3, [r0, #0]
10000b20:	4288      	cmp	r0, r1
10000b22:	d000      	beq.n	10000b26 <prvInsertBlockIntoFreeList+0x3a>
10000b24:	6008      	str	r0, [r1, #0]
10000b26:	bd10      	pop	{r4, pc}
10000b28:	4b0f      	ldr	r3, [pc, #60]	@ (10000b68 <prvInsertBlockIntoFreeList+0x7c>)
10000b2a:	4a10      	ldr	r2, [pc, #64]	@ (10000b6c <prvInsertBlockIntoFreeList+0x80>)
10000b2c:	f44f 7100 	mov.w	r1, #512	@ 0x200
10000b30:	480f      	ldr	r0, [pc, #60]	@ (10000b70 <prvInsertBlockIntoFreeList+0x84>)
10000b32:	f006 fa81 	bl	10007038 <__assert_func>
10000b36:	6840      	ldr	r0, [r0, #4]
10000b38:	4402      	add	r2, r0
10000b3a:	604a      	str	r2, [r1, #4]
10000b3c:	4608      	mov	r0, r1
10000b3e:	e7e9      	b.n	10000b14 <prvInsertBlockIntoFreeList+0x28>
10000b40:	4c0c      	ldr	r4, [pc, #48]	@ (10000b74 <prvInsertBlockIntoFreeList+0x88>)
10000b42:	6824      	ldr	r4, [r4, #0]
10000b44:	42a3      	cmp	r3, r4
10000b46:	d006      	beq.n	10000b56 <prvInsertBlockIntoFreeList+0x6a>
10000b48:	685b      	ldr	r3, [r3, #4]
10000b4a:	441a      	add	r2, r3
10000b4c:	6042      	str	r2, [r0, #4]
10000b4e:	680b      	ldr	r3, [r1, #0]
10000b50:	681b      	ldr	r3, [r3, #0]
10000b52:	6003      	str	r3, [r0, #0]
10000b54:	e7e4      	b.n	10000b20 <prvInsertBlockIntoFreeList+0x34>
10000b56:	6004      	str	r4, [r0, #0]
10000b58:	e7e2      	b.n	10000b20 <prvInsertBlockIntoFreeList+0x34>
10000b5a:	bf00      	nop
10000b5c:	20020d04 	.word	0x20020d04
10000b60:	20000c08 	.word	0x20000c08
10000b64:	20020c07 	.word	0x20020c07
10000b68:	10007a6c 	.word	0x10007a6c
10000b6c:	10009124 	.word	0x10009124
10000b70:	10007ae8 	.word	0x10007ae8
10000b74:	20000970 	.word	0x20000970

10000b78 <pvPortMalloc>:
10000b78:	b570      	push	{r4, r5, r6, lr}
10000b7a:	4604      	mov	r4, r0
10000b7c:	b170      	cbz	r0, 10000b9c <pvPortMalloc+0x24>
10000b7e:	f110 0f09 	cmn.w	r0, #9
10000b82:	d80a      	bhi.n	10000b9a <pvPortMalloc+0x22>
10000b84:	3408      	adds	r4, #8
10000b86:	f014 0307 	ands.w	r3, r4, #7
10000b8a:	d007      	beq.n	10000b9c <pvPortMalloc+0x24>
10000b8c:	f1c3 0208 	rsb	r2, r3, #8
10000b90:	3b09      	subs	r3, #9
10000b92:	42a3      	cmp	r3, r4
10000b94:	d326      	bcc.n	10000be4 <pvPortMalloc+0x6c>
10000b96:	4414      	add	r4, r2
10000b98:	e000      	b.n	10000b9c <pvPortMalloc+0x24>
10000b9a:	2400      	movs	r4, #0
10000b9c:	f001 ff34 	bl	10002a08 <vTaskSuspendAll>
10000ba0:	4b46      	ldr	r3, [pc, #280]	@ (10000cbc <pvPortMalloc+0x144>)
10000ba2:	681b      	ldr	r3, [r3, #0]
10000ba4:	b303      	cbz	r3, 10000be8 <pvPortMalloc+0x70>
10000ba6:	2c00      	cmp	r4, #0
10000ba8:	db79      	blt.n	10000c9e <pvPortMalloc+0x126>
10000baa:	2c00      	cmp	r4, #0
10000bac:	d079      	beq.n	10000ca2 <pvPortMalloc+0x12a>
10000bae:	4b44      	ldr	r3, [pc, #272]	@ (10000cc0 <pvPortMalloc+0x148>)
10000bb0:	6818      	ldr	r0, [r3, #0]
10000bb2:	42a0      	cmp	r0, r4
10000bb4:	d377      	bcc.n	10000ca6 <pvPortMalloc+0x12e>
10000bb6:	4b43      	ldr	r3, [pc, #268]	@ (10000cc4 <pvPortMalloc+0x14c>)
10000bb8:	681a      	ldr	r2, [r3, #0]
10000bba:	4b43      	ldr	r3, [pc, #268]	@ (10000cc8 <pvPortMalloc+0x150>)
10000bbc:	429a      	cmp	r2, r3
10000bbe:	d316      	bcc.n	10000bee <pvPortMalloc+0x76>
10000bc0:	4b42      	ldr	r3, [pc, #264]	@ (10000ccc <pvPortMalloc+0x154>)
10000bc2:	429a      	cmp	r2, r3
10000bc4:	d813      	bhi.n	10000bee <pvPortMalloc+0x76>
10000bc6:	493f      	ldr	r1, [pc, #252]	@ (10000cc4 <pvPortMalloc+0x14c>)
10000bc8:	6853      	ldr	r3, [r2, #4]
10000bca:	42a3      	cmp	r3, r4
10000bcc:	d21b      	bcs.n	10000c06 <pvPortMalloc+0x8e>
10000bce:	6813      	ldr	r3, [r2, #0]
10000bd0:	b1cb      	cbz	r3, 10000c06 <pvPortMalloc+0x8e>
10000bd2:	493d      	ldr	r1, [pc, #244]	@ (10000cc8 <pvPortMalloc+0x150>)
10000bd4:	428b      	cmp	r3, r1
10000bd6:	d310      	bcc.n	10000bfa <pvPortMalloc+0x82>
10000bd8:	4611      	mov	r1, r2
10000bda:	4a3c      	ldr	r2, [pc, #240]	@ (10000ccc <pvPortMalloc+0x154>)
10000bdc:	4293      	cmp	r3, r2
10000bde:	d80c      	bhi.n	10000bfa <pvPortMalloc+0x82>
10000be0:	461a      	mov	r2, r3
10000be2:	e7f1      	b.n	10000bc8 <pvPortMalloc+0x50>
10000be4:	2400      	movs	r4, #0
10000be6:	e7d9      	b.n	10000b9c <pvPortMalloc+0x24>
10000be8:	f7ff ff54 	bl	10000a94 <prvHeapInit>
10000bec:	e7db      	b.n	10000ba6 <pvPortMalloc+0x2e>
10000bee:	4b38      	ldr	r3, [pc, #224]	@ (10000cd0 <pvPortMalloc+0x158>)
10000bf0:	4a38      	ldr	r2, [pc, #224]	@ (10000cd4 <pvPortMalloc+0x15c>)
10000bf2:	21f6      	movs	r1, #246	@ 0xf6
10000bf4:	4838      	ldr	r0, [pc, #224]	@ (10000cd8 <pvPortMalloc+0x160>)
10000bf6:	f006 fa1f 	bl	10007038 <__assert_func>
10000bfa:	4b35      	ldr	r3, [pc, #212]	@ (10000cd0 <pvPortMalloc+0x158>)
10000bfc:	4a35      	ldr	r2, [pc, #212]	@ (10000cd4 <pvPortMalloc+0x15c>)
10000bfe:	21fc      	movs	r1, #252	@ 0xfc
10000c00:	4835      	ldr	r0, [pc, #212]	@ (10000cd8 <pvPortMalloc+0x160>)
10000c02:	f006 fa19 	bl	10007038 <__assert_func>
10000c06:	4b2d      	ldr	r3, [pc, #180]	@ (10000cbc <pvPortMalloc+0x144>)
10000c08:	681b      	ldr	r3, [r3, #0]
10000c0a:	4293      	cmp	r3, r2
10000c0c:	d04d      	beq.n	10000caa <pvPortMalloc+0x132>
10000c0e:	680d      	ldr	r5, [r1, #0]
10000c10:	3508      	adds	r5, #8
10000c12:	4b2d      	ldr	r3, [pc, #180]	@ (10000cc8 <pvPortMalloc+0x150>)
10000c14:	429d      	cmp	r5, r3
10000c16:	d32d      	bcc.n	10000c74 <pvPortMalloc+0xfc>
10000c18:	4b2c      	ldr	r3, [pc, #176]	@ (10000ccc <pvPortMalloc+0x154>)
10000c1a:	429d      	cmp	r5, r3
10000c1c:	d82a      	bhi.n	10000c74 <pvPortMalloc+0xfc>
10000c1e:	6813      	ldr	r3, [r2, #0]
10000c20:	600b      	str	r3, [r1, #0]
10000c22:	6853      	ldr	r3, [r2, #4]
10000c24:	42a3      	cmp	r3, r4
10000c26:	d32c      	bcc.n	10000c82 <pvPortMalloc+0x10a>
10000c28:	1b1b      	subs	r3, r3, r4
10000c2a:	2b10      	cmp	r3, #16
10000c2c:	d908      	bls.n	10000c40 <pvPortMalloc+0xc8>
10000c2e:	1916      	adds	r6, r2, r4
10000c30:	f016 0f07 	tst.w	r6, #7
10000c34:	d12c      	bne.n	10000c90 <pvPortMalloc+0x118>
10000c36:	6073      	str	r3, [r6, #4]
10000c38:	6054      	str	r4, [r2, #4]
10000c3a:	680b      	ldr	r3, [r1, #0]
10000c3c:	5113      	str	r3, [r2, r4]
10000c3e:	600e      	str	r6, [r1, #0]
10000c40:	6853      	ldr	r3, [r2, #4]
10000c42:	1ac0      	subs	r0, r0, r3
10000c44:	491e      	ldr	r1, [pc, #120]	@ (10000cc0 <pvPortMalloc+0x148>)
10000c46:	6008      	str	r0, [r1, #0]
10000c48:	4924      	ldr	r1, [pc, #144]	@ (10000cdc <pvPortMalloc+0x164>)
10000c4a:	6809      	ldr	r1, [r1, #0]
10000c4c:	4288      	cmp	r0, r1
10000c4e:	d201      	bcs.n	10000c54 <pvPortMalloc+0xdc>
10000c50:	4922      	ldr	r1, [pc, #136]	@ (10000cdc <pvPortMalloc+0x164>)
10000c52:	6008      	str	r0, [r1, #0]
10000c54:	f043 4300 	orr.w	r3, r3, #2147483648	@ 0x80000000
10000c58:	6053      	str	r3, [r2, #4]
10000c5a:	2300      	movs	r3, #0
10000c5c:	6013      	str	r3, [r2, #0]
10000c5e:	4a20      	ldr	r2, [pc, #128]	@ (10000ce0 <pvPortMalloc+0x168>)
10000c60:	6813      	ldr	r3, [r2, #0]
10000c62:	3301      	adds	r3, #1
10000c64:	6013      	str	r3, [r2, #0]
10000c66:	f002 fe3b 	bl	100038e0 <xTaskResumeAll>
10000c6a:	f015 0f07 	tst.w	r5, #7
10000c6e:	d11e      	bne.n	10000cae <pvPortMalloc+0x136>
10000c70:	4628      	mov	r0, r5
10000c72:	bd70      	pop	{r4, r5, r6, pc}
10000c74:	4b1b      	ldr	r3, [pc, #108]	@ (10000ce4 <pvPortMalloc+0x16c>)
10000c76:	4a17      	ldr	r2, [pc, #92]	@ (10000cd4 <pvPortMalloc+0x15c>)
10000c78:	f44f 7183 	mov.w	r1, #262	@ 0x106
10000c7c:	4816      	ldr	r0, [pc, #88]	@ (10000cd8 <pvPortMalloc+0x160>)
10000c7e:	f006 f9db 	bl	10007038 <__assert_func>
10000c82:	4b19      	ldr	r3, [pc, #100]	@ (10000ce8 <pvPortMalloc+0x170>)
10000c84:	4a13      	ldr	r2, [pc, #76]	@ (10000cd4 <pvPortMalloc+0x15c>)
10000c86:	f44f 7187 	mov.w	r1, #270	@ 0x10e
10000c8a:	4813      	ldr	r0, [pc, #76]	@ (10000cd8 <pvPortMalloc+0x160>)
10000c8c:	f006 f9d4 	bl	10007038 <__assert_func>
10000c90:	4b16      	ldr	r3, [pc, #88]	@ (10000cec <pvPortMalloc+0x174>)
10000c92:	4a10      	ldr	r2, [pc, #64]	@ (10000cd4 <pvPortMalloc+0x15c>)
10000c94:	f240 1117 	movw	r1, #279	@ 0x117
10000c98:	480f      	ldr	r0, [pc, #60]	@ (10000cd8 <pvPortMalloc+0x160>)
10000c9a:	f006 f9cd 	bl	10007038 <__assert_func>
10000c9e:	2500      	movs	r5, #0
10000ca0:	e7e1      	b.n	10000c66 <pvPortMalloc+0xee>
10000ca2:	2500      	movs	r5, #0
10000ca4:	e7df      	b.n	10000c66 <pvPortMalloc+0xee>
10000ca6:	2500      	movs	r5, #0
10000ca8:	e7dd      	b.n	10000c66 <pvPortMalloc+0xee>
10000caa:	2500      	movs	r5, #0
10000cac:	e7db      	b.n	10000c66 <pvPortMalloc+0xee>
10000cae:	4b10      	ldr	r3, [pc, #64]	@ (10000cf0 <pvPortMalloc+0x178>)
10000cb0:	4a08      	ldr	r2, [pc, #32]	@ (10000cd4 <pvPortMalloc+0x15c>)
10000cb2:	f240 115d 	movw	r1, #349	@ 0x15d
10000cb6:	4808      	ldr	r0, [pc, #32]	@ (10000cd8 <pvPortMalloc+0x160>)
10000cb8:	f006 f9be 	bl	10007038 <__assert_func>
10000cbc:	20000970 	.word	0x20000970
10000cc0:	20020c84 	.word	0x20020c84
10000cc4:	20020d04 	.word	0x20020d04
10000cc8:	20000c08 	.word	0x20000c08
10000ccc:	20020c07 	.word	0x20020c07
10000cd0:	10007b28 	.word	0x10007b28
10000cd4:	1000914c 	.word	0x1000914c
10000cd8:	10007ae8 	.word	0x10007ae8
10000cdc:	20020c94 	.word	0x20020c94
10000ce0:	20020ca0 	.word	0x20020ca0
10000ce4:	10007b9c 	.word	0x10007b9c
10000ce8:	10007c14 	.word	0x10007c14
10000cec:	10007c48 	.word	0x10007c48
10000cf0:	10007c7c 	.word	0x10007c7c

10000cf4 <vPortFree>:
10000cf4:	2800      	cmp	r0, #0
10000cf6:	d03b      	beq.n	10000d70 <vPortFree+0x7c>
10000cf8:	b538      	push	{r3, r4, r5, lr}
10000cfa:	4604      	mov	r4, r0
10000cfc:	f1a0 0508 	sub.w	r5, r0, #8
10000d00:	4b1c      	ldr	r3, [pc, #112]	@ (10000d74 <vPortFree+0x80>)
10000d02:	429d      	cmp	r5, r3
10000d04:	d31f      	bcc.n	10000d46 <vPortFree+0x52>
10000d06:	4b1c      	ldr	r3, [pc, #112]	@ (10000d78 <vPortFree+0x84>)
10000d08:	429d      	cmp	r5, r3
10000d0a:	d81c      	bhi.n	10000d46 <vPortFree+0x52>
10000d0c:	f850 3c04 	ldr.w	r3, [r0, #-4]
10000d10:	2b00      	cmp	r3, #0
10000d12:	da1f      	bge.n	10000d54 <vPortFree+0x60>
10000d14:	f850 2c08 	ldr.w	r2, [r0, #-8]
10000d18:	bb1a      	cbnz	r2, 10000d62 <vPortFree+0x6e>
10000d1a:	f023 4300 	bic.w	r3, r3, #2147483648	@ 0x80000000
10000d1e:	f840 3c04 	str.w	r3, [r0, #-4]
10000d22:	f001 fe71 	bl	10002a08 <vTaskSuspendAll>
10000d26:	f854 1c04 	ldr.w	r1, [r4, #-4]
10000d2a:	4a14      	ldr	r2, [pc, #80]	@ (10000d7c <vPortFree+0x88>)
10000d2c:	6813      	ldr	r3, [r2, #0]
10000d2e:	440b      	add	r3, r1
10000d30:	6013      	str	r3, [r2, #0]
10000d32:	4628      	mov	r0, r5
10000d34:	f7ff feda 	bl	10000aec <prvInsertBlockIntoFreeList>
10000d38:	4a11      	ldr	r2, [pc, #68]	@ (10000d80 <vPortFree+0x8c>)
10000d3a:	6813      	ldr	r3, [r2, #0]
10000d3c:	3301      	adds	r3, #1
10000d3e:	6013      	str	r3, [r2, #0]
10000d40:	f002 fdce 	bl	100038e0 <xTaskResumeAll>
10000d44:	bd38      	pop	{r3, r4, r5, pc}
10000d46:	4b0f      	ldr	r3, [pc, #60]	@ (10000d84 <vPortFree+0x90>)
10000d48:	4a0f      	ldr	r2, [pc, #60]	@ (10000d88 <vPortFree+0x94>)
10000d4a:	f44f 71b8 	mov.w	r1, #368	@ 0x170
10000d4e:	480f      	ldr	r0, [pc, #60]	@ (10000d8c <vPortFree+0x98>)
10000d50:	f006 f972 	bl	10007038 <__assert_func>
10000d54:	4b0e      	ldr	r3, [pc, #56]	@ (10000d90 <vPortFree+0x9c>)
10000d56:	4a0c      	ldr	r2, [pc, #48]	@ (10000d88 <vPortFree+0x94>)
10000d58:	f240 1171 	movw	r1, #369	@ 0x171
10000d5c:	480b      	ldr	r0, [pc, #44]	@ (10000d8c <vPortFree+0x98>)
10000d5e:	f006 f96b 	bl	10007038 <__assert_func>
10000d62:	4b0c      	ldr	r3, [pc, #48]	@ (10000d94 <vPortFree+0xa0>)
10000d64:	4a08      	ldr	r2, [pc, #32]	@ (10000d88 <vPortFree+0x94>)
10000d66:	f44f 71b9 	mov.w	r1, #370	@ 0x172
10000d6a:	4808      	ldr	r0, [pc, #32]	@ (10000d8c <vPortFree+0x98>)
10000d6c:	f006 f964 	bl	10007038 <__assert_func>
10000d70:	4770      	bx	lr
10000d72:	bf00      	nop
10000d74:	20000c08 	.word	0x20000c08
10000d78:	20020c07 	.word	0x20020c07
10000d7c:	20020c84 	.word	0x20020c84
10000d80:	20020ca4 	.word	0x20020ca4
10000d84:	10007cb8 	.word	0x10007cb8
10000d88:	10009140 	.word	0x10009140
10000d8c:	10007ae8 	.word	0x10007ae8
10000d90:	10007d2c 	.word	0x10007d2c
10000d94:	10007da0 	.word	0x10007da0

10000d98 <prvSetupFPU>:
10000d98:	f04f 23e0 	mov.w	r3, #3758153728	@ 0xe000e000
10000d9c:	f8d3 2d88 	ldr.w	r2, [r3, #3464]	@ 0xd88
10000da0:	f442 0270 	orr.w	r2, r2, #15728640	@ 0xf00000
10000da4:	f8c3 2d88 	str.w	r2, [r3, #3464]	@ 0xd88
10000da8:	f8d3 2f34 	ldr.w	r2, [r3, #3892]	@ 0xf34
10000dac:	f042 4240 	orr.w	r2, r2, #3221225472	@ 0xc0000000
10000db0:	f8c3 2f34 	str.w	r2, [r3, #3892]	@ 0xf34
10000db4:	4770      	bx	lr
	...

10000db8 <prvDoorbellInterruptHandler>:
10000db8:	4b0b      	ldr	r3, [pc, #44]	@ (10000de8 <prvDoorbellInterruptHandler+0x30>)
10000dba:	f993 2000 	ldrsb.w	r2, [r3]
10000dbe:	2a00      	cmp	r2, #0
10000dc0:	db11      	blt.n	10000de6 <prvDoorbellInterruptHandler+0x2e>
10000dc2:	f04f 4350 	mov.w	r3, #3489660928	@ 0xd0000000
10000dc6:	f8d3 1188 	ldr.w	r1, [r3, #392]	@ 0x188
10000dca:	2301      	movs	r3, #1
10000dcc:	4093      	lsls	r3, r2
10000dce:	4219      	tst	r1, r3
10000dd0:	d009      	beq.n	10000de6 <prvDoorbellInterruptHandler+0x2e>
10000dd2:	f04f 4250 	mov.w	r2, #3489660928	@ 0xd0000000
10000dd6:	f8c2 318c 	str.w	r3, [r2, #396]	@ 0x18c
10000dda:	f04f 23e0 	mov.w	r3, #3758153728	@ 0xe000e000
10000dde:	f04f 5280 	mov.w	r2, #268435456	@ 0x10000000
10000de2:	f8c3 2d04 	str.w	r2, [r3, #3332]	@ 0xd04
10000de6:	4770      	bx	lr
10000de8:	20000678 	.word	0x20000678

10000dec <prvTaskExitError>:
10000dec:	b500      	push	{lr}
10000dee:	b083      	sub	sp, #12
10000df0:	2300      	movs	r3, #0
10000df2:	9301      	str	r3, [sp, #4]
10000df4:	f04f 4350 	mov.w	r3, #3489660928	@ 0xd0000000
10000df8:	681a      	ldr	r2, [r3, #0]
10000dfa:	4b0a      	ldr	r3, [pc, #40]	@ (10000e24 <prvTaskExitError+0x38>)
10000dfc:	f853 3022 	ldr.w	r3, [r3, r2, lsl #2]
10000e00:	f1b3 3fff 	cmp.w	r3, #4294967295
10000e04:	d107      	bne.n	10000e16 <prvTaskExitError+0x2a>
10000e06:	f000 fb17 	bl	10001438 <ulSetInterruptMask>
10000e0a:	9b01      	ldr	r3, [sp, #4]
10000e0c:	2b00      	cmp	r3, #0
10000e0e:	d0fc      	beq.n	10000e0a <prvTaskExitError+0x1e>
10000e10:	b003      	add	sp, #12
10000e12:	f85d fb04 	ldr.w	pc, [sp], #4
10000e16:	4b04      	ldr	r3, [pc, #16]	@ (10000e28 <prvTaskExitError+0x3c>)
10000e18:	4a04      	ldr	r2, [pc, #16]	@ (10000e2c <prvTaskExitError+0x40>)
10000e1a:	f240 3166 	movw	r1, #870	@ 0x366
10000e1e:	4804      	ldr	r0, [pc, #16]	@ (10000e30 <prvTaskExitError+0x44>)
10000e20:	f006 f90a 	bl	10007038 <__assert_func>
10000e24:	20020c10 	.word	0x20020c10
10000e28:	10007dc8 	.word	0x10007dc8
10000e2c:	100091f0 	.word	0x100091f0
10000e30:	10007dfc 	.word	0x10007dfc

10000e34 <SysTick_Handler>:
10000e34:	b510      	push	{r4, lr}
10000e36:	f002 fad1 	bl	100033dc <vTaskEnterCriticalFromISR>
10000e3a:	4604      	mov	r4, r0
10000e3c:	f001 fe34 	bl	10002aa8 <xTaskIncrementTick>
10000e40:	b128      	cbz	r0, 10000e4e <SysTick_Handler+0x1a>
10000e42:	f04f 23e0 	mov.w	r3, #3758153728	@ 0xe000e000
10000e46:	f04f 5280 	mov.w	r2, #268435456	@ 0x10000000
10000e4a:	f8c3 2d04 	str.w	r2, [r3, #3332]	@ 0xd04
10000e4e:	4620      	mov	r0, r4
10000e50:	f002 fef6 	bl	10003c40 <vTaskExitCriticalFromISR>
10000e54:	bd10      	pop	{r4, pc}

10000e56 <prvGetTicksToWaitBefore>:
10000e56:	b538      	push	{r3, r4, r5, lr}
10000e58:	4604      	mov	r4, r0
10000e5a:	460d      	mov	r5, r1
10000e5c:	f004 fa8a 	bl	10005374 <time_us_64>
10000e60:	1a20      	subs	r0, r4, r0
10000e62:	eb65 0101 	sbc.w	r1, r5, r1
10000e66:	f240 33e7 	movw	r3, #999	@ 0x3e7
10000e6a:	18c0      	adds	r0, r0, r3
10000e6c:	f141 0100 	adc.w	r1, r1, #0
10000e70:	f5b0 7f7a 	cmp.w	r0, #1000	@ 0x3e8
10000e74:	f171 0300 	sbcs.w	r3, r1, #0
10000e78:	da01      	bge.n	10000e7e <prvGetTicksToWaitBefore+0x28>
10000e7a:	2000      	movs	r0, #0
10000e7c:	bd38      	pop	{r3, r4, r5, pc}
10000e7e:	f44f 727a 	mov.w	r2, #1000	@ 0x3e8
10000e82:	2300      	movs	r3, #0
10000e84:	f006 fc70 	bl	10007768 <____aeabi_ldivmod_veneer>
10000e88:	e7f8      	b.n	10000e7c <prvGetTicksToWaitBefore+0x26>
	...

10000e8c <vPortSetupTimerInterrupt>:
10000e8c:	b510      	push	{r4, lr}
10000e8e:	f04f 24e0 	mov.w	r4, #3758153728	@ 0xe000e000
10000e92:	2304      	movs	r3, #4
10000e94:	6123      	str	r3, [r4, #16]
10000e96:	2300      	movs	r3, #0
10000e98:	61a3      	str	r3, [r4, #24]
10000e9a:	2005      	movs	r0, #5
10000e9c:	f003 fba4 	bl	100045e8 <clock_get_hz>
10000ea0:	4b04      	ldr	r3, [pc, #16]	@ (10000eb4 <vPortSetupTimerInterrupt+0x28>)
10000ea2:	fba3 2300 	umull	r2, r3, r3, r0
10000ea6:	099b      	lsrs	r3, r3, #6
10000ea8:	3b01      	subs	r3, #1
10000eaa:	6163      	str	r3, [r4, #20]
10000eac:	2307      	movs	r3, #7
10000eae:	6123      	str	r3, [r4, #16]
10000eb0:	bd10      	pop	{r4, pc}
10000eb2:	bf00      	nop
10000eb4:	10624dd3 	.word	0x10624dd3

10000eb8 <xPortStartSchedulerOnCore>:
10000eb8:	b530      	push	{r4, r5, lr}
10000eba:	b083      	sub	sp, #12
10000ebc:	2300      	movs	r3, #0
10000ebe:	9301      	str	r3, [sp, #4]
10000ec0:	f04f 23e0 	mov.w	r3, #3758153728	@ 0xe000e000
10000ec4:	f04f 427f 	mov.w	r2, #4278190080	@ 0xff000000
10000ec8:	f8c3 2d1c 	str.w	r2, [r3, #3356]	@ 0xd1c
10000ecc:	f8d3 3d1c 	ldr.w	r3, [r3, #3356]	@ 0xd1c
10000ed0:	0e1b      	lsrs	r3, r3, #24
10000ed2:	f88d 3003 	strb.w	r3, [sp, #3]
10000ed6:	f89d 3003 	ldrb.w	r3, [sp, #3]
10000eda:	f003 0310 	and.w	r3, r3, #16
10000ede:	4a3e      	ldr	r2, [pc, #248]	@ (10000fd8 <xPortStartSchedulerOnCore+0x120>)
10000ee0:	7013      	strb	r3, [r2, #0]
10000ee2:	b15b      	cbz	r3, 10000efc <xPortStartSchedulerOnCore+0x44>
10000ee4:	f89d 3003 	ldrb.w	r3, [sp, #3]
10000ee8:	f013 0f10 	tst.w	r3, #16
10000eec:	d116      	bne.n	10000f1c <xPortStartSchedulerOnCore+0x64>
10000eee:	4b3b      	ldr	r3, [pc, #236]	@ (10000fdc <xPortStartSchedulerOnCore+0x124>)
10000ef0:	4a3b      	ldr	r2, [pc, #236]	@ (10000fe0 <xPortStartSchedulerOnCore+0x128>)
10000ef2:	f240 61f5 	movw	r1, #1781	@ 0x6f5
10000ef6:	483b      	ldr	r0, [pc, #236]	@ (10000fe4 <xPortStartSchedulerOnCore+0x12c>)
10000ef8:	f006 f89e 	bl	10007038 <__assert_func>
10000efc:	4b3a      	ldr	r3, [pc, #232]	@ (10000fe8 <xPortStartSchedulerOnCore+0x130>)
10000efe:	4a38      	ldr	r2, [pc, #224]	@ (10000fe0 <xPortStartSchedulerOnCore+0x128>)
10000f00:	f240 61f1 	movw	r1, #1777	@ 0x6f1
10000f04:	4837      	ldr	r0, [pc, #220]	@ (10000fe4 <xPortStartSchedulerOnCore+0x12c>)
10000f06:	f006 f897 	bl	10007038 <__assert_func>
10000f0a:	9b01      	ldr	r3, [sp, #4]
10000f0c:	3301      	adds	r3, #1
10000f0e:	9301      	str	r3, [sp, #4]
10000f10:	f89d 3003 	ldrb.w	r3, [sp, #3]
10000f14:	005b      	lsls	r3, r3, #1
10000f16:	b2db      	uxtb	r3, r3
10000f18:	f88d 3003 	strb.w	r3, [sp, #3]
10000f1c:	f89d 3003 	ldrb.w	r3, [sp, #3]
10000f20:	f013 0f80 	tst.w	r3, #128	@ 0x80
10000f24:	d1f1      	bne.n	10000f0a <xPortStartSchedulerOnCore+0x52>
10000f26:	9b01      	ldr	r3, [sp, #4]
10000f28:	2b08      	cmp	r3, #8
10000f2a:	d041      	beq.n	10000fb0 <xPortStartSchedulerOnCore+0xf8>
10000f2c:	9b01      	ldr	r3, [sp, #4]
10000f2e:	f1c3 0307 	rsb	r3, r3, #7
10000f32:	4a2e      	ldr	r2, [pc, #184]	@ (10000fec <xPortStartSchedulerOnCore+0x134>)
10000f34:	6013      	str	r3, [r2, #0]
10000f36:	4a2d      	ldr	r2, [pc, #180]	@ (10000fec <xPortStartSchedulerOnCore+0x134>)
10000f38:	6813      	ldr	r3, [r2, #0]
10000f3a:	021b      	lsls	r3, r3, #8
10000f3c:	6013      	str	r3, [r2, #0]
10000f3e:	f403 63e0 	and.w	r3, r3, #1792	@ 0x700
10000f42:	6013      	str	r3, [r2, #0]
10000f44:	4b2a      	ldr	r3, [pc, #168]	@ (10000ff0 <xPortStartSchedulerOnCore+0x138>)
10000f46:	781a      	ldrb	r2, [r3, #0]
10000f48:	f04f 4350 	mov.w	r3, #3489660928	@ 0xd0000000
10000f4c:	681b      	ldr	r3, [r3, #0]
10000f4e:	429a      	cmp	r2, r3
10000f50:	d032      	beq.n	10000fb8 <xPortStartSchedulerOnCore+0x100>
10000f52:	f04f 23e0 	mov.w	r3, #3758153728	@ 0xe000e000
10000f56:	f8d3 2d20 	ldr.w	r2, [r3, #3360]	@ 0xd20
10000f5a:	f442 027f 	orr.w	r2, r2, #16711680	@ 0xff0000
10000f5e:	f8c3 2d20 	str.w	r2, [r3, #3360]	@ 0xd20
10000f62:	2400      	movs	r4, #0
10000f64:	f8c3 4d1c 	str.w	r4, [r3, #3356]	@ 0xd1c
10000f68:	4922      	ldr	r1, [pc, #136]	@ (10000ff4 <xPortStartSchedulerOnCore+0x13c>)
10000f6a:	200e      	movs	r0, #14
10000f6c:	f004 fb42 	bl	100055f4 <exception_set_exclusive_handler>
10000f70:	4921      	ldr	r1, [pc, #132]	@ (10000ff8 <xPortStartSchedulerOnCore+0x140>)
10000f72:	200b      	movs	r0, #11
10000f74:	f004 fb3e 	bl	100055f4 <exception_set_exclusive_handler>
10000f78:	f04f 4550 	mov.w	r5, #3489660928	@ 0xd0000000
10000f7c:	682a      	ldr	r2, [r5, #0]
10000f7e:	4b1f      	ldr	r3, [pc, #124]	@ (10000ffc <xPortStartSchedulerOnCore+0x144>)
10000f80:	f843 4022 	str.w	r4, [r3, r2, lsl #2]
10000f84:	21ff      	movs	r1, #255	@ 0xff
10000f86:	201a      	movs	r0, #26
10000f88:	f003 fd60 	bl	10004a4c <irq_set_priority>
10000f8c:	491c      	ldr	r1, [pc, #112]	@ (10001000 <xPortStartSchedulerOnCore+0x148>)
10000f8e:	201a      	movs	r0, #26
10000f90:	f003 fc70 	bl	10004874 <irq_set_exclusive_handler>
10000f94:	2101      	movs	r1, #1
10000f96:	201a      	movs	r0, #26
10000f98:	f003 fc5a 	bl	10004850 <irq_set_enabled>
10000f9c:	f000 fa44 	bl	10001428 <vStartFirstTask>
10000fa0:	6828      	ldr	r0, [r5, #0]
10000fa2:	f001 fe75 	bl	10002c90 <vTaskSwitchContext>
10000fa6:	f7ff ff21 	bl	10000dec <prvTaskExitError>
10000faa:	4620      	mov	r0, r4
10000fac:	b003      	add	sp, #12
10000fae:	bd30      	pop	{r4, r5, pc}
10000fb0:	4b0e      	ldr	r3, [pc, #56]	@ (10000fec <xPortStartSchedulerOnCore+0x134>)
10000fb2:	2200      	movs	r2, #0
10000fb4:	601a      	str	r2, [r3, #0]
10000fb6:	e7be      	b.n	10000f36 <xPortStartSchedulerOnCore+0x7e>
10000fb8:	f7ff ff68 	bl	10000e8c <vPortSetupTimerInterrupt>
10000fbc:	f04f 22e0 	mov.w	r2, #3758153728	@ 0xe000e000
10000fc0:	f8d2 3d20 	ldr.w	r3, [r2, #3360]	@ 0xd20
10000fc4:	f043 437f 	orr.w	r3, r3, #4278190080	@ 0xff000000
10000fc8:	f8c2 3d20 	str.w	r3, [r2, #3360]	@ 0xd20
10000fcc:	490d      	ldr	r1, [pc, #52]	@ (10001004 <xPortStartSchedulerOnCore+0x14c>)
10000fce:	200f      	movs	r0, #15
10000fd0:	f004 fb10 	bl	100055f4 <exception_set_exclusive_handler>
10000fd4:	e7bd      	b.n	10000f52 <xPortStartSchedulerOnCore+0x9a>
10000fd6:	bf00      	nop
10000fd8:	20020d49 	.word	0x20020d49
10000fdc:	10007e74 	.word	0x10007e74
10000fe0:	100091c0 	.word	0x100091c0
10000fe4:	10007dfc 	.word	0x10007dfc
10000fe8:	10007e5c 	.word	0x10007e5c
10000fec:	20020c18 	.word	0x20020c18
10000ff0:	20000679 	.word	0x20000679
10000ff4:	10001461 	.word	0x10001461
10000ff8:	100014f9 	.word	0x100014f9
10000ffc:	20020c10 	.word	0x20020c10
10001000:	10000db9 	.word	0x10000db9
10001004:	10000e35 	.word	0x10000e35

10001008 <prvDisableInterruptsAndPortStartSchedulerOnCore>:
10001008:	b508      	push	{r3, lr}
1000100a:	f000 fa15 	bl	10001438 <ulSetInterruptMask>
1000100e:	f7ff ff53 	bl	10000eb8 <xPortStartSchedulerOnCore>
10001012:	bd08      	pop	{r3, pc}

10001014 <vPortYield>:
10001014:	f04f 23e0 	mov.w	r3, #3758153728	@ 0xe000e000
10001018:	f04f 5280 	mov.w	r2, #268435456	@ 0x10000000
1000101c:	f8c3 2d04 	str.w	r2, [r3, #3332]	@ 0xd04
10001020:	f3bf 8f4f 	dsb	sy
10001024:	f3bf 8f6f 	isb	sy
10001028:	4770      	bx	lr
	...

1000102c <vPortSVCHandler_C>:
1000102c:	b508      	push	{r3, lr}
1000102e:	6983      	ldr	r3, [r0, #24]
10001030:	f813 3c02 	ldrb.w	r3, [r3, #-2]
10001034:	2b66      	cmp	r3, #102	@ 0x66
10001036:	d104      	bne.n	10001042 <vPortSVCHandler_C+0x16>
10001038:	f7ff feae 	bl	10000d98 <prvSetupFPU>
1000103c:	f000 f9d8 	bl	100013f0 <vRestoreContextOfFirstTask>
10001040:	bd08      	pop	{r3, pc}
10001042:	4b03      	ldr	r3, [pc, #12]	@ (10001050 <vPortSVCHandler_C+0x24>)
10001044:	4a03      	ldr	r2, [pc, #12]	@ (10001054 <vPortSVCHandler_C+0x28>)
10001046:	f240 41ca 	movw	r1, #1226	@ 0x4ca
1000104a:	4803      	ldr	r0, [pc, #12]	@ (10001058 <vPortSVCHandler_C+0x2c>)
1000104c:	f005 fff4 	bl	10007038 <__assert_func>
10001050:	10007eb4 	.word	0x10007eb4
10001054:	10009204 	.word	0x10009204
10001058:	10007dfc 	.word	0x10007dfc

1000105c <pxPortInitialiseStack>:
1000105c:	b410      	push	{r4}
1000105e:	f04f 7480 	mov.w	r4, #16777216	@ 0x1000000
10001062:	f840 4c04 	str.w	r4, [r0, #-4]
10001066:	f840 2c08 	str.w	r2, [r0, #-8]
1000106a:	4a1f      	ldr	r2, [pc, #124]	@ (100010e8 <pxPortInitialiseStack+0x8c>)
1000106c:	f840 2c0c 	str.w	r2, [r0, #-12]
10001070:	f04f 3212 	mov.w	r2, #303174162	@ 0x12121212
10001074:	f840 2c10 	str.w	r2, [r0, #-16]
10001078:	f04f 3203 	mov.w	r2, #50529027	@ 0x3030303
1000107c:	f840 2c14 	str.w	r2, [r0, #-20]
10001080:	f04f 3202 	mov.w	r2, #33686018	@ 0x2020202
10001084:	f840 2c18 	str.w	r2, [r0, #-24]
10001088:	f04f 3201 	mov.w	r2, #16843009	@ 0x1010101
1000108c:	f840 2c1c 	str.w	r2, [r0, #-28]
10001090:	f840 3c20 	str.w	r3, [r0, #-32]
10001094:	f04f 3311 	mov.w	r3, #286331153	@ 0x11111111
10001098:	f840 3c24 	str.w	r3, [r0, #-36]
1000109c:	f04f 3310 	mov.w	r3, #269488144	@ 0x10101010
100010a0:	f840 3c28 	str.w	r3, [r0, #-40]
100010a4:	f04f 3309 	mov.w	r3, #151587081	@ 0x9090909
100010a8:	f840 3c2c 	str.w	r3, [r0, #-44]
100010ac:	f04f 3308 	mov.w	r3, #134744072	@ 0x8080808
100010b0:	f840 3c30 	str.w	r3, [r0, #-48]
100010b4:	f04f 3307 	mov.w	r3, #117901063	@ 0x7070707
100010b8:	f840 3c34 	str.w	r3, [r0, #-52]
100010bc:	f04f 3306 	mov.w	r3, #101058054	@ 0x6060606
100010c0:	f840 3c38 	str.w	r3, [r0, #-56]
100010c4:	f04f 3305 	mov.w	r3, #84215045	@ 0x5050505
100010c8:	f840 3c3c 	str.w	r3, [r0, #-60]
100010cc:	f04f 3304 	mov.w	r3, #67372036	@ 0x4040404
100010d0:	f840 3c40 	str.w	r3, [r0, #-64]
100010d4:	f06f 0302 	mvn.w	r3, #2
100010d8:	f840 3c44 	str.w	r3, [r0, #-68]
100010dc:	f840 1c48 	str.w	r1, [r0, #-72]
100010e0:	3848      	subs	r0, #72	@ 0x48
100010e2:	f85d 4b04 	ldr.w	r4, [sp], #4
100010e6:	4770      	bx	lr
100010e8:	10000ded 	.word	0x10000ded

100010ec <xPortStartScheduler>:
100010ec:	b508      	push	{r3, lr}
100010ee:	4b19      	ldr	r3, [pc, #100]	@ (10001154 <xPortStartScheduler+0x68>)
100010f0:	781b      	ldrb	r3, [r3, #0]
100010f2:	2bff      	cmp	r3, #255	@ 0xff
100010f4:	d120      	bne.n	10001138 <xPortStartScheduler+0x4c>
100010f6:	200e      	movs	r0, #14
100010f8:	f003 fac0 	bl	1000467c <spin_lock_claim>
100010fc:	200f      	movs	r0, #15
100010fe:	f003 fabd 	bl	1000467c <spin_lock_claim>
10001102:	2101      	movs	r1, #1
10001104:	2003      	movs	r0, #3
10001106:	f004 fb6b 	bl	100057e0 <multicore_doorbell_claim_unused>
1000110a:	b240      	sxtb	r0, r0
1000110c:	4b12      	ldr	r3, [pc, #72]	@ (10001158 <xPortStartScheduler+0x6c>)
1000110e:	7018      	strb	r0, [r3, #0]
10001110:	2301      	movs	r3, #1
10001112:	4083      	lsls	r3, r0
10001114:	f04f 4250 	mov.w	r2, #3489660928	@ 0xd0000000
10001118:	f8c2 318c 	str.w	r3, [r2, #396]	@ 0x18c
1000111c:	f8c2 3184 	str.w	r3, [r2, #388]	@ 0x184
10001120:	4b0c      	ldr	r3, [pc, #48]	@ (10001154 <xPortStartScheduler+0x68>)
10001122:	2100      	movs	r1, #0
10001124:	7019      	strb	r1, [r3, #0]
10001126:	6813      	ldr	r3, [r2, #0]
10001128:	b96b      	cbnz	r3, 10001146 <xPortStartScheduler+0x5a>
1000112a:	480c      	ldr	r0, [pc, #48]	@ (1000115c <xPortStartScheduler+0x70>)
1000112c:	f004 fb46 	bl	100057bc <multicore_launch_core1>
10001130:	f7ff fec2 	bl	10000eb8 <xPortStartSchedulerOnCore>
10001134:	2000      	movs	r0, #0
10001136:	bd08      	pop	{r3, pc}
10001138:	4b09      	ldr	r3, [pc, #36]	@ (10001160 <xPortStartScheduler+0x74>)
1000113a:	4a0a      	ldr	r2, [pc, #40]	@ (10001164 <xPortStartScheduler+0x78>)
1000113c:	f240 7166 	movw	r1, #1894	@ 0x766
10001140:	4809      	ldr	r0, [pc, #36]	@ (10001168 <xPortStartScheduler+0x7c>)
10001142:	f005 ff79 	bl	10007038 <__assert_func>
10001146:	4b09      	ldr	r3, [pc, #36]	@ (1000116c <xPortStartScheduler+0x80>)
10001148:	4a06      	ldr	r2, [pc, #24]	@ (10001164 <xPortStartScheduler+0x78>)
1000114a:	f240 7172 	movw	r1, #1906	@ 0x772
1000114e:	4806      	ldr	r0, [pc, #24]	@ (10001168 <xPortStartScheduler+0x7c>)
10001150:	f005 ff72 	bl	10007038 <__assert_func>
10001154:	20000679 	.word	0x20000679
10001158:	20000678 	.word	0x20000678
1000115c:	10001009 	.word	0x10001009
10001160:	10007ecc 	.word	0x10007ecc
10001164:	100091dc 	.word	0x100091dc
10001168:	10007dfc 	.word	0x10007dfc
1000116c:	10007ee8 	.word	0x10007ee8

10001170 <vPortValidateInterruptPriority>:
10001170:	b508      	push	{r3, lr}
10001172:	f3ef 8305 	mrs	r3, IPSR
10001176:	2b0f      	cmp	r3, #15
10001178:	d906      	bls.n	10001188 <vPortValidateInterruptPriority+0x18>
1000117a:	4a10      	ldr	r2, [pc, #64]	@ (100011bc <vPortValidateInterruptPriority+0x4c>)
1000117c:	5c9b      	ldrb	r3, [r3, r2]
1000117e:	b2db      	uxtb	r3, r3
10001180:	4a0f      	ldr	r2, [pc, #60]	@ (100011c0 <vPortValidateInterruptPriority+0x50>)
10001182:	7812      	ldrb	r2, [r2, #0]
10001184:	429a      	cmp	r2, r3
10001186:	d80a      	bhi.n	1000119e <vPortValidateInterruptPriority+0x2e>
10001188:	f04f 23e0 	mov.w	r3, #3758153728	@ 0xe000e000
1000118c:	f8d3 3d0c 	ldr.w	r3, [r3, #3340]	@ 0xd0c
10001190:	f403 63e0 	and.w	r3, r3, #1792	@ 0x700
10001194:	4a0b      	ldr	r2, [pc, #44]	@ (100011c4 <vPortValidateInterruptPriority+0x54>)
10001196:	6812      	ldr	r2, [r2, #0]
10001198:	4293      	cmp	r3, r2
1000119a:	d807      	bhi.n	100011ac <vPortValidateInterruptPriority+0x3c>
1000119c:	bd08      	pop	{r3, pc}
1000119e:	4b0a      	ldr	r3, [pc, #40]	@ (100011c8 <vPortValidateInterruptPriority+0x58>)
100011a0:	4a0a      	ldr	r2, [pc, #40]	@ (100011cc <vPortValidateInterruptPriority+0x5c>)
100011a2:	f640 1135 	movw	r1, #2357	@ 0x935
100011a6:	480a      	ldr	r0, [pc, #40]	@ (100011d0 <vPortValidateInterruptPriority+0x60>)
100011a8:	f005 ff46 	bl	10007038 <__assert_func>
100011ac:	4b09      	ldr	r3, [pc, #36]	@ (100011d4 <vPortValidateInterruptPriority+0x64>)
100011ae:	4a07      	ldr	r2, [pc, #28]	@ (100011cc <vPortValidateInterruptPriority+0x5c>)
100011b0:	f640 1145 	movw	r1, #2373	@ 0x945
100011b4:	4806      	ldr	r0, [pc, #24]	@ (100011d0 <vPortValidateInterruptPriority+0x60>)
100011b6:	f005 ff3f 	bl	10007038 <__assert_func>
100011ba:	bf00      	nop
100011bc:	e000e3f0 	.word	0xe000e3f0
100011c0:	20020d49 	.word	0x20020d49
100011c4:	20020c18 	.word	0x20020c18
100011c8:	10007efc 	.word	0x10007efc
100011cc:	100091a0 	.word	0x100091a0
100011d0:	10007dfc 	.word	0x10007dfc
100011d4:	10007f28 	.word	0x10007f28

100011d8 <ulPortLockGetCurrentOwnerId>:
100011d8:	b508      	push	{r3, lr}
100011da:	4b0a      	ldr	r3, [pc, #40]	@ (10001204 <ulPortLockGetCurrentOwnerId+0x2c>)
100011dc:	781b      	ldrb	r3, [r3, #0]
100011de:	2bff      	cmp	r3, #255	@ 0xff
100011e0:	d00c      	beq.n	100011fc <ulPortLockGetCurrentOwnerId+0x24>
100011e2:	f3ef 8305 	mrs	r3, IPSR
100011e6:	b2db      	uxtb	r3, r3
100011e8:	b12b      	cbz	r3, 100011f6 <ulPortLockGetCurrentOwnerId+0x1e>
100011ea:	f04f 4250 	mov.w	r2, #3489660928	@ 0xd0000000
100011ee:	6810      	ldr	r0, [r2, #0]
100011f0:	eb00 0043 	add.w	r0, r0, r3, lsl #1
100011f4:	bd08      	pop	{r3, pc}
100011f6:	f001 fe2b 	bl	10002e50 <xTaskGetCurrentTaskHandle>
100011fa:	e7fb      	b.n	100011f4 <ulPortLockGetCurrentOwnerId+0x1c>
100011fc:	f04f 4350 	mov.w	r3, #3489660928	@ 0xd0000000
10001200:	6818      	ldr	r0, [r3, #0]
10001202:	e7f7      	b.n	100011f4 <ulPortLockGetCurrentOwnerId+0x1c>
10001204:	20000679 	.word	0x20000679

10001208 <vPortLockInternalSpinUnlockWithNotify>:
10001208:	468c      	mov	ip, r1
1000120a:	6802      	ldr	r2, [r0, #0]
1000120c:	4b1e      	ldr	r3, [pc, #120]	@ (10001288 <vPortLockInternalSpinUnlockWithNotify+0x80>)
1000120e:	1ad2      	subs	r2, r2, r3
10001210:	4b1e      	ldr	r3, [pc, #120]	@ (1000128c <vPortLockInternalSpinUnlockWithNotify+0x84>)
10001212:	fba3 1302 	umull	r1, r3, r3, r2
10001216:	091b      	lsrs	r3, r3, #4
10001218:	eb03 0343 	add.w	r3, r3, r3, lsl #1
1000121c:	eba2 03c3 	sub.w	r3, r2, r3, lsl #3
10001220:	2101      	movs	r1, #1
10001222:	4099      	lsls	r1, r3
10001224:	4b1a      	ldr	r3, [pc, #104]	@ (10001290 <vPortLockInternalSpinUnlockWithNotify+0x88>)
10001226:	781b      	ldrb	r3, [r3, #0]
10001228:	2bff      	cmp	r3, #255	@ 0xff
1000122a:	d025      	beq.n	10001278 <vPortLockInternalSpinUnlockWithNotify+0x70>
1000122c:	b500      	push	{lr}
1000122e:	b083      	sub	sp, #12
10001230:	bf40      	sev
10001232:	6802      	ldr	r2, [r0, #0]
10001234:	2300      	movs	r3, #0
10001236:	e8c2 3f8f 	stlb	r3, [r2]
1000123a:	f38c 8810 	msr	PRIMASK, ip
1000123e:	f3ef 8305 	mrs	r3, IPSR
10001242:	f013 0fff 	tst.w	r3, #255	@ 0xff
10001246:	d106      	bne.n	10001256 <vPortLockInternalSpinUnlockWithNotify+0x4e>
10001248:	4b12      	ldr	r3, [pc, #72]	@ (10001294 <vPortLockInternalSpinUnlockWithNotify+0x8c>)
1000124a:	6818      	ldr	r0, [r3, #0]
1000124c:	f000 fa04 	bl	10001658 <xEventGroupSetBits>
10001250:	b003      	add	sp, #12
10001252:	f85d fb04 	ldr.w	pc, [sp], #4
10001256:	2300      	movs	r3, #0
10001258:	9301      	str	r3, [sp, #4]
1000125a:	aa01      	add	r2, sp, #4
1000125c:	4b0d      	ldr	r3, [pc, #52]	@ (10001294 <vPortLockInternalSpinUnlockWithNotify+0x8c>)
1000125e:	6818      	ldr	r0, [r3, #0]
10001260:	f000 fa4a 	bl	100016f8 <xEventGroupSetBitsFromISR>
10001264:	9b01      	ldr	r3, [sp, #4]
10001266:	2b00      	cmp	r3, #0
10001268:	d0f2      	beq.n	10001250 <vPortLockInternalSpinUnlockWithNotify+0x48>
1000126a:	f04f 23e0 	mov.w	r3, #3758153728	@ 0xe000e000
1000126e:	f04f 5280 	mov.w	r2, #268435456	@ 0x10000000
10001272:	f8c3 2d04 	str.w	r2, [r3, #3332]	@ 0xd04
10001276:	e7eb      	b.n	10001250 <vPortLockInternalSpinUnlockWithNotify+0x48>
10001278:	bf40      	sev
1000127a:	6802      	ldr	r2, [r0, #0]
1000127c:	2300      	movs	r3, #0
1000127e:	e8c2 3f8f 	stlb	r3, [r2]
10001282:	f38c 8810 	msr	PRIMASK, ip
10001286:	4770      	bx	lr
10001288:	200008c0 	.word	0x200008c0
1000128c:	aaaaaaab 	.word	0xaaaaaaab
10001290:	20000679 	.word	0x20000679
10001294:	20020c80 	.word	0x20020c80

10001298 <xPortLockInternalSpinUnlockWithBestEffortWaitOrTimeout>:
10001298:	b5f0      	push	{r4, r5, r6, r7, lr}
1000129a:	b083      	sub	sp, #12
1000129c:	461d      	mov	r5, r3
1000129e:	f3ef 8305 	mrs	r3, IPSR
100012a2:	f013 0fff 	tst.w	r3, #255	@ 0xff
100012a6:	d121      	bne.n	100012ec <xPortLockInternalSpinUnlockWithBestEffortWaitOrTimeout+0x54>
100012a8:	4604      	mov	r4, r0
100012aa:	460f      	mov	r7, r1
100012ac:	4616      	mov	r6, r2
100012ae:	6803      	ldr	r3, [r0, #0]
100012b0:	b31b      	cbz	r3, 100012fa <xPortLockInternalSpinUnlockWithBestEffortWaitOrTimeout+0x62>
100012b2:	4a2b      	ldr	r2, [pc, #172]	@ (10001360 <xPortLockInternalSpinUnlockWithBestEffortWaitOrTimeout+0xc8>)
100012b4:	7812      	ldrb	r2, [r2, #0]
100012b6:	2aff      	cmp	r2, #255	@ 0xff
100012b8:	d026      	beq.n	10001308 <xPortLockInternalSpinUnlockWithBestEffortWaitOrTimeout+0x70>
100012ba:	4630      	mov	r0, r6
100012bc:	4629      	mov	r1, r5
100012be:	f7ff fdca 	bl	10000e56 <prvGetTicksToWaitBefore>
100012c2:	4684      	mov	ip, r0
100012c4:	2800      	cmp	r0, #0
100012c6:	d129      	bne.n	1000131c <xPortLockInternalSpinUnlockWithBestEffortWaitOrTimeout+0x84>
100012c8:	6822      	ldr	r2, [r4, #0]
100012ca:	2300      	movs	r3, #0
100012cc:	e8c2 3f8f 	stlb	r3, [r2]
100012d0:	f387 8810 	msr	PRIMASK, r7
100012d4:	4b23      	ldr	r3, [pc, #140]	@ (10001364 <xPortLockInternalSpinUnlockWithBestEffortWaitOrTimeout+0xcc>)
100012d6:	6a5b      	ldr	r3, [r3, #36]	@ 0x24
100012d8:	429d      	cmp	r5, r3
100012da:	d83a      	bhi.n	10001352 <xPortLockInternalSpinUnlockWithBestEffortWaitOrTimeout+0xba>
100012dc:	4a21      	ldr	r2, [pc, #132]	@ (10001364 <xPortLockInternalSpinUnlockWithBestEffortWaitOrTimeout+0xcc>)
100012de:	6a92      	ldr	r2, [r2, #40]	@ 0x28
100012e0:	42b2      	cmp	r2, r6
100012e2:	d23b      	bcs.n	1000135c <xPortLockInternalSpinUnlockWithBestEffortWaitOrTimeout+0xc4>
100012e4:	429d      	cmp	r5, r3
100012e6:	d034      	beq.n	10001352 <xPortLockInternalSpinUnlockWithBestEffortWaitOrTimeout+0xba>
100012e8:	2001      	movs	r0, #1
100012ea:	e035      	b.n	10001358 <xPortLockInternalSpinUnlockWithBestEffortWaitOrTimeout+0xc0>
100012ec:	4b1e      	ldr	r3, [pc, #120]	@ (10001368 <xPortLockInternalSpinUnlockWithBestEffortWaitOrTimeout+0xd0>)
100012ee:	4a1f      	ldr	r2, [pc, #124]	@ (1000136c <xPortLockInternalSpinUnlockWithBestEffortWaitOrTimeout+0xd4>)
100012f0:	f640 2152 	movw	r1, #2642	@ 0xa52
100012f4:	481e      	ldr	r0, [pc, #120]	@ (10001370 <xPortLockInternalSpinUnlockWithBestEffortWaitOrTimeout+0xd8>)
100012f6:	f005 fe9f 	bl	10007038 <__assert_func>
100012fa:	4b1e      	ldr	r3, [pc, #120]	@ (10001374 <xPortLockInternalSpinUnlockWithBestEffortWaitOrTimeout+0xdc>)
100012fc:	4a1b      	ldr	r2, [pc, #108]	@ (1000136c <xPortLockInternalSpinUnlockWithBestEffortWaitOrTimeout+0xd4>)
100012fe:	f640 2153 	movw	r1, #2643	@ 0xa53
10001302:	481b      	ldr	r0, [pc, #108]	@ (10001370 <xPortLockInternalSpinUnlockWithBestEffortWaitOrTimeout+0xd8>)
10001304:	f005 fe98 	bl	10007038 <__assert_func>
10001308:	2200      	movs	r2, #0
1000130a:	e8c3 2f8f 	stlb	r2, [r3]
1000130e:	f381 8810 	msr	PRIMASK, r1
10001312:	4630      	mov	r0, r6
10001314:	4629      	mov	r1, r5
10001316:	f003 ff53 	bl	100051c0 <best_effort_wfe_or_timeout>
1000131a:	e01d      	b.n	10001358 <xPortLockInternalSpinUnlockWithBestEffortWaitOrTimeout+0xc0>
1000131c:	6822      	ldr	r2, [r4, #0]
1000131e:	2300      	movs	r3, #0
10001320:	e8c2 3f8f 	stlb	r3, [r2]
10001324:	f387 8810 	msr	PRIMASK, r7
10001328:	6822      	ldr	r2, [r4, #0]
1000132a:	4913      	ldr	r1, [pc, #76]	@ (10001378 <xPortLockInternalSpinUnlockWithBestEffortWaitOrTimeout+0xe0>)
1000132c:	1a52      	subs	r2, r2, r1
1000132e:	4913      	ldr	r1, [pc, #76]	@ (1000137c <xPortLockInternalSpinUnlockWithBestEffortWaitOrTimeout+0xe4>)
10001330:	fba1 0102 	umull	r0, r1, r1, r2
10001334:	0909      	lsrs	r1, r1, #4
10001336:	eb01 0141 	add.w	r1, r1, r1, lsl #1
1000133a:	eba2 01c1 	sub.w	r1, r2, r1, lsl #3
1000133e:	2201      	movs	r2, #1
10001340:	f8cd c000 	str.w	ip, [sp]
10001344:	fa02 f101 	lsl.w	r1, r2, r1
10001348:	480d      	ldr	r0, [pc, #52]	@ (10001380 <xPortLockInternalSpinUnlockWithBestEffortWaitOrTimeout+0xe8>)
1000134a:	6800      	ldr	r0, [r0, #0]
1000134c:	f000 f8fa 	bl	10001544 <xEventGroupWaitBits>
10001350:	e7c0      	b.n	100012d4 <xPortLockInternalSpinUnlockWithBestEffortWaitOrTimeout+0x3c>
10001352:	f7ff fe5f 	bl	10001014 <vPortYield>
10001356:	2000      	movs	r0, #0
10001358:	b003      	add	sp, #12
1000135a:	bdf0      	pop	{r4, r5, r6, r7, pc}
1000135c:	2001      	movs	r0, #1
1000135e:	e7fb      	b.n	10001358 <xPortLockInternalSpinUnlockWithBestEffortWaitOrTimeout+0xc0>
10001360:	20000679 	.word	0x20000679
10001364:	400b0000 	.word	0x400b0000
10001368:	10007f84 	.word	0x10007f84
1000136c:	10009168 	.word	0x10009168
10001370:	10007dfc 	.word	0x10007dfc
10001374:	10007ff0 	.word	0x10007ff0
10001378:	200008c0 	.word	0x200008c0
1000137c:	aaaaaaab 	.word	0xaaaaaaab
10001380:	20020c80 	.word	0x20020c80

10001384 <prvRuntimeInitializer>:
10001384:	b508      	push	{r3, lr}
10001386:	f000 f8d0 	bl	1000152a <xEventGroupCreate>
1000138a:	4b01      	ldr	r3, [pc, #4]	@ (10001390 <prvRuntimeInitializer+0xc>)
1000138c:	6018      	str	r0, [r3, #0]
1000138e:	bd08      	pop	{r3, pc}
10001390:	20020c80 	.word	0x20020c80

10001394 <vYieldCore>:
10001394:	b508      	push	{r3, lr}
10001396:	f04f 4350 	mov.w	r3, #3489660928	@ 0xd0000000
1000139a:	681b      	ldr	r3, [r3, #0]
1000139c:	4283      	cmp	r3, r0
1000139e:	d00b      	beq.n	100013b8 <vYieldCore+0x24>
100013a0:	4b0c      	ldr	r3, [pc, #48]	@ (100013d4 <vYieldCore+0x40>)
100013a2:	f993 2000 	ldrsb.w	r2, [r3]
100013a6:	2a00      	cmp	r2, #0
100013a8:	db0d      	blt.n	100013c6 <vYieldCore+0x32>
100013aa:	2301      	movs	r3, #1
100013ac:	4093      	lsls	r3, r2
100013ae:	f04f 4250 	mov.w	r2, #3489660928	@ 0xd0000000
100013b2:	f8c2 3180 	str.w	r3, [r2, #384]	@ 0x180
100013b6:	bd08      	pop	{r3, pc}
100013b8:	4b07      	ldr	r3, [pc, #28]	@ (100013d8 <vYieldCore+0x44>)
100013ba:	4a08      	ldr	r2, [pc, #32]	@ (100013dc <vYieldCore+0x48>)
100013bc:	f640 21ac 	movw	r1, #2732	@ 0xaac
100013c0:	4807      	ldr	r0, [pc, #28]	@ (100013e0 <vYieldCore+0x4c>)
100013c2:	f005 fe39 	bl	10007038 <__assert_func>
100013c6:	4b07      	ldr	r3, [pc, #28]	@ (100013e4 <vYieldCore+0x50>)
100013c8:	4a04      	ldr	r2, [pc, #16]	@ (100013dc <vYieldCore+0x48>)
100013ca:	f640 21b1 	movw	r1, #2737	@ 0xab1
100013ce:	4804      	ldr	r0, [pc, #16]	@ (100013e0 <vYieldCore+0x4c>)
100013d0:	f005 fe32 	bl	10007038 <__assert_func>
100013d4:	20000678 	.word	0x20000678
100013d8:	10008004 	.word	0x10008004
100013dc:	1000915c 	.word	0x1000915c
100013e0:	10007dfc 	.word	0x10007dfc
100013e4:	10008028 	.word	0x10008028
	...

100013f0 <vRestoreContextOfFirstTask>:
100013f0:	a10b      	add	r1, pc, #44	@ (adr r1, 10001420 <ulAsmLocals>)
100013f2:	c90c      	ldmia	r1!, {r2, r3}
100013f4:	6812      	ldr	r2, [r2, #0]
100013f6:	f853 1022 	ldr.w	r1, [r3, r2, lsl #2]
100013fa:	6808      	ldr	r0, [r1, #0]
100013fc:	c806      	ldmia	r0!, {r1, r2}
100013fe:	f381 880b 	msr	PSPLIM, r1
10001402:	2102      	movs	r1, #2
10001404:	f381 8814 	msr	CONTROL, r1
10001408:	3020      	adds	r0, #32
1000140a:	f380 8809 	msr	PSP, r0
1000140e:	f3bf 8f6f 	isb	sy
10001412:	f04f 0000 	mov.w	r0, #0
10001416:	f380 8811 	msr	BASEPRI, r0
1000141a:	4710      	bx	r2
1000141c:	f3af 8000 	nop.w

10001420 <ulAsmLocals>:
10001420:	d0000000 	.word	0xd0000000
10001424:	20000960 	.word	0x20000960

10001428 <vStartFirstTask>:
10001428:	b662      	cpsie	i
1000142a:	b661      	cpsie	f
1000142c:	f3bf 8f4f 	dsb	sy
10001430:	f3bf 8f6f 	isb	sy
10001434:	df66      	svc	102	@ 0x66
10001436:	bf00      	nop

10001438 <ulSetInterruptMask>:
10001438:	f3ef 8011 	mrs	r0, BASEPRI
1000143c:	f04f 0110 	mov.w	r1, #16
10001440:	f381 8811 	msr	BASEPRI, r1
10001444:	f3bf 8f4f 	dsb	sy
10001448:	f3bf 8f6f 	isb	sy
1000144c:	4770      	bx	lr

1000144e <vClearInterruptMask>:
1000144e:	f380 8811 	msr	BASEPRI, r0
10001452:	f3bf 8f4f 	dsb	sy
10001456:	f3bf 8f6f 	isb	sy
1000145a:	4770      	bx	lr
1000145c:	0000      	movs	r0, r0
	...

10001460 <PendSV_Handler>:
10001460:	f3ef 8109 	mrs	r1, PSP
10001464:	f01e 0f10 	tst.w	lr, #16
10001468:	bf08      	it	eq
1000146a:	ed21 8a10 	vstmdbeq	r1!, {s16-s31}
1000146e:	f3ef 820b 	mrs	r2, PSPLIM
10001472:	4673      	mov	r3, lr
10001474:	e921 0ffc 	stmdb	r1!, {r2, r3, r4, r5, r6, r7, r8, r9, sl, fp}
10001478:	fc55 4408 	dcp_pxmd r4, r5
1000147c:	fc57 6409 	dcp_pymd r6, r7
10001480:	fc59 840a 	dcp_pefd r8, r9
10001484:	e901 03f0 	stmdb	r1, {r4, r5, r6, r7, r8, r9}
10001488:	a019      	add	r0, pc, #100	@ (adr r0, 100014f0 <ulAsmLocals2>)
1000148a:	c80c      	ldmia	r0!, {r2, r3}
1000148c:	6810      	ldr	r0, [r2, #0]
1000148e:	f853 3020 	ldr.w	r3, [r3, r0, lsl #2]
10001492:	6019      	str	r1, [r3, #0]
10001494:	f04f 0110 	mov.w	r1, #16
10001498:	f381 8811 	msr	BASEPRI, r1
1000149c:	f3bf 8f4f 	dsb	sy
100014a0:	f3bf 8f6f 	isb	sy
100014a4:	f001 fbf4 	bl	10002c90 <vTaskSwitchContext>
100014a8:	f04f 0000 	mov.w	r0, #0
100014ac:	f380 8811 	msr	BASEPRI, r0
100014b0:	a10f      	add	r1, pc, #60	@ (adr r1, 100014f0 <ulAsmLocals2>)
100014b2:	c90c      	ldmia	r1!, {r2, r3}
100014b4:	6812      	ldr	r2, [r2, #0]
100014b6:	f853 1022 	ldr.w	r1, [r3, r2, lsl #2]
100014ba:	6808      	ldr	r0, [r1, #0]
100014bc:	3818      	subs	r0, #24
100014be:	e8b0 03f0 	ldmia.w	r0!, {r4, r5, r6, r7, r8, r9}
100014c2:	ec45 4400 	dcp_wxmd r4, r5
100014c6:	ec47 6401 	dcp_wymd r6, r7
100014ca:	ec49 8402 	dcp_wefd r8, r9
100014ce:	e8b0 0ffc 	ldmia.w	r0!, {r2, r3, r4, r5, r6, r7, r8, r9, sl, fp}
100014d2:	f013 0f10 	tst.w	r3, #16
100014d6:	bf08      	it	eq
100014d8:	ecb0 8a10 	vldmiaeq	r0!, {s16-s31}
100014dc:	f382 880b 	msr	PSPLIM, r2
100014e0:	f380 8809 	msr	PSP, r0
100014e4:	4718      	bx	r3
100014e6:	bf00      	nop
100014e8:	f3af 8000 	nop.w
100014ec:	f3af 8000 	nop.w

100014f0 <ulAsmLocals2>:
100014f0:	d0000000 	.word	0xd0000000
100014f4:	20000960 	.word	0x20000960

100014f8 <SVC_Handler>:
100014f8:	f01e 0f04 	tst.w	lr, #4
100014fc:	bf0c      	ite	eq
100014fe:	f3ef 8008 	mrseq	r0, MSP
10001502:	f3ef 8009 	mrsne	r0, PSP
10001506:	4901      	ldr	r1, [pc, #4]	@ (1000150c <SVC_Handler+0x14>)
10001508:	4708      	bx	r1
1000150a:	0000      	.short	0x0000
1000150c:	1000102d 	.word	0x1000102d

10001510 <prvTestWaitCondition>:
10001510:	b91a      	cbnz	r2, 1000151a <prvTestWaitCondition+0xa>
10001512:	4208      	tst	r0, r1
10001514:	d105      	bne.n	10001522 <prvTestWaitCondition+0x12>
10001516:	4610      	mov	r0, r2
10001518:	4770      	bx	lr
1000151a:	4381      	bics	r1, r0
1000151c:	d003      	beq.n	10001526 <prvTestWaitCondition+0x16>
1000151e:	2000      	movs	r0, #0
10001520:	4770      	bx	lr
10001522:	2001      	movs	r0, #1
10001524:	4770      	bx	lr
10001526:	2001      	movs	r0, #1
10001528:	4770      	bx	lr

1000152a <xEventGroupCreate>:
1000152a:	b510      	push	{r4, lr}
1000152c:	201c      	movs	r0, #28
1000152e:	f7ff fb23 	bl	10000b78 <pvPortMalloc>
10001532:	4604      	mov	r4, r0
10001534:	b120      	cbz	r0, 10001540 <xEventGroupCreate+0x16>
10001536:	2300      	movs	r3, #0
10001538:	f840 3b04 	str.w	r3, [r0], #4
1000153c:	f000 f8e6 	bl	1000170c <vListInitialise>
10001540:	4620      	mov	r0, r4
10001542:	bd10      	pop	{r4, pc}

10001544 <xEventGroupWaitBits>:
10001544:	e92d 43f8 	stmdb	sp!, {r3, r4, r5, r6, r7, r8, r9, lr}
10001548:	9f08      	ldr	r7, [sp, #32]
1000154a:	b380      	cbz	r0, 100015ae <xEventGroupWaitBits+0x6a>
1000154c:	460d      	mov	r5, r1
1000154e:	4690      	mov	r8, r2
10001550:	461e      	mov	r6, r3
10001552:	4681      	mov	r9, r0
10001554:	f1b1 7f80 	cmp.w	r1, #16777216	@ 0x1000000
10001558:	d230      	bcs.n	100015bc <xEventGroupWaitBits+0x78>
1000155a:	2900      	cmp	r1, #0
1000155c:	d035      	beq.n	100015ca <xEventGroupWaitBits+0x86>
1000155e:	f002 fb59 	bl	10003c14 <xTaskGetSchedulerState>
10001562:	b908      	cbnz	r0, 10001568 <xEventGroupWaitBits+0x24>
10001564:	2f00      	cmp	r7, #0
10001566:	d137      	bne.n	100015d8 <xEventGroupWaitBits+0x94>
10001568:	f001 fa4e 	bl	10002a08 <vTaskSuspendAll>
1000156c:	f8d9 4000 	ldr.w	r4, [r9]
10001570:	4632      	mov	r2, r6
10001572:	4629      	mov	r1, r5
10001574:	4620      	mov	r0, r4
10001576:	f7ff ffcb 	bl	10001510 <prvTestWaitCondition>
1000157a:	2800      	cmp	r0, #0
1000157c:	d033      	beq.n	100015e6 <xEventGroupWaitBits+0xa2>
1000157e:	f1b8 0f00 	cmp.w	r8, #0
10001582:	d044      	beq.n	1000160e <xEventGroupWaitBits+0xca>
10001584:	ea24 0305 	bic.w	r3, r4, r5
10001588:	f8c9 3000 	str.w	r3, [r9]
1000158c:	2700      	movs	r7, #0
1000158e:	f002 f9a7 	bl	100038e0 <xTaskResumeAll>
10001592:	b14f      	cbz	r7, 100015a8 <xEventGroupWaitBits+0x64>
10001594:	2800      	cmp	r0, #0
10001596:	d03c      	beq.n	10001612 <xEventGroupWaitBits+0xce>
10001598:	f002 fb8c 	bl	10003cb4 <uxTaskResetEventItemValue>
1000159c:	4604      	mov	r4, r0
1000159e:	f010 7f00 	tst.w	r0, #33554432	@ 0x2000000
100015a2:	d039      	beq.n	10001618 <xEventGroupWaitBits+0xd4>
100015a4:	f024 447f 	bic.w	r4, r4, #4278190080	@ 0xff000000
100015a8:	4620      	mov	r0, r4
100015aa:	e8bd 83f8 	ldmia.w	sp!, {r3, r4, r5, r6, r7, r8, r9, pc}
100015ae:	4b24      	ldr	r3, [pc, #144]	@ (10001640 <xEventGroupWaitBits+0xfc>)
100015b0:	4a24      	ldr	r2, [pc, #144]	@ (10001644 <xEventGroupWaitBits+0x100>)
100015b2:	f240 1147 	movw	r1, #327	@ 0x147
100015b6:	4824      	ldr	r0, [pc, #144]	@ (10001648 <xEventGroupWaitBits+0x104>)
100015b8:	f005 fd3e 	bl	10007038 <__assert_func>
100015bc:	4b23      	ldr	r3, [pc, #140]	@ (1000164c <xEventGroupWaitBits+0x108>)
100015be:	4a21      	ldr	r2, [pc, #132]	@ (10001644 <xEventGroupWaitBits+0x100>)
100015c0:	f44f 71a4 	mov.w	r1, #328	@ 0x148
100015c4:	4820      	ldr	r0, [pc, #128]	@ (10001648 <xEventGroupWaitBits+0x104>)
100015c6:	f005 fd37 	bl	10007038 <__assert_func>
100015ca:	4b21      	ldr	r3, [pc, #132]	@ (10001650 <xEventGroupWaitBits+0x10c>)
100015cc:	4a1d      	ldr	r2, [pc, #116]	@ (10001644 <xEventGroupWaitBits+0x100>)
100015ce:	f240 1149 	movw	r1, #329	@ 0x149
100015d2:	481d      	ldr	r0, [pc, #116]	@ (10001648 <xEventGroupWaitBits+0x104>)
100015d4:	f005 fd30 	bl	10007038 <__assert_func>
100015d8:	4b1e      	ldr	r3, [pc, #120]	@ (10001654 <xEventGroupWaitBits+0x110>)
100015da:	4a1a      	ldr	r2, [pc, #104]	@ (10001644 <xEventGroupWaitBits+0x100>)
100015dc:	f44f 71a6 	mov.w	r1, #332	@ 0x14c
100015e0:	4819      	ldr	r0, [pc, #100]	@ (10001648 <xEventGroupWaitBits+0x104>)
100015e2:	f005 fd29 	bl	10007038 <__assert_func>
100015e6:	2f00      	cmp	r7, #0
100015e8:	d0d1      	beq.n	1000158e <xEventGroupWaitBits+0x4a>
100015ea:	f1b8 0f00 	cmp.w	r8, #0
100015ee:	d10b      	bne.n	10001608 <xEventGroupWaitBits+0xc4>
100015f0:	2100      	movs	r1, #0
100015f2:	b10e      	cbz	r6, 100015f8 <xEventGroupWaitBits+0xb4>
100015f4:	f041 6180 	orr.w	r1, r1, #67108864	@ 0x4000000
100015f8:	463a      	mov	r2, r7
100015fa:	4329      	orrs	r1, r5
100015fc:	f109 0004 	add.w	r0, r9, #4
10001600:	f001 fcae 	bl	10002f60 <vTaskPlaceOnUnorderedEventList>
10001604:	2400      	movs	r4, #0
10001606:	e7c2      	b.n	1000158e <xEventGroupWaitBits+0x4a>
10001608:	f04f 7180 	mov.w	r1, #16777216	@ 0x1000000
1000160c:	e7f1      	b.n	100015f2 <xEventGroupWaitBits+0xae>
1000160e:	2700      	movs	r7, #0
10001610:	e7bd      	b.n	1000158e <xEventGroupWaitBits+0x4a>
10001612:	f001 fe97 	bl	10003344 <vTaskYieldWithinAPI>
10001616:	e7bf      	b.n	10001598 <xEventGroupWaitBits+0x54>
10001618:	f001 fea8 	bl	1000336c <vTaskEnterCritical>
1000161c:	f8d9 4000 	ldr.w	r4, [r9]
10001620:	4632      	mov	r2, r6
10001622:	4629      	mov	r1, r5
10001624:	4620      	mov	r0, r4
10001626:	f7ff ff73 	bl	10001510 <prvTestWaitCondition>
1000162a:	b130      	cbz	r0, 1000163a <xEventGroupWaitBits+0xf6>
1000162c:	f1b8 0f00 	cmp.w	r8, #0
10001630:	d003      	beq.n	1000163a <xEventGroupWaitBits+0xf6>
10001632:	ea24 0505 	bic.w	r5, r4, r5
10001636:	f8c9 5000 	str.w	r5, [r9]
1000163a:	f001 fef7 	bl	1000342c <vTaskExitCritical>
1000163e:	e7b1      	b.n	100015a4 <xEventGroupWaitBits+0x60>
10001640:	1000803c 	.word	0x1000803c
10001644:	1000922c 	.word	0x1000922c
10001648:	10008048 	.word	0x10008048
1000164c:	1000807c 	.word	0x1000807c
10001650:	100080b4 	.word	0x100080b4
10001654:	100080cc 	.word	0x100080cc

10001658 <xEventGroupSetBits>:
10001658:	b5f8      	push	{r3, r4, r5, r6, r7, lr}
1000165a:	b170      	cbz	r0, 1000167a <xEventGroupSetBits+0x22>
1000165c:	460d      	mov	r5, r1
1000165e:	4604      	mov	r4, r0
10001660:	f1b1 7f80 	cmp.w	r1, #16777216	@ 0x1000000
10001664:	d210      	bcs.n	10001688 <xEventGroupSetBits+0x30>
10001666:	f100 060c 	add.w	r6, r0, #12
1000166a:	f001 f9cd 	bl	10002a08 <vTaskSuspendAll>
1000166e:	6920      	ldr	r0, [r4, #16]
10001670:	6823      	ldr	r3, [r4, #0]
10001672:	432b      	orrs	r3, r5
10001674:	6023      	str	r3, [r4, #0]
10001676:	2700      	movs	r7, #0
10001678:	e018      	b.n	100016ac <xEventGroupSetBits+0x54>
1000167a:	4b19      	ldr	r3, [pc, #100]	@ (100016e0 <xEventGroupSetBits+0x88>)
1000167c:	4a19      	ldr	r2, [pc, #100]	@ (100016e4 <xEventGroupSetBits+0x8c>)
1000167e:	f240 2132 	movw	r1, #562	@ 0x232
10001682:	4819      	ldr	r0, [pc, #100]	@ (100016e8 <xEventGroupSetBits+0x90>)
10001684:	f005 fcd8 	bl	10007038 <__assert_func>
10001688:	4b18      	ldr	r3, [pc, #96]	@ (100016ec <xEventGroupSetBits+0x94>)
1000168a:	4a16      	ldr	r2, [pc, #88]	@ (100016e4 <xEventGroupSetBits+0x8c>)
1000168c:	f240 2133 	movw	r1, #563	@ 0x233
10001690:	4815      	ldr	r0, [pc, #84]	@ (100016e8 <xEventGroupSetBits+0x90>)
10001692:	f005 fcd1 	bl	10007038 <__assert_func>
10001696:	6821      	ldr	r1, [r4, #0]
10001698:	ea32 0101 	bics.w	r1, r2, r1
1000169c:	d105      	bne.n	100016aa <xEventGroupSetBits+0x52>
1000169e:	e011      	b.n	100016c4 <xEventGroupSetBits+0x6c>
100016a0:	6821      	ldr	r1, [r4, #0]
100016a2:	f041 7100 	orr.w	r1, r1, #33554432	@ 0x2000000
100016a6:	f002 f9eb 	bl	10003a80 <vTaskRemoveFromUnorderedEventList>
100016aa:	4628      	mov	r0, r5
100016ac:	42b0      	cmp	r0, r6
100016ae:	d00e      	beq.n	100016ce <xEventGroupSetBits+0x76>
100016b0:	6845      	ldr	r5, [r0, #4]
100016b2:	6803      	ldr	r3, [r0, #0]
100016b4:	f023 427f 	bic.w	r2, r3, #4278190080	@ 0xff000000
100016b8:	f013 6f80 	tst.w	r3, #67108864	@ 0x4000000
100016bc:	d1eb      	bne.n	10001696 <xEventGroupSetBits+0x3e>
100016be:	6821      	ldr	r1, [r4, #0]
100016c0:	4211      	tst	r1, r2
100016c2:	d0f2      	beq.n	100016aa <xEventGroupSetBits+0x52>
100016c4:	f013 7f80 	tst.w	r3, #16777216	@ 0x1000000
100016c8:	d0ea      	beq.n	100016a0 <xEventGroupSetBits+0x48>
100016ca:	4317      	orrs	r7, r2
100016cc:	e7e8      	b.n	100016a0 <xEventGroupSetBits+0x48>
100016ce:	6823      	ldr	r3, [r4, #0]
100016d0:	ea23 0307 	bic.w	r3, r3, r7
100016d4:	6023      	str	r3, [r4, #0]
100016d6:	f002 f903 	bl	100038e0 <xTaskResumeAll>
100016da:	6820      	ldr	r0, [r4, #0]
100016dc:	bdf8      	pop	{r3, r4, r5, r6, r7, pc}
100016de:	bf00      	nop
100016e0:	1000803c 	.word	0x1000803c
100016e4:	10009218 	.word	0x10009218
100016e8:	10008048 	.word	0x10008048
100016ec:	10008120 	.word	0x10008120

100016f0 <vEventGroupSetBitsCallback>:
100016f0:	b508      	push	{r3, lr}
100016f2:	f7ff ffb1 	bl	10001658 <xEventGroupSetBits>
100016f6:	bd08      	pop	{r3, pc}

100016f8 <xEventGroupSetBitsFromISR>:
100016f8:	b508      	push	{r3, lr}
100016fa:	4613      	mov	r3, r2
100016fc:	460a      	mov	r2, r1
100016fe:	4601      	mov	r1, r0
10001700:	4801      	ldr	r0, [pc, #4]	@ (10001708 <xEventGroupSetBitsFromISR+0x10>)
10001702:	f002 fef7 	bl	100044f4 <xTimerPendFunctionCallFromISR>
10001706:	bd08      	pop	{r3, pc}
10001708:	100016f1 	.word	0x100016f1

1000170c <vListInitialise>:
1000170c:	f100 0308 	add.w	r3, r0, #8
10001710:	6043      	str	r3, [r0, #4]
10001712:	f04f 32ff 	mov.w	r2, #4294967295
10001716:	6082      	str	r2, [r0, #8]
10001718:	60c3      	str	r3, [r0, #12]
1000171a:	6103      	str	r3, [r0, #16]
1000171c:	2300      	movs	r3, #0
1000171e:	6003      	str	r3, [r0, #0]
10001720:	4770      	bx	lr

10001722 <vListInitialiseItem>:
10001722:	2300      	movs	r3, #0
10001724:	6103      	str	r3, [r0, #16]
10001726:	4770      	bx	lr

10001728 <vListInsertEnd>:
10001728:	6843      	ldr	r3, [r0, #4]
1000172a:	604b      	str	r3, [r1, #4]
1000172c:	689a      	ldr	r2, [r3, #8]
1000172e:	608a      	str	r2, [r1, #8]
10001730:	6051      	str	r1, [r2, #4]
10001732:	6099      	str	r1, [r3, #8]
10001734:	6108      	str	r0, [r1, #16]
10001736:	6803      	ldr	r3, [r0, #0]
10001738:	3301      	adds	r3, #1
1000173a:	6003      	str	r3, [r0, #0]
1000173c:	4770      	bx	lr

1000173e <vListInsert>:
1000173e:	b430      	push	{r4, r5}
10001740:	680d      	ldr	r5, [r1, #0]
10001742:	f1b5 3fff 	cmp.w	r5, #4294967295
10001746:	d011      	beq.n	1000176c <vListInsert+0x2e>
10001748:	f100 0308 	add.w	r3, r0, #8
1000174c:	461c      	mov	r4, r3
1000174e:	685b      	ldr	r3, [r3, #4]
10001750:	681a      	ldr	r2, [r3, #0]
10001752:	42aa      	cmp	r2, r5
10001754:	d9fa      	bls.n	1000174c <vListInsert+0xe>
10001756:	6863      	ldr	r3, [r4, #4]
10001758:	604b      	str	r3, [r1, #4]
1000175a:	6099      	str	r1, [r3, #8]
1000175c:	608c      	str	r4, [r1, #8]
1000175e:	6061      	str	r1, [r4, #4]
10001760:	6108      	str	r0, [r1, #16]
10001762:	6803      	ldr	r3, [r0, #0]
10001764:	3301      	adds	r3, #1
10001766:	6003      	str	r3, [r0, #0]
10001768:	bc30      	pop	{r4, r5}
1000176a:	4770      	bx	lr
1000176c:	6904      	ldr	r4, [r0, #16]
1000176e:	e7f2      	b.n	10001756 <vListInsert+0x18>

10001770 <uxListRemove>:
10001770:	6903      	ldr	r3, [r0, #16]
10001772:	6841      	ldr	r1, [r0, #4]
10001774:	6882      	ldr	r2, [r0, #8]
10001776:	608a      	str	r2, [r1, #8]
10001778:	6841      	ldr	r1, [r0, #4]
1000177a:	6051      	str	r1, [r2, #4]
1000177c:	685a      	ldr	r2, [r3, #4]
1000177e:	4282      	cmp	r2, r0
10001780:	d005      	beq.n	1000178e <uxListRemove+0x1e>
10001782:	2200      	movs	r2, #0
10001784:	6102      	str	r2, [r0, #16]
10001786:	6818      	ldr	r0, [r3, #0]
10001788:	3801      	subs	r0, #1
1000178a:	6018      	str	r0, [r3, #0]
1000178c:	4770      	bx	lr
1000178e:	6882      	ldr	r2, [r0, #8]
10001790:	605a      	str	r2, [r3, #4]
10001792:	e7f6      	b.n	10001782 <uxListRemove+0x12>

10001794 <prvGetDisinheritPriorityAfterTimeout>:
10001794:	4603      	mov	r3, r0
10001796:	6a40      	ldr	r0, [r0, #36]	@ 0x24
10001798:	b118      	cbz	r0, 100017a2 <prvGetDisinheritPriorityAfterTimeout+0xe>
1000179a:	6b1b      	ldr	r3, [r3, #48]	@ 0x30
1000179c:	6818      	ldr	r0, [r3, #0]
1000179e:	f1c0 0020 	rsb	r0, r0, #32
100017a2:	4770      	bx	lr

100017a4 <prvIsQueueFull>:
100017a4:	b510      	push	{r4, lr}
100017a6:	4604      	mov	r4, r0
100017a8:	f001 fde0 	bl	1000336c <vTaskEnterCritical>
100017ac:	6ba2      	ldr	r2, [r4, #56]	@ 0x38
100017ae:	6be3      	ldr	r3, [r4, #60]	@ 0x3c
100017b0:	429a      	cmp	r2, r3
100017b2:	d004      	beq.n	100017be <prvIsQueueFull+0x1a>
100017b4:	2400      	movs	r4, #0
100017b6:	f001 fe39 	bl	1000342c <vTaskExitCritical>
100017ba:	4620      	mov	r0, r4
100017bc:	bd10      	pop	{r4, pc}
100017be:	2401      	movs	r4, #1
100017c0:	e7f9      	b.n	100017b6 <prvIsQueueFull+0x12>

100017c2 <prvIsQueueEmpty>:
100017c2:	b510      	push	{r4, lr}
100017c4:	4604      	mov	r4, r0
100017c6:	f001 fdd1 	bl	1000336c <vTaskEnterCritical>
100017ca:	6ba3      	ldr	r3, [r4, #56]	@ 0x38
100017cc:	b923      	cbnz	r3, 100017d8 <prvIsQueueEmpty+0x16>
100017ce:	2401      	movs	r4, #1
100017d0:	f001 fe2c 	bl	1000342c <vTaskExitCritical>
100017d4:	4620      	mov	r0, r4
100017d6:	bd10      	pop	{r4, pc}
100017d8:	2400      	movs	r4, #0
100017da:	e7f9      	b.n	100017d0 <prvIsQueueEmpty+0xe>

100017dc <prvCopyDataToQueue>:
100017dc:	b570      	push	{r4, r5, r6, lr}
100017de:	4604      	mov	r4, r0
100017e0:	4615      	mov	r5, r2
100017e2:	6b86      	ldr	r6, [r0, #56]	@ 0x38
100017e4:	6c02      	ldr	r2, [r0, #64]	@ 0x40
100017e6:	b95a      	cbnz	r2, 10001800 <prvCopyDataToQueue+0x24>
100017e8:	6803      	ldr	r3, [r0, #0]
100017ea:	b11b      	cbz	r3, 100017f4 <prvCopyDataToQueue+0x18>
100017ec:	2000      	movs	r0, #0
100017ee:	3601      	adds	r6, #1
100017f0:	63a6      	str	r6, [r4, #56]	@ 0x38
100017f2:	bd70      	pop	{r4, r5, r6, pc}
100017f4:	6880      	ldr	r0, [r0, #8]
100017f6:	f001 fc8f 	bl	10003118 <xTaskPriorityDisinherit>
100017fa:	2300      	movs	r3, #0
100017fc:	60a3      	str	r3, [r4, #8]
100017fe:	e7f6      	b.n	100017ee <prvCopyDataToQueue+0x12>
10001800:	b96d      	cbnz	r5, 1000181e <prvCopyDataToQueue+0x42>
10001802:	6840      	ldr	r0, [r0, #4]
10001804:	f005 ff00 	bl	10007608 <memcpy>
10001808:	6863      	ldr	r3, [r4, #4]
1000180a:	6c22      	ldr	r2, [r4, #64]	@ 0x40
1000180c:	4413      	add	r3, r2
1000180e:	6063      	str	r3, [r4, #4]
10001810:	68a2      	ldr	r2, [r4, #8]
10001812:	4293      	cmp	r3, r2
10001814:	d319      	bcc.n	1000184a <prvCopyDataToQueue+0x6e>
10001816:	6823      	ldr	r3, [r4, #0]
10001818:	6063      	str	r3, [r4, #4]
1000181a:	4628      	mov	r0, r5
1000181c:	e7e7      	b.n	100017ee <prvCopyDataToQueue+0x12>
1000181e:	68c0      	ldr	r0, [r0, #12]
10001820:	f005 fef2 	bl	10007608 <memcpy>
10001824:	68e3      	ldr	r3, [r4, #12]
10001826:	6c22      	ldr	r2, [r4, #64]	@ 0x40
10001828:	4251      	negs	r1, r2
1000182a:	1a9b      	subs	r3, r3, r2
1000182c:	60e3      	str	r3, [r4, #12]
1000182e:	6822      	ldr	r2, [r4, #0]
10001830:	4293      	cmp	r3, r2
10001832:	d202      	bcs.n	1000183a <prvCopyDataToQueue+0x5e>
10001834:	68a3      	ldr	r3, [r4, #8]
10001836:	440b      	add	r3, r1
10001838:	60e3      	str	r3, [r4, #12]
1000183a:	2d02      	cmp	r5, #2
1000183c:	d001      	beq.n	10001842 <prvCopyDataToQueue+0x66>
1000183e:	2000      	movs	r0, #0
10001840:	e7d5      	b.n	100017ee <prvCopyDataToQueue+0x12>
10001842:	b126      	cbz	r6, 1000184e <prvCopyDataToQueue+0x72>
10001844:	3e01      	subs	r6, #1
10001846:	2000      	movs	r0, #0
10001848:	e7d1      	b.n	100017ee <prvCopyDataToQueue+0x12>
1000184a:	4628      	mov	r0, r5
1000184c:	e7cf      	b.n	100017ee <prvCopyDataToQueue+0x12>
1000184e:	2000      	movs	r0, #0
10001850:	e7cd      	b.n	100017ee <prvCopyDataToQueue+0x12>

10001852 <prvCopyDataFromQueue>:
10001852:	4603      	mov	r3, r0
10001854:	6c02      	ldr	r2, [r0, #64]	@ 0x40
10001856:	b16a      	cbz	r2, 10001874 <prvCopyDataFromQueue+0x22>
10001858:	b510      	push	{r4, lr}
1000185a:	4608      	mov	r0, r1
1000185c:	68d9      	ldr	r1, [r3, #12]
1000185e:	4411      	add	r1, r2
10001860:	60d9      	str	r1, [r3, #12]
10001862:	689c      	ldr	r4, [r3, #8]
10001864:	42a1      	cmp	r1, r4
10001866:	d301      	bcc.n	1000186c <prvCopyDataFromQueue+0x1a>
10001868:	6819      	ldr	r1, [r3, #0]
1000186a:	60d9      	str	r1, [r3, #12]
1000186c:	68d9      	ldr	r1, [r3, #12]
1000186e:	f005 fecb 	bl	10007608 <memcpy>
10001872:	bd10      	pop	{r4, pc}
10001874:	4770      	bx	lr
	...

10001878 <prvNotifyQueueSetContainer>:
10001878:	b570      	push	{r4, r5, r6, lr}
1000187a:	b082      	sub	sp, #8
1000187c:	9001      	str	r0, [sp, #4]
1000187e:	6c84      	ldr	r4, [r0, #72]	@ 0x48
10001880:	b154      	cbz	r4, 10001898 <prvNotifyQueueSetContainer+0x20>
10001882:	6ba2      	ldr	r2, [r4, #56]	@ 0x38
10001884:	6be3      	ldr	r3, [r4, #60]	@ 0x3c
10001886:	429a      	cmp	r2, r3
10001888:	d20d      	bcs.n	100018a6 <prvNotifyQueueSetContainer+0x2e>
1000188a:	6ba2      	ldr	r2, [r4, #56]	@ 0x38
1000188c:	4293      	cmp	r3, r2
1000188e:	d811      	bhi.n	100018b4 <prvNotifyQueueSetContainer+0x3c>
10001890:	2500      	movs	r5, #0
10001892:	4628      	mov	r0, r5
10001894:	b002      	add	sp, #8
10001896:	bd70      	pop	{r4, r5, r6, pc}
10001898:	4b1b      	ldr	r3, [pc, #108]	@ (10001908 <prvNotifyQueueSetContainer+0x90>)
1000189a:	4a1c      	ldr	r2, [pc, #112]	@ (1000190c <prvNotifyQueueSetContainer+0x94>)
1000189c:	f640 41f8 	movw	r1, #3320	@ 0xcf8
100018a0:	481b      	ldr	r0, [pc, #108]	@ (10001910 <prvNotifyQueueSetContainer+0x98>)
100018a2:	f005 fbc9 	bl	10007038 <__assert_func>
100018a6:	4b1b      	ldr	r3, [pc, #108]	@ (10001914 <prvNotifyQueueSetContainer+0x9c>)
100018a8:	4a18      	ldr	r2, [pc, #96]	@ (1000190c <prvNotifyQueueSetContainer+0x94>)
100018aa:	f640 41f9 	movw	r1, #3321	@ 0xcf9
100018ae:	4818      	ldr	r0, [pc, #96]	@ (10001910 <prvNotifyQueueSetContainer+0x98>)
100018b0:	f005 fbc2 	bl	10007038 <__assert_func>
100018b4:	f894 6045 	ldrb.w	r6, [r4, #69]	@ 0x45
100018b8:	b276      	sxtb	r6, r6
100018ba:	2200      	movs	r2, #0
100018bc:	a901      	add	r1, sp, #4
100018be:	4620      	mov	r0, r4
100018c0:	f7ff ff8c 	bl	100017dc <prvCopyDataToQueue>
100018c4:	4605      	mov	r5, r0
100018c6:	f1b6 3fff 	cmp.w	r6, #4294967295
100018ca:	d10a      	bne.n	100018e2 <prvNotifyQueueSetContainer+0x6a>
100018cc:	6a63      	ldr	r3, [r4, #36]	@ 0x24
100018ce:	2b00      	cmp	r3, #0
100018d0:	d0df      	beq.n	10001892 <prvNotifyQueueSetContainer+0x1a>
100018d2:	f104 0024 	add.w	r0, r4, #36	@ 0x24
100018d6:	f001 fa29 	bl	10002d2c <xTaskRemoveFromEventList>
100018da:	2800      	cmp	r0, #0
100018dc:	d0d9      	beq.n	10001892 <prvNotifyQueueSetContainer+0x1a>
100018de:	2501      	movs	r5, #1
100018e0:	e7d7      	b.n	10001892 <prvNotifyQueueSetContainer+0x1a>
100018e2:	f001 f8db 	bl	10002a9c <uxTaskGetNumberOfTasks>
100018e6:	4286      	cmp	r6, r0
100018e8:	d2d3      	bcs.n	10001892 <prvNotifyQueueSetContainer+0x1a>
100018ea:	2e7f      	cmp	r6, #127	@ 0x7f
100018ec:	d004      	beq.n	100018f8 <prvNotifyQueueSetContainer+0x80>
100018ee:	3601      	adds	r6, #1
100018f0:	b276      	sxtb	r6, r6
100018f2:	f884 6045 	strb.w	r6, [r4, #69]	@ 0x45
100018f6:	e7cc      	b.n	10001892 <prvNotifyQueueSetContainer+0x1a>
100018f8:	4b07      	ldr	r3, [pc, #28]	@ (10001918 <prvNotifyQueueSetContainer+0xa0>)
100018fa:	4a04      	ldr	r2, [pc, #16]	@ (1000190c <prvNotifyQueueSetContainer+0x94>)
100018fc:	f640 5119 	movw	r1, #3353	@ 0xd19
10001900:	4803      	ldr	r0, [pc, #12]	@ (10001910 <prvNotifyQueueSetContainer+0x98>)
10001902:	f005 fb99 	bl	10007038 <__assert_func>
10001906:	bf00      	nop
10001908:	10008154 	.word	0x10008154
1000190c:	100092d0 	.word	0x100092d0
10001910:	10008168 	.word	0x10008168
10001914:	10008194 	.word	0x10008194
10001918:	100081dc 	.word	0x100081dc

1000191c <prvUnlockQueue>:
1000191c:	b538      	push	{r3, r4, r5, lr}
1000191e:	4605      	mov	r5, r0
10001920:	f001 fd24 	bl	1000336c <vTaskEnterCritical>
10001924:	f895 4045 	ldrb.w	r4, [r5, #69]	@ 0x45
10001928:	b264      	sxtb	r4, r4
1000192a:	e008      	b.n	1000193e <prvUnlockQueue+0x22>
1000192c:	6a6b      	ldr	r3, [r5, #36]	@ 0x24
1000192e:	b1b3      	cbz	r3, 1000195e <prvUnlockQueue+0x42>
10001930:	f105 0024 	add.w	r0, r5, #36	@ 0x24
10001934:	f001 f9fa 	bl	10002d2c <xTaskRemoveFromEventList>
10001938:	b970      	cbnz	r0, 10001958 <prvUnlockQueue+0x3c>
1000193a:	3c01      	subs	r4, #1
1000193c:	b264      	sxtb	r4, r4
1000193e:	2c00      	cmp	r4, #0
10001940:	dd0d      	ble.n	1000195e <prvUnlockQueue+0x42>
10001942:	6cab      	ldr	r3, [r5, #72]	@ 0x48
10001944:	2b00      	cmp	r3, #0
10001946:	d0f1      	beq.n	1000192c <prvUnlockQueue+0x10>
10001948:	4628      	mov	r0, r5
1000194a:	f7ff ff95 	bl	10001878 <prvNotifyQueueSetContainer>
1000194e:	2800      	cmp	r0, #0
10001950:	d0f3      	beq.n	1000193a <prvUnlockQueue+0x1e>
10001952:	f001 fa73 	bl	10002e3c <vTaskMissedYield>
10001956:	e7f0      	b.n	1000193a <prvUnlockQueue+0x1e>
10001958:	f001 fa70 	bl	10002e3c <vTaskMissedYield>
1000195c:	e7ed      	b.n	1000193a <prvUnlockQueue+0x1e>
1000195e:	23ff      	movs	r3, #255	@ 0xff
10001960:	f885 3045 	strb.w	r3, [r5, #69]	@ 0x45
10001964:	f001 fd62 	bl	1000342c <vTaskExitCritical>
10001968:	f001 fd00 	bl	1000336c <vTaskEnterCritical>
1000196c:	f895 4044 	ldrb.w	r4, [r5, #68]	@ 0x44
10001970:	b264      	sxtb	r4, r4
10001972:	e001      	b.n	10001978 <prvUnlockQueue+0x5c>
10001974:	3c01      	subs	r4, #1
10001976:	b264      	sxtb	r4, r4
10001978:	2c00      	cmp	r4, #0
1000197a:	dd0a      	ble.n	10001992 <prvUnlockQueue+0x76>
1000197c:	692b      	ldr	r3, [r5, #16]
1000197e:	b143      	cbz	r3, 10001992 <prvUnlockQueue+0x76>
10001980:	f105 0010 	add.w	r0, r5, #16
10001984:	f001 f9d2 	bl	10002d2c <xTaskRemoveFromEventList>
10001988:	2800      	cmp	r0, #0
1000198a:	d0f3      	beq.n	10001974 <prvUnlockQueue+0x58>
1000198c:	f001 fa56 	bl	10002e3c <vTaskMissedYield>
10001990:	e7f0      	b.n	10001974 <prvUnlockQueue+0x58>
10001992:	23ff      	movs	r3, #255	@ 0xff
10001994:	f885 3044 	strb.w	r3, [r5, #68]	@ 0x44
10001998:	f001 fd48 	bl	1000342c <vTaskExitCritical>
1000199c:	bd38      	pop	{r3, r4, r5, pc}
	...

100019a0 <xQueueGenericReset>:
100019a0:	b538      	push	{r3, r4, r5, lr}
100019a2:	b330      	cbz	r0, 100019f2 <xQueueGenericReset+0x52>
100019a4:	460d      	mov	r5, r1
100019a6:	4604      	mov	r4, r0
100019a8:	6bc3      	ldr	r3, [r0, #60]	@ 0x3c
100019aa:	2b00      	cmp	r3, #0
100019ac:	d03c      	beq.n	10001a28 <xQueueGenericReset+0x88>
100019ae:	6c02      	ldr	r2, [r0, #64]	@ 0x40
100019b0:	2100      	movs	r1, #0
100019b2:	fba2 2303 	umull	r2, r3, r2, r3
100019b6:	bb1b      	cbnz	r3, 10001a00 <xQueueGenericReset+0x60>
100019b8:	2900      	cmp	r1, #0
100019ba:	d135      	bne.n	10001a28 <xQueueGenericReset+0x88>
100019bc:	f001 fcd6 	bl	1000336c <vTaskEnterCritical>
100019c0:	6823      	ldr	r3, [r4, #0]
100019c2:	6be2      	ldr	r2, [r4, #60]	@ 0x3c
100019c4:	6c21      	ldr	r1, [r4, #64]	@ 0x40
100019c6:	fb01 3002 	mla	r0, r1, r2, r3
100019ca:	60a0      	str	r0, [r4, #8]
100019cc:	2000      	movs	r0, #0
100019ce:	63a0      	str	r0, [r4, #56]	@ 0x38
100019d0:	6063      	str	r3, [r4, #4]
100019d2:	3a01      	subs	r2, #1
100019d4:	fb02 3301 	mla	r3, r2, r1, r3
100019d8:	60e3      	str	r3, [r4, #12]
100019da:	23ff      	movs	r3, #255	@ 0xff
100019dc:	f884 3044 	strb.w	r3, [r4, #68]	@ 0x44
100019e0:	f884 3045 	strb.w	r3, [r4, #69]	@ 0x45
100019e4:	b9bd      	cbnz	r5, 10001a16 <xQueueGenericReset+0x76>
100019e6:	6923      	ldr	r3, [r4, #16]
100019e8:	b963      	cbnz	r3, 10001a04 <xQueueGenericReset+0x64>
100019ea:	f001 fd1f 	bl	1000342c <vTaskExitCritical>
100019ee:	2001      	movs	r0, #1
100019f0:	bd38      	pop	{r3, r4, r5, pc}
100019f2:	4b11      	ldr	r3, [pc, #68]	@ (10001a38 <xQueueGenericReset+0x98>)
100019f4:	4a11      	ldr	r2, [pc, #68]	@ (10001a3c <xQueueGenericReset+0x9c>)
100019f6:	f240 1137 	movw	r1, #311	@ 0x137
100019fa:	4811      	ldr	r0, [pc, #68]	@ (10001a40 <xQueueGenericReset+0xa0>)
100019fc:	f005 fb1c 	bl	10007038 <__assert_func>
10001a00:	2101      	movs	r1, #1
10001a02:	e7d9      	b.n	100019b8 <xQueueGenericReset+0x18>
10001a04:	f104 0010 	add.w	r0, r4, #16
10001a08:	f001 f990 	bl	10002d2c <xTaskRemoveFromEventList>
10001a0c:	2800      	cmp	r0, #0
10001a0e:	d0ec      	beq.n	100019ea <xQueueGenericReset+0x4a>
10001a10:	f001 fc98 	bl	10003344 <vTaskYieldWithinAPI>
10001a14:	e7e9      	b.n	100019ea <xQueueGenericReset+0x4a>
10001a16:	f104 0010 	add.w	r0, r4, #16
10001a1a:	f7ff fe77 	bl	1000170c <vListInitialise>
10001a1e:	f104 0024 	add.w	r0, r4, #36	@ 0x24
10001a22:	f7ff fe73 	bl	1000170c <vListInitialise>
10001a26:	e7e0      	b.n	100019ea <xQueueGenericReset+0x4a>
10001a28:	4b06      	ldr	r3, [pc, #24]	@ (10001a44 <xQueueGenericReset+0xa4>)
10001a2a:	4a04      	ldr	r2, [pc, #16]	@ (10001a3c <xQueueGenericReset+0x9c>)
10001a2c:	f44f 71b6 	mov.w	r1, #364	@ 0x16c
10001a30:	4803      	ldr	r0, [pc, #12]	@ (10001a40 <xQueueGenericReset+0xa0>)
10001a32:	f005 fb01 	bl	10007038 <__assert_func>
10001a36:	bf00      	nop
10001a38:	10008200 	.word	0x10008200
10001a3c:	10009364 	.word	0x10009364
10001a40:	10008168 	.word	0x10008168
10001a44:	10008208 	.word	0x10008208

10001a48 <prvInitialiseNewQueue>:
10001a48:	b538      	push	{r3, r4, r5, lr}
10001a4a:	461d      	mov	r5, r3
10001a4c:	9c04      	ldr	r4, [sp, #16]
10001a4e:	460b      	mov	r3, r1
10001a50:	b959      	cbnz	r1, 10001a6a <prvInitialiseNewQueue+0x22>
10001a52:	6024      	str	r4, [r4, #0]
10001a54:	63e0      	str	r0, [r4, #60]	@ 0x3c
10001a56:	6423      	str	r3, [r4, #64]	@ 0x40
10001a58:	2101      	movs	r1, #1
10001a5a:	4620      	mov	r0, r4
10001a5c:	f7ff ffa0 	bl	100019a0 <xQueueGenericReset>
10001a60:	f884 5050 	strb.w	r5, [r4, #80]	@ 0x50
10001a64:	2300      	movs	r3, #0
10001a66:	64a3      	str	r3, [r4, #72]	@ 0x48
10001a68:	bd38      	pop	{r3, r4, r5, pc}
10001a6a:	6022      	str	r2, [r4, #0]
10001a6c:	e7f2      	b.n	10001a54 <prvInitialiseNewQueue+0xc>
	...

10001a70 <xQueueGenericCreate>:
10001a70:	b5f0      	push	{r4, r5, r6, r7, lr}
10001a72:	b083      	sub	sp, #12
10001a74:	b1f0      	cbz	r0, 10001ab4 <xQueueGenericCreate+0x44>
10001a76:	460c      	mov	r4, r1
10001a78:	4617      	mov	r7, r2
10001a7a:	4605      	mov	r5, r0
10001a7c:	2300      	movs	r3, #0
10001a7e:	fba4 1200 	umull	r1, r2, r4, r0
10001a82:	b9aa      	cbnz	r2, 10001ab0 <xQueueGenericCreate+0x40>
10001a84:	b9b3      	cbnz	r3, 10001ab4 <xQueueGenericCreate+0x44>
10001a86:	fb04 f005 	mul.w	r0, r4, r5
10001a8a:	f110 0f55 	cmn.w	r0, #85	@ 0x55
10001a8e:	d811      	bhi.n	10001ab4 <xQueueGenericCreate+0x44>
10001a90:	3054      	adds	r0, #84	@ 0x54
10001a92:	f7ff f871 	bl	10000b78 <pvPortMalloc>
10001a96:	4606      	mov	r6, r0
10001a98:	b138      	cbz	r0, 10001aaa <xQueueGenericCreate+0x3a>
10001a9a:	9000      	str	r0, [sp, #0]
10001a9c:	463b      	mov	r3, r7
10001a9e:	f100 0254 	add.w	r2, r0, #84	@ 0x54
10001aa2:	4621      	mov	r1, r4
10001aa4:	4628      	mov	r0, r5
10001aa6:	f7ff ffcf 	bl	10001a48 <prvInitialiseNewQueue>
10001aaa:	4630      	mov	r0, r6
10001aac:	b003      	add	sp, #12
10001aae:	bdf0      	pop	{r4, r5, r6, r7, pc}
10001ab0:	2301      	movs	r3, #1
10001ab2:	e7e7      	b.n	10001a84 <xQueueGenericCreate+0x14>
10001ab4:	4b03      	ldr	r3, [pc, #12]	@ (10001ac4 <xQueueGenericCreate+0x54>)
10001ab6:	4a04      	ldr	r2, [pc, #16]	@ (10001ac8 <xQueueGenericCreate+0x58>)
10001ab8:	f240 212a 	movw	r1, #554	@ 0x22a
10001abc:	4803      	ldr	r0, [pc, #12]	@ (10001acc <xQueueGenericCreate+0x5c>)
10001abe:	f005 fabb 	bl	10007038 <__assert_func>
10001ac2:	bf00      	nop
10001ac4:	1000822c 	.word	0x1000822c
10001ac8:	10009350 	.word	0x10009350
10001acc:	10008168 	.word	0x10008168

10001ad0 <xQueueGetMutexHolder>:
10001ad0:	b510      	push	{r4, lr}
10001ad2:	b148      	cbz	r0, 10001ae8 <xQueueGetMutexHolder+0x18>
10001ad4:	4604      	mov	r4, r0
10001ad6:	f001 fc49 	bl	1000336c <vTaskEnterCritical>
10001ada:	6823      	ldr	r3, [r4, #0]
10001adc:	b95b      	cbnz	r3, 10001af6 <xQueueGetMutexHolder+0x26>
10001ade:	68a4      	ldr	r4, [r4, #8]
10001ae0:	f001 fca4 	bl	1000342c <vTaskExitCritical>
10001ae4:	4620      	mov	r0, r4
10001ae6:	bd10      	pop	{r4, pc}
10001ae8:	4b04      	ldr	r3, [pc, #16]	@ (10001afc <xQueueGetMutexHolder+0x2c>)
10001aea:	4a05      	ldr	r2, [pc, #20]	@ (10001b00 <xQueueGetMutexHolder+0x30>)
10001aec:	f44f 712e 	mov.w	r1, #696	@ 0x2b8
10001af0:	4804      	ldr	r0, [pc, #16]	@ (10001b04 <xQueueGetMutexHolder+0x34>)
10001af2:	f005 faa1 	bl	10007038 <__assert_func>
10001af6:	2400      	movs	r4, #0
10001af8:	e7f2      	b.n	10001ae0 <xQueueGetMutexHolder+0x10>
10001afa:	bf00      	nop
10001afc:	10008238 	.word	0x10008238
10001b00:	10009338 	.word	0x10009338
10001b04:	10008168 	.word	0x10008168

10001b08 <xQueueGenericSend>:
10001b08:	b5f0      	push	{r4, r5, r6, r7, lr}
10001b0a:	b085      	sub	sp, #20
10001b0c:	9201      	str	r2, [sp, #4]
10001b0e:	b1b0      	cbz	r0, 10001b3e <xQueueGenericSend+0x36>
10001b10:	460f      	mov	r7, r1
10001b12:	461d      	mov	r5, r3
10001b14:	4604      	mov	r4, r0
10001b16:	b1c9      	cbz	r1, 10001b4c <xQueueGenericSend+0x44>
10001b18:	2d02      	cmp	r5, #2
10001b1a:	d102      	bne.n	10001b22 <xQueueGenericSend+0x1a>
10001b1c:	6be3      	ldr	r3, [r4, #60]	@ 0x3c
10001b1e:	2b01      	cmp	r3, #1
10001b20:	d11e      	bne.n	10001b60 <xQueueGenericSend+0x58>
10001b22:	f002 f877 	bl	10003c14 <xTaskGetSchedulerState>
10001b26:	4606      	mov	r6, r0
10001b28:	bb08      	cbnz	r0, 10001b6e <xQueueGenericSend+0x66>
10001b2a:	9b01      	ldr	r3, [sp, #4]
10001b2c:	2b00      	cmp	r3, #0
10001b2e:	d05d      	beq.n	10001bec <xQueueGenericSend+0xe4>
10001b30:	4b4f      	ldr	r3, [pc, #316]	@ (10001c70 <xQueueGenericSend+0x168>)
10001b32:	4a50      	ldr	r2, [pc, #320]	@ (10001c74 <xQueueGenericSend+0x16c>)
10001b34:	f240 31bb 	movw	r1, #955	@ 0x3bb
10001b38:	484f      	ldr	r0, [pc, #316]	@ (10001c78 <xQueueGenericSend+0x170>)
10001b3a:	f005 fa7d 	bl	10007038 <__assert_func>
10001b3e:	4b4f      	ldr	r3, [pc, #316]	@ (10001c7c <xQueueGenericSend+0x174>)
10001b40:	4a4c      	ldr	r2, [pc, #304]	@ (10001c74 <xQueueGenericSend+0x16c>)
10001b42:	f240 31b6 	movw	r1, #950	@ 0x3b6
10001b46:	484c      	ldr	r0, [pc, #304]	@ (10001c78 <xQueueGenericSend+0x170>)
10001b48:	f005 fa76 	bl	10007038 <__assert_func>
10001b4c:	6c03      	ldr	r3, [r0, #64]	@ 0x40
10001b4e:	2b00      	cmp	r3, #0
10001b50:	d0e2      	beq.n	10001b18 <xQueueGenericSend+0x10>
10001b52:	4b4b      	ldr	r3, [pc, #300]	@ (10001c80 <xQueueGenericSend+0x178>)
10001b54:	4a47      	ldr	r2, [pc, #284]	@ (10001c74 <xQueueGenericSend+0x16c>)
10001b56:	f240 31b7 	movw	r1, #951	@ 0x3b7
10001b5a:	4847      	ldr	r0, [pc, #284]	@ (10001c78 <xQueueGenericSend+0x170>)
10001b5c:	f005 fa6c 	bl	10007038 <__assert_func>
10001b60:	4b48      	ldr	r3, [pc, #288]	@ (10001c84 <xQueueGenericSend+0x17c>)
10001b62:	4a44      	ldr	r2, [pc, #272]	@ (10001c74 <xQueueGenericSend+0x16c>)
10001b64:	f44f 716e 	mov.w	r1, #952	@ 0x3b8
10001b68:	4843      	ldr	r0, [pc, #268]	@ (10001c78 <xQueueGenericSend+0x170>)
10001b6a:	f005 fa65 	bl	10007038 <__assert_func>
10001b6e:	2600      	movs	r6, #0
10001b70:	e03c      	b.n	10001bec <xQueueGenericSend+0xe4>
10001b72:	6ba6      	ldr	r6, [r4, #56]	@ 0x38
10001b74:	462a      	mov	r2, r5
10001b76:	4639      	mov	r1, r7
10001b78:	4620      	mov	r0, r4
10001b7a:	f7ff fe2f 	bl	100017dc <prvCopyDataToQueue>
10001b7e:	6ca3      	ldr	r3, [r4, #72]	@ 0x48
10001b80:	b173      	cbz	r3, 10001ba0 <xQueueGenericSend+0x98>
10001b82:	2d02      	cmp	r5, #2
10001b84:	d100      	bne.n	10001b88 <xQueueGenericSend+0x80>
10001b86:	b91e      	cbnz	r6, 10001b90 <xQueueGenericSend+0x88>
10001b88:	4620      	mov	r0, r4
10001b8a:	f7ff fe75 	bl	10001878 <prvNotifyQueueSetContainer>
10001b8e:	b920      	cbnz	r0, 10001b9a <xQueueGenericSend+0x92>
10001b90:	f001 fc4c 	bl	1000342c <vTaskExitCritical>
10001b94:	2001      	movs	r0, #1
10001b96:	b005      	add	sp, #20
10001b98:	bdf0      	pop	{r4, r5, r6, r7, pc}
10001b9a:	f001 fbd3 	bl	10003344 <vTaskYieldWithinAPI>
10001b9e:	e7f7      	b.n	10001b90 <xQueueGenericSend+0x88>
10001ba0:	6a63      	ldr	r3, [r4, #36]	@ 0x24
10001ba2:	b923      	cbnz	r3, 10001bae <xQueueGenericSend+0xa6>
10001ba4:	2800      	cmp	r0, #0
10001ba6:	d0f3      	beq.n	10001b90 <xQueueGenericSend+0x88>
10001ba8:	f001 fbcc 	bl	10003344 <vTaskYieldWithinAPI>
10001bac:	e7f0      	b.n	10001b90 <xQueueGenericSend+0x88>
10001bae:	f104 0024 	add.w	r0, r4, #36	@ 0x24
10001bb2:	f001 f8bb 	bl	10002d2c <xTaskRemoveFromEventList>
10001bb6:	2800      	cmp	r0, #0
10001bb8:	d0ea      	beq.n	10001b90 <xQueueGenericSend+0x88>
10001bba:	f001 fbc3 	bl	10003344 <vTaskYieldWithinAPI>
10001bbe:	e7e7      	b.n	10001b90 <xQueueGenericSend+0x88>
10001bc0:	f001 fc34 	bl	1000342c <vTaskExitCritical>
10001bc4:	2000      	movs	r0, #0
10001bc6:	e7e6      	b.n	10001b96 <xQueueGenericSend+0x8e>
10001bc8:	a802      	add	r0, sp, #8
10001bca:	f001 f92b 	bl	10002e24 <vTaskInternalSetTimeOutState>
10001bce:	2601      	movs	r6, #1
10001bd0:	e019      	b.n	10001c06 <xQueueGenericSend+0xfe>
10001bd2:	2300      	movs	r3, #0
10001bd4:	f884 3044 	strb.w	r3, [r4, #68]	@ 0x44
10001bd8:	e021      	b.n	10001c1e <xQueueGenericSend+0x116>
10001bda:	2300      	movs	r3, #0
10001bdc:	f884 3045 	strb.w	r3, [r4, #69]	@ 0x45
10001be0:	e023      	b.n	10001c2a <xQueueGenericSend+0x122>
10001be2:	4620      	mov	r0, r4
10001be4:	f7ff fe9a 	bl	1000191c <prvUnlockQueue>
10001be8:	f001 fe7a 	bl	100038e0 <xTaskResumeAll>
10001bec:	f001 fbbe 	bl	1000336c <vTaskEnterCritical>
10001bf0:	6ba2      	ldr	r2, [r4, #56]	@ 0x38
10001bf2:	6be3      	ldr	r3, [r4, #60]	@ 0x3c
10001bf4:	429a      	cmp	r2, r3
10001bf6:	d3bc      	bcc.n	10001b72 <xQueueGenericSend+0x6a>
10001bf8:	2d02      	cmp	r5, #2
10001bfa:	d0ba      	beq.n	10001b72 <xQueueGenericSend+0x6a>
10001bfc:	9b01      	ldr	r3, [sp, #4]
10001bfe:	2b00      	cmp	r3, #0
10001c00:	d0de      	beq.n	10001bc0 <xQueueGenericSend+0xb8>
10001c02:	2e00      	cmp	r6, #0
10001c04:	d0e0      	beq.n	10001bc8 <xQueueGenericSend+0xc0>
10001c06:	f001 fc11 	bl	1000342c <vTaskExitCritical>
10001c0a:	f000 fefd 	bl	10002a08 <vTaskSuspendAll>
10001c0e:	f001 fbad 	bl	1000336c <vTaskEnterCritical>
10001c12:	f894 2044 	ldrb.w	r2, [r4, #68]	@ 0x44
10001c16:	b252      	sxtb	r2, r2
10001c18:	f1b2 3fff 	cmp.w	r2, #4294967295
10001c1c:	d0d9      	beq.n	10001bd2 <xQueueGenericSend+0xca>
10001c1e:	f894 2045 	ldrb.w	r2, [r4, #69]	@ 0x45
10001c22:	b252      	sxtb	r2, r2
10001c24:	f1b2 3fff 	cmp.w	r2, #4294967295
10001c28:	d0d7      	beq.n	10001bda <xQueueGenericSend+0xd2>
10001c2a:	f001 fbff 	bl	1000342c <vTaskExitCritical>
10001c2e:	a901      	add	r1, sp, #4
10001c30:	a802      	add	r0, sp, #8
10001c32:	f001 ff97 	bl	10003b64 <xTaskCheckForTimeOut>
10001c36:	b998      	cbnz	r0, 10001c60 <xQueueGenericSend+0x158>
10001c38:	4620      	mov	r0, r4
10001c3a:	f7ff fdb3 	bl	100017a4 <prvIsQueueFull>
10001c3e:	2800      	cmp	r0, #0
10001c40:	d0cf      	beq.n	10001be2 <xQueueGenericSend+0xda>
10001c42:	9901      	ldr	r1, [sp, #4]
10001c44:	f104 0010 	add.w	r0, r4, #16
10001c48:	f001 f96c 	bl	10002f24 <vTaskPlaceOnEventList>
10001c4c:	4620      	mov	r0, r4
10001c4e:	f7ff fe65 	bl	1000191c <prvUnlockQueue>
10001c52:	f001 fe45 	bl	100038e0 <xTaskResumeAll>
10001c56:	2800      	cmp	r0, #0
10001c58:	d1c8      	bne.n	10001bec <xQueueGenericSend+0xe4>
10001c5a:	f001 fb73 	bl	10003344 <vTaskYieldWithinAPI>
10001c5e:	e7c5      	b.n	10001bec <xQueueGenericSend+0xe4>
10001c60:	4620      	mov	r0, r4
10001c62:	f7ff fe5b 	bl	1000191c <prvUnlockQueue>
10001c66:	f001 fe3b 	bl	100038e0 <xTaskResumeAll>
10001c6a:	2000      	movs	r0, #0
10001c6c:	e793      	b.n	10001b96 <xQueueGenericSend+0x8e>
10001c6e:	bf00      	nop
10001c70:	100080cc 	.word	0x100080cc
10001c74:	100092ec 	.word	0x100092ec
10001c78:	10008168 	.word	0x10008168
10001c7c:	10008200 	.word	0x10008200
10001c80:	10008244 	.word	0x10008244
10001c84:	1000829c 	.word	0x1000829c

10001c88 <prvInitialiseMutex>:
10001c88:	b148      	cbz	r0, 10001c9e <prvInitialiseMutex+0x16>
10001c8a:	b508      	push	{r3, lr}
10001c8c:	2100      	movs	r1, #0
10001c8e:	6081      	str	r1, [r0, #8]
10001c90:	6001      	str	r1, [r0, #0]
10001c92:	60c1      	str	r1, [r0, #12]
10001c94:	460b      	mov	r3, r1
10001c96:	460a      	mov	r2, r1
10001c98:	f7ff ff36 	bl	10001b08 <xQueueGenericSend>
10001c9c:	bd08      	pop	{r3, pc}
10001c9e:	4770      	bx	lr

10001ca0 <xQueueCreateMutex>:
10001ca0:	b510      	push	{r4, lr}
10001ca2:	4602      	mov	r2, r0
10001ca4:	2100      	movs	r1, #0
10001ca6:	2001      	movs	r0, #1
10001ca8:	f7ff fee2 	bl	10001a70 <xQueueGenericCreate>
10001cac:	4604      	mov	r4, r0
10001cae:	f7ff ffeb 	bl	10001c88 <prvInitialiseMutex>
10001cb2:	4620      	mov	r0, r4
10001cb4:	bd10      	pop	{r4, pc}
	...

10001cb8 <xQueueGiveMutexRecursive>:
10001cb8:	b538      	push	{r3, r4, r5, lr}
10001cba:	b138      	cbz	r0, 10001ccc <xQueueGiveMutexRecursive+0x14>
10001cbc:	4604      	mov	r4, r0
10001cbe:	6885      	ldr	r5, [r0, #8]
10001cc0:	f001 f8c6 	bl	10002e50 <xTaskGetCurrentTaskHandle>
10001cc4:	4285      	cmp	r5, r0
10001cc6:	d008      	beq.n	10001cda <xQueueGiveMutexRecursive+0x22>
10001cc8:	2000      	movs	r0, #0
10001cca:	bd38      	pop	{r3, r4, r5, pc}
10001ccc:	4b09      	ldr	r3, [pc, #36]	@ (10001cf4 <xQueueGiveMutexRecursive+0x3c>)
10001cce:	4a0a      	ldr	r2, [pc, #40]	@ (10001cf8 <xQueueGiveMutexRecursive+0x40>)
10001cd0:	f240 21fb 	movw	r1, #763	@ 0x2fb
10001cd4:	4809      	ldr	r0, [pc, #36]	@ (10001cfc <xQueueGiveMutexRecursive+0x44>)
10001cd6:	f005 f9af 	bl	10007038 <__assert_func>
10001cda:	68e3      	ldr	r3, [r4, #12]
10001cdc:	3b01      	subs	r3, #1
10001cde:	60e3      	str	r3, [r4, #12]
10001ce0:	b10b      	cbz	r3, 10001ce6 <xQueueGiveMutexRecursive+0x2e>
10001ce2:	2001      	movs	r0, #1
10001ce4:	e7f1      	b.n	10001cca <xQueueGiveMutexRecursive+0x12>
10001ce6:	461a      	mov	r2, r3
10001ce8:	4619      	mov	r1, r3
10001cea:	4620      	mov	r0, r4
10001cec:	f7ff ff0c 	bl	10001b08 <xQueueGenericSend>
10001cf0:	2001      	movs	r0, #1
10001cf2:	e7ea      	b.n	10001cca <xQueueGiveMutexRecursive+0x12>
10001cf4:	100082ec 	.word	0x100082ec
10001cf8:	1000931c 	.word	0x1000931c
10001cfc:	10008168 	.word	0x10008168

10001d00 <xQueueGenericSendFromISR>:
10001d00:	e92d 47f0 	stmdb	sp!, {r4, r5, r6, r7, r8, r9, sl, lr}
10001d04:	b1d8      	cbz	r0, 10001d3e <xQueueGenericSendFromISR+0x3e>
10001d06:	460e      	mov	r6, r1
10001d08:	4691      	mov	r9, r2
10001d0a:	461d      	mov	r5, r3
10001d0c:	4604      	mov	r4, r0
10001d0e:	b1e9      	cbz	r1, 10001d4c <xQueueGenericSendFromISR+0x4c>
10001d10:	2d02      	cmp	r5, #2
10001d12:	d102      	bne.n	10001d1a <xQueueGenericSendFromISR+0x1a>
10001d14:	6be3      	ldr	r3, [r4, #60]	@ 0x3c
10001d16:	2b01      	cmp	r3, #1
10001d18:	d122      	bne.n	10001d60 <xQueueGenericSendFromISR+0x60>
10001d1a:	f7ff fa29 	bl	10001170 <vPortValidateInterruptPriority>
10001d1e:	f001 fb5d 	bl	100033dc <vTaskEnterCriticalFromISR>
10001d22:	4607      	mov	r7, r0
10001d24:	6ba2      	ldr	r2, [r4, #56]	@ 0x38
10001d26:	6be3      	ldr	r3, [r4, #60]	@ 0x3c
10001d28:	429a      	cmp	r2, r3
10001d2a:	d320      	bcc.n	10001d6e <xQueueGenericSendFromISR+0x6e>
10001d2c:	2d02      	cmp	r5, #2
10001d2e:	d01e      	beq.n	10001d6e <xQueueGenericSendFromISR+0x6e>
10001d30:	2400      	movs	r4, #0
10001d32:	4638      	mov	r0, r7
10001d34:	f001 ff84 	bl	10003c40 <vTaskExitCriticalFromISR>
10001d38:	4620      	mov	r0, r4
10001d3a:	e8bd 87f0 	ldmia.w	sp!, {r4, r5, r6, r7, r8, r9, sl, pc}
10001d3e:	4b35      	ldr	r3, [pc, #212]	@ (10001e14 <xQueueGenericSendFromISR+0x114>)
10001d40:	4a35      	ldr	r2, [pc, #212]	@ (10001e18 <xQueueGenericSendFromISR+0x118>)
10001d42:	f44f 6192 	mov.w	r1, #1168	@ 0x490
10001d46:	4835      	ldr	r0, [pc, #212]	@ (10001e1c <xQueueGenericSendFromISR+0x11c>)
10001d48:	f005 f976 	bl	10007038 <__assert_func>
10001d4c:	6c03      	ldr	r3, [r0, #64]	@ 0x40
10001d4e:	2b00      	cmp	r3, #0
10001d50:	d0de      	beq.n	10001d10 <xQueueGenericSendFromISR+0x10>
10001d52:	4b33      	ldr	r3, [pc, #204]	@ (10001e20 <xQueueGenericSendFromISR+0x120>)
10001d54:	4a30      	ldr	r2, [pc, #192]	@ (10001e18 <xQueueGenericSendFromISR+0x118>)
10001d56:	f240 4191 	movw	r1, #1169	@ 0x491
10001d5a:	4830      	ldr	r0, [pc, #192]	@ (10001e1c <xQueueGenericSendFromISR+0x11c>)
10001d5c:	f005 f96c 	bl	10007038 <__assert_func>
10001d60:	4b30      	ldr	r3, [pc, #192]	@ (10001e24 <xQueueGenericSendFromISR+0x124>)
10001d62:	4a2d      	ldr	r2, [pc, #180]	@ (10001e18 <xQueueGenericSendFromISR+0x118>)
10001d64:	f240 4192 	movw	r1, #1170	@ 0x492
10001d68:	482c      	ldr	r0, [pc, #176]	@ (10001e1c <xQueueGenericSendFromISR+0x11c>)
10001d6a:	f005 f965 	bl	10007038 <__assert_func>
10001d6e:	f894 8045 	ldrb.w	r8, [r4, #69]	@ 0x45
10001d72:	fa4f f888 	sxtb.w	r8, r8
10001d76:	f8d4 a038 	ldr.w	sl, [r4, #56]	@ 0x38
10001d7a:	462a      	mov	r2, r5
10001d7c:	4631      	mov	r1, r6
10001d7e:	4620      	mov	r0, r4
10001d80:	f7ff fd2c 	bl	100017dc <prvCopyDataToQueue>
10001d84:	f1b8 3fff 	cmp.w	r8, #4294967295
10001d88:	d121      	bne.n	10001dce <xQueueGenericSendFromISR+0xce>
10001d8a:	6ca3      	ldr	r3, [r4, #72]	@ 0x48
10001d8c:	b17b      	cbz	r3, 10001dae <xQueueGenericSendFromISR+0xae>
10001d8e:	2d02      	cmp	r5, #2
10001d90:	d102      	bne.n	10001d98 <xQueueGenericSendFromISR+0x98>
10001d92:	f1ba 0f00 	cmp.w	sl, #0
10001d96:	d130      	bne.n	10001dfa <xQueueGenericSendFromISR+0xfa>
10001d98:	4620      	mov	r0, r4
10001d9a:	f7ff fd6d 	bl	10001878 <prvNotifyQueueSetContainer>
10001d9e:	b370      	cbz	r0, 10001dfe <xQueueGenericSendFromISR+0xfe>
10001da0:	f1b9 0f00 	cmp.w	r9, #0
10001da4:	d02d      	beq.n	10001e02 <xQueueGenericSendFromISR+0x102>
10001da6:	2401      	movs	r4, #1
10001da8:	f8c9 4000 	str.w	r4, [r9]
10001dac:	e7c1      	b.n	10001d32 <xQueueGenericSendFromISR+0x32>
10001dae:	6a63      	ldr	r3, [r4, #36]	@ 0x24
10001db0:	b90b      	cbnz	r3, 10001db6 <xQueueGenericSendFromISR+0xb6>
10001db2:	2401      	movs	r4, #1
10001db4:	e7bd      	b.n	10001d32 <xQueueGenericSendFromISR+0x32>
10001db6:	f104 0024 	add.w	r0, r4, #36	@ 0x24
10001dba:	f000 ffb7 	bl	10002d2c <xTaskRemoveFromEventList>
10001dbe:	b310      	cbz	r0, 10001e06 <xQueueGenericSendFromISR+0x106>
10001dc0:	f1b9 0f00 	cmp.w	r9, #0
10001dc4:	d021      	beq.n	10001e0a <xQueueGenericSendFromISR+0x10a>
10001dc6:	2401      	movs	r4, #1
10001dc8:	f8c9 4000 	str.w	r4, [r9]
10001dcc:	e7b1      	b.n	10001d32 <xQueueGenericSendFromISR+0x32>
10001dce:	f000 fe65 	bl	10002a9c <uxTaskGetNumberOfTasks>
10001dd2:	4580      	cmp	r8, r0
10001dd4:	d21b      	bcs.n	10001e0e <xQueueGenericSendFromISR+0x10e>
10001dd6:	f1b8 0f7f 	cmp.w	r8, #127	@ 0x7f
10001dda:	d007      	beq.n	10001dec <xQueueGenericSendFromISR+0xec>
10001ddc:	f108 0801 	add.w	r8, r8, #1
10001de0:	fa4f f888 	sxtb.w	r8, r8
10001de4:	f884 8045 	strb.w	r8, [r4, #69]	@ 0x45
10001de8:	2401      	movs	r4, #1
10001dea:	e7a2      	b.n	10001d32 <xQueueGenericSendFromISR+0x32>
10001dec:	4b0e      	ldr	r3, [pc, #56]	@ (10001e28 <xQueueGenericSendFromISR+0x128>)
10001dee:	4a0a      	ldr	r2, [pc, #40]	@ (10001e18 <xQueueGenericSendFromISR+0x118>)
10001df0:	f240 511e 	movw	r1, #1310	@ 0x51e
10001df4:	4809      	ldr	r0, [pc, #36]	@ (10001e1c <xQueueGenericSendFromISR+0x11c>)
10001df6:	f005 f91f 	bl	10007038 <__assert_func>
10001dfa:	2401      	movs	r4, #1
10001dfc:	e799      	b.n	10001d32 <xQueueGenericSendFromISR+0x32>
10001dfe:	2401      	movs	r4, #1
10001e00:	e797      	b.n	10001d32 <xQueueGenericSendFromISR+0x32>
10001e02:	2401      	movs	r4, #1
10001e04:	e795      	b.n	10001d32 <xQueueGenericSendFromISR+0x32>
10001e06:	2401      	movs	r4, #1
10001e08:	e793      	b.n	10001d32 <xQueueGenericSendFromISR+0x32>
10001e0a:	2401      	movs	r4, #1
10001e0c:	e791      	b.n	10001d32 <xQueueGenericSendFromISR+0x32>
10001e0e:	2401      	movs	r4, #1
10001e10:	e78f      	b.n	10001d32 <xQueueGenericSendFromISR+0x32>
10001e12:	bf00      	nop
10001e14:	10008200 	.word	0x10008200
10001e18:	100092b4 	.word	0x100092b4
10001e1c:	10008168 	.word	0x10008168
10001e20:	10008244 	.word	0x10008244
10001e24:	1000829c 	.word	0x1000829c
10001e28:	100081dc 	.word	0x100081dc

10001e2c <xQueueGiveFromISR>:
10001e2c:	b5f8      	push	{r3, r4, r5, r6, r7, lr}
10001e2e:	b310      	cbz	r0, 10001e76 <xQueueGiveFromISR+0x4a>
10001e30:	460f      	mov	r7, r1
10001e32:	4604      	mov	r4, r0
10001e34:	6c03      	ldr	r3, [r0, #64]	@ 0x40
10001e36:	bb2b      	cbnz	r3, 10001e84 <xQueueGiveFromISR+0x58>
10001e38:	6803      	ldr	r3, [r0, #0]
10001e3a:	b353      	cbz	r3, 10001e92 <xQueueGiveFromISR+0x66>
10001e3c:	f7ff f998 	bl	10001170 <vPortValidateInterruptPriority>
10001e40:	f001 facc 	bl	100033dc <vTaskEnterCriticalFromISR>
10001e44:	4605      	mov	r5, r0
10001e46:	6ba3      	ldr	r3, [r4, #56]	@ 0x38
10001e48:	6be2      	ldr	r2, [r4, #60]	@ 0x3c
10001e4a:	429a      	cmp	r2, r3
10001e4c:	d94b      	bls.n	10001ee6 <xQueueGiveFromISR+0xba>
10001e4e:	f894 6045 	ldrb.w	r6, [r4, #69]	@ 0x45
10001e52:	b276      	sxtb	r6, r6
10001e54:	3301      	adds	r3, #1
10001e56:	63a3      	str	r3, [r4, #56]	@ 0x38
10001e58:	f1b6 3fff 	cmp.w	r6, #4294967295
10001e5c:	d130      	bne.n	10001ec0 <xQueueGiveFromISR+0x94>
10001e5e:	6ca3      	ldr	r3, [r4, #72]	@ 0x48
10001e60:	b30b      	cbz	r3, 10001ea6 <xQueueGiveFromISR+0x7a>
10001e62:	4620      	mov	r0, r4
10001e64:	f7ff fd08 	bl	10001878 <prvNotifyQueueSetContainer>
10001e68:	2800      	cmp	r0, #0
10001e6a:	d042      	beq.n	10001ef2 <xQueueGiveFromISR+0xc6>
10001e6c:	2f00      	cmp	r7, #0
10001e6e:	d042      	beq.n	10001ef6 <xQueueGiveFromISR+0xca>
10001e70:	2401      	movs	r4, #1
10001e72:	603c      	str	r4, [r7, #0]
10001e74:	e038      	b.n	10001ee8 <xQueueGiveFromISR+0xbc>
10001e76:	4b24      	ldr	r3, [pc, #144]	@ (10001f08 <xQueueGiveFromISR+0xdc>)
10001e78:	4a24      	ldr	r2, [pc, #144]	@ (10001f0c <xQueueGiveFromISR+0xe0>)
10001e7a:	f44f 61a8 	mov.w	r1, #1344	@ 0x540
10001e7e:	4824      	ldr	r0, [pc, #144]	@ (10001f10 <xQueueGiveFromISR+0xe4>)
10001e80:	f005 f8da 	bl	10007038 <__assert_func>
10001e84:	4b23      	ldr	r3, [pc, #140]	@ (10001f14 <xQueueGiveFromISR+0xe8>)
10001e86:	4a21      	ldr	r2, [pc, #132]	@ (10001f0c <xQueueGiveFromISR+0xe0>)
10001e88:	f240 5144 	movw	r1, #1348	@ 0x544
10001e8c:	4820      	ldr	r0, [pc, #128]	@ (10001f10 <xQueueGiveFromISR+0xe4>)
10001e8e:	f005 f8d3 	bl	10007038 <__assert_func>
10001e92:	6883      	ldr	r3, [r0, #8]
10001e94:	2b00      	cmp	r3, #0
10001e96:	d0d1      	beq.n	10001e3c <xQueueGiveFromISR+0x10>
10001e98:	4b1f      	ldr	r3, [pc, #124]	@ (10001f18 <xQueueGiveFromISR+0xec>)
10001e9a:	4a1c      	ldr	r2, [pc, #112]	@ (10001f0c <xQueueGiveFromISR+0xe0>)
10001e9c:	f240 5149 	movw	r1, #1353	@ 0x549
10001ea0:	481b      	ldr	r0, [pc, #108]	@ (10001f10 <xQueueGiveFromISR+0xe4>)
10001ea2:	f005 f8c9 	bl	10007038 <__assert_func>
10001ea6:	6a63      	ldr	r3, [r4, #36]	@ 0x24
10001ea8:	b90b      	cbnz	r3, 10001eae <xQueueGiveFromISR+0x82>
10001eaa:	2401      	movs	r4, #1
10001eac:	e01c      	b.n	10001ee8 <xQueueGiveFromISR+0xbc>
10001eae:	f104 0024 	add.w	r0, r4, #36	@ 0x24
10001eb2:	f000 ff3b 	bl	10002d2c <xTaskRemoveFromEventList>
10001eb6:	b300      	cbz	r0, 10001efa <xQueueGiveFromISR+0xce>
10001eb8:	b30f      	cbz	r7, 10001efe <xQueueGiveFromISR+0xd2>
10001eba:	2401      	movs	r4, #1
10001ebc:	603c      	str	r4, [r7, #0]
10001ebe:	e013      	b.n	10001ee8 <xQueueGiveFromISR+0xbc>
10001ec0:	f000 fdec 	bl	10002a9c <uxTaskGetNumberOfTasks>
10001ec4:	4286      	cmp	r6, r0
10001ec6:	d21c      	bcs.n	10001f02 <xQueueGiveFromISR+0xd6>
10001ec8:	2e7f      	cmp	r6, #127	@ 0x7f
10001eca:	d005      	beq.n	10001ed8 <xQueueGiveFromISR+0xac>
10001ecc:	3601      	adds	r6, #1
10001ece:	b276      	sxtb	r6, r6
10001ed0:	f884 6045 	strb.w	r6, [r4, #69]	@ 0x45
10001ed4:	2401      	movs	r4, #1
10001ed6:	e007      	b.n	10001ee8 <xQueueGiveFromISR+0xbc>
10001ed8:	4b10      	ldr	r3, [pc, #64]	@ (10001f1c <xQueueGiveFromISR+0xf0>)
10001eda:	4a0c      	ldr	r2, [pc, #48]	@ (10001f0c <xQueueGiveFromISR+0xe0>)
10001edc:	f240 51cb 	movw	r1, #1483	@ 0x5cb
10001ee0:	480b      	ldr	r0, [pc, #44]	@ (10001f10 <xQueueGiveFromISR+0xe4>)
10001ee2:	f005 f8a9 	bl	10007038 <__assert_func>
10001ee6:	2400      	movs	r4, #0
10001ee8:	4628      	mov	r0, r5
10001eea:	f001 fea9 	bl	10003c40 <vTaskExitCriticalFromISR>
10001eee:	4620      	mov	r0, r4
10001ef0:	bdf8      	pop	{r3, r4, r5, r6, r7, pc}
10001ef2:	2401      	movs	r4, #1
10001ef4:	e7f8      	b.n	10001ee8 <xQueueGiveFromISR+0xbc>
10001ef6:	2401      	movs	r4, #1
10001ef8:	e7f6      	b.n	10001ee8 <xQueueGiveFromISR+0xbc>
10001efa:	2401      	movs	r4, #1
10001efc:	e7f4      	b.n	10001ee8 <xQueueGiveFromISR+0xbc>
10001efe:	2401      	movs	r4, #1
10001f00:	e7f2      	b.n	10001ee8 <xQueueGiveFromISR+0xbc>
10001f02:	2401      	movs	r4, #1
10001f04:	e7f0      	b.n	10001ee8 <xQueueGiveFromISR+0xbc>
10001f06:	bf00      	nop
10001f08:	10008200 	.word	0x10008200
10001f0c:	100092a0 	.word	0x100092a0
10001f10:	10008168 	.word	0x10008168
10001f14:	100082f4 	.word	0x100082f4
10001f18:	10008310 	.word	0x10008310
10001f1c:	100081dc 	.word	0x100081dc

10001f20 <xQueueReceive>:
10001f20:	b5f0      	push	{r4, r5, r6, r7, lr}
10001f22:	b085      	sub	sp, #20
10001f24:	9201      	str	r2, [sp, #4]
10001f26:	b180      	cbz	r0, 10001f4a <xQueueReceive+0x2a>
10001f28:	460f      	mov	r7, r1
10001f2a:	4604      	mov	r4, r0
10001f2c:	b1a1      	cbz	r1, 10001f58 <xQueueReceive+0x38>
10001f2e:	f001 fe71 	bl	10003c14 <xTaskGetSchedulerState>
10001f32:	4606      	mov	r6, r0
10001f34:	b9d0      	cbnz	r0, 10001f6c <xQueueReceive+0x4c>
10001f36:	9b01      	ldr	r3, [sp, #4]
10001f38:	2b00      	cmp	r3, #0
10001f3a:	d050      	beq.n	10001fde <xQueueReceive+0xbe>
10001f3c:	4b45      	ldr	r3, [pc, #276]	@ (10002054 <xQueueReceive+0x134>)
10001f3e:	4a46      	ldr	r2, [pc, #280]	@ (10002058 <xQueueReceive+0x138>)
10001f40:	f240 51f2 	movw	r1, #1522	@ 0x5f2
10001f44:	4845      	ldr	r0, [pc, #276]	@ (1000205c <xQueueReceive+0x13c>)
10001f46:	f005 f877 	bl	10007038 <__assert_func>
10001f4a:	4b45      	ldr	r3, [pc, #276]	@ (10002060 <xQueueReceive+0x140>)
10001f4c:	4a42      	ldr	r2, [pc, #264]	@ (10002058 <xQueueReceive+0x138>)
10001f4e:	f240 51e9 	movw	r1, #1513	@ 0x5e9
10001f52:	4842      	ldr	r0, [pc, #264]	@ (1000205c <xQueueReceive+0x13c>)
10001f54:	f005 f870 	bl	10007038 <__assert_func>
10001f58:	6c03      	ldr	r3, [r0, #64]	@ 0x40
10001f5a:	2b00      	cmp	r3, #0
10001f5c:	d0e7      	beq.n	10001f2e <xQueueReceive+0xe>
10001f5e:	4b41      	ldr	r3, [pc, #260]	@ (10002064 <xQueueReceive+0x144>)
10001f60:	4a3d      	ldr	r2, [pc, #244]	@ (10002058 <xQueueReceive+0x138>)
10001f62:	f240 51ed 	movw	r1, #1517	@ 0x5ed
10001f66:	483d      	ldr	r0, [pc, #244]	@ (1000205c <xQueueReceive+0x13c>)
10001f68:	f005 f866 	bl	10007038 <__assert_func>
10001f6c:	2600      	movs	r6, #0
10001f6e:	e036      	b.n	10001fde <xQueueReceive+0xbe>
10001f70:	4639      	mov	r1, r7
10001f72:	4620      	mov	r0, r4
10001f74:	f7ff fc6d 	bl	10001852 <prvCopyDataFromQueue>
10001f78:	3d01      	subs	r5, #1
10001f7a:	63a5      	str	r5, [r4, #56]	@ 0x38
10001f7c:	6923      	ldr	r3, [r4, #16]
10001f7e:	b923      	cbnz	r3, 10001f8a <xQueueReceive+0x6a>
10001f80:	f001 fa54 	bl	1000342c <vTaskExitCritical>
10001f84:	2001      	movs	r0, #1
10001f86:	b005      	add	sp, #20
10001f88:	bdf0      	pop	{r4, r5, r6, r7, pc}
10001f8a:	f104 0010 	add.w	r0, r4, #16
10001f8e:	f000 fecd 	bl	10002d2c <xTaskRemoveFromEventList>
10001f92:	2800      	cmp	r0, #0
10001f94:	d0f4      	beq.n	10001f80 <xQueueReceive+0x60>
10001f96:	f001 f9d5 	bl	10003344 <vTaskYieldWithinAPI>
10001f9a:	e7f1      	b.n	10001f80 <xQueueReceive+0x60>
10001f9c:	f001 fa46 	bl	1000342c <vTaskExitCritical>
10001fa0:	2000      	movs	r0, #0
10001fa2:	e7f0      	b.n	10001f86 <xQueueReceive+0x66>
10001fa4:	a802      	add	r0, sp, #8
10001fa6:	f000 ff3d 	bl	10002e24 <vTaskInternalSetTimeOutState>
10001faa:	2601      	movs	r6, #1
10001fac:	e021      	b.n	10001ff2 <xQueueReceive+0xd2>
10001fae:	2300      	movs	r3, #0
10001fb0:	f884 3044 	strb.w	r3, [r4, #68]	@ 0x44
10001fb4:	e029      	b.n	1000200a <xQueueReceive+0xea>
10001fb6:	2300      	movs	r3, #0
10001fb8:	f884 3045 	strb.w	r3, [r4, #69]	@ 0x45
10001fbc:	e02b      	b.n	10002016 <xQueueReceive+0xf6>
10001fbe:	4620      	mov	r0, r4
10001fc0:	f7ff fcac 	bl	1000191c <prvUnlockQueue>
10001fc4:	f001 fc8c 	bl	100038e0 <xTaskResumeAll>
10001fc8:	e009      	b.n	10001fde <xQueueReceive+0xbe>
10001fca:	4620      	mov	r0, r4
10001fcc:	f7ff fca6 	bl	1000191c <prvUnlockQueue>
10001fd0:	f001 fc86 	bl	100038e0 <xTaskResumeAll>
10001fd4:	4620      	mov	r0, r4
10001fd6:	f7ff fbf4 	bl	100017c2 <prvIsQueueEmpty>
10001fda:	2800      	cmp	r0, #0
10001fdc:	d137      	bne.n	1000204e <xQueueReceive+0x12e>
10001fde:	f001 f9c5 	bl	1000336c <vTaskEnterCritical>
10001fe2:	6ba5      	ldr	r5, [r4, #56]	@ 0x38
10001fe4:	2d00      	cmp	r5, #0
10001fe6:	d1c3      	bne.n	10001f70 <xQueueReceive+0x50>
10001fe8:	9b01      	ldr	r3, [sp, #4]
10001fea:	2b00      	cmp	r3, #0
10001fec:	d0d6      	beq.n	10001f9c <xQueueReceive+0x7c>
10001fee:	2e00      	cmp	r6, #0
10001ff0:	d0d8      	beq.n	10001fa4 <xQueueReceive+0x84>
10001ff2:	f001 fa1b 	bl	1000342c <vTaskExitCritical>
10001ff6:	f000 fd07 	bl	10002a08 <vTaskSuspendAll>
10001ffa:	f001 f9b7 	bl	1000336c <vTaskEnterCritical>
10001ffe:	f894 3044 	ldrb.w	r3, [r4, #68]	@ 0x44
10002002:	b25b      	sxtb	r3, r3
10002004:	f1b3 3fff 	cmp.w	r3, #4294967295
10002008:	d0d1      	beq.n	10001fae <xQueueReceive+0x8e>
1000200a:	f894 3045 	ldrb.w	r3, [r4, #69]	@ 0x45
1000200e:	b25b      	sxtb	r3, r3
10002010:	f1b3 3fff 	cmp.w	r3, #4294967295
10002014:	d0cf      	beq.n	10001fb6 <xQueueReceive+0x96>
10002016:	f001 fa09 	bl	1000342c <vTaskExitCritical>
1000201a:	a901      	add	r1, sp, #4
1000201c:	a802      	add	r0, sp, #8
1000201e:	f001 fda1 	bl	10003b64 <xTaskCheckForTimeOut>
10002022:	2800      	cmp	r0, #0
10002024:	d1d1      	bne.n	10001fca <xQueueReceive+0xaa>
10002026:	4620      	mov	r0, r4
10002028:	f7ff fbcb 	bl	100017c2 <prvIsQueueEmpty>
1000202c:	2800      	cmp	r0, #0
1000202e:	d0c6      	beq.n	10001fbe <xQueueReceive+0x9e>
10002030:	9901      	ldr	r1, [sp, #4]
10002032:	f104 0024 	add.w	r0, r4, #36	@ 0x24
10002036:	f000 ff75 	bl	10002f24 <vTaskPlaceOnEventList>
1000203a:	4620      	mov	r0, r4
1000203c:	f7ff fc6e 	bl	1000191c <prvUnlockQueue>
10002040:	f001 fc4e 	bl	100038e0 <xTaskResumeAll>
10002044:	2800      	cmp	r0, #0
10002046:	d1ca      	bne.n	10001fde <xQueueReceive+0xbe>
10002048:	f001 f97c 	bl	10003344 <vTaskYieldWithinAPI>
1000204c:	e7c7      	b.n	10001fde <xQueueReceive+0xbe>
1000204e:	2000      	movs	r0, #0
10002050:	e799      	b.n	10001f86 <xQueueReceive+0x66>
10002052:	bf00      	nop
10002054:	100080cc 	.word	0x100080cc
10002058:	10009290 	.word	0x10009290
1000205c:	10008168 	.word	0x10008168
10002060:	10008374 	.word	0x10008374
10002064:	10008380 	.word	0x10008380

10002068 <xQueueSemaphoreTake>:
10002068:	b570      	push	{r4, r5, r6, lr}
1000206a:	b084      	sub	sp, #16
1000206c:	9101      	str	r1, [sp, #4]
1000206e:	b150      	cbz	r0, 10002086 <xQueueSemaphoreTake+0x1e>
10002070:	4604      	mov	r4, r0
10002072:	6c03      	ldr	r3, [r0, #64]	@ 0x40
10002074:	b973      	cbnz	r3, 10002094 <xQueueSemaphoreTake+0x2c>
10002076:	f001 fdcd 	bl	10003c14 <xTaskGetSchedulerState>
1000207a:	4605      	mov	r5, r0
1000207c:	b9c0      	cbnz	r0, 100020b0 <xQueueSemaphoreTake+0x48>
1000207e:	9b01      	ldr	r3, [sp, #4]
10002080:	b97b      	cbnz	r3, 100020a2 <xQueueSemaphoreTake+0x3a>
10002082:	4606      	mov	r6, r0
10002084:	e059      	b.n	1000213a <xQueueSemaphoreTake+0xd2>
10002086:	4b52      	ldr	r3, [pc, #328]	@ (100021d0 <xQueueSemaphoreTake+0x168>)
10002088:	4a52      	ldr	r2, [pc, #328]	@ (100021d4 <xQueueSemaphoreTake+0x16c>)
1000208a:	f240 6182 	movw	r1, #1666	@ 0x682
1000208e:	4852      	ldr	r0, [pc, #328]	@ (100021d8 <xQueueSemaphoreTake+0x170>)
10002090:	f004 ffd2 	bl	10007038 <__assert_func>
10002094:	4b51      	ldr	r3, [pc, #324]	@ (100021dc <xQueueSemaphoreTake+0x174>)
10002096:	4a4f      	ldr	r2, [pc, #316]	@ (100021d4 <xQueueSemaphoreTake+0x16c>)
10002098:	f240 6186 	movw	r1, #1670	@ 0x686
1000209c:	484e      	ldr	r0, [pc, #312]	@ (100021d8 <xQueueSemaphoreTake+0x170>)
1000209e:	f004 ffcb 	bl	10007038 <__assert_func>
100020a2:	4b4f      	ldr	r3, [pc, #316]	@ (100021e0 <xQueueSemaphoreTake+0x178>)
100020a4:	4a4b      	ldr	r2, [pc, #300]	@ (100021d4 <xQueueSemaphoreTake+0x16c>)
100020a6:	f240 618b 	movw	r1, #1675	@ 0x68b
100020aa:	484b      	ldr	r0, [pc, #300]	@ (100021d8 <xQueueSemaphoreTake+0x170>)
100020ac:	f004 ffc4 	bl	10007038 <__assert_func>
100020b0:	2600      	movs	r6, #0
100020b2:	4635      	mov	r5, r6
100020b4:	e041      	b.n	1000213a <xQueueSemaphoreTake+0xd2>
100020b6:	3b01      	subs	r3, #1
100020b8:	63a3      	str	r3, [r4, #56]	@ 0x38
100020ba:	6823      	ldr	r3, [r4, #0]
100020bc:	b133      	cbz	r3, 100020cc <xQueueSemaphoreTake+0x64>
100020be:	6923      	ldr	r3, [r4, #16]
100020c0:	b943      	cbnz	r3, 100020d4 <xQueueSemaphoreTake+0x6c>
100020c2:	f001 f9b3 	bl	1000342c <vTaskExitCritical>
100020c6:	2001      	movs	r0, #1
100020c8:	b004      	add	sp, #16
100020ca:	bd70      	pop	{r4, r5, r6, pc}
100020cc:	f001 fe00 	bl	10003cd0 <pvTaskIncrementMutexHeldCount>
100020d0:	60a0      	str	r0, [r4, #8]
100020d2:	e7f4      	b.n	100020be <xQueueSemaphoreTake+0x56>
100020d4:	f104 0010 	add.w	r0, r4, #16
100020d8:	f000 fe28 	bl	10002d2c <xTaskRemoveFromEventList>
100020dc:	2800      	cmp	r0, #0
100020de:	d0f0      	beq.n	100020c2 <xQueueSemaphoreTake+0x5a>
100020e0:	f001 f930 	bl	10003344 <vTaskYieldWithinAPI>
100020e4:	e7ed      	b.n	100020c2 <xQueueSemaphoreTake+0x5a>
100020e6:	f001 f9a1 	bl	1000342c <vTaskExitCritical>
100020ea:	2000      	movs	r0, #0
100020ec:	e7ec      	b.n	100020c8 <xQueueSemaphoreTake+0x60>
100020ee:	a802      	add	r0, sp, #8
100020f0:	f000 fe98 	bl	10002e24 <vTaskInternalSetTimeOutState>
100020f4:	2501      	movs	r5, #1
100020f6:	e02a      	b.n	1000214e <xQueueSemaphoreTake+0xe6>
100020f8:	2300      	movs	r3, #0
100020fa:	f884 3044 	strb.w	r3, [r4, #68]	@ 0x44
100020fe:	e032      	b.n	10002166 <xQueueSemaphoreTake+0xfe>
10002100:	2300      	movs	r3, #0
10002102:	f884 3045 	strb.w	r3, [r4, #69]	@ 0x45
10002106:	e034      	b.n	10002172 <xQueueSemaphoreTake+0x10a>
10002108:	f001 f930 	bl	1000336c <vTaskEnterCritical>
1000210c:	68a0      	ldr	r0, [r4, #8]
1000210e:	f000 ff9b 	bl	10003048 <xTaskPriorityInherit>
10002112:	4606      	mov	r6, r0
10002114:	f001 f98a 	bl	1000342c <vTaskExitCritical>
10002118:	e03b      	b.n	10002192 <xQueueSemaphoreTake+0x12a>
1000211a:	4620      	mov	r0, r4
1000211c:	f7ff fbfe 	bl	1000191c <prvUnlockQueue>
10002120:	f001 fbde 	bl	100038e0 <xTaskResumeAll>
10002124:	e009      	b.n	1000213a <xQueueSemaphoreTake+0xd2>
10002126:	4620      	mov	r0, r4
10002128:	f7ff fbf8 	bl	1000191c <prvUnlockQueue>
1000212c:	f001 fbd8 	bl	100038e0 <xTaskResumeAll>
10002130:	4620      	mov	r0, r4
10002132:	f7ff fb46 	bl	100017c2 <prvIsQueueEmpty>
10002136:	2800      	cmp	r0, #0
10002138:	d13a      	bne.n	100021b0 <xQueueSemaphoreTake+0x148>
1000213a:	f001 f917 	bl	1000336c <vTaskEnterCritical>
1000213e:	6ba3      	ldr	r3, [r4, #56]	@ 0x38
10002140:	2b00      	cmp	r3, #0
10002142:	d1b8      	bne.n	100020b6 <xQueueSemaphoreTake+0x4e>
10002144:	9b01      	ldr	r3, [sp, #4]
10002146:	2b00      	cmp	r3, #0
10002148:	d0cd      	beq.n	100020e6 <xQueueSemaphoreTake+0x7e>
1000214a:	2d00      	cmp	r5, #0
1000214c:	d0cf      	beq.n	100020ee <xQueueSemaphoreTake+0x86>
1000214e:	f001 f96d 	bl	1000342c <vTaskExitCritical>
10002152:	f000 fc59 	bl	10002a08 <vTaskSuspendAll>
10002156:	f001 f909 	bl	1000336c <vTaskEnterCritical>
1000215a:	f894 3044 	ldrb.w	r3, [r4, #68]	@ 0x44
1000215e:	b25b      	sxtb	r3, r3
10002160:	f1b3 3fff 	cmp.w	r3, #4294967295
10002164:	d0c8      	beq.n	100020f8 <xQueueSemaphoreTake+0x90>
10002166:	f894 3045 	ldrb.w	r3, [r4, #69]	@ 0x45
1000216a:	b25b      	sxtb	r3, r3
1000216c:	f1b3 3fff 	cmp.w	r3, #4294967295
10002170:	d0c6      	beq.n	10002100 <xQueueSemaphoreTake+0x98>
10002172:	f001 f95b 	bl	1000342c <vTaskExitCritical>
10002176:	a901      	add	r1, sp, #4
10002178:	a802      	add	r0, sp, #8
1000217a:	f001 fcf3 	bl	10003b64 <xTaskCheckForTimeOut>
1000217e:	2800      	cmp	r0, #0
10002180:	d1d1      	bne.n	10002126 <xQueueSemaphoreTake+0xbe>
10002182:	4620      	mov	r0, r4
10002184:	f7ff fb1d 	bl	100017c2 <prvIsQueueEmpty>
10002188:	2800      	cmp	r0, #0
1000218a:	d0c6      	beq.n	1000211a <xQueueSemaphoreTake+0xb2>
1000218c:	6823      	ldr	r3, [r4, #0]
1000218e:	2b00      	cmp	r3, #0
10002190:	d0ba      	beq.n	10002108 <xQueueSemaphoreTake+0xa0>
10002192:	9901      	ldr	r1, [sp, #4]
10002194:	f104 0024 	add.w	r0, r4, #36	@ 0x24
10002198:	f000 fec4 	bl	10002f24 <vTaskPlaceOnEventList>
1000219c:	4620      	mov	r0, r4
1000219e:	f7ff fbbd 	bl	1000191c <prvUnlockQueue>
100021a2:	f001 fb9d 	bl	100038e0 <xTaskResumeAll>
100021a6:	2800      	cmp	r0, #0
100021a8:	d1c7      	bne.n	1000213a <xQueueSemaphoreTake+0xd2>
100021aa:	f001 f8cb 	bl	10003344 <vTaskYieldWithinAPI>
100021ae:	e7c4      	b.n	1000213a <xQueueSemaphoreTake+0xd2>
100021b0:	b90e      	cbnz	r6, 100021b6 <xQueueSemaphoreTake+0x14e>
100021b2:	2000      	movs	r0, #0
100021b4:	e788      	b.n	100020c8 <xQueueSemaphoreTake+0x60>
100021b6:	f001 f8d9 	bl	1000336c <vTaskEnterCritical>
100021ba:	4620      	mov	r0, r4
100021bc:	f7ff faea 	bl	10001794 <prvGetDisinheritPriorityAfterTimeout>
100021c0:	4601      	mov	r1, r0
100021c2:	68a0      	ldr	r0, [r4, #8]
100021c4:	f001 f832 	bl	1000322c <vTaskPriorityDisinheritAfterTimeout>
100021c8:	f001 f930 	bl	1000342c <vTaskExitCritical>
100021cc:	e7f1      	b.n	100021b2 <xQueueSemaphoreTake+0x14a>
100021ce:	bf00      	nop
100021d0:	10008374 	.word	0x10008374
100021d4:	1000927c 	.word	0x1000927c
100021d8:	10008168 	.word	0x10008168
100021dc:	100082f4 	.word	0x100082f4
100021e0:	100080cc 	.word	0x100080cc

100021e4 <xQueueTakeMutexRecursive>:
100021e4:	b570      	push	{r4, r5, r6, lr}
100021e6:	b178      	cbz	r0, 10002208 <xQueueTakeMutexRecursive+0x24>
100021e8:	460d      	mov	r5, r1
100021ea:	4604      	mov	r4, r0
100021ec:	6886      	ldr	r6, [r0, #8]
100021ee:	f000 fe2f 	bl	10002e50 <xTaskGetCurrentTaskHandle>
100021f2:	4286      	cmp	r6, r0
100021f4:	d00f      	beq.n	10002216 <xQueueTakeMutexRecursive+0x32>
100021f6:	4629      	mov	r1, r5
100021f8:	4620      	mov	r0, r4
100021fa:	f7ff ff35 	bl	10002068 <xQueueSemaphoreTake>
100021fe:	b170      	cbz	r0, 1000221e <xQueueTakeMutexRecursive+0x3a>
10002200:	68e3      	ldr	r3, [r4, #12]
10002202:	3301      	adds	r3, #1
10002204:	60e3      	str	r3, [r4, #12]
10002206:	e00a      	b.n	1000221e <xQueueTakeMutexRecursive+0x3a>
10002208:	4b05      	ldr	r3, [pc, #20]	@ (10002220 <xQueueTakeMutexRecursive+0x3c>)
1000220a:	4a06      	ldr	r2, [pc, #24]	@ (10002224 <xQueueTakeMutexRecursive+0x40>)
1000220c:	f240 3137 	movw	r1, #823	@ 0x337
10002210:	4805      	ldr	r0, [pc, #20]	@ (10002228 <xQueueTakeMutexRecursive+0x44>)
10002212:	f004 ff11 	bl	10007038 <__assert_func>
10002216:	68e3      	ldr	r3, [r4, #12]
10002218:	3301      	adds	r3, #1
1000221a:	60e3      	str	r3, [r4, #12]
1000221c:	2001      	movs	r0, #1
1000221e:	bd70      	pop	{r4, r5, r6, pc}
10002220:	100082ec 	.word	0x100082ec
10002224:	10009300 	.word	0x10009300
10002228:	10008168 	.word	0x10008168

1000222c <vQueueAddToRegistry>:
1000222c:	b510      	push	{r4, lr}
1000222e:	b120      	cbz	r0, 1000223a <vQueueAddToRegistry+0xe>
10002230:	4604      	mov	r4, r0
10002232:	b321      	cbz	r1, 1000227e <vQueueAddToRegistry+0x52>
10002234:	2000      	movs	r0, #0
10002236:	4603      	mov	r3, r0
10002238:	e00b      	b.n	10002252 <vQueueAddToRegistry+0x26>
1000223a:	4b11      	ldr	r3, [pc, #68]	@ (10002280 <vQueueAddToRegistry+0x54>)
1000223c:	4a11      	ldr	r2, [pc, #68]	@ (10002284 <vQueueAddToRegistry+0x58>)
1000223e:	f640 31c9 	movw	r1, #3017	@ 0xbc9
10002242:	4811      	ldr	r0, [pc, #68]	@ (10002288 <vQueueAddToRegistry+0x5c>)
10002244:	f004 fef8 	bl	10007038 <__assert_func>
10002248:	4810      	ldr	r0, [pc, #64]	@ (1000228c <vQueueAddToRegistry+0x60>)
1000224a:	eb00 00c3 	add.w	r0, r0, r3, lsl #3
1000224e:	e014      	b.n	1000227a <vQueueAddToRegistry+0x4e>
10002250:	3301      	adds	r3, #1
10002252:	2b07      	cmp	r3, #7
10002254:	d810      	bhi.n	10002278 <vQueueAddToRegistry+0x4c>
10002256:	4a0d      	ldr	r2, [pc, #52]	@ (1000228c <vQueueAddToRegistry+0x60>)
10002258:	eb02 02c3 	add.w	r2, r2, r3, lsl #3
1000225c:	6852      	ldr	r2, [r2, #4]
1000225e:	42a2      	cmp	r2, r4
10002260:	d0f2      	beq.n	10002248 <vQueueAddToRegistry+0x1c>
10002262:	2800      	cmp	r0, #0
10002264:	d1f4      	bne.n	10002250 <vQueueAddToRegistry+0x24>
10002266:	4a09      	ldr	r2, [pc, #36]	@ (1000228c <vQueueAddToRegistry+0x60>)
10002268:	f852 2033 	ldr.w	r2, [r2, r3, lsl #3]
1000226c:	2a00      	cmp	r2, #0
1000226e:	d1ef      	bne.n	10002250 <vQueueAddToRegistry+0x24>
10002270:	4806      	ldr	r0, [pc, #24]	@ (1000228c <vQueueAddToRegistry+0x60>)
10002272:	eb00 00c3 	add.w	r0, r0, r3, lsl #3
10002276:	e7eb      	b.n	10002250 <vQueueAddToRegistry+0x24>
10002278:	b108      	cbz	r0, 1000227e <vQueueAddToRegistry+0x52>
1000227a:	6001      	str	r1, [r0, #0]
1000227c:	6044      	str	r4, [r0, #4]
1000227e:	bd10      	pop	{r4, pc}
10002280:	100083dc 	.word	0x100083dc
10002284:	10009258 	.word	0x10009258
10002288:	10008168 	.word	0x10008168
1000228c:	20020cc0 	.word	0x20020cc0

10002290 <vQueueUnregisterQueue>:
10002290:	b508      	push	{r3, lr}
10002292:	b158      	cbz	r0, 100022ac <vQueueUnregisterQueue+0x1c>
10002294:	4601      	mov	r1, r0
10002296:	2300      	movs	r3, #0
10002298:	2b07      	cmp	r3, #7
1000229a:	d815      	bhi.n	100022c8 <vQueueUnregisterQueue+0x38>
1000229c:	4a0b      	ldr	r2, [pc, #44]	@ (100022cc <vQueueUnregisterQueue+0x3c>)
1000229e:	eb02 02c3 	add.w	r2, r2, r3, lsl #3
100022a2:	6852      	ldr	r2, [r2, #4]
100022a4:	428a      	cmp	r2, r1
100022a6:	d008      	beq.n	100022ba <vQueueUnregisterQueue+0x2a>
100022a8:	3301      	adds	r3, #1
100022aa:	e7f5      	b.n	10002298 <vQueueUnregisterQueue+0x8>
100022ac:	4b08      	ldr	r3, [pc, #32]	@ (100022d0 <vQueueUnregisterQueue+0x40>)
100022ae:	4a09      	ldr	r2, [pc, #36]	@ (100022d4 <vQueueUnregisterQueue+0x44>)
100022b0:	f640 411d 	movw	r1, #3101	@ 0xc1d
100022b4:	4808      	ldr	r0, [pc, #32]	@ (100022d8 <vQueueUnregisterQueue+0x48>)
100022b6:	f004 febf 	bl	10007038 <__assert_func>
100022ba:	4a04      	ldr	r2, [pc, #16]	@ (100022cc <vQueueUnregisterQueue+0x3c>)
100022bc:	2100      	movs	r1, #0
100022be:	f842 1033 	str.w	r1, [r2, r3, lsl #3]
100022c2:	eb02 02c3 	add.w	r2, r2, r3, lsl #3
100022c6:	6051      	str	r1, [r2, #4]
100022c8:	bd08      	pop	{r3, pc}
100022ca:	bf00      	nop
100022cc:	20020cc0 	.word	0x20020cc0
100022d0:	100083dc 	.word	0x100083dc
100022d4:	10009240 	.word	0x10009240
100022d8:	10008168 	.word	0x10008168

100022dc <vQueueDelete>:
100022dc:	b510      	push	{r4, lr}
100022de:	b130      	cbz	r0, 100022ee <vQueueDelete+0x12>
100022e0:	4604      	mov	r4, r0
100022e2:	f7ff ffd5 	bl	10002290 <vQueueUnregisterQueue>
100022e6:	4620      	mov	r0, r4
100022e8:	f7fe fd04 	bl	10000cf4 <vPortFree>
100022ec:	bd10      	pop	{r4, pc}
100022ee:	4b03      	ldr	r3, [pc, #12]	@ (100022fc <vQueueDelete+0x20>)
100022f0:	4a03      	ldr	r2, [pc, #12]	@ (10002300 <vQueueDelete+0x24>)
100022f2:	f640 01d4 	movw	r1, #2260	@ 0x8d4
100022f6:	4803      	ldr	r0, [pc, #12]	@ (10002304 <vQueueDelete+0x28>)
100022f8:	f004 fe9e 	bl	10007038 <__assert_func>
100022fc:	10008200 	.word	0x10008200
10002300:	1000926c 	.word	0x1000926c
10002304:	10008168 	.word	0x10008168

10002308 <vQueueWaitForMessageRestricted>:
10002308:	b570      	push	{r4, r5, r6, lr}
1000230a:	4604      	mov	r4, r0
1000230c:	460d      	mov	r5, r1
1000230e:	4616      	mov	r6, r2
10002310:	f001 f82c 	bl	1000336c <vTaskEnterCritical>
10002314:	f894 3044 	ldrb.w	r3, [r4, #68]	@ 0x44
10002318:	b25b      	sxtb	r3, r3
1000231a:	f1b3 3fff 	cmp.w	r3, #4294967295
1000231e:	d00d      	beq.n	1000233c <vQueueWaitForMessageRestricted+0x34>
10002320:	f894 3045 	ldrb.w	r3, [r4, #69]	@ 0x45
10002324:	b25b      	sxtb	r3, r3
10002326:	f1b3 3fff 	cmp.w	r3, #4294967295
1000232a:	d00b      	beq.n	10002344 <vQueueWaitForMessageRestricted+0x3c>
1000232c:	f001 f87e 	bl	1000342c <vTaskExitCritical>
10002330:	6ba3      	ldr	r3, [r4, #56]	@ 0x38
10002332:	b15b      	cbz	r3, 1000234c <vQueueWaitForMessageRestricted+0x44>
10002334:	4620      	mov	r0, r4
10002336:	f7ff faf1 	bl	1000191c <prvUnlockQueue>
1000233a:	bd70      	pop	{r4, r5, r6, pc}
1000233c:	2300      	movs	r3, #0
1000233e:	f884 3044 	strb.w	r3, [r4, #68]	@ 0x44
10002342:	e7ed      	b.n	10002320 <vQueueWaitForMessageRestricted+0x18>
10002344:	2300      	movs	r3, #0
10002346:	f884 3045 	strb.w	r3, [r4, #69]	@ 0x45
1000234a:	e7ef      	b.n	1000232c <vQueueWaitForMessageRestricted+0x24>
1000234c:	4632      	mov	r2, r6
1000234e:	4629      	mov	r1, r5
10002350:	f104 0024 	add.w	r0, r4, #36	@ 0x24
10002354:	f000 fe46 	bl	10002fe4 <vTaskPlaceOnEventListRestricted>
10002358:	e7ec      	b.n	10002334 <vQueueWaitForMessageRestricted+0x2c>
	...

1000235c <prvResetNextTaskUnblockTime>:
1000235c:	4b07      	ldr	r3, [pc, #28]	@ (1000237c <prvResetNextTaskUnblockTime+0x20>)
1000235e:	681b      	ldr	r3, [r3, #0]
10002360:	681b      	ldr	r3, [r3, #0]
10002362:	b923      	cbnz	r3, 1000236e <prvResetNextTaskUnblockTime+0x12>
10002364:	4b06      	ldr	r3, [pc, #24]	@ (10002380 <prvResetNextTaskUnblockTime+0x24>)
10002366:	f04f 32ff 	mov.w	r2, #4294967295
1000236a:	601a      	str	r2, [r3, #0]
1000236c:	4770      	bx	lr
1000236e:	4b03      	ldr	r3, [pc, #12]	@ (1000237c <prvResetNextTaskUnblockTime+0x20>)
10002370:	681b      	ldr	r3, [r3, #0]
10002372:	68db      	ldr	r3, [r3, #12]
10002374:	681a      	ldr	r2, [r3, #0]
10002376:	4b02      	ldr	r3, [pc, #8]	@ (10002380 <prvResetNextTaskUnblockTime+0x24>)
10002378:	601a      	str	r2, [r3, #0]
1000237a:	4770      	bx	lr
1000237c:	2000096c 	.word	0x2000096c
10002380:	20020c98 	.word	0x20020c98

10002384 <prvDeleteTCB>:
10002384:	b510      	push	{r4, lr}
10002386:	4604      	mov	r4, r0
10002388:	6b40      	ldr	r0, [r0, #52]	@ 0x34
1000238a:	f7fe fcb3 	bl	10000cf4 <vPortFree>
1000238e:	4620      	mov	r0, r4
10002390:	f7fe fcb0 	bl	10000cf4 <vPortFree>
10002394:	bd10      	pop	{r4, pc}
	...

10002398 <vPortRecursiveLock>:
10002398:	b510      	push	{r4, lr}
1000239a:	2801      	cmp	r0, #1
1000239c:	d81f      	bhi.n	100023de <vPortRecursiveLock+0x46>
1000239e:	f04f 4350 	mov.w	r3, #3489660928	@ 0xd0000000
100023a2:	681c      	ldr	r4, [r3, #0]
100023a4:	2a00      	cmp	r2, #0
100023a6:	d042      	beq.n	1000242e <vPortRecursiveLock+0x96>
100023a8:	e8d1 3fcf 	ldaexb	r3, [r1]
100023ac:	2201      	movs	r2, #1
100023ae:	2b00      	cmp	r3, #0
100023b0:	d101      	bne.n	100023b6 <vPortRecursiveLock+0x1e>
100023b2:	e8c1 2f43 	strexb	r3, r2, [r1]
100023b6:	f3bf 8f5f 	dmb	sy
100023ba:	2b00      	cmp	r3, #0
100023bc:	d026      	beq.n	1000240c <vPortRecursiveLock+0x74>
100023be:	4b2d      	ldr	r3, [pc, #180]	@ (10002474 <vPortRecursiveLock+0xdc>)
100023c0:	eb03 0344 	add.w	r3, r3, r4, lsl #1
100023c4:	5c1b      	ldrb	r3, [r3, r0]
100023c6:	b1b3      	cbz	r3, 100023f6 <vPortRecursiveLock+0x5e>
100023c8:	4b2b      	ldr	r3, [pc, #172]	@ (10002478 <vPortRecursiveLock+0xe0>)
100023ca:	5c1b      	ldrb	r3, [r3, r0]
100023cc:	b2db      	uxtb	r3, r3
100023ce:	2bff      	cmp	r3, #255	@ 0xff
100023d0:	d00b      	beq.n	100023ea <vPortRecursiveLock+0x52>
100023d2:	4a29      	ldr	r2, [pc, #164]	@ (10002478 <vPortRecursiveLock+0xe0>)
100023d4:	5c13      	ldrb	r3, [r2, r0]
100023d6:	3301      	adds	r3, #1
100023d8:	b2db      	uxtb	r3, r3
100023da:	5413      	strb	r3, [r2, r0]
100023dc:	e020      	b.n	10002420 <vPortRecursiveLock+0x88>
100023de:	4b27      	ldr	r3, [pc, #156]	@ (1000247c <vPortRecursiveLock+0xe4>)
100023e0:	4a27      	ldr	r2, [pc, #156]	@ (10002480 <vPortRecursiveLock+0xe8>)
100023e2:	21b5      	movs	r1, #181	@ 0xb5
100023e4:	4827      	ldr	r0, [pc, #156]	@ (10002484 <vPortRecursiveLock+0xec>)
100023e6:	f004 fe27 	bl	10007038 <__assert_func>
100023ea:	4b27      	ldr	r3, [pc, #156]	@ (10002488 <vPortRecursiveLock+0xf0>)
100023ec:	4a24      	ldr	r2, [pc, #144]	@ (10002480 <vPortRecursiveLock+0xe8>)
100023ee:	21bd      	movs	r1, #189	@ 0xbd
100023f0:	4824      	ldr	r0, [pc, #144]	@ (10002484 <vPortRecursiveLock+0xec>)
100023f2:	f004 fe21 	bl	10007038 <__assert_func>
100023f6:	e8d1 2fcf 	ldaexb	r2, [r1]
100023fa:	2301      	movs	r3, #1
100023fc:	2a00      	cmp	r2, #0
100023fe:	d1fa      	bne.n	100023f6 <vPortRecursiveLock+0x5e>
10002400:	e8c1 3f42 	strexb	r2, r3, [r1]
10002404:	2a00      	cmp	r2, #0
10002406:	d1f6      	bne.n	100023f6 <vPortRecursiveLock+0x5e>
10002408:	f3bf 8f5f 	dmb	sy
1000240c:	4b1a      	ldr	r3, [pc, #104]	@ (10002478 <vPortRecursiveLock+0xe0>)
1000240e:	5c1b      	ldrb	r3, [r3, r0]
10002410:	b93b      	cbnz	r3, 10002422 <vPortRecursiveLock+0x8a>
10002412:	2201      	movs	r2, #1
10002414:	4b18      	ldr	r3, [pc, #96]	@ (10002478 <vPortRecursiveLock+0xe0>)
10002416:	541a      	strb	r2, [r3, r0]
10002418:	4b16      	ldr	r3, [pc, #88]	@ (10002474 <vPortRecursiveLock+0xdc>)
1000241a:	eb03 0344 	add.w	r3, r3, r4, lsl #1
1000241e:	541a      	strb	r2, [r3, r0]
10002420:	bd10      	pop	{r4, pc}
10002422:	4b1a      	ldr	r3, [pc, #104]	@ (1000248c <vPortRecursiveLock+0xf4>)
10002424:	4a16      	ldr	r2, [pc, #88]	@ (10002480 <vPortRecursiveLock+0xe8>)
10002426:	21c3      	movs	r1, #195	@ 0xc3
10002428:	4816      	ldr	r0, [pc, #88]	@ (10002484 <vPortRecursiveLock+0xec>)
1000242a:	f004 fe05 	bl	10007038 <__assert_func>
1000242e:	4b11      	ldr	r3, [pc, #68]	@ (10002474 <vPortRecursiveLock+0xdc>)
10002430:	eb03 0344 	add.w	r3, r3, r4, lsl #1
10002434:	5c1b      	ldrb	r3, [r3, r0]
10002436:	b18b      	cbz	r3, 1000245c <vPortRecursiveLock+0xc4>
10002438:	4b0f      	ldr	r3, [pc, #60]	@ (10002478 <vPortRecursiveLock+0xe0>)
1000243a:	5c1b      	ldrb	r3, [r3, r0]
1000243c:	b1a3      	cbz	r3, 10002468 <vPortRecursiveLock+0xd0>
1000243e:	4a0e      	ldr	r2, [pc, #56]	@ (10002478 <vPortRecursiveLock+0xe0>)
10002440:	5c13      	ldrb	r3, [r2, r0]
10002442:	3b01      	subs	r3, #1
10002444:	b2db      	uxtb	r3, r3
10002446:	5413      	strb	r3, [r2, r0]
10002448:	2b00      	cmp	r3, #0
1000244a:	d1e9      	bne.n	10002420 <vPortRecursiveLock+0x88>
1000244c:	4b09      	ldr	r3, [pc, #36]	@ (10002474 <vPortRecursiveLock+0xdc>)
1000244e:	eb03 0344 	add.w	r3, r3, r4, lsl #1
10002452:	2200      	movs	r2, #0
10002454:	541a      	strb	r2, [r3, r0]
10002456:	e8c1 2f8f 	stlb	r2, [r1]
1000245a:	e7e1      	b.n	10002420 <vPortRecursiveLock+0x88>
1000245c:	4b0c      	ldr	r3, [pc, #48]	@ (10002490 <vPortRecursiveLock+0xf8>)
1000245e:	4a08      	ldr	r2, [pc, #32]	@ (10002480 <vPortRecursiveLock+0xe8>)
10002460:	21c9      	movs	r1, #201	@ 0xc9
10002462:	4808      	ldr	r0, [pc, #32]	@ (10002484 <vPortRecursiveLock+0xec>)
10002464:	f004 fde8 	bl	10007038 <__assert_func>
10002468:	4b0a      	ldr	r3, [pc, #40]	@ (10002494 <vPortRecursiveLock+0xfc>)
1000246a:	4a05      	ldr	r2, [pc, #20]	@ (10002480 <vPortRecursiveLock+0xe8>)
1000246c:	21ca      	movs	r1, #202	@ 0xca
1000246e:	4805      	ldr	r0, [pc, #20]	@ (10002484 <vPortRecursiveLock+0xec>)
10002470:	f004 fde2 	bl	10007038 <__assert_func>
10002474:	20020c08 	.word	0x20020c08
10002478:	20020c0c 	.word	0x20020c0c
1000247c:	10008418 	.word	0x10008418
10002480:	10009538 	.word	0x10009538
10002484:	10008428 	.word	0x10008428
10002488:	1000848c 	.word	0x1000848c
1000248c:	100084b8 	.word	0x100084b8
10002490:	100084e4 	.word	0x100084e4
10002494:	10008518 	.word	0x10008518

10002498 <prvInitialiseNewTask>:
10002498:	e92d 47f0 	stmdb	sp!, {r4, r5, r6, r7, r8, r9, sl, lr}
1000249c:	4680      	mov	r8, r0
1000249e:	460d      	mov	r5, r1
100024a0:	4617      	mov	r7, r2
100024a2:	4699      	mov	r9, r3
100024a4:	9e08      	ldr	r6, [sp, #32]
100024a6:	f8dd a024 	ldr.w	sl, [sp, #36]	@ 0x24
100024aa:	9c0a      	ldr	r4, [sp, #40]	@ 0x28
100024ac:	0092      	lsls	r2, r2, #2
100024ae:	21a5      	movs	r1, #165	@ 0xa5
100024b0:	6b60      	ldr	r0, [r4, #52]	@ 0x34
100024b2:	f005 f857 	bl	10007564 <memset>
100024b6:	6b63      	ldr	r3, [r4, #52]	@ 0x34
100024b8:	f107 4280 	add.w	r2, r7, #1073741824	@ 0x40000000
100024bc:	3a01      	subs	r2, #1
100024be:	eb03 0782 	add.w	r7, r3, r2, lsl #2
100024c2:	f027 0707 	bic.w	r7, r7, #7
100024c6:	b18d      	cbz	r5, 100024ec <prvInitialiseNewTask+0x54>
100024c8:	f04f 0c00 	mov.w	ip, #0
100024cc:	f1bc 0f0f 	cmp.w	ip, #15
100024d0:	d809      	bhi.n	100024e6 <prvInitialiseNewTask+0x4e>
100024d2:	f815 300c 	ldrb.w	r3, [r5, ip]
100024d6:	eb04 020c 	add.w	r2, r4, ip
100024da:	f882 3040 	strb.w	r3, [r2, #64]	@ 0x40
100024de:	b113      	cbz	r3, 100024e6 <prvInitialiseNewTask+0x4e>
100024e0:	f10c 0c01 	add.w	ip, ip, #1
100024e4:	e7f2      	b.n	100024cc <prvInitialiseNewTask+0x34>
100024e6:	2300      	movs	r3, #0
100024e8:	f884 304f 	strb.w	r3, [r4, #79]	@ 0x4f
100024ec:	2e1f      	cmp	r6, #31
100024ee:	d829      	bhi.n	10002544 <prvInitialiseNewTask+0xac>
100024f0:	6326      	str	r6, [r4, #48]	@ 0x30
100024f2:	65a6      	str	r6, [r4, #88]	@ 0x58
100024f4:	f104 0008 	add.w	r0, r4, #8
100024f8:	f7ff f913 	bl	10001722 <vListInitialiseItem>
100024fc:	f104 001c 	add.w	r0, r4, #28
10002500:	f7ff f90f 	bl	10001722 <vListInitialiseItem>
10002504:	6164      	str	r4, [r4, #20]
10002506:	f1c6 0620 	rsb	r6, r6, #32
1000250a:	61e6      	str	r6, [r4, #28]
1000250c:	62a4      	str	r4, [r4, #40]	@ 0x28
1000250e:	464b      	mov	r3, r9
10002510:	4642      	mov	r2, r8
10002512:	6b61      	ldr	r1, [r4, #52]	@ 0x34
10002514:	4638      	mov	r0, r7
10002516:	f7fe fda1 	bl	1000105c <pxPortInitialiseStack>
1000251a:	6020      	str	r0, [r4, #0]
1000251c:	f04f 33ff 	mov.w	r3, #4294967295
10002520:	63a3      	str	r3, [r4, #56]	@ 0x38
10002522:	4b0c      	ldr	r3, [pc, #48]	@ (10002554 <prvInitialiseNewTask+0xbc>)
10002524:	4598      	cmp	r8, r3
10002526:	d002      	beq.n	1000252e <prvInitialiseNewTask+0x96>
10002528:	4b0b      	ldr	r3, [pc, #44]	@ (10002558 <prvInitialiseNewTask+0xc0>)
1000252a:	4598      	cmp	r8, r3
1000252c:	d103      	bne.n	10002536 <prvInitialiseNewTask+0x9e>
1000252e:	6be3      	ldr	r3, [r4, #60]	@ 0x3c
10002530:	f043 0301 	orr.w	r3, r3, #1
10002534:	63e3      	str	r3, [r4, #60]	@ 0x3c
10002536:	f1ba 0f00 	cmp.w	sl, #0
1000253a:	d001      	beq.n	10002540 <prvInitialiseNewTask+0xa8>
1000253c:	f8ca 4000 	str.w	r4, [sl]
10002540:	e8bd 87f0 	ldmia.w	sp!, {r4, r5, r6, r7, r8, r9, sl, pc}
10002544:	4b05      	ldr	r3, [pc, #20]	@ (1000255c <prvInitialiseNewTask+0xc4>)
10002546:	4a06      	ldr	r2, [pc, #24]	@ (10002560 <prvInitialiseNewTask+0xc8>)
10002548:	f240 7166 	movw	r1, #1894	@ 0x766
1000254c:	4805      	ldr	r0, [pc, #20]	@ (10002564 <prvInitialiseNewTask+0xcc>)
1000254e:	f004 fd73 	bl	10007038 <__assert_func>
10002552:	bf00      	nop
10002554:	10003525 	.word	0x10003525
10002558:	100025c5 	.word	0x100025c5
1000255c:	10008544 	.word	0x10008544
10002560:	100095b4 	.word	0x100095b4
10002564:	100083ec 	.word	0x100083ec

10002568 <prvCreateTask>:
10002568:	e92d 43f0 	stmdb	sp!, {r4, r5, r6, r7, r8, r9, lr}
1000256c:	b085      	sub	sp, #20
1000256e:	4606      	mov	r6, r0
10002570:	460f      	mov	r7, r1
10002572:	4614      	mov	r4, r2
10002574:	4698      	mov	r8, r3
10002576:	0090      	lsls	r0, r2, #2
10002578:	f7fe fafe 	bl	10000b78 <pvPortMalloc>
1000257c:	4681      	mov	r9, r0
1000257e:	b1f8      	cbz	r0, 100025c0 <prvCreateTask+0x58>
10002580:	207c      	movs	r0, #124	@ 0x7c
10002582:	f7fe faf9 	bl	10000b78 <pvPortMalloc>
10002586:	4605      	mov	r5, r0
10002588:	b1b0      	cbz	r0, 100025b8 <prvCreateTask+0x50>
1000258a:	227c      	movs	r2, #124	@ 0x7c
1000258c:	2100      	movs	r1, #0
1000258e:	f004 ffe9 	bl	10007564 <memset>
10002592:	f8c5 9034 	str.w	r9, [r5, #52]	@ 0x34
10002596:	2300      	movs	r3, #0
10002598:	9303      	str	r3, [sp, #12]
1000259a:	9502      	str	r5, [sp, #8]
1000259c:	9b0d      	ldr	r3, [sp, #52]	@ 0x34
1000259e:	9301      	str	r3, [sp, #4]
100025a0:	9b0c      	ldr	r3, [sp, #48]	@ 0x30
100025a2:	9300      	str	r3, [sp, #0]
100025a4:	4643      	mov	r3, r8
100025a6:	4622      	mov	r2, r4
100025a8:	4639      	mov	r1, r7
100025aa:	4630      	mov	r0, r6
100025ac:	f7ff ff74 	bl	10002498 <prvInitialiseNewTask>
100025b0:	4628      	mov	r0, r5
100025b2:	b005      	add	sp, #20
100025b4:	e8bd 83f0 	ldmia.w	sp!, {r4, r5, r6, r7, r8, r9, pc}
100025b8:	4648      	mov	r0, r9
100025ba:	f7fe fb9b 	bl	10000cf4 <vPortFree>
100025be:	e7f7      	b.n	100025b0 <prvCreateTask+0x48>
100025c0:	4605      	mov	r5, r0
100025c2:	e7f5      	b.n	100025b0 <prvCreateTask+0x48>

100025c4 <prvPassiveIdleTask>:
100025c4:	b508      	push	{r3, lr}
100025c6:	f7fe fd25 	bl	10001014 <vPortYield>
100025ca:	4b03      	ldr	r3, [pc, #12]	@ (100025d8 <prvPassiveIdleTask+0x14>)
100025cc:	681b      	ldr	r3, [r3, #0]
100025ce:	2b02      	cmp	r3, #2
100025d0:	d9fb      	bls.n	100025ca <prvPassiveIdleTask+0x6>
100025d2:	f7fe fd1f 	bl	10001014 <vPortYield>
100025d6:	e7f8      	b.n	100025ca <prvPassiveIdleTask+0x6>
100025d8:	2000097c 	.word	0x2000097c

100025dc <prvInitialiseTaskLists>:
100025dc:	b538      	push	{r3, r4, r5, lr}
100025de:	2400      	movs	r4, #0
100025e0:	e007      	b.n	100025f2 <prvInitialiseTaskLists+0x16>
100025e2:	eb04 0284 	add.w	r2, r4, r4, lsl #2
100025e6:	0093      	lsls	r3, r2, #2
100025e8:	480e      	ldr	r0, [pc, #56]	@ (10002624 <prvInitialiseTaskLists+0x48>)
100025ea:	4418      	add	r0, r3
100025ec:	f7ff f88e 	bl	1000170c <vListInitialise>
100025f0:	3401      	adds	r4, #1
100025f2:	2c1f      	cmp	r4, #31
100025f4:	d9f5      	bls.n	100025e2 <prvInitialiseTaskLists+0x6>
100025f6:	4d0c      	ldr	r5, [pc, #48]	@ (10002628 <prvInitialiseTaskLists+0x4c>)
100025f8:	4628      	mov	r0, r5
100025fa:	f7ff f887 	bl	1000170c <vListInitialise>
100025fe:	4c0b      	ldr	r4, [pc, #44]	@ (1000262c <prvInitialiseTaskLists+0x50>)
10002600:	4620      	mov	r0, r4
10002602:	f7ff f883 	bl	1000170c <vListInitialise>
10002606:	480a      	ldr	r0, [pc, #40]	@ (10002630 <prvInitialiseTaskLists+0x54>)
10002608:	f7ff f880 	bl	1000170c <vListInitialise>
1000260c:	4809      	ldr	r0, [pc, #36]	@ (10002634 <prvInitialiseTaskLists+0x58>)
1000260e:	f7ff f87d 	bl	1000170c <vListInitialise>
10002612:	4809      	ldr	r0, [pc, #36]	@ (10002638 <prvInitialiseTaskLists+0x5c>)
10002614:	f7ff f87a 	bl	1000170c <vListInitialise>
10002618:	4b08      	ldr	r3, [pc, #32]	@ (1000263c <prvInitialiseTaskLists+0x60>)
1000261a:	601d      	str	r5, [r3, #0]
1000261c:	4b08      	ldr	r3, [pc, #32]	@ (10002640 <prvInitialiseTaskLists+0x64>)
1000261e:	601c      	str	r4, [r3, #0]
10002620:	bd38      	pop	{r3, r4, r5, pc}
10002622:	bf00      	nop
10002624:	2000097c 	.word	0x2000097c
10002628:	20020c58 	.word	0x20020c58
1000262c:	20020c6c 	.word	0x20020c6c
10002630:	20020cac 	.word	0x20020cac
10002634:	20020d20 	.word	0x20020d20
10002638:	20020d0c 	.word	0x20020d0c
1000263c:	2000096c 	.word	0x2000096c
10002640:	20000974 	.word	0x20000974

10002644 <prvYieldForTask>:
10002644:	b538      	push	{r3, r4, r5, lr}
10002646:	f04f 4350 	mov.w	r3, #3489660928	@ 0xd0000000
1000264a:	681d      	ldr	r5, [r3, #0]
1000264c:	4b2d      	ldr	r3, [pc, #180]	@ (10002704 <prvYieldForTask+0xc0>)
1000264e:	f853 3025 	ldr.w	r3, [r3, r5, lsl #2]
10002652:	b163      	cbz	r3, 1000266e <prvYieldForTask+0x2a>
10002654:	6b83      	ldr	r3, [r0, #56]	@ 0x38
10002656:	2b00      	cmp	r3, #0
10002658:	db02      	blt.n	10002660 <prvYieldForTask+0x1c>
1000265a:	6b83      	ldr	r3, [r0, #56]	@ 0x38
1000265c:	2b01      	cmp	r3, #1
1000265e:	dd4f      	ble.n	10002700 <prvYieldForTask+0xbc>
10002660:	6b03      	ldr	r3, [r0, #48]	@ 0x30
10002662:	f103 3cff 	add.w	ip, r3, #4294967295
10002666:	2300      	movs	r3, #0
10002668:	f04f 34ff 	mov.w	r4, #4294967295
1000266c:	e007      	b.n	1000267e <prvYieldForTask+0x3a>
1000266e:	4b26      	ldr	r3, [pc, #152]	@ (10002708 <prvYieldForTask+0xc4>)
10002670:	4a26      	ldr	r2, [pc, #152]	@ (1000270c <prvYieldForTask+0xc8>)
10002672:	f240 3173 	movw	r1, #883	@ 0x373
10002676:	4826      	ldr	r0, [pc, #152]	@ (10002710 <prvYieldForTask+0xcc>)
10002678:	f004 fcde 	bl	10007038 <__assert_func>
1000267c:	3301      	adds	r3, #1
1000267e:	2b01      	cmp	r3, #1
10002680:	dc25      	bgt.n	100026ce <prvYieldForTask+0x8a>
10002682:	4a24      	ldr	r2, [pc, #144]	@ (10002714 <prvYieldForTask+0xd0>)
10002684:	f852 1023 	ldr.w	r1, [r2, r3, lsl #2]
10002688:	6b09      	ldr	r1, [r1, #48]	@ 0x30
1000268a:	f852 2023 	ldr.w	r2, [r2, r3, lsl #2]
1000268e:	6bd2      	ldr	r2, [r2, #60]	@ 0x3c
10002690:	f012 0f01 	tst.w	r2, #1
10002694:	d000      	beq.n	10002698 <prvYieldForTask+0x54>
10002696:	3901      	subs	r1, #1
10002698:	4a1e      	ldr	r2, [pc, #120]	@ (10002714 <prvYieldForTask+0xd0>)
1000269a:	f852 2023 	ldr.w	r2, [r2, r3, lsl #2]
1000269e:	6b92      	ldr	r2, [r2, #56]	@ 0x38
100026a0:	2a00      	cmp	r2, #0
100026a2:	dbeb      	blt.n	1000267c <prvYieldForTask+0x38>
100026a4:	4a1b      	ldr	r2, [pc, #108]	@ (10002714 <prvYieldForTask+0xd0>)
100026a6:	f852 2023 	ldr.w	r2, [r2, r3, lsl #2]
100026aa:	6b92      	ldr	r2, [r2, #56]	@ 0x38
100026ac:	2a01      	cmp	r2, #1
100026ae:	dce5      	bgt.n	1000267c <prvYieldForTask+0x38>
100026b0:	4a19      	ldr	r2, [pc, #100]	@ (10002718 <prvYieldForTask+0xd4>)
100026b2:	f852 2023 	ldr.w	r2, [r2, r3, lsl #2]
100026b6:	2a00      	cmp	r2, #0
100026b8:	d1e0      	bne.n	1000267c <prvYieldForTask+0x38>
100026ba:	458c      	cmp	ip, r1
100026bc:	dbde      	blt.n	1000267c <prvYieldForTask+0x38>
100026be:	6842      	ldr	r2, [r0, #4]
100026c0:	40da      	lsrs	r2, r3
100026c2:	f012 0f01 	tst.w	r2, #1
100026c6:	d0d9      	beq.n	1000267c <prvYieldForTask+0x38>
100026c8:	461c      	mov	r4, r3
100026ca:	468c      	mov	ip, r1
100026cc:	e7d6      	b.n	1000267c <prvYieldForTask+0x38>
100026ce:	2c00      	cmp	r4, #0
100026d0:	db16      	blt.n	10002700 <prvYieldForTask+0xbc>
100026d2:	42ac      	cmp	r4, r5
100026d4:	d010      	beq.n	100026f8 <prvYieldForTask+0xb4>
100026d6:	4b0f      	ldr	r3, [pc, #60]	@ (10002714 <prvYieldForTask+0xd0>)
100026d8:	f853 3024 	ldr.w	r3, [r3, r4, lsl #2]
100026dc:	6b9b      	ldr	r3, [r3, #56]	@ 0x38
100026de:	f113 0f02 	cmn.w	r3, #2
100026e2:	d00d      	beq.n	10002700 <prvYieldForTask+0xbc>
100026e4:	4620      	mov	r0, r4
100026e6:	f7fe fe55 	bl	10001394 <vYieldCore>
100026ea:	4b0a      	ldr	r3, [pc, #40]	@ (10002714 <prvYieldForTask+0xd0>)
100026ec:	f853 3024 	ldr.w	r3, [r3, r4, lsl #2]
100026f0:	f06f 0201 	mvn.w	r2, #1
100026f4:	639a      	str	r2, [r3, #56]	@ 0x38
100026f6:	e003      	b.n	10002700 <prvYieldForTask+0xbc>
100026f8:	4b07      	ldr	r3, [pc, #28]	@ (10002718 <prvYieldForTask+0xd4>)
100026fa:	2201      	movs	r2, #1
100026fc:	f843 2024 	str.w	r2, [r3, r4, lsl #2]
10002700:	bd38      	pop	{r3, r4, r5, pc}
10002702:	bf00      	nop
10002704:	20020c10 	.word	0x20020c10
10002708:	10008554 	.word	0x10008554
1000270c:	100095a4 	.word	0x100095a4
10002710:	100083ec 	.word	0x100083ec
10002714:	20000960 	.word	0x20000960
10002718:	20020d40 	.word	0x20020d40

1000271c <prvSelectHighestPriorityTask>:
1000271c:	e92d 41f0 	stmdb	sp!, {r4, r5, r6, r7, r8, lr}
10002720:	4b84      	ldr	r3, [pc, #528]	@ (10002934 <prvSelectHighestPriorityTask+0x218>)
10002722:	681d      	ldr	r5, [r3, #0]
10002724:	4b84      	ldr	r3, [pc, #528]	@ (10002938 <prvSelectHighestPriorityTask+0x21c>)
10002726:	f8d3 8000 	ldr.w	r8, [r3]
1000272a:	f1b8 0f01 	cmp.w	r8, #1
1000272e:	d113      	bne.n	10002758 <prvSelectHighestPriorityTask+0x3c>
10002730:	4604      	mov	r4, r0
10002732:	4b82      	ldr	r3, [pc, #520]	@ (1000293c <prvSelectHighestPriorityTask+0x220>)
10002734:	f853 2020 	ldr.w	r2, [r3, r0, lsl #2]
10002738:	6991      	ldr	r1, [r2, #24]
1000273a:	f853 3020 	ldr.w	r3, [r3, r0, lsl #2]
1000273e:	6b1b      	ldr	r3, [r3, #48]	@ 0x30
10002740:	eb03 0383 	add.w	r3, r3, r3, lsl #2
10002744:	4a7e      	ldr	r2, [pc, #504]	@ (10002940 <prvSelectHighestPriorityTask+0x224>)
10002746:	eb02 0383 	add.w	r3, r2, r3, lsl #2
1000274a:	4299      	cmp	r1, r3
1000274c:	d00b      	beq.n	10002766 <prvSelectHighestPriorityTask+0x4a>
1000274e:	4641      	mov	r1, r8
10002750:	f04f 0e00 	mov.w	lr, #0
10002754:	4676      	mov	r6, lr
10002756:	e064      	b.n	10002822 <prvSelectHighestPriorityTask+0x106>
10002758:	4b7a      	ldr	r3, [pc, #488]	@ (10002944 <prvSelectHighestPriorityTask+0x228>)
1000275a:	4a7b      	ldr	r2, [pc, #492]	@ (10002948 <prvSelectHighestPriorityTask+0x22c>)
1000275c:	f44f 717a 	mov.w	r1, #1000	@ 0x3e8
10002760:	487a      	ldr	r0, [pc, #488]	@ (1000294c <prvSelectHighestPriorityTask+0x230>)
10002762:	f004 fc69 	bl	10007038 <__assert_func>
10002766:	4f75      	ldr	r7, [pc, #468]	@ (1000293c <prvSelectHighestPriorityTask+0x220>)
10002768:	f857 0020 	ldr.w	r0, [r7, r0, lsl #2]
1000276c:	3008      	adds	r0, #8
1000276e:	f7fe ffff 	bl	10001770 <uxListRemove>
10002772:	f857 3024 	ldr.w	r3, [r7, r4, lsl #2]
10002776:	6b18      	ldr	r0, [r3, #48]	@ 0x30
10002778:	f857 1024 	ldr.w	r1, [r7, r4, lsl #2]
1000277c:	eb00 0080 	add.w	r0, r0, r0, lsl #2
10002780:	3108      	adds	r1, #8
10002782:	4b6f      	ldr	r3, [pc, #444]	@ (10002940 <prvSelectHighestPriorityTask+0x224>)
10002784:	eb03 0080 	add.w	r0, r3, r0, lsl #2
10002788:	f7fe ffce 	bl	10001728 <vListInsertEnd>
1000278c:	e7df      	b.n	1000274e <prvSelectHighestPriorityTask+0x32>
1000278e:	eb05 0085 	add.w	r0, r5, r5, lsl #2
10002792:	0080      	lsls	r0, r0, #2
10002794:	3008      	adds	r0, #8
10002796:	4613      	mov	r3, r2
10002798:	4410      	add	r0, r2
1000279a:	eb05 0285 	add.w	r2, r5, r5, lsl #2
1000279e:	eb03 0382 	add.w	r3, r3, r2, lsl #2
100027a2:	68db      	ldr	r3, [r3, #12]
100027a4:	4637      	mov	r7, r6
100027a6:	e007      	b.n	100027b8 <prvSelectHighestPriorityTask+0x9c>
100027a8:	6851      	ldr	r1, [r2, #4]
100027aa:	40e1      	lsrs	r1, r4
100027ac:	f011 0f01 	tst.w	r1, #1
100027b0:	d11e      	bne.n	100027f0 <prvSelectHighestPriorityTask+0xd4>
100027b2:	2f00      	cmp	r7, #0
100027b4:	d144      	bne.n	10002840 <prvSelectHighestPriorityTask+0x124>
100027b6:	685b      	ldr	r3, [r3, #4]
100027b8:	4283      	cmp	r3, r0
100027ba:	d02e      	beq.n	1000281a <prvSelectHighestPriorityTask+0xfe>
100027bc:	68da      	ldr	r2, [r3, #12]
100027be:	6b91      	ldr	r1, [r2, #56]	@ 0x38
100027c0:	f1b1 3fff 	cmp.w	r1, #4294967295
100027c4:	d0f0      	beq.n	100027a8 <prvSelectHighestPriorityTask+0x8c>
100027c6:	495d      	ldr	r1, [pc, #372]	@ (1000293c <prvSelectHighestPriorityTask+0x220>)
100027c8:	f851 1024 	ldr.w	r1, [r1, r4, lsl #2]
100027cc:	4291      	cmp	r1, r2
100027ce:	d1f0      	bne.n	100027b2 <prvSelectHighestPriorityTask+0x96>
100027d0:	6b91      	ldr	r1, [r2, #56]	@ 0x38
100027d2:	42a1      	cmp	r1, r4
100027d4:	d003      	beq.n	100027de <prvSelectHighestPriorityTask+0xc2>
100027d6:	6b91      	ldr	r1, [r2, #56]	@ 0x38
100027d8:	f111 0f02 	cmn.w	r1, #2
100027dc:	d116      	bne.n	1000280c <prvSelectHighestPriorityTask+0xf0>
100027de:	6851      	ldr	r1, [r2, #4]
100027e0:	40e1      	lsrs	r1, r4
100027e2:	f011 0f01 	tst.w	r1, #1
100027e6:	d0e4      	beq.n	100027b2 <prvSelectHighestPriorityTask+0x96>
100027e8:	6394      	str	r4, [r2, #56]	@ 0x38
100027ea:	4631      	mov	r1, r6
100027ec:	4646      	mov	r6, r8
100027ee:	e016      	b.n	1000281e <prvSelectHighestPriorityTask+0x102>
100027f0:	4b52      	ldr	r3, [pc, #328]	@ (1000293c <prvSelectHighestPriorityTask+0x220>)
100027f2:	f853 1024 	ldr.w	r1, [r3, r4, lsl #2]
100027f6:	f04f 30ff 	mov.w	r0, #4294967295
100027fa:	6388      	str	r0, [r1, #56]	@ 0x38
100027fc:	f853 e024 	ldr.w	lr, [r3, r4, lsl #2]
10002800:	6394      	str	r4, [r2, #56]	@ 0x38
10002802:	f843 2024 	str.w	r2, [r3, r4, lsl #2]
10002806:	4631      	mov	r1, r6
10002808:	4646      	mov	r6, r8
1000280a:	e008      	b.n	1000281e <prvSelectHighestPriorityTask+0x102>
1000280c:	4b50      	ldr	r3, [pc, #320]	@ (10002950 <prvSelectHighestPriorityTask+0x234>)
1000280e:	4a4e      	ldr	r2, [pc, #312]	@ (10002948 <prvSelectHighestPriorityTask+0x22c>)
10002810:	f240 413c 	movw	r1, #1084	@ 0x43c
10002814:	484d      	ldr	r0, [pc, #308]	@ (1000294c <prvSelectHighestPriorityTask+0x230>)
10002816:	f004 fc0f 	bl	10007038 <__assert_func>
1000281a:	4631      	mov	r1, r6
1000281c:	463e      	mov	r6, r7
1000281e:	b195      	cbz	r5, 10002846 <prvSelectHighestPriorityTask+0x12a>
10002820:	3d01      	subs	r5, #1
10002822:	b986      	cbnz	r6, 10002846 <prvSelectHighestPriorityTask+0x12a>
10002824:	eb05 0385 	add.w	r3, r5, r5, lsl #2
10002828:	4a45      	ldr	r2, [pc, #276]	@ (10002940 <prvSelectHighestPriorityTask+0x224>)
1000282a:	f852 3023 	ldr.w	r3, [r2, r3, lsl #2]
1000282e:	2b00      	cmp	r3, #0
10002830:	d1ad      	bne.n	1000278e <prvSelectHighestPriorityTask+0x72>
10002832:	2900      	cmp	r1, #0
10002834:	d0f3      	beq.n	1000281e <prvSelectHighestPriorityTask+0x102>
10002836:	4a3f      	ldr	r2, [pc, #252]	@ (10002934 <prvSelectHighestPriorityTask+0x218>)
10002838:	6813      	ldr	r3, [r2, #0]
1000283a:	3b01      	subs	r3, #1
1000283c:	6013      	str	r3, [r2, #0]
1000283e:	e7ee      	b.n	1000281e <prvSelectHighestPriorityTask+0x102>
10002840:	4631      	mov	r1, r6
10002842:	463e      	mov	r6, r7
10002844:	e7eb      	b.n	1000281e <prvSelectHighestPriorityTask+0x102>
10002846:	2e01      	cmp	r6, #1
10002848:	d001      	beq.n	1000284e <prvSelectHighestPriorityTask+0x132>
1000284a:	e8bd 81f0 	ldmia.w	sp!, {r4, r5, r6, r7, r8, pc}
1000284e:	f1be 0f00 	cmp.w	lr, #0
10002852:	d0fa      	beq.n	1000284a <prvSelectHighestPriorityTask+0x12e>
10002854:	f8de 1018 	ldr.w	r1, [lr, #24]
10002858:	f8de 2030 	ldr.w	r2, [lr, #48]	@ 0x30
1000285c:	eb02 0082 	add.w	r0, r2, r2, lsl #2
10002860:	4b37      	ldr	r3, [pc, #220]	@ (10002940 <prvSelectHighestPriorityTask+0x224>)
10002862:	eb03 0380 	add.w	r3, r3, r0, lsl #2
10002866:	4299      	cmp	r1, r3
10002868:	d1ef      	bne.n	1000284a <prvSelectHighestPriorityTask+0x12e>
1000286a:	f8de 3004 	ldr.w	r3, [lr, #4]
1000286e:	4610      	mov	r0, r2
10002870:	f8de 103c 	ldr.w	r1, [lr, #60]	@ 0x3c
10002874:	f011 0f01 	tst.w	r1, #1
10002878:	d000      	beq.n	1000287c <prvSelectHighestPriorityTask+0x160>
1000287a:	1e50      	subs	r0, r2, #1
1000287c:	fa23 f204 	lsr.w	r2, r3, r4
10002880:	f012 0f01 	tst.w	r2, #1
10002884:	d005      	beq.n	10002892 <prvSelectHighestPriorityTask+0x176>
10002886:	4a2d      	ldr	r2, [pc, #180]	@ (1000293c <prvSelectHighestPriorityTask+0x220>)
10002888:	f852 2024 	ldr.w	r2, [r2, r4, lsl #2]
1000288c:	6852      	ldr	r2, [r2, #4]
1000288e:	ea23 0302 	bic.w	r3, r3, r2
10002892:	f003 0303 	and.w	r3, r3, #3
10002896:	f04f 34ff 	mov.w	r4, #4294967295
1000289a:	e000      	b.n	1000289e <prvSelectHighestPriorityTask+0x182>
1000289c:	3e01      	subs	r6, #1
1000289e:	2e00      	cmp	r6, #0
100028a0:	db2a      	blt.n	100028f8 <prvSelectHighestPriorityTask+0x1dc>
100028a2:	4632      	mov	r2, r6
100028a4:	fa23 f106 	lsr.w	r1, r3, r6
100028a8:	f011 0f01 	tst.w	r1, #1
100028ac:	d0f6      	beq.n	1000289c <prvSelectHighestPriorityTask+0x180>
100028ae:	4d23      	ldr	r5, [pc, #140]	@ (1000293c <prvSelectHighestPriorityTask+0x220>)
100028b0:	f855 1026 	ldr.w	r1, [r5, r6, lsl #2]
100028b4:	6b09      	ldr	r1, [r1, #48]	@ 0x30
100028b6:	f855 5026 	ldr.w	r5, [r5, r6, lsl #2]
100028ba:	6bed      	ldr	r5, [r5, #60]	@ 0x3c
100028bc:	f015 0f01 	tst.w	r5, #1
100028c0:	d000      	beq.n	100028c4 <prvSelectHighestPriorityTask+0x1a8>
100028c2:	3901      	subs	r1, #1
100028c4:	2501      	movs	r5, #1
100028c6:	4095      	lsls	r5, r2
100028c8:	ea23 0305 	bic.w	r3, r3, r5
100028cc:	4288      	cmp	r0, r1
100028ce:	dde5      	ble.n	1000289c <prvSelectHighestPriorityTask+0x180>
100028d0:	4d1a      	ldr	r5, [pc, #104]	@ (1000293c <prvSelectHighestPriorityTask+0x220>)
100028d2:	f855 5022 	ldr.w	r5, [r5, r2, lsl #2]
100028d6:	6bad      	ldr	r5, [r5, #56]	@ 0x38
100028d8:	2d00      	cmp	r5, #0
100028da:	dbdf      	blt.n	1000289c <prvSelectHighestPriorityTask+0x180>
100028dc:	4d17      	ldr	r5, [pc, #92]	@ (1000293c <prvSelectHighestPriorityTask+0x220>)
100028de:	f855 5022 	ldr.w	r5, [r5, r2, lsl #2]
100028e2:	6bad      	ldr	r5, [r5, #56]	@ 0x38
100028e4:	2d01      	cmp	r5, #1
100028e6:	dcd9      	bgt.n	1000289c <prvSelectHighestPriorityTask+0x180>
100028e8:	4d1a      	ldr	r5, [pc, #104]	@ (10002954 <prvSelectHighestPriorityTask+0x238>)
100028ea:	f855 2022 	ldr.w	r2, [r5, r2, lsl #2]
100028ee:	2a00      	cmp	r2, #0
100028f0:	d1d4      	bne.n	1000289c <prvSelectHighestPriorityTask+0x180>
100028f2:	4634      	mov	r4, r6
100028f4:	4608      	mov	r0, r1
100028f6:	e7d1      	b.n	1000289c <prvSelectHighestPriorityTask+0x180>
100028f8:	2c00      	cmp	r4, #0
100028fa:	dba6      	blt.n	1000284a <prvSelectHighestPriorityTask+0x12e>
100028fc:	f04f 4350 	mov.w	r3, #3489660928	@ 0xd0000000
10002900:	681b      	ldr	r3, [r3, #0]
10002902:	429c      	cmp	r4, r3
10002904:	d010      	beq.n	10002928 <prvSelectHighestPriorityTask+0x20c>
10002906:	4b0d      	ldr	r3, [pc, #52]	@ (1000293c <prvSelectHighestPriorityTask+0x220>)
10002908:	f853 3024 	ldr.w	r3, [r3, r4, lsl #2]
1000290c:	6b9b      	ldr	r3, [r3, #56]	@ 0x38
1000290e:	f113 0f02 	cmn.w	r3, #2
10002912:	d09a      	beq.n	1000284a <prvSelectHighestPriorityTask+0x12e>
10002914:	4620      	mov	r0, r4
10002916:	f7fe fd3d 	bl	10001394 <vYieldCore>
1000291a:	4b08      	ldr	r3, [pc, #32]	@ (1000293c <prvSelectHighestPriorityTask+0x220>)
1000291c:	f853 3024 	ldr.w	r3, [r3, r4, lsl #2]
10002920:	f06f 0201 	mvn.w	r2, #1
10002924:	639a      	str	r2, [r3, #56]	@ 0x38
10002926:	e790      	b.n	1000284a <prvSelectHighestPriorityTask+0x12e>
10002928:	4b0a      	ldr	r3, [pc, #40]	@ (10002954 <prvSelectHighestPriorityTask+0x238>)
1000292a:	2201      	movs	r2, #1
1000292c:	f843 2024 	str.w	r2, [r3, r4, lsl #2]
10002930:	e78b      	b.n	1000284a <prvSelectHighestPriorityTask+0x12e>
10002932:	bf00      	nop
10002934:	20020c2c 	.word	0x20020c2c
10002938:	20020d00 	.word	0x20020d00
1000293c:	20000960 	.word	0x20000960
10002940:	2000097c 	.word	0x2000097c
10002944:	10008584 	.word	0x10008584
10002948:	100094e0 	.word	0x100094e0
1000294c:	100083ec 	.word	0x100083ec
10002950:	100085b0 	.word	0x100085b0
10002954:	20020d40 	.word	0x20020d40

10002958 <prvCheckForRunStateChange>:
10002958:	b570      	push	{r4, r5, r6, lr}
1000295a:	f04f 4350 	mov.w	r3, #3489660928	@ 0xd0000000
1000295e:	681a      	ldr	r2, [r3, #0]
10002960:	4b22      	ldr	r3, [pc, #136]	@ (100029ec <prvCheckForRunStateChange+0x94>)
10002962:	f853 6022 	ldr.w	r6, [r3, r2, lsl #2]
10002966:	e01f      	b.n	100029a8 <prvCheckForRunStateChange+0x50>
10002968:	2200      	movs	r2, #0
1000296a:	4921      	ldr	r1, [pc, #132]	@ (100029f0 <prvCheckForRunStateChange+0x98>)
1000296c:	2001      	movs	r0, #1
1000296e:	f7ff fd13 	bl	10002398 <vPortRecursiveLock>
10002972:	6bb3      	ldr	r3, [r6, #56]	@ 0x38
10002974:	f113 0f02 	cmn.w	r3, #2
10002978:	d12a      	bne.n	100029d0 <prvCheckForRunStateChange+0x78>
1000297a:	2000      	movs	r0, #0
1000297c:	f7fe fd67 	bl	1000144e <vClearInterruptMask>
10002980:	f7fe fd5a 	bl	10001438 <ulSetInterruptMask>
10002984:	4d1a      	ldr	r5, [pc, #104]	@ (100029f0 <prvCheckForRunStateChange+0x98>)
10002986:	2201      	movs	r2, #1
10002988:	4629      	mov	r1, r5
1000298a:	4610      	mov	r0, r2
1000298c:	f7ff fd04 	bl	10002398 <vPortRecursiveLock>
10002990:	2201      	movs	r2, #1
10002992:	1e69      	subs	r1, r5, #1
10002994:	2000      	movs	r0, #0
10002996:	f7ff fcff 	bl	10002398 <vPortRecursiveLock>
1000299a:	f04f 4350 	mov.w	r3, #3489660928	@ 0xd0000000
1000299e:	681a      	ldr	r2, [r3, #0]
100029a0:	4b14      	ldr	r3, [pc, #80]	@ (100029f4 <prvCheckForRunStateChange+0x9c>)
100029a2:	f843 4022 	str.w	r4, [r3, r2, lsl #2]
100029a6:	b1d4      	cbz	r4, 100029de <prvCheckForRunStateChange+0x86>
100029a8:	6bb3      	ldr	r3, [r6, #56]	@ 0x38
100029aa:	f113 0f02 	cmn.w	r3, #2
100029ae:	d11c      	bne.n	100029ea <prvCheckForRunStateChange+0x92>
100029b0:	f04f 4350 	mov.w	r3, #3489660928	@ 0xd0000000
100029b4:	681b      	ldr	r3, [r3, #0]
100029b6:	4a0f      	ldr	r2, [pc, #60]	@ (100029f4 <prvCheckForRunStateChange+0x9c>)
100029b8:	f852 4023 	ldr.w	r4, [r2, r3, lsl #2]
100029bc:	2c00      	cmp	r4, #0
100029be:	d0d3      	beq.n	10002968 <prvCheckForRunStateChange+0x10>
100029c0:	2000      	movs	r0, #0
100029c2:	f842 0023 	str.w	r0, [r2, r3, lsl #2]
100029c6:	4602      	mov	r2, r0
100029c8:	490b      	ldr	r1, [pc, #44]	@ (100029f8 <prvCheckForRunStateChange+0xa0>)
100029ca:	f7ff fce5 	bl	10002398 <vPortRecursiveLock>
100029ce:	e7cb      	b.n	10002968 <prvCheckForRunStateChange+0x10>
100029d0:	4b0a      	ldr	r3, [pc, #40]	@ (100029fc <prvCheckForRunStateChange+0xa4>)
100029d2:	4a0b      	ldr	r2, [pc, #44]	@ (10002a00 <prvCheckForRunStateChange+0xa8>)
100029d4:	f44f 7153 	mov.w	r1, #844	@ 0x34c
100029d8:	480a      	ldr	r0, [pc, #40]	@ (10002a04 <prvCheckForRunStateChange+0xac>)
100029da:	f004 fb2d 	bl	10007038 <__assert_func>
100029de:	2200      	movs	r2, #0
100029e0:	1e69      	subs	r1, r5, #1
100029e2:	4610      	mov	r0, r2
100029e4:	f7ff fcd8 	bl	10002398 <vPortRecursiveLock>
100029e8:	e7de      	b.n	100029a8 <prvCheckForRunStateChange+0x50>
100029ea:	bd70      	pop	{r4, r5, r6, pc}
100029ec:	20000960 	.word	0x20000960
100029f0:	200008cf 	.word	0x200008cf
100029f4:	20020c10 	.word	0x20020c10
100029f8:	200008ce 	.word	0x200008ce
100029fc:	10008610 	.word	0x10008610
10002a00:	1000954c 	.word	0x1000954c
10002a04:	100083ec 	.word	0x100083ec

10002a08 <vTaskSuspendAll>:
10002a08:	b538      	push	{r3, r4, r5, lr}
10002a0a:	4b19      	ldr	r3, [pc, #100]	@ (10002a70 <vTaskSuspendAll+0x68>)
10002a0c:	681b      	ldr	r3, [r3, #0]
10002a0e:	b903      	cbnz	r3, 10002a12 <vTaskSuspendAll+0xa>
10002a10:	bd38      	pop	{r3, r4, r5, pc}
10002a12:	f7fe fd11 	bl	10001438 <ulSetInterruptMask>
10002a16:	4604      	mov	r4, r0
10002a18:	f04f 4350 	mov.w	r3, #3489660928	@ 0xd0000000
10002a1c:	681a      	ldr	r2, [r3, #0]
10002a1e:	4b15      	ldr	r3, [pc, #84]	@ (10002a74 <vTaskSuspendAll+0x6c>)
10002a20:	f853 3022 	ldr.w	r3, [r3, r2, lsl #2]
10002a24:	b9d3      	cbnz	r3, 10002a5c <vTaskSuspendAll+0x54>
10002a26:	2201      	movs	r2, #1
10002a28:	4913      	ldr	r1, [pc, #76]	@ (10002a78 <vTaskSuspendAll+0x70>)
10002a2a:	4610      	mov	r0, r2
10002a2c:	f7ff fcb4 	bl	10002398 <vPortRecursiveLock>
10002a30:	4b12      	ldr	r3, [pc, #72]	@ (10002a7c <vTaskSuspendAll+0x74>)
10002a32:	681b      	ldr	r3, [r3, #0]
10002a34:	b1cb      	cbz	r3, 10002a6a <vTaskSuspendAll+0x62>
10002a36:	4d12      	ldr	r5, [pc, #72]	@ (10002a80 <vTaskSuspendAll+0x78>)
10002a38:	2201      	movs	r2, #1
10002a3a:	4629      	mov	r1, r5
10002a3c:	2000      	movs	r0, #0
10002a3e:	f7ff fcab 	bl	10002398 <vPortRecursiveLock>
10002a42:	4a0e      	ldr	r2, [pc, #56]	@ (10002a7c <vTaskSuspendAll+0x74>)
10002a44:	6813      	ldr	r3, [r2, #0]
10002a46:	3301      	adds	r3, #1
10002a48:	6013      	str	r3, [r2, #0]
10002a4a:	2200      	movs	r2, #0
10002a4c:	4629      	mov	r1, r5
10002a4e:	4610      	mov	r0, r2
10002a50:	f7ff fca2 	bl	10002398 <vPortRecursiveLock>
10002a54:	4620      	mov	r0, r4
10002a56:	f7fe fcfa 	bl	1000144e <vClearInterruptMask>
10002a5a:	e7d9      	b.n	10002a10 <vTaskSuspendAll+0x8>
10002a5c:	4b09      	ldr	r3, [pc, #36]	@ (10002a84 <vTaskSuspendAll+0x7c>)
10002a5e:	4a0a      	ldr	r2, [pc, #40]	@ (10002a88 <vTaskSuspendAll+0x80>)
10002a60:	f640 710f 	movw	r1, #3855	@ 0xf0f
10002a64:	4809      	ldr	r0, [pc, #36]	@ (10002a8c <vTaskSuspendAll+0x84>)
10002a66:	f004 fae7 	bl	10007038 <__assert_func>
10002a6a:	f7ff ff75 	bl	10002958 <prvCheckForRunStateChange>
10002a6e:	e7e2      	b.n	10002a36 <vTaskSuspendAll+0x2e>
10002a70:	20020d00 	.word	0x20020d00
10002a74:	20020c10 	.word	0x20020c10
10002a78:	200008cf 	.word	0x200008cf
10002a7c:	20020c24 	.word	0x20020c24
10002a80:	200008ce 	.word	0x200008ce
10002a84:	10008648 	.word	0x10008648
10002a88:	10009568 	.word	0x10009568
10002a8c:	100083ec 	.word	0x100083ec

10002a90 <xTaskGetTickCount>:
10002a90:	4b01      	ldr	r3, [pc, #4]	@ (10002a98 <xTaskGetTickCount+0x8>)
10002a92:	6818      	ldr	r0, [r3, #0]
10002a94:	4770      	bx	lr
10002a96:	bf00      	nop
10002a98:	20020d34 	.word	0x20020d34

10002a9c <uxTaskGetNumberOfTasks>:
10002a9c:	4b01      	ldr	r3, [pc, #4]	@ (10002aa4 <uxTaskGetNumberOfTasks+0x8>)
10002a9e:	6818      	ldr	r0, [r3, #0]
10002aa0:	4770      	bx	lr
10002aa2:	bf00      	nop
10002aa4:	20020c1c 	.word	0x20020c1c

10002aa8 <xTaskIncrementTick>:
10002aa8:	b570      	push	{r4, r5, r6, lr}
10002aaa:	b082      	sub	sp, #8
10002aac:	2300      	movs	r3, #0
10002aae:	9300      	str	r3, [sp, #0]
10002ab0:	9301      	str	r3, [sp, #4]
10002ab2:	4b69      	ldr	r3, [pc, #420]	@ (10002c58 <xTaskIncrementTick+0x1b0>)
10002ab4:	681b      	ldr	r3, [r3, #0]
10002ab6:	2b00      	cmp	r3, #0
10002ab8:	f040 80c5 	bne.w	10002c46 <xTaskIncrementTick+0x19e>
10002abc:	4b67      	ldr	r3, [pc, #412]	@ (10002c5c <xTaskIncrementTick+0x1b4>)
10002abe:	681c      	ldr	r4, [r3, #0]
10002ac0:	3401      	adds	r4, #1
10002ac2:	601c      	str	r4, [r3, #0]
10002ac4:	b97c      	cbnz	r4, 10002ae6 <xTaskIncrementTick+0x3e>
10002ac6:	4b66      	ldr	r3, [pc, #408]	@ (10002c60 <xTaskIncrementTick+0x1b8>)
10002ac8:	681b      	ldr	r3, [r3, #0]
10002aca:	681b      	ldr	r3, [r3, #0]
10002acc:	b98b      	cbnz	r3, 10002af2 <xTaskIncrementTick+0x4a>
10002ace:	4a64      	ldr	r2, [pc, #400]	@ (10002c60 <xTaskIncrementTick+0x1b8>)
10002ad0:	6811      	ldr	r1, [r2, #0]
10002ad2:	4b64      	ldr	r3, [pc, #400]	@ (10002c64 <xTaskIncrementTick+0x1bc>)
10002ad4:	6818      	ldr	r0, [r3, #0]
10002ad6:	6010      	str	r0, [r2, #0]
10002ad8:	6019      	str	r1, [r3, #0]
10002ada:	4a63      	ldr	r2, [pc, #396]	@ (10002c68 <xTaskIncrementTick+0x1c0>)
10002adc:	6813      	ldr	r3, [r2, #0]
10002ade:	3301      	adds	r3, #1
10002ae0:	6013      	str	r3, [r2, #0]
10002ae2:	f7ff fc3b 	bl	1000235c <prvResetNextTaskUnblockTime>
10002ae6:	4b61      	ldr	r3, [pc, #388]	@ (10002c6c <xTaskIncrementTick+0x1c4>)
10002ae8:	681b      	ldr	r3, [r3, #0]
10002aea:	42a3      	cmp	r3, r4
10002aec:	d938      	bls.n	10002b60 <xTaskIncrementTick+0xb8>
10002aee:	2200      	movs	r2, #0
10002af0:	e063      	b.n	10002bba <xTaskIncrementTick+0x112>
10002af2:	4b5f      	ldr	r3, [pc, #380]	@ (10002c70 <xTaskIncrementTick+0x1c8>)
10002af4:	4a5f      	ldr	r2, [pc, #380]	@ (10002c74 <xTaskIncrementTick+0x1cc>)
10002af6:	f241 2163 	movw	r1, #4707	@ 0x1263
10002afa:	485f      	ldr	r0, [pc, #380]	@ (10002c78 <xTaskIncrementTick+0x1d0>)
10002afc:	f004 fa9c 	bl	10007038 <__assert_func>
10002b00:	4b5a      	ldr	r3, [pc, #360]	@ (10002c6c <xTaskIncrementTick+0x1c4>)
10002b02:	f04f 32ff 	mov.w	r2, #4294967295
10002b06:	601a      	str	r2, [r3, #0]
10002b08:	e7f1      	b.n	10002aee <xTaskIncrementTick+0x46>
10002b0a:	4a58      	ldr	r2, [pc, #352]	@ (10002c6c <xTaskIncrementTick+0x1c4>)
10002b0c:	6013      	str	r3, [r2, #0]
10002b0e:	e7ee      	b.n	10002aee <xTaskIncrementTick+0x46>
10002b10:	6902      	ldr	r2, [r0, #16]
10002b12:	605a      	str	r2, [r3, #4]
10002b14:	e03b      	b.n	10002b8e <xTaskIncrementTick+0xe6>
10002b16:	2200      	movs	r2, #0
10002b18:	62c2      	str	r2, [r0, #44]	@ 0x2c
10002b1a:	681a      	ldr	r2, [r3, #0]
10002b1c:	3a01      	subs	r2, #1
10002b1e:	601a      	str	r2, [r3, #0]
10002b20:	6b03      	ldr	r3, [r0, #48]	@ 0x30
10002b22:	4a56      	ldr	r2, [pc, #344]	@ (10002c7c <xTaskIncrementTick+0x1d4>)
10002b24:	6812      	ldr	r2, [r2, #0]
10002b26:	4293      	cmp	r3, r2
10002b28:	d901      	bls.n	10002b2e <xTaskIncrementTick+0x86>
10002b2a:	4a54      	ldr	r2, [pc, #336]	@ (10002c7c <xTaskIncrementTick+0x1d4>)
10002b2c:	6013      	str	r3, [r2, #0]
10002b2e:	4a54      	ldr	r2, [pc, #336]	@ (10002c80 <xTaskIncrementTick+0x1d8>)
10002b30:	eb03 0383 	add.w	r3, r3, r3, lsl #2
10002b34:	0099      	lsls	r1, r3, #2
10002b36:	4411      	add	r1, r2
10002b38:	684b      	ldr	r3, [r1, #4]
10002b3a:	60c3      	str	r3, [r0, #12]
10002b3c:	6899      	ldr	r1, [r3, #8]
10002b3e:	6101      	str	r1, [r0, #16]
10002b40:	604d      	str	r5, [r1, #4]
10002b42:	609d      	str	r5, [r3, #8]
10002b44:	6b03      	ldr	r3, [r0, #48]	@ 0x30
10002b46:	eb03 0583 	add.w	r5, r3, r3, lsl #2
10002b4a:	00a9      	lsls	r1, r5, #2
10002b4c:	188d      	adds	r5, r1, r2
10002b4e:	6185      	str	r5, [r0, #24]
10002b50:	5851      	ldr	r1, [r2, r1]
10002b52:	3101      	adds	r1, #1
10002b54:	eb03 0383 	add.w	r3, r3, r3, lsl #2
10002b58:	009d      	lsls	r5, r3, #2
10002b5a:	5151      	str	r1, [r2, r5]
10002b5c:	f7ff fd72 	bl	10002644 <prvYieldForTask>
10002b60:	4b3f      	ldr	r3, [pc, #252]	@ (10002c60 <xTaskIncrementTick+0x1b8>)
10002b62:	681b      	ldr	r3, [r3, #0]
10002b64:	681b      	ldr	r3, [r3, #0]
10002b66:	2b00      	cmp	r3, #0
10002b68:	d0ca      	beq.n	10002b00 <xTaskIncrementTick+0x58>
10002b6a:	4b3d      	ldr	r3, [pc, #244]	@ (10002c60 <xTaskIncrementTick+0x1b8>)
10002b6c:	681b      	ldr	r3, [r3, #0]
10002b6e:	68db      	ldr	r3, [r3, #12]
10002b70:	68d8      	ldr	r0, [r3, #12]
10002b72:	6883      	ldr	r3, [r0, #8]
10002b74:	429c      	cmp	r4, r3
10002b76:	d3c8      	bcc.n	10002b0a <xTaskIncrementTick+0x62>
10002b78:	6983      	ldr	r3, [r0, #24]
10002b7a:	68c1      	ldr	r1, [r0, #12]
10002b7c:	6902      	ldr	r2, [r0, #16]
10002b7e:	608a      	str	r2, [r1, #8]
10002b80:	68c1      	ldr	r1, [r0, #12]
10002b82:	6051      	str	r1, [r2, #4]
10002b84:	685a      	ldr	r2, [r3, #4]
10002b86:	f100 0508 	add.w	r5, r0, #8
10002b8a:	42aa      	cmp	r2, r5
10002b8c:	d0c0      	beq.n	10002b10 <xTaskIncrementTick+0x68>
10002b8e:	2200      	movs	r2, #0
10002b90:	6182      	str	r2, [r0, #24]
10002b92:	681a      	ldr	r2, [r3, #0]
10002b94:	3a01      	subs	r2, #1
10002b96:	601a      	str	r2, [r3, #0]
10002b98:	6ac3      	ldr	r3, [r0, #44]	@ 0x2c
10002b9a:	2b00      	cmp	r3, #0
10002b9c:	d0c0      	beq.n	10002b20 <xTaskIncrementTick+0x78>
10002b9e:	6a01      	ldr	r1, [r0, #32]
10002ba0:	6a42      	ldr	r2, [r0, #36]	@ 0x24
10002ba2:	608a      	str	r2, [r1, #8]
10002ba4:	6a01      	ldr	r1, [r0, #32]
10002ba6:	6051      	str	r1, [r2, #4]
10002ba8:	6859      	ldr	r1, [r3, #4]
10002baa:	f100 021c 	add.w	r2, r0, #28
10002bae:	4291      	cmp	r1, r2
10002bb0:	d1b1      	bne.n	10002b16 <xTaskIncrementTick+0x6e>
10002bb2:	6a42      	ldr	r2, [r0, #36]	@ 0x24
10002bb4:	605a      	str	r2, [r3, #4]
10002bb6:	e7ae      	b.n	10002b16 <xTaskIncrementTick+0x6e>
10002bb8:	3201      	adds	r2, #1
10002bba:	2a01      	cmp	r2, #1
10002bbc:	dc11      	bgt.n	10002be2 <xTaskIncrementTick+0x13a>
10002bbe:	4b31      	ldr	r3, [pc, #196]	@ (10002c84 <xTaskIncrementTick+0x1dc>)
10002bc0:	f853 3022 	ldr.w	r3, [r3, r2, lsl #2]
10002bc4:	6b1b      	ldr	r3, [r3, #48]	@ 0x30
10002bc6:	eb03 0383 	add.w	r3, r3, r3, lsl #2
10002bca:	0099      	lsls	r1, r3, #2
10002bcc:	4b2c      	ldr	r3, [pc, #176]	@ (10002c80 <xTaskIncrementTick+0x1d8>)
10002bce:	585b      	ldr	r3, [r3, r1]
10002bd0:	2b01      	cmp	r3, #1
10002bd2:	d9f1      	bls.n	10002bb8 <xTaskIncrementTick+0x110>
10002bd4:	2101      	movs	r1, #1
10002bd6:	ab02      	add	r3, sp, #8
10002bd8:	eb03 0382 	add.w	r3, r3, r2, lsl #2
10002bdc:	f843 1c08 	str.w	r1, [r3, #-8]
10002be0:	e7ea      	b.n	10002bb8 <xTaskIncrementTick+0x110>
10002be2:	f04f 4350 	mov.w	r3, #3489660928	@ 0xd0000000
10002be6:	681e      	ldr	r6, [r3, #0]
10002be8:	2400      	movs	r4, #0
10002bea:	4625      	mov	r5, r4
10002bec:	e004      	b.n	10002bf8 <xTaskIncrementTick+0x150>
10002bee:	4b26      	ldr	r3, [pc, #152]	@ (10002c88 <xTaskIncrementTick+0x1e0>)
10002bf0:	2201      	movs	r2, #1
10002bf2:	f843 2024 	str.w	r2, [r3, r4, lsl #2]
10002bf6:	3401      	adds	r4, #1
10002bf8:	2c01      	cmp	r4, #1
10002bfa:	dc29      	bgt.n	10002c50 <xTaskIncrementTick+0x1a8>
10002bfc:	ab02      	add	r3, sp, #8
10002bfe:	eb03 0384 	add.w	r3, r3, r4, lsl #2
10002c02:	f853 3c08 	ldr.w	r3, [r3, #-8]
10002c06:	b923      	cbnz	r3, 10002c12 <xTaskIncrementTick+0x16a>
10002c08:	4b1f      	ldr	r3, [pc, #124]	@ (10002c88 <xTaskIncrementTick+0x1e0>)
10002c0a:	f853 3024 	ldr.w	r3, [r3, r4, lsl #2]
10002c0e:	2b00      	cmp	r3, #0
10002c10:	d0f1      	beq.n	10002bf6 <xTaskIncrementTick+0x14e>
10002c12:	42b4      	cmp	r4, r6
10002c14:	d015      	beq.n	10002c42 <xTaskIncrementTick+0x19a>
10002c16:	f04f 4350 	mov.w	r3, #3489660928	@ 0xd0000000
10002c1a:	681b      	ldr	r3, [r3, #0]
10002c1c:	429c      	cmp	r4, r3
10002c1e:	d0e6      	beq.n	10002bee <xTaskIncrementTick+0x146>
10002c20:	4b18      	ldr	r3, [pc, #96]	@ (10002c84 <xTaskIncrementTick+0x1dc>)
10002c22:	f853 3024 	ldr.w	r3, [r3, r4, lsl #2]
10002c26:	6b9b      	ldr	r3, [r3, #56]	@ 0x38
10002c28:	f113 0f02 	cmn.w	r3, #2
10002c2c:	d0e3      	beq.n	10002bf6 <xTaskIncrementTick+0x14e>
10002c2e:	4620      	mov	r0, r4
10002c30:	f7fe fbb0 	bl	10001394 <vYieldCore>
10002c34:	4b13      	ldr	r3, [pc, #76]	@ (10002c84 <xTaskIncrementTick+0x1dc>)
10002c36:	f853 3024 	ldr.w	r3, [r3, r4, lsl #2]
10002c3a:	f06f 0201 	mvn.w	r2, #1
10002c3e:	639a      	str	r2, [r3, #56]	@ 0x38
10002c40:	e7d9      	b.n	10002bf6 <xTaskIncrementTick+0x14e>
10002c42:	2501      	movs	r5, #1
10002c44:	e7d7      	b.n	10002bf6 <xTaskIncrementTick+0x14e>
10002c46:	4a11      	ldr	r2, [pc, #68]	@ (10002c8c <xTaskIncrementTick+0x1e4>)
10002c48:	6813      	ldr	r3, [r2, #0]
10002c4a:	3301      	adds	r3, #1
10002c4c:	6013      	str	r3, [r2, #0]
10002c4e:	2500      	movs	r5, #0
10002c50:	4628      	mov	r0, r5
10002c52:	b002      	add	sp, #8
10002c54:	bd70      	pop	{r4, r5, r6, pc}
10002c56:	bf00      	nop
10002c58:	20020c24 	.word	0x20020c24
10002c5c:	20020d34 	.word	0x20020d34
10002c60:	2000096c 	.word	0x2000096c
10002c64:	20000974 	.word	0x20000974
10002c68:	20020c9c 	.word	0x20020c9c
10002c6c:	20020c98 	.word	0x20020c98
10002c70:	10008678 	.word	0x10008678
10002c74:	10009514 	.word	0x10009514
10002c78:	100083ec 	.word	0x100083ec
10002c7c:	20020c2c 	.word	0x20020c2c
10002c80:	2000097c 	.word	0x2000097c
10002c84:	20000960 	.word	0x20000960
10002c88:	20020d40 	.word	0x20020d40
10002c8c:	20020ca8 	.word	0x20020ca8

10002c90 <vTaskSwitchContext>:
10002c90:	b538      	push	{r3, r4, r5, lr}
10002c92:	4604      	mov	r4, r0
10002c94:	4d1c      	ldr	r5, [pc, #112]	@ (10002d08 <vTaskSwitchContext+0x78>)
10002c96:	2201      	movs	r2, #1
10002c98:	4629      	mov	r1, r5
10002c9a:	4610      	mov	r0, r2
10002c9c:	f7ff fb7c 	bl	10002398 <vPortRecursiveLock>
10002ca0:	2201      	movs	r2, #1
10002ca2:	1e69      	subs	r1, r5, #1
10002ca4:	2000      	movs	r0, #0
10002ca6:	f7ff fb77 	bl	10002398 <vPortRecursiveLock>
10002caa:	f04f 4350 	mov.w	r3, #3489660928	@ 0xd0000000
10002cae:	681a      	ldr	r2, [r3, #0]
10002cb0:	4b16      	ldr	r3, [pc, #88]	@ (10002d0c <vTaskSwitchContext+0x7c>)
10002cb2:	f853 3022 	ldr.w	r3, [r3, r2, lsl #2]
10002cb6:	b993      	cbnz	r3, 10002cde <vTaskSwitchContext+0x4e>
10002cb8:	4b15      	ldr	r3, [pc, #84]	@ (10002d10 <vTaskSwitchContext+0x80>)
10002cba:	681b      	ldr	r3, [r3, #0]
10002cbc:	b1b3      	cbz	r3, 10002cec <vTaskSwitchContext+0x5c>
10002cbe:	4b15      	ldr	r3, [pc, #84]	@ (10002d14 <vTaskSwitchContext+0x84>)
10002cc0:	2201      	movs	r2, #1
10002cc2:	f843 2024 	str.w	r2, [r3, r4, lsl #2]
10002cc6:	4c14      	ldr	r4, [pc, #80]	@ (10002d18 <vTaskSwitchContext+0x88>)
10002cc8:	2200      	movs	r2, #0
10002cca:	4621      	mov	r1, r4
10002ccc:	4610      	mov	r0, r2
10002cce:	f7ff fb63 	bl	10002398 <vPortRecursiveLock>
10002cd2:	2200      	movs	r2, #0
10002cd4:	1c61      	adds	r1, r4, #1
10002cd6:	2001      	movs	r0, #1
10002cd8:	f7ff fb5e 	bl	10002398 <vPortRecursiveLock>
10002cdc:	bd38      	pop	{r3, r4, r5, pc}
10002cde:	4b0f      	ldr	r3, [pc, #60]	@ (10002d1c <vTaskSwitchContext+0x8c>)
10002ce0:	4a0f      	ldr	r2, [pc, #60]	@ (10002d20 <vTaskSwitchContext+0x90>)
10002ce2:	f241 412b 	movw	r1, #5163	@ 0x142b
10002ce6:	480f      	ldr	r0, [pc, #60]	@ (10002d24 <vTaskSwitchContext+0x94>)
10002ce8:	f004 f9a6 	bl	10007038 <__assert_func>
10002cec:	4b09      	ldr	r3, [pc, #36]	@ (10002d14 <vTaskSwitchContext+0x84>)
10002cee:	2200      	movs	r2, #0
10002cf0:	f843 2024 	str.w	r2, [r3, r4, lsl #2]
10002cf4:	4620      	mov	r0, r4
10002cf6:	f7ff fd11 	bl	1000271c <prvSelectHighestPriorityTask>
10002cfa:	f04f 4350 	mov.w	r3, #3489660928	@ 0xd0000000
10002cfe:	681a      	ldr	r2, [r3, #0]
10002d00:	4b09      	ldr	r3, [pc, #36]	@ (10002d28 <vTaskSwitchContext+0x98>)
10002d02:	f853 3022 	ldr.w	r3, [r3, r2, lsl #2]
10002d06:	e7de      	b.n	10002cc6 <vTaskSwitchContext+0x36>
10002d08:	200008cf 	.word	0x200008cf
10002d0c:	20020c10 	.word	0x20020c10
10002d10:	20020c24 	.word	0x20020c24
10002d14:	20020d40 	.word	0x20020d40
10002d18:	200008ce 	.word	0x200008ce
10002d1c:	10008648 	.word	0x10008648
10002d20:	10009500 	.word	0x10009500
10002d24:	100083ec 	.word	0x100083ec
10002d28:	20000960 	.word	0x20000960

10002d2c <xTaskRemoveFromEventList>:
10002d2c:	b510      	push	{r4, lr}
10002d2e:	68c3      	ldr	r3, [r0, #12]
10002d30:	68d8      	ldr	r0, [r3, #12]
10002d32:	2800      	cmp	r0, #0
10002d34:	d04d      	beq.n	10002dd2 <xTaskRemoveFromEventList+0xa6>
10002d36:	6ac3      	ldr	r3, [r0, #44]	@ 0x2c
10002d38:	6a01      	ldr	r1, [r0, #32]
10002d3a:	6a42      	ldr	r2, [r0, #36]	@ 0x24
10002d3c:	608a      	str	r2, [r1, #8]
10002d3e:	6a01      	ldr	r1, [r0, #32]
10002d40:	6051      	str	r1, [r2, #4]
10002d42:	685a      	ldr	r2, [r3, #4]
10002d44:	f100 011c 	add.w	r1, r0, #28
10002d48:	428a      	cmp	r2, r1
10002d4a:	d049      	beq.n	10002de0 <xTaskRemoveFromEventList+0xb4>
10002d4c:	2200      	movs	r2, #0
10002d4e:	62c2      	str	r2, [r0, #44]	@ 0x2c
10002d50:	681a      	ldr	r2, [r3, #0]
10002d52:	3a01      	subs	r2, #1
10002d54:	601a      	str	r2, [r3, #0]
10002d56:	4b2b      	ldr	r3, [pc, #172]	@ (10002e04 <xTaskRemoveFromEventList+0xd8>)
10002d58:	681b      	ldr	r3, [r3, #0]
10002d5a:	2b00      	cmp	r3, #0
10002d5c:	d146      	bne.n	10002dec <xTaskRemoveFromEventList+0xc0>
10002d5e:	6983      	ldr	r3, [r0, #24]
10002d60:	68c1      	ldr	r1, [r0, #12]
10002d62:	6902      	ldr	r2, [r0, #16]
10002d64:	608a      	str	r2, [r1, #8]
10002d66:	68c1      	ldr	r1, [r0, #12]
10002d68:	6051      	str	r1, [r2, #4]
10002d6a:	685a      	ldr	r2, [r3, #4]
10002d6c:	f100 0108 	add.w	r1, r0, #8
10002d70:	428a      	cmp	r2, r1
10002d72:	d038      	beq.n	10002de6 <xTaskRemoveFromEventList+0xba>
10002d74:	2200      	movs	r2, #0
10002d76:	6182      	str	r2, [r0, #24]
10002d78:	681a      	ldr	r2, [r3, #0]
10002d7a:	3a01      	subs	r2, #1
10002d7c:	601a      	str	r2, [r3, #0]
10002d7e:	6b03      	ldr	r3, [r0, #48]	@ 0x30
10002d80:	4a21      	ldr	r2, [pc, #132]	@ (10002e08 <xTaskRemoveFromEventList+0xdc>)
10002d82:	6812      	ldr	r2, [r2, #0]
10002d84:	4293      	cmp	r3, r2
10002d86:	d901      	bls.n	10002d8c <xTaskRemoveFromEventList+0x60>
10002d88:	4a1f      	ldr	r2, [pc, #124]	@ (10002e08 <xTaskRemoveFromEventList+0xdc>)
10002d8a:	6013      	str	r3, [r2, #0]
10002d8c:	4a1f      	ldr	r2, [pc, #124]	@ (10002e0c <xTaskRemoveFromEventList+0xe0>)
10002d8e:	eb03 0383 	add.w	r3, r3, r3, lsl #2
10002d92:	eb02 0383 	add.w	r3, r2, r3, lsl #2
10002d96:	685b      	ldr	r3, [r3, #4]
10002d98:	60c3      	str	r3, [r0, #12]
10002d9a:	689c      	ldr	r4, [r3, #8]
10002d9c:	6104      	str	r4, [r0, #16]
10002d9e:	6061      	str	r1, [r4, #4]
10002da0:	6099      	str	r1, [r3, #8]
10002da2:	6b03      	ldr	r3, [r0, #48]	@ 0x30
10002da4:	eb03 0183 	add.w	r1, r3, r3, lsl #2
10002da8:	eb02 0481 	add.w	r4, r2, r1, lsl #2
10002dac:	6184      	str	r4, [r0, #24]
10002dae:	f852 1021 	ldr.w	r1, [r2, r1, lsl #2]
10002db2:	3101      	adds	r1, #1
10002db4:	eb03 0383 	add.w	r3, r3, r3, lsl #2
10002db8:	f842 1023 	str.w	r1, [r2, r3, lsl #2]
10002dbc:	f7ff fc42 	bl	10002644 <prvYieldForTask>
10002dc0:	f04f 4350 	mov.w	r3, #3489660928	@ 0xd0000000
10002dc4:	681a      	ldr	r2, [r3, #0]
10002dc6:	4b12      	ldr	r3, [pc, #72]	@ (10002e10 <xTaskRemoveFromEventList+0xe4>)
10002dc8:	f853 0022 	ldr.w	r0, [r3, r2, lsl #2]
10002dcc:	b100      	cbz	r0, 10002dd0 <xTaskRemoveFromEventList+0xa4>
10002dce:	2001      	movs	r0, #1
10002dd0:	bd10      	pop	{r4, pc}
10002dd2:	4b10      	ldr	r3, [pc, #64]	@ (10002e14 <xTaskRemoveFromEventList+0xe8>)
10002dd4:	4a10      	ldr	r2, [pc, #64]	@ (10002e18 <xTaskRemoveFromEventList+0xec>)
10002dd6:	f241 41f9 	movw	r1, #5369	@ 0x14f9
10002dda:	4810      	ldr	r0, [pc, #64]	@ (10002e1c <xTaskRemoveFromEventList+0xf0>)
10002ddc:	f004 f92c 	bl	10007038 <__assert_func>
10002de0:	6a42      	ldr	r2, [r0, #36]	@ 0x24
10002de2:	605a      	str	r2, [r3, #4]
10002de4:	e7b2      	b.n	10002d4c <xTaskRemoveFromEventList+0x20>
10002de6:	6902      	ldr	r2, [r0, #16]
10002de8:	605a      	str	r2, [r3, #4]
10002dea:	e7c3      	b.n	10002d74 <xTaskRemoveFromEventList+0x48>
10002dec:	4b0c      	ldr	r3, [pc, #48]	@ (10002e20 <xTaskRemoveFromEventList+0xf4>)
10002dee:	685a      	ldr	r2, [r3, #4]
10002df0:	6202      	str	r2, [r0, #32]
10002df2:	6894      	ldr	r4, [r2, #8]
10002df4:	6244      	str	r4, [r0, #36]	@ 0x24
10002df6:	6061      	str	r1, [r4, #4]
10002df8:	6091      	str	r1, [r2, #8]
10002dfa:	62c3      	str	r3, [r0, #44]	@ 0x2c
10002dfc:	681a      	ldr	r2, [r3, #0]
10002dfe:	3201      	adds	r2, #1
10002e00:	601a      	str	r2, [r3, #0]
10002e02:	e7db      	b.n	10002dbc <xTaskRemoveFromEventList+0x90>
10002e04:	20020c24 	.word	0x20020c24
10002e08:	20020c2c 	.word	0x20020c2c
10002e0c:	2000097c 	.word	0x2000097c
10002e10:	20020d40 	.word	0x20020d40
10002e14:	100086f0 	.word	0x100086f0
10002e18:	1000946c 	.word	0x1000946c
10002e1c:	100083ec 	.word	0x100083ec
10002e20:	20020cac 	.word	0x20020cac

10002e24 <vTaskInternalSetTimeOutState>:
10002e24:	4b03      	ldr	r3, [pc, #12]	@ (10002e34 <vTaskInternalSetTimeOutState+0x10>)
10002e26:	681b      	ldr	r3, [r3, #0]
10002e28:	6003      	str	r3, [r0, #0]
10002e2a:	4b03      	ldr	r3, [pc, #12]	@ (10002e38 <vTaskInternalSetTimeOutState+0x14>)
10002e2c:	681b      	ldr	r3, [r3, #0]
10002e2e:	6043      	str	r3, [r0, #4]
10002e30:	4770      	bx	lr
10002e32:	bf00      	nop
10002e34:	20020c9c 	.word	0x20020c9c
10002e38:	20020d34 	.word	0x20020d34

10002e3c <vTaskMissedYield>:
10002e3c:	f04f 4350 	mov.w	r3, #3489660928	@ 0xd0000000
10002e40:	681a      	ldr	r2, [r3, #0]
10002e42:	4b02      	ldr	r3, [pc, #8]	@ (10002e4c <vTaskMissedYield+0x10>)
10002e44:	2101      	movs	r1, #1
10002e46:	f843 1022 	str.w	r1, [r3, r2, lsl #2]
10002e4a:	4770      	bx	lr
10002e4c:	20020d40 	.word	0x20020d40

10002e50 <xTaskGetCurrentTaskHandle>:
10002e50:	b510      	push	{r4, lr}
10002e52:	f7fe faf1 	bl	10001438 <ulSetInterruptMask>
10002e56:	f04f 4350 	mov.w	r3, #3489660928	@ 0xd0000000
10002e5a:	681a      	ldr	r2, [r3, #0]
10002e5c:	4b03      	ldr	r3, [pc, #12]	@ (10002e6c <xTaskGetCurrentTaskHandle+0x1c>)
10002e5e:	f853 4022 	ldr.w	r4, [r3, r2, lsl #2]
10002e62:	f7fe faf4 	bl	1000144e <vClearInterruptMask>
10002e66:	4620      	mov	r0, r4
10002e68:	bd10      	pop	{r4, pc}
10002e6a:	bf00      	nop
10002e6c:	20000960 	.word	0x20000960

10002e70 <prvAddCurrentTaskToDelayedList>:
10002e70:	e92d 41f0 	stmdb	sp!, {r4, r5, r6, r7, r8, lr}
10002e74:	4604      	mov	r4, r0
10002e76:	460d      	mov	r5, r1
10002e78:	4b25      	ldr	r3, [pc, #148]	@ (10002f10 <prvAddCurrentTaskToDelayedList+0xa0>)
10002e7a:	681e      	ldr	r6, [r3, #0]
10002e7c:	4b25      	ldr	r3, [pc, #148]	@ (10002f14 <prvAddCurrentTaskToDelayedList+0xa4>)
10002e7e:	681f      	ldr	r7, [r3, #0]
10002e80:	4b25      	ldr	r3, [pc, #148]	@ (10002f18 <prvAddCurrentTaskToDelayedList+0xa8>)
10002e82:	f8d3 8000 	ldr.w	r8, [r3]
10002e86:	f7ff ffe3 	bl	10002e50 <xTaskGetCurrentTaskHandle>
10002e8a:	2300      	movs	r3, #0
10002e8c:	f880 3079 	strb.w	r3, [r0, #121]	@ 0x79
10002e90:	f7ff ffde 	bl	10002e50 <xTaskGetCurrentTaskHandle>
10002e94:	3008      	adds	r0, #8
10002e96:	f7fe fc6b 	bl	10001770 <uxListRemove>
10002e9a:	f1b4 3fff 	cmp.w	r4, #4294967295
10002e9e:	d100      	bne.n	10002ea2 <prvAddCurrentTaskToDelayedList+0x32>
10002ea0:	b975      	cbnz	r5, 10002ec0 <prvAddCurrentTaskToDelayedList+0x50>
10002ea2:	4434      	add	r4, r6
10002ea4:	f7ff ffd4 	bl	10002e50 <xTaskGetCurrentTaskHandle>
10002ea8:	6084      	str	r4, [r0, #8]
10002eaa:	42a6      	cmp	r6, r4
10002eac:	d921      	bls.n	10002ef2 <prvAddCurrentTaskToDelayedList+0x82>
10002eae:	f7ff ffcf 	bl	10002e50 <xTaskGetCurrentTaskHandle>
10002eb2:	f100 0108 	add.w	r1, r0, #8
10002eb6:	4640      	mov	r0, r8
10002eb8:	f7fe fc41 	bl	1000173e <vListInsert>
10002ebc:	e8bd 81f0 	ldmia.w	sp!, {r4, r5, r6, r7, r8, pc}
10002ec0:	4c16      	ldr	r4, [pc, #88]	@ (10002f1c <prvAddCurrentTaskToDelayedList+0xac>)
10002ec2:	6865      	ldr	r5, [r4, #4]
10002ec4:	f7ff ffc4 	bl	10002e50 <xTaskGetCurrentTaskHandle>
10002ec8:	60c5      	str	r5, [r0, #12]
10002eca:	f7ff ffc1 	bl	10002e50 <xTaskGetCurrentTaskHandle>
10002ece:	68ab      	ldr	r3, [r5, #8]
10002ed0:	6103      	str	r3, [r0, #16]
10002ed2:	f7ff ffbd 	bl	10002e50 <xTaskGetCurrentTaskHandle>
10002ed6:	68ab      	ldr	r3, [r5, #8]
10002ed8:	3008      	adds	r0, #8
10002eda:	6058      	str	r0, [r3, #4]
10002edc:	f7ff ffb8 	bl	10002e50 <xTaskGetCurrentTaskHandle>
10002ee0:	3008      	adds	r0, #8
10002ee2:	60a8      	str	r0, [r5, #8]
10002ee4:	f7ff ffb4 	bl	10002e50 <xTaskGetCurrentTaskHandle>
10002ee8:	6184      	str	r4, [r0, #24]
10002eea:	6823      	ldr	r3, [r4, #0]
10002eec:	3301      	adds	r3, #1
10002eee:	6023      	str	r3, [r4, #0]
10002ef0:	e7e4      	b.n	10002ebc <prvAddCurrentTaskToDelayedList+0x4c>
10002ef2:	f7ff ffad 	bl	10002e50 <xTaskGetCurrentTaskHandle>
10002ef6:	f100 0108 	add.w	r1, r0, #8
10002efa:	4638      	mov	r0, r7
10002efc:	f7fe fc1f 	bl	1000173e <vListInsert>
10002f00:	4b07      	ldr	r3, [pc, #28]	@ (10002f20 <prvAddCurrentTaskToDelayedList+0xb0>)
10002f02:	681b      	ldr	r3, [r3, #0]
10002f04:	42a3      	cmp	r3, r4
10002f06:	d9d9      	bls.n	10002ebc <prvAddCurrentTaskToDelayedList+0x4c>
10002f08:	4b05      	ldr	r3, [pc, #20]	@ (10002f20 <prvAddCurrentTaskToDelayedList+0xb0>)
10002f0a:	601c      	str	r4, [r3, #0]
10002f0c:	e7d6      	b.n	10002ebc <prvAddCurrentTaskToDelayedList+0x4c>
10002f0e:	bf00      	nop
10002f10:	20020d34 	.word	0x20020d34
10002f14:	2000096c 	.word	0x2000096c
10002f18:	20000974 	.word	0x20000974
10002f1c:	20020d0c 	.word	0x20020d0c
10002f20:	20020c98 	.word	0x20020c98

10002f24 <vTaskPlaceOnEventList>:
10002f24:	b538      	push	{r3, r4, r5, lr}
10002f26:	b168      	cbz	r0, 10002f44 <vTaskPlaceOnEventList+0x20>
10002f28:	460c      	mov	r4, r1
10002f2a:	4605      	mov	r5, r0
10002f2c:	f7ff ff90 	bl	10002e50 <xTaskGetCurrentTaskHandle>
10002f30:	f100 011c 	add.w	r1, r0, #28
10002f34:	4628      	mov	r0, r5
10002f36:	f7fe fc02 	bl	1000173e <vListInsert>
10002f3a:	2101      	movs	r1, #1
10002f3c:	4620      	mov	r0, r4
10002f3e:	f7ff ff97 	bl	10002e70 <prvAddCurrentTaskToDelayedList>
10002f42:	bd38      	pop	{r3, r4, r5, pc}
10002f44:	4b03      	ldr	r3, [pc, #12]	@ (10002f54 <vTaskPlaceOnEventList+0x30>)
10002f46:	4a04      	ldr	r2, [pc, #16]	@ (10002f58 <vTaskPlaceOnEventList+0x34>)
10002f48:	f241 4184 	movw	r1, #5252	@ 0x1484
10002f4c:	4803      	ldr	r0, [pc, #12]	@ (10002f5c <vTaskPlaceOnEventList+0x38>)
10002f4e:	f004 f873 	bl	10007038 <__assert_func>
10002f52:	bf00      	nop
10002f54:	10008700 	.word	0x10008700
10002f58:	100094c8 	.word	0x100094c8
10002f5c:	100083ec 	.word	0x100083ec

10002f60 <vTaskPlaceOnUnorderedEventList>:
10002f60:	b570      	push	{r4, r5, r6, lr}
10002f62:	b330      	cbz	r0, 10002fb2 <vTaskPlaceOnUnorderedEventList+0x52>
10002f64:	460c      	mov	r4, r1
10002f66:	4616      	mov	r6, r2
10002f68:	4605      	mov	r5, r0
10002f6a:	4b19      	ldr	r3, [pc, #100]	@ (10002fd0 <vTaskPlaceOnUnorderedEventList+0x70>)
10002f6c:	681b      	ldr	r3, [r3, #0]
10002f6e:	b33b      	cbz	r3, 10002fc0 <vTaskPlaceOnUnorderedEventList+0x60>
10002f70:	f7ff ff6e 	bl	10002e50 <xTaskGetCurrentTaskHandle>
10002f74:	f044 4400 	orr.w	r4, r4, #2147483648	@ 0x80000000
10002f78:	61c4      	str	r4, [r0, #28]
10002f7a:	686c      	ldr	r4, [r5, #4]
10002f7c:	f7ff ff68 	bl	10002e50 <xTaskGetCurrentTaskHandle>
10002f80:	6204      	str	r4, [r0, #32]
10002f82:	f7ff ff65 	bl	10002e50 <xTaskGetCurrentTaskHandle>
10002f86:	68a3      	ldr	r3, [r4, #8]
10002f88:	6243      	str	r3, [r0, #36]	@ 0x24
10002f8a:	f7ff ff61 	bl	10002e50 <xTaskGetCurrentTaskHandle>
10002f8e:	68a3      	ldr	r3, [r4, #8]
10002f90:	301c      	adds	r0, #28
10002f92:	6058      	str	r0, [r3, #4]
10002f94:	f7ff ff5c 	bl	10002e50 <xTaskGetCurrentTaskHandle>
10002f98:	301c      	adds	r0, #28
10002f9a:	60a0      	str	r0, [r4, #8]
10002f9c:	f7ff ff58 	bl	10002e50 <xTaskGetCurrentTaskHandle>
10002fa0:	62c5      	str	r5, [r0, #44]	@ 0x2c
10002fa2:	682b      	ldr	r3, [r5, #0]
10002fa4:	3301      	adds	r3, #1
10002fa6:	602b      	str	r3, [r5, #0]
10002fa8:	2101      	movs	r1, #1
10002faa:	4630      	mov	r0, r6
10002fac:	f7ff ff60 	bl	10002e70 <prvAddCurrentTaskToDelayedList>
10002fb0:	bd70      	pop	{r4, r5, r6, pc}
10002fb2:	4b08      	ldr	r3, [pc, #32]	@ (10002fd4 <vTaskPlaceOnUnorderedEventList+0x74>)
10002fb4:	4a08      	ldr	r2, [pc, #32]	@ (10002fd8 <vTaskPlaceOnUnorderedEventList+0x78>)
10002fb6:	f241 41a2 	movw	r1, #5282	@ 0x14a2
10002fba:	4808      	ldr	r0, [pc, #32]	@ (10002fdc <vTaskPlaceOnUnorderedEventList+0x7c>)
10002fbc:	f004 f83c 	bl	10007038 <__assert_func>
10002fc0:	4b07      	ldr	r3, [pc, #28]	@ (10002fe0 <vTaskPlaceOnUnorderedEventList+0x80>)
10002fc2:	4a05      	ldr	r2, [pc, #20]	@ (10002fd8 <vTaskPlaceOnUnorderedEventList+0x78>)
10002fc4:	f241 41a6 	movw	r1, #5286	@ 0x14a6
10002fc8:	4804      	ldr	r0, [pc, #16]	@ (10002fdc <vTaskPlaceOnUnorderedEventList+0x7c>)
10002fca:	f004 f835 	bl	10007038 <__assert_func>
10002fce:	bf00      	nop
10002fd0:	20020c24 	.word	0x20020c24
10002fd4:	10008700 	.word	0x10008700
10002fd8:	100094a8 	.word	0x100094a8
10002fdc:	100083ec 	.word	0x100083ec
10002fe0:	1000870c 	.word	0x1000870c

10002fe4 <vTaskPlaceOnEventListRestricted>:
10002fe4:	b5f8      	push	{r3, r4, r5, r6, r7, lr}
10002fe6:	b308      	cbz	r0, 1000302c <vTaskPlaceOnEventListRestricted+0x48>
10002fe8:	460f      	mov	r7, r1
10002fea:	4614      	mov	r4, r2
10002fec:	4605      	mov	r5, r0
10002fee:	6846      	ldr	r6, [r0, #4]
10002ff0:	f7ff ff2e 	bl	10002e50 <xTaskGetCurrentTaskHandle>
10002ff4:	6206      	str	r6, [r0, #32]
10002ff6:	f7ff ff2b 	bl	10002e50 <xTaskGetCurrentTaskHandle>
10002ffa:	68b3      	ldr	r3, [r6, #8]
10002ffc:	6243      	str	r3, [r0, #36]	@ 0x24
10002ffe:	f7ff ff27 	bl	10002e50 <xTaskGetCurrentTaskHandle>
10003002:	68b3      	ldr	r3, [r6, #8]
10003004:	301c      	adds	r0, #28
10003006:	6058      	str	r0, [r3, #4]
10003008:	f7ff ff22 	bl	10002e50 <xTaskGetCurrentTaskHandle>
1000300c:	301c      	adds	r0, #28
1000300e:	60b0      	str	r0, [r6, #8]
10003010:	f7ff ff1e 	bl	10002e50 <xTaskGetCurrentTaskHandle>
10003014:	62c5      	str	r5, [r0, #44]	@ 0x2c
10003016:	682b      	ldr	r3, [r5, #0]
10003018:	3301      	adds	r3, #1
1000301a:	602b      	str	r3, [r5, #0]
1000301c:	b10c      	cbz	r4, 10003022 <vTaskPlaceOnEventListRestricted+0x3e>
1000301e:	f04f 37ff 	mov.w	r7, #4294967295
10003022:	4621      	mov	r1, r4
10003024:	4638      	mov	r0, r7
10003026:	f7ff ff23 	bl	10002e70 <prvAddCurrentTaskToDelayedList>
1000302a:	bdf8      	pop	{r3, r4, r5, r6, r7, pc}
1000302c:	4b03      	ldr	r3, [pc, #12]	@ (1000303c <vTaskPlaceOnEventListRestricted+0x58>)
1000302e:	4a04      	ldr	r2, [pc, #16]	@ (10003040 <vTaskPlaceOnEventListRestricted+0x5c>)
10003030:	f241 41c2 	movw	r1, #5314	@ 0x14c2
10003034:	4803      	ldr	r0, [pc, #12]	@ (10003044 <vTaskPlaceOnEventListRestricted+0x60>)
10003036:	f003 ffff 	bl	10007038 <__assert_func>
1000303a:	bf00      	nop
1000303c:	10008700 	.word	0x10008700
10003040:	10009488 	.word	0x10009488
10003044:	100083ec 	.word	0x100083ec

10003048 <xTaskPriorityInherit>:
10003048:	2800      	cmp	r0, #0
1000304a:	d05a      	beq.n	10003102 <xTaskPriorityInherit+0xba>
1000304c:	b538      	push	{r3, r4, r5, lr}
1000304e:	4604      	mov	r4, r0
10003050:	6b05      	ldr	r5, [r0, #48]	@ 0x30
10003052:	f7ff fefd 	bl	10002e50 <xTaskGetCurrentTaskHandle>
10003056:	6b03      	ldr	r3, [r0, #48]	@ 0x30
10003058:	429d      	cmp	r5, r3
1000305a:	d24a      	bcs.n	100030f2 <xTaskPriorityInherit+0xaa>
1000305c:	69e3      	ldr	r3, [r4, #28]
1000305e:	2b00      	cmp	r3, #0
10003060:	da0e      	bge.n	10003080 <xTaskPriorityInherit+0x38>
10003062:	69a1      	ldr	r1, [r4, #24]
10003064:	6b23      	ldr	r3, [r4, #48]	@ 0x30
10003066:	eb03 0383 	add.w	r3, r3, r3, lsl #2
1000306a:	4a29      	ldr	r2, [pc, #164]	@ (10003110 <xTaskPriorityInherit+0xc8>)
1000306c:	eb02 0383 	add.w	r3, r2, r3, lsl #2
10003070:	4299      	cmp	r1, r3
10003072:	d00c      	beq.n	1000308e <xTaskPriorityInherit+0x46>
10003074:	f7ff feec 	bl	10002e50 <xTaskGetCurrentTaskHandle>
10003078:	6b03      	ldr	r3, [r0, #48]	@ 0x30
1000307a:	6323      	str	r3, [r4, #48]	@ 0x30
1000307c:	2001      	movs	r0, #1
1000307e:	bd38      	pop	{r3, r4, r5, pc}
10003080:	f7ff fee6 	bl	10002e50 <xTaskGetCurrentTaskHandle>
10003084:	6b03      	ldr	r3, [r0, #48]	@ 0x30
10003086:	f1c3 0320 	rsb	r3, r3, #32
1000308a:	61e3      	str	r3, [r4, #28]
1000308c:	e7e9      	b.n	10003062 <xTaskPriorityInherit+0x1a>
1000308e:	f104 0508 	add.w	r5, r4, #8
10003092:	4628      	mov	r0, r5
10003094:	f7fe fb6c 	bl	10001770 <uxListRemove>
10003098:	f7ff feda 	bl	10002e50 <xTaskGetCurrentTaskHandle>
1000309c:	6b03      	ldr	r3, [r0, #48]	@ 0x30
1000309e:	6323      	str	r3, [r4, #48]	@ 0x30
100030a0:	4a1c      	ldr	r2, [pc, #112]	@ (10003114 <xTaskPriorityInherit+0xcc>)
100030a2:	6812      	ldr	r2, [r2, #0]
100030a4:	4293      	cmp	r3, r2
100030a6:	d901      	bls.n	100030ac <xTaskPriorityInherit+0x64>
100030a8:	4a1a      	ldr	r2, [pc, #104]	@ (10003114 <xTaskPriorityInherit+0xcc>)
100030aa:	6013      	str	r3, [r2, #0]
100030ac:	4a18      	ldr	r2, [pc, #96]	@ (10003110 <xTaskPriorityInherit+0xc8>)
100030ae:	eb03 0383 	add.w	r3, r3, r3, lsl #2
100030b2:	eb02 0383 	add.w	r3, r2, r3, lsl #2
100030b6:	685b      	ldr	r3, [r3, #4]
100030b8:	60e3      	str	r3, [r4, #12]
100030ba:	6899      	ldr	r1, [r3, #8]
100030bc:	6121      	str	r1, [r4, #16]
100030be:	604d      	str	r5, [r1, #4]
100030c0:	609d      	str	r5, [r3, #8]
100030c2:	6b23      	ldr	r3, [r4, #48]	@ 0x30
100030c4:	eb03 0183 	add.w	r1, r3, r3, lsl #2
100030c8:	eb02 0081 	add.w	r0, r2, r1, lsl #2
100030cc:	61a0      	str	r0, [r4, #24]
100030ce:	f852 1021 	ldr.w	r1, [r2, r1, lsl #2]
100030d2:	3101      	adds	r1, #1
100030d4:	eb03 0383 	add.w	r3, r3, r3, lsl #2
100030d8:	f842 1023 	str.w	r1, [r2, r3, lsl #2]
100030dc:	6ba3      	ldr	r3, [r4, #56]	@ 0x38
100030de:	2b00      	cmp	r3, #0
100030e0:	db02      	blt.n	100030e8 <xTaskPriorityInherit+0xa0>
100030e2:	6ba3      	ldr	r3, [r4, #56]	@ 0x38
100030e4:	2b01      	cmp	r3, #1
100030e6:	dd0e      	ble.n	10003106 <xTaskPriorityInherit+0xbe>
100030e8:	4620      	mov	r0, r4
100030ea:	f7ff faab 	bl	10002644 <prvYieldForTask>
100030ee:	2001      	movs	r0, #1
100030f0:	e7c5      	b.n	1000307e <xTaskPriorityInherit+0x36>
100030f2:	6da4      	ldr	r4, [r4, #88]	@ 0x58
100030f4:	f7ff feac 	bl	10002e50 <xTaskGetCurrentTaskHandle>
100030f8:	6b03      	ldr	r3, [r0, #48]	@ 0x30
100030fa:	429c      	cmp	r4, r3
100030fc:	d305      	bcc.n	1000310a <xTaskPriorityInherit+0xc2>
100030fe:	2000      	movs	r0, #0
10003100:	e7bd      	b.n	1000307e <xTaskPriorityInherit+0x36>
10003102:	2000      	movs	r0, #0
10003104:	4770      	bx	lr
10003106:	2001      	movs	r0, #1
10003108:	e7b9      	b.n	1000307e <xTaskPriorityInherit+0x36>
1000310a:	2001      	movs	r0, #1
1000310c:	e7b7      	b.n	1000307e <xTaskPriorityInherit+0x36>
1000310e:	bf00      	nop
10003110:	2000097c 	.word	0x2000097c
10003114:	20020c2c 	.word	0x20020c2c

10003118 <xTaskPriorityDisinherit>:
10003118:	2800      	cmp	r0, #0
1000311a:	d070      	beq.n	100031fe <xTaskPriorityDisinherit+0xe6>
1000311c:	b538      	push	{r3, r4, r5, lr}
1000311e:	4604      	mov	r4, r0
10003120:	f7ff fe96 	bl	10002e50 <xTaskGetCurrentTaskHandle>
10003124:	4284      	cmp	r4, r0
10003126:	d10a      	bne.n	1000313e <xTaskPriorityDisinherit+0x26>
10003128:	6de3      	ldr	r3, [r4, #92]	@ 0x5c
1000312a:	b17b      	cbz	r3, 1000314c <xTaskPriorityDisinherit+0x34>
1000312c:	3b01      	subs	r3, #1
1000312e:	65e3      	str	r3, [r4, #92]	@ 0x5c
10003130:	6b21      	ldr	r1, [r4, #48]	@ 0x30
10003132:	6da2      	ldr	r2, [r4, #88]	@ 0x58
10003134:	4291      	cmp	r1, r2
10003136:	d064      	beq.n	10003202 <xTaskPriorityDisinherit+0xea>
10003138:	b17b      	cbz	r3, 1000315a <xTaskPriorityDisinherit+0x42>
1000313a:	2000      	movs	r0, #0
1000313c:	bd38      	pop	{r3, r4, r5, pc}
1000313e:	4b33      	ldr	r3, [pc, #204]	@ (1000320c <xTaskPriorityDisinherit+0xf4>)
10003140:	4a33      	ldr	r2, [pc, #204]	@ (10003210 <xTaskPriorityDisinherit+0xf8>)
10003142:	f641 212c 	movw	r1, #6700	@ 0x1a2c
10003146:	4833      	ldr	r0, [pc, #204]	@ (10003214 <xTaskPriorityDisinherit+0xfc>)
10003148:	f003 ff76 	bl	10007038 <__assert_func>
1000314c:	4b32      	ldr	r3, [pc, #200]	@ (10003218 <xTaskPriorityDisinherit+0x100>)
1000314e:	4a30      	ldr	r2, [pc, #192]	@ (10003210 <xTaskPriorityDisinherit+0xf8>)
10003150:	f641 212d 	movw	r1, #6701	@ 0x1a2d
10003154:	482f      	ldr	r0, [pc, #188]	@ (10003214 <xTaskPriorityDisinherit+0xfc>)
10003156:	f003 ff6f 	bl	10007038 <__assert_func>
1000315a:	f104 0508 	add.w	r5, r4, #8
1000315e:	4628      	mov	r0, r5
10003160:	f7fe fb06 	bl	10001770 <uxListRemove>
10003164:	6da3      	ldr	r3, [r4, #88]	@ 0x58
10003166:	6323      	str	r3, [r4, #48]	@ 0x30
10003168:	f1c3 0220 	rsb	r2, r3, #32
1000316c:	61e2      	str	r2, [r4, #28]
1000316e:	4a2b      	ldr	r2, [pc, #172]	@ (1000321c <xTaskPriorityDisinherit+0x104>)
10003170:	6812      	ldr	r2, [r2, #0]
10003172:	4293      	cmp	r3, r2
10003174:	d901      	bls.n	1000317a <xTaskPriorityDisinherit+0x62>
10003176:	4a29      	ldr	r2, [pc, #164]	@ (1000321c <xTaskPriorityDisinherit+0x104>)
10003178:	6013      	str	r3, [r2, #0]
1000317a:	4a29      	ldr	r2, [pc, #164]	@ (10003220 <xTaskPriorityDisinherit+0x108>)
1000317c:	eb03 0383 	add.w	r3, r3, r3, lsl #2
10003180:	eb02 0383 	add.w	r3, r2, r3, lsl #2
10003184:	685b      	ldr	r3, [r3, #4]
10003186:	60e3      	str	r3, [r4, #12]
10003188:	6899      	ldr	r1, [r3, #8]
1000318a:	6121      	str	r1, [r4, #16]
1000318c:	604d      	str	r5, [r1, #4]
1000318e:	609d      	str	r5, [r3, #8]
10003190:	6b23      	ldr	r3, [r4, #48]	@ 0x30
10003192:	eb03 0183 	add.w	r1, r3, r3, lsl #2
10003196:	eb02 0081 	add.w	r0, r2, r1, lsl #2
1000319a:	61a0      	str	r0, [r4, #24]
1000319c:	f852 1021 	ldr.w	r1, [r2, r1, lsl #2]
100031a0:	3101      	adds	r1, #1
100031a2:	eb03 0383 	add.w	r3, r3, r3, lsl #2
100031a6:	f842 1023 	str.w	r1, [r2, r3, lsl #2]
100031aa:	6ba3      	ldr	r3, [r4, #56]	@ 0x38
100031ac:	2b00      	cmp	r3, #0
100031ae:	db2a      	blt.n	10003206 <xTaskPriorityDisinherit+0xee>
100031b0:	6ba3      	ldr	r3, [r4, #56]	@ 0x38
100031b2:	2b01      	cmp	r3, #1
100031b4:	dd01      	ble.n	100031ba <xTaskPriorityDisinherit+0xa2>
100031b6:	2001      	movs	r0, #1
100031b8:	e7c0      	b.n	1000313c <xTaskPriorityDisinherit+0x24>
100031ba:	6ba2      	ldr	r2, [r4, #56]	@ 0x38
100031bc:	f04f 4350 	mov.w	r3, #3489660928	@ 0xd0000000
100031c0:	681b      	ldr	r3, [r3, #0]
100031c2:	429a      	cmp	r2, r3
100031c4:	d009      	beq.n	100031da <xTaskPriorityDisinherit+0xc2>
100031c6:	6ba2      	ldr	r2, [r4, #56]	@ 0x38
100031c8:	4b16      	ldr	r3, [pc, #88]	@ (10003224 <xTaskPriorityDisinherit+0x10c>)
100031ca:	f853 3022 	ldr.w	r3, [r3, r2, lsl #2]
100031ce:	6b9b      	ldr	r3, [r3, #56]	@ 0x38
100031d0:	f113 0f02 	cmn.w	r3, #2
100031d4:	d107      	bne.n	100031e6 <xTaskPriorityDisinherit+0xce>
100031d6:	2001      	movs	r0, #1
100031d8:	e7b0      	b.n	1000313c <xTaskPriorityDisinherit+0x24>
100031da:	6ba2      	ldr	r2, [r4, #56]	@ 0x38
100031dc:	2001      	movs	r0, #1
100031de:	4b12      	ldr	r3, [pc, #72]	@ (10003228 <xTaskPriorityDisinherit+0x110>)
100031e0:	f843 0022 	str.w	r0, [r3, r2, lsl #2]
100031e4:	e7aa      	b.n	1000313c <xTaskPriorityDisinherit+0x24>
100031e6:	6ba0      	ldr	r0, [r4, #56]	@ 0x38
100031e8:	f7fe f8d4 	bl	10001394 <vYieldCore>
100031ec:	6ba2      	ldr	r2, [r4, #56]	@ 0x38
100031ee:	4b0d      	ldr	r3, [pc, #52]	@ (10003224 <xTaskPriorityDisinherit+0x10c>)
100031f0:	f853 3022 	ldr.w	r3, [r3, r2, lsl #2]
100031f4:	f06f 0201 	mvn.w	r2, #1
100031f8:	639a      	str	r2, [r3, #56]	@ 0x38
100031fa:	2001      	movs	r0, #1
100031fc:	e79e      	b.n	1000313c <xTaskPriorityDisinherit+0x24>
100031fe:	2000      	movs	r0, #0
10003200:	4770      	bx	lr
10003202:	2000      	movs	r0, #0
10003204:	e79a      	b.n	1000313c <xTaskPriorityDisinherit+0x24>
10003206:	2001      	movs	r0, #1
10003208:	e798      	b.n	1000313c <xTaskPriorityDisinherit+0x24>
1000320a:	bf00      	nop
1000320c:	10008738 	.word	0x10008738
10003210:	10009418 	.word	0x10009418
10003214:	100083ec 	.word	0x100083ec
10003218:	10008760 	.word	0x10008760
1000321c:	20020c2c 	.word	0x20020c2c
10003220:	2000097c 	.word	0x2000097c
10003224:	20000960 	.word	0x20000960
10003228:	20020d40 	.word	0x20020d40

1000322c <vTaskPriorityDisinheritAfterTimeout>:
1000322c:	2800      	cmp	r0, #0
1000322e:	d078      	beq.n	10003322 <vTaskPriorityDisinheritAfterTimeout+0xf6>
10003230:	b538      	push	{r3, r4, r5, lr}
10003232:	4604      	mov	r4, r0
10003234:	6dc3      	ldr	r3, [r0, #92]	@ 0x5c
10003236:	b14b      	cbz	r3, 1000324c <vTaskPriorityDisinheritAfterTimeout+0x20>
10003238:	6d85      	ldr	r5, [r0, #88]	@ 0x58
1000323a:	428d      	cmp	r5, r1
1000323c:	d200      	bcs.n	10003240 <vTaskPriorityDisinheritAfterTimeout+0x14>
1000323e:	460d      	mov	r5, r1
10003240:	6b22      	ldr	r2, [r4, #48]	@ 0x30
10003242:	42aa      	cmp	r2, r5
10003244:	d001      	beq.n	1000324a <vTaskPriorityDisinheritAfterTimeout+0x1e>
10003246:	2b01      	cmp	r3, #1
10003248:	d007      	beq.n	1000325a <vTaskPriorityDisinheritAfterTimeout+0x2e>
1000324a:	bd38      	pop	{r3, r4, r5, pc}
1000324c:	4b35      	ldr	r3, [pc, #212]	@ (10003324 <vTaskPriorityDisinheritAfterTimeout+0xf8>)
1000324e:	4a36      	ldr	r2, [pc, #216]	@ (10003328 <vTaskPriorityDisinheritAfterTimeout+0xfc>)
10003250:	f641 218a 	movw	r1, #6794	@ 0x1a8a
10003254:	4835      	ldr	r0, [pc, #212]	@ (1000332c <vTaskPriorityDisinheritAfterTimeout+0x100>)
10003256:	f003 feef 	bl	10007038 <__assert_func>
1000325a:	f7ff fdf9 	bl	10002e50 <xTaskGetCurrentTaskHandle>
1000325e:	4284      	cmp	r4, r0
10003260:	d052      	beq.n	10003308 <vTaskPriorityDisinheritAfterTimeout+0xdc>
10003262:	6b23      	ldr	r3, [r4, #48]	@ 0x30
10003264:	6325      	str	r5, [r4, #48]	@ 0x30
10003266:	69e2      	ldr	r2, [r4, #28]
10003268:	2a00      	cmp	r2, #0
1000326a:	db02      	blt.n	10003272 <vTaskPriorityDisinheritAfterTimeout+0x46>
1000326c:	f1c5 0520 	rsb	r5, r5, #32
10003270:	61e5      	str	r5, [r4, #28]
10003272:	69a1      	ldr	r1, [r4, #24]
10003274:	eb03 0383 	add.w	r3, r3, r3, lsl #2
10003278:	4a2d      	ldr	r2, [pc, #180]	@ (10003330 <vTaskPriorityDisinheritAfterTimeout+0x104>)
1000327a:	eb02 0383 	add.w	r3, r2, r3, lsl #2
1000327e:	4299      	cmp	r1, r3
10003280:	d1e3      	bne.n	1000324a <vTaskPriorityDisinheritAfterTimeout+0x1e>
10003282:	f104 0508 	add.w	r5, r4, #8
10003286:	4628      	mov	r0, r5
10003288:	f7fe fa72 	bl	10001770 <uxListRemove>
1000328c:	6b23      	ldr	r3, [r4, #48]	@ 0x30
1000328e:	4a29      	ldr	r2, [pc, #164]	@ (10003334 <vTaskPriorityDisinheritAfterTimeout+0x108>)
10003290:	6812      	ldr	r2, [r2, #0]
10003292:	4293      	cmp	r3, r2
10003294:	d901      	bls.n	1000329a <vTaskPriorityDisinheritAfterTimeout+0x6e>
10003296:	4a27      	ldr	r2, [pc, #156]	@ (10003334 <vTaskPriorityDisinheritAfterTimeout+0x108>)
10003298:	6013      	str	r3, [r2, #0]
1000329a:	4a25      	ldr	r2, [pc, #148]	@ (10003330 <vTaskPriorityDisinheritAfterTimeout+0x104>)
1000329c:	eb03 0383 	add.w	r3, r3, r3, lsl #2
100032a0:	eb02 0383 	add.w	r3, r2, r3, lsl #2
100032a4:	685b      	ldr	r3, [r3, #4]
100032a6:	60e3      	str	r3, [r4, #12]
100032a8:	6899      	ldr	r1, [r3, #8]
100032aa:	6121      	str	r1, [r4, #16]
100032ac:	604d      	str	r5, [r1, #4]
100032ae:	609d      	str	r5, [r3, #8]
100032b0:	6b23      	ldr	r3, [r4, #48]	@ 0x30
100032b2:	eb03 0183 	add.w	r1, r3, r3, lsl #2
100032b6:	eb02 0081 	add.w	r0, r2, r1, lsl #2
100032ba:	61a0      	str	r0, [r4, #24]
100032bc:	f852 1021 	ldr.w	r1, [r2, r1, lsl #2]
100032c0:	3101      	adds	r1, #1
100032c2:	eb03 0383 	add.w	r3, r3, r3, lsl #2
100032c6:	f842 1023 	str.w	r1, [r2, r3, lsl #2]
100032ca:	6ba3      	ldr	r3, [r4, #56]	@ 0x38
100032cc:	2b00      	cmp	r3, #0
100032ce:	dbbc      	blt.n	1000324a <vTaskPriorityDisinheritAfterTimeout+0x1e>
100032d0:	6ba3      	ldr	r3, [r4, #56]	@ 0x38
100032d2:	2b01      	cmp	r3, #1
100032d4:	dcb9      	bgt.n	1000324a <vTaskPriorityDisinheritAfterTimeout+0x1e>
100032d6:	6ba2      	ldr	r2, [r4, #56]	@ 0x38
100032d8:	f04f 4350 	mov.w	r3, #3489660928	@ 0xd0000000
100032dc:	681b      	ldr	r3, [r3, #0]
100032de:	429a      	cmp	r2, r3
100032e0:	d019      	beq.n	10003316 <vTaskPriorityDisinheritAfterTimeout+0xea>
100032e2:	6ba2      	ldr	r2, [r4, #56]	@ 0x38
100032e4:	4b14      	ldr	r3, [pc, #80]	@ (10003338 <vTaskPriorityDisinheritAfterTimeout+0x10c>)
100032e6:	f853 3022 	ldr.w	r3, [r3, r2, lsl #2]
100032ea:	6b9b      	ldr	r3, [r3, #56]	@ 0x38
100032ec:	f113 0f02 	cmn.w	r3, #2
100032f0:	d0ab      	beq.n	1000324a <vTaskPriorityDisinheritAfterTimeout+0x1e>
100032f2:	6ba0      	ldr	r0, [r4, #56]	@ 0x38
100032f4:	f7fe f84e 	bl	10001394 <vYieldCore>
100032f8:	6ba2      	ldr	r2, [r4, #56]	@ 0x38
100032fa:	4b0f      	ldr	r3, [pc, #60]	@ (10003338 <vTaskPriorityDisinheritAfterTimeout+0x10c>)
100032fc:	f853 3022 	ldr.w	r3, [r3, r2, lsl #2]
10003300:	f06f 0201 	mvn.w	r2, #1
10003304:	639a      	str	r2, [r3, #56]	@ 0x38
10003306:	e7a0      	b.n	1000324a <vTaskPriorityDisinheritAfterTimeout+0x1e>
10003308:	4b0c      	ldr	r3, [pc, #48]	@ (1000333c <vTaskPriorityDisinheritAfterTimeout+0x110>)
1000330a:	4a07      	ldr	r2, [pc, #28]	@ (10003328 <vTaskPriorityDisinheritAfterTimeout+0xfc>)
1000330c:	f641 21a5 	movw	r1, #6821	@ 0x1aa5
10003310:	4806      	ldr	r0, [pc, #24]	@ (1000332c <vTaskPriorityDisinheritAfterTimeout+0x100>)
10003312:	f003 fe91 	bl	10007038 <__assert_func>
10003316:	6ba2      	ldr	r2, [r4, #56]	@ 0x38
10003318:	4b09      	ldr	r3, [pc, #36]	@ (10003340 <vTaskPriorityDisinheritAfterTimeout+0x114>)
1000331a:	2101      	movs	r1, #1
1000331c:	f843 1022 	str.w	r1, [r3, r2, lsl #2]
10003320:	e793      	b.n	1000324a <vTaskPriorityDisinheritAfterTimeout+0x1e>
10003322:	4770      	bx	lr
10003324:	10008760 	.word	0x10008760
10003328:	100093f4 	.word	0x100093f4
1000332c:	100083ec 	.word	0x100083ec
10003330:	2000097c 	.word	0x2000097c
10003334:	20020c2c 	.word	0x20020c2c
10003338:	20000960 	.word	0x20000960
1000333c:	10008778 	.word	0x10008778
10003340:	20020d40 	.word	0x20020d40

10003344 <vTaskYieldWithinAPI>:
10003344:	b508      	push	{r3, lr}
10003346:	f04f 4350 	mov.w	r3, #3489660928	@ 0xd0000000
1000334a:	681b      	ldr	r3, [r3, #0]
1000334c:	4a05      	ldr	r2, [pc, #20]	@ (10003364 <vTaskYieldWithinAPI+0x20>)
1000334e:	f852 2023 	ldr.w	r2, [r2, r3, lsl #2]
10003352:	b122      	cbz	r2, 1000335e <vTaskYieldWithinAPI+0x1a>
10003354:	4a04      	ldr	r2, [pc, #16]	@ (10003368 <vTaskYieldWithinAPI+0x24>)
10003356:	2101      	movs	r1, #1
10003358:	f842 1023 	str.w	r1, [r2, r3, lsl #2]
1000335c:	bd08      	pop	{r3, pc}
1000335e:	f7fd fe59 	bl	10001014 <vPortYield>
10003362:	e7fb      	b.n	1000335c <vTaskYieldWithinAPI+0x18>
10003364:	20020c10 	.word	0x20020c10
10003368:	20020d40 	.word	0x20020d40

1000336c <vTaskEnterCritical>:
1000336c:	b510      	push	{r4, lr}
1000336e:	f7fe f863 	bl	10001438 <ulSetInterruptMask>
10003372:	4b16      	ldr	r3, [pc, #88]	@ (100033cc <vTaskEnterCritical+0x60>)
10003374:	681b      	ldr	r3, [r3, #0]
10003376:	b1a3      	cbz	r3, 100033a2 <vTaskEnterCritical+0x36>
10003378:	f04f 4350 	mov.w	r3, #3489660928	@ 0xd0000000
1000337c:	681a      	ldr	r2, [r3, #0]
1000337e:	4b14      	ldr	r3, [pc, #80]	@ (100033d0 <vTaskEnterCritical+0x64>)
10003380:	f853 3022 	ldr.w	r3, [r3, r2, lsl #2]
10003384:	b173      	cbz	r3, 100033a4 <vTaskEnterCritical+0x38>
10003386:	f04f 4150 	mov.w	r1, #3489660928	@ 0xd0000000
1000338a:	6808      	ldr	r0, [r1, #0]
1000338c:	4b10      	ldr	r3, [pc, #64]	@ (100033d0 <vTaskEnterCritical+0x64>)
1000338e:	f853 2020 	ldr.w	r2, [r3, r0, lsl #2]
10003392:	3201      	adds	r2, #1
10003394:	f843 2020 	str.w	r2, [r3, r0, lsl #2]
10003398:	680a      	ldr	r2, [r1, #0]
1000339a:	f853 3022 	ldr.w	r3, [r3, r2, lsl #2]
1000339e:	2b01      	cmp	r3, #1
100033a0:	d00c      	beq.n	100033bc <vTaskEnterCritical+0x50>
100033a2:	bd10      	pop	{r4, pc}
100033a4:	4c0b      	ldr	r4, [pc, #44]	@ (100033d4 <vTaskEnterCritical+0x68>)
100033a6:	2201      	movs	r2, #1
100033a8:	4621      	mov	r1, r4
100033aa:	4610      	mov	r0, r2
100033ac:	f7fe fff4 	bl	10002398 <vPortRecursiveLock>
100033b0:	2201      	movs	r2, #1
100033b2:	1e61      	subs	r1, r4, #1
100033b4:	2000      	movs	r0, #0
100033b6:	f7fe ffef 	bl	10002398 <vPortRecursiveLock>
100033ba:	e7e4      	b.n	10003386 <vTaskEnterCritical+0x1a>
100033bc:	4b06      	ldr	r3, [pc, #24]	@ (100033d8 <vTaskEnterCritical+0x6c>)
100033be:	681b      	ldr	r3, [r3, #0]
100033c0:	2b00      	cmp	r3, #0
100033c2:	d1ee      	bne.n	100033a2 <vTaskEnterCritical+0x36>
100033c4:	f7ff fac8 	bl	10002958 <prvCheckForRunStateChange>
100033c8:	e7eb      	b.n	100033a2 <vTaskEnterCritical+0x36>
100033ca:	bf00      	nop
100033cc:	20020d00 	.word	0x20020d00
100033d0:	20020c10 	.word	0x20020c10
100033d4:	200008cf 	.word	0x200008cf
100033d8:	20020c24 	.word	0x20020c24

100033dc <vTaskEnterCriticalFromISR>:
100033dc:	b510      	push	{r4, lr}
100033de:	4b10      	ldr	r3, [pc, #64]	@ (10003420 <vTaskEnterCriticalFromISR+0x44>)
100033e0:	681b      	ldr	r3, [r3, #0]
100033e2:	b913      	cbnz	r3, 100033ea <vTaskEnterCriticalFromISR+0xe>
100033e4:	2400      	movs	r4, #0
100033e6:	4620      	mov	r0, r4
100033e8:	bd10      	pop	{r4, pc}
100033ea:	f7fe f825 	bl	10001438 <ulSetInterruptMask>
100033ee:	4604      	mov	r4, r0
100033f0:	f04f 4350 	mov.w	r3, #3489660928	@ 0xd0000000
100033f4:	681a      	ldr	r2, [r3, #0]
100033f6:	4b0b      	ldr	r3, [pc, #44]	@ (10003424 <vTaskEnterCriticalFromISR+0x48>)
100033f8:	f853 3022 	ldr.w	r3, [r3, r2, lsl #2]
100033fc:	b14b      	cbz	r3, 10003412 <vTaskEnterCriticalFromISR+0x36>
100033fe:	f04f 4350 	mov.w	r3, #3489660928	@ 0xd0000000
10003402:	6819      	ldr	r1, [r3, #0]
10003404:	4a07      	ldr	r2, [pc, #28]	@ (10003424 <vTaskEnterCriticalFromISR+0x48>)
10003406:	f852 3021 	ldr.w	r3, [r2, r1, lsl #2]
1000340a:	3301      	adds	r3, #1
1000340c:	f842 3021 	str.w	r3, [r2, r1, lsl #2]
10003410:	e7e9      	b.n	100033e6 <vTaskEnterCriticalFromISR+0xa>
10003412:	2201      	movs	r2, #1
10003414:	4904      	ldr	r1, [pc, #16]	@ (10003428 <vTaskEnterCriticalFromISR+0x4c>)
10003416:	2000      	movs	r0, #0
10003418:	f7fe ffbe 	bl	10002398 <vPortRecursiveLock>
1000341c:	e7ef      	b.n	100033fe <vTaskEnterCriticalFromISR+0x22>
1000341e:	bf00      	nop
10003420:	20020d00 	.word	0x20020d00
10003424:	20020c10 	.word	0x20020c10
10003428:	200008ce 	.word	0x200008ce

1000342c <vTaskExitCritical>:
1000342c:	b538      	push	{r3, r4, r5, lr}
1000342e:	4b1c      	ldr	r3, [pc, #112]	@ (100034a0 <vTaskExitCritical+0x74>)
10003430:	681b      	ldr	r3, [r3, #0]
10003432:	b1b3      	cbz	r3, 10003462 <vTaskExitCritical+0x36>
10003434:	f04f 4350 	mov.w	r3, #3489660928	@ 0xd0000000
10003438:	681b      	ldr	r3, [r3, #0]
1000343a:	4a1a      	ldr	r2, [pc, #104]	@ (100034a4 <vTaskExitCritical+0x78>)
1000343c:	f852 2023 	ldr.w	r2, [r2, r3, lsl #2]
10003440:	b182      	cbz	r2, 10003464 <vTaskExitCritical+0x38>
10003442:	4a18      	ldr	r2, [pc, #96]	@ (100034a4 <vTaskExitCritical+0x78>)
10003444:	f852 2023 	ldr.w	r2, [r2, r3, lsl #2]
10003448:	b15a      	cbz	r2, 10003462 <vTaskExitCritical+0x36>
1000344a:	4a16      	ldr	r2, [pc, #88]	@ (100034a4 <vTaskExitCritical+0x78>)
1000344c:	f852 1023 	ldr.w	r1, [r2, r3, lsl #2]
10003450:	3901      	subs	r1, #1
10003452:	f842 1023 	str.w	r1, [r2, r3, lsl #2]
10003456:	f04f 4350 	mov.w	r3, #3489660928	@ 0xd0000000
1000345a:	681b      	ldr	r3, [r3, #0]
1000345c:	f852 2023 	ldr.w	r2, [r2, r3, lsl #2]
10003460:	b13a      	cbz	r2, 10003472 <vTaskExitCritical+0x46>
10003462:	bd38      	pop	{r3, r4, r5, pc}
10003464:	4b10      	ldr	r3, [pc, #64]	@ (100034a8 <vTaskExitCritical+0x7c>)
10003466:	4a11      	ldr	r2, [pc, #68]	@ (100034ac <vTaskExitCritical+0x80>)
10003468:	f641 31b7 	movw	r1, #7095	@ 0x1bb7
1000346c:	4810      	ldr	r0, [pc, #64]	@ (100034b0 <vTaskExitCritical+0x84>)
1000346e:	f003 fde3 	bl	10007038 <__assert_func>
10003472:	4a10      	ldr	r2, [pc, #64]	@ (100034b4 <vTaskExitCritical+0x88>)
10003474:	f852 5023 	ldr.w	r5, [r2, r3, lsl #2]
10003478:	4c0f      	ldr	r4, [pc, #60]	@ (100034b8 <vTaskExitCritical+0x8c>)
1000347a:	2200      	movs	r2, #0
1000347c:	4621      	mov	r1, r4
1000347e:	4610      	mov	r0, r2
10003480:	f7fe ff8a 	bl	10002398 <vPortRecursiveLock>
10003484:	2200      	movs	r2, #0
10003486:	1c61      	adds	r1, r4, #1
10003488:	2001      	movs	r0, #1
1000348a:	f7fe ff85 	bl	10002398 <vPortRecursiveLock>
1000348e:	2000      	movs	r0, #0
10003490:	f7fd ffdd 	bl	1000144e <vClearInterruptMask>
10003494:	2d00      	cmp	r5, #0
10003496:	d0e4      	beq.n	10003462 <vTaskExitCritical+0x36>
10003498:	f7fd fdbc 	bl	10001014 <vPortYield>
1000349c:	e7e1      	b.n	10003462 <vTaskExitCritical+0x36>
1000349e:	bf00      	nop
100034a0:	20020d00 	.word	0x20020d00
100034a4:	20020c10 	.word	0x20020c10
100034a8:	10008554 	.word	0x10008554
100034ac:	100093e0 	.word	0x100093e0
100034b0:	100083ec 	.word	0x100083ec
100034b4:	20020d40 	.word	0x20020d40
100034b8:	200008ce 	.word	0x200008ce

100034bc <prvCheckTasksWaitingTermination>:
100034bc:	4b16      	ldr	r3, [pc, #88]	@ (10003518 <prvCheckTasksWaitingTermination+0x5c>)
100034be:	681b      	ldr	r3, [r3, #0]
100034c0:	b343      	cbz	r3, 10003514 <prvCheckTasksWaitingTermination+0x58>
100034c2:	b510      	push	{r4, lr}
100034c4:	e011      	b.n	100034ea <prvCheckTasksWaitingTermination+0x2e>
100034c6:	f104 0008 	add.w	r0, r4, #8
100034ca:	f7fe f951 	bl	10001770 <uxListRemove>
100034ce:	4a13      	ldr	r2, [pc, #76]	@ (1000351c <prvCheckTasksWaitingTermination+0x60>)
100034d0:	6813      	ldr	r3, [r2, #0]
100034d2:	3b01      	subs	r3, #1
100034d4:	6013      	str	r3, [r2, #0]
100034d6:	4a10      	ldr	r2, [pc, #64]	@ (10003518 <prvCheckTasksWaitingTermination+0x5c>)
100034d8:	6813      	ldr	r3, [r2, #0]
100034da:	3b01      	subs	r3, #1
100034dc:	6013      	str	r3, [r2, #0]
100034de:	f7ff ffa5 	bl	1000342c <vTaskExitCritical>
100034e2:	b99c      	cbnz	r4, 1000350c <prvCheckTasksWaitingTermination+0x50>
100034e4:	4b0c      	ldr	r3, [pc, #48]	@ (10003518 <prvCheckTasksWaitingTermination+0x5c>)
100034e6:	681b      	ldr	r3, [r3, #0]
100034e8:	b16b      	cbz	r3, 10003506 <prvCheckTasksWaitingTermination+0x4a>
100034ea:	f7ff ff3f 	bl	1000336c <vTaskEnterCritical>
100034ee:	4b0a      	ldr	r3, [pc, #40]	@ (10003518 <prvCheckTasksWaitingTermination+0x5c>)
100034f0:	681b      	ldr	r3, [r3, #0]
100034f2:	b14b      	cbz	r3, 10003508 <prvCheckTasksWaitingTermination+0x4c>
100034f4:	4b0a      	ldr	r3, [pc, #40]	@ (10003520 <prvCheckTasksWaitingTermination+0x64>)
100034f6:	68db      	ldr	r3, [r3, #12]
100034f8:	68dc      	ldr	r4, [r3, #12]
100034fa:	6ba3      	ldr	r3, [r4, #56]	@ 0x38
100034fc:	f1b3 3fff 	cmp.w	r3, #4294967295
10003500:	d0e1      	beq.n	100034c6 <prvCheckTasksWaitingTermination+0xa>
10003502:	f7ff ff93 	bl	1000342c <vTaskExitCritical>
10003506:	bd10      	pop	{r4, pc}
10003508:	2400      	movs	r4, #0
1000350a:	e7e8      	b.n	100034de <prvCheckTasksWaitingTermination+0x22>
1000350c:	4620      	mov	r0, r4
1000350e:	f7fe ff39 	bl	10002384 <prvDeleteTCB>
10003512:	e7e7      	b.n	100034e4 <prvCheckTasksWaitingTermination+0x28>
10003514:	4770      	bx	lr
10003516:	bf00      	nop
10003518:	20020c20 	.word	0x20020c20
1000351c:	20020c1c 	.word	0x20020c1c
10003520:	20020d20 	.word	0x20020d20

10003524 <prvIdleTask>:
10003524:	b508      	push	{r3, lr}
10003526:	f7fd fd75 	bl	10001014 <vPortYield>
1000352a:	f7ff ffc7 	bl	100034bc <prvCheckTasksWaitingTermination>
1000352e:	4b03      	ldr	r3, [pc, #12]	@ (1000353c <prvIdleTask+0x18>)
10003530:	681b      	ldr	r3, [r3, #0]
10003532:	2b02      	cmp	r3, #2
10003534:	d9f9      	bls.n	1000352a <prvIdleTask+0x6>
10003536:	f7fd fd6d 	bl	10001014 <vPortYield>
1000353a:	e7f6      	b.n	1000352a <prvIdleTask+0x6>
1000353c:	2000097c 	.word	0x2000097c

10003540 <prvAddNewTaskToReadyList>:
10003540:	b510      	push	{r4, lr}
10003542:	4604      	mov	r4, r0
10003544:	f7ff ff12 	bl	1000336c <vTaskEnterCritical>
10003548:	4a1e      	ldr	r2, [pc, #120]	@ (100035c4 <prvAddNewTaskToReadyList+0x84>)
1000354a:	6813      	ldr	r3, [r2, #0]
1000354c:	3301      	adds	r3, #1
1000354e:	6013      	str	r3, [r2, #0]
10003550:	4b1d      	ldr	r3, [pc, #116]	@ (100035c8 <prvAddNewTaskToReadyList+0x88>)
10003552:	681b      	ldr	r3, [r3, #0]
10003554:	b913      	cbnz	r3, 1000355c <prvAddNewTaskToReadyList+0x1c>
10003556:	6813      	ldr	r3, [r2, #0]
10003558:	2b01      	cmp	r3, #1
1000355a:	d02b      	beq.n	100035b4 <prvAddNewTaskToReadyList+0x74>
1000355c:	4a1b      	ldr	r2, [pc, #108]	@ (100035cc <prvAddNewTaskToReadyList+0x8c>)
1000355e:	6813      	ldr	r3, [r2, #0]
10003560:	3301      	adds	r3, #1
10003562:	6013      	str	r3, [r2, #0]
10003564:	6523      	str	r3, [r4, #80]	@ 0x50
10003566:	6b23      	ldr	r3, [r4, #48]	@ 0x30
10003568:	4a19      	ldr	r2, [pc, #100]	@ (100035d0 <prvAddNewTaskToReadyList+0x90>)
1000356a:	6812      	ldr	r2, [r2, #0]
1000356c:	4293      	cmp	r3, r2
1000356e:	d901      	bls.n	10003574 <prvAddNewTaskToReadyList+0x34>
10003570:	4a17      	ldr	r2, [pc, #92]	@ (100035d0 <prvAddNewTaskToReadyList+0x90>)
10003572:	6013      	str	r3, [r2, #0]
10003574:	4a17      	ldr	r2, [pc, #92]	@ (100035d4 <prvAddNewTaskToReadyList+0x94>)
10003576:	eb03 0383 	add.w	r3, r3, r3, lsl #2
1000357a:	eb02 0383 	add.w	r3, r2, r3, lsl #2
1000357e:	685b      	ldr	r3, [r3, #4]
10003580:	60e3      	str	r3, [r4, #12]
10003582:	6898      	ldr	r0, [r3, #8]
10003584:	6120      	str	r0, [r4, #16]
10003586:	f104 0108 	add.w	r1, r4, #8
1000358a:	6041      	str	r1, [r0, #4]
1000358c:	6099      	str	r1, [r3, #8]
1000358e:	6b23      	ldr	r3, [r4, #48]	@ 0x30
10003590:	eb03 0183 	add.w	r1, r3, r3, lsl #2
10003594:	eb02 0081 	add.w	r0, r2, r1, lsl #2
10003598:	61a0      	str	r0, [r4, #24]
1000359a:	f852 1021 	ldr.w	r1, [r2, r1, lsl #2]
1000359e:	3101      	adds	r1, #1
100035a0:	eb03 0383 	add.w	r3, r3, r3, lsl #2
100035a4:	f842 1023 	str.w	r1, [r2, r3, lsl #2]
100035a8:	4b07      	ldr	r3, [pc, #28]	@ (100035c8 <prvAddNewTaskToReadyList+0x88>)
100035aa:	681b      	ldr	r3, [r3, #0]
100035ac:	b92b      	cbnz	r3, 100035ba <prvAddNewTaskToReadyList+0x7a>
100035ae:	f7ff ff3d 	bl	1000342c <vTaskExitCritical>
100035b2:	bd10      	pop	{r4, pc}
100035b4:	f7ff f812 	bl	100025dc <prvInitialiseTaskLists>
100035b8:	e7d0      	b.n	1000355c <prvAddNewTaskToReadyList+0x1c>
100035ba:	4620      	mov	r0, r4
100035bc:	f7ff f842 	bl	10002644 <prvYieldForTask>
100035c0:	e7f5      	b.n	100035ae <prvAddNewTaskToReadyList+0x6e>
100035c2:	bf00      	nop
100035c4:	20020c1c 	.word	0x20020c1c
100035c8:	20020d00 	.word	0x20020d00
100035cc:	20020c28 	.word	0x20020c28
100035d0:	20020c2c 	.word	0x20020c2c
100035d4:	2000097c 	.word	0x2000097c

100035d8 <xTaskCreate>:
100035d8:	b510      	push	{r4, lr}
100035da:	b082      	sub	sp, #8
100035dc:	9c05      	ldr	r4, [sp, #20]
100035de:	9401      	str	r4, [sp, #4]
100035e0:	9c04      	ldr	r4, [sp, #16]
100035e2:	9400      	str	r4, [sp, #0]
100035e4:	f7fe ffc0 	bl	10002568 <prvCreateTask>
100035e8:	b138      	cbz	r0, 100035fa <xTaskCreate+0x22>
100035ea:	f04f 32ff 	mov.w	r2, #4294967295
100035ee:	6042      	str	r2, [r0, #4]
100035f0:	f7ff ffa6 	bl	10003540 <prvAddNewTaskToReadyList>
100035f4:	2001      	movs	r0, #1
100035f6:	b002      	add	sp, #8
100035f8:	bd10      	pop	{r4, pc}
100035fa:	f04f 30ff 	mov.w	r0, #4294967295
100035fe:	e7fa      	b.n	100035f6 <xTaskCreate+0x1e>

10003600 <prvCreateIdleTasks>:
10003600:	b530      	push	{r4, r5, lr}
10003602:	b087      	sub	sp, #28
10003604:	2400      	movs	r4, #0
10003606:	2c0f      	cmp	r4, #15
10003608:	dc09      	bgt.n	1000361e <prvCreateIdleTasks+0x1e>
1000360a:	4b1f      	ldr	r3, [pc, #124]	@ (10003688 <prvCreateIdleTasks+0x88>)
1000360c:	5d1b      	ldrb	r3, [r3, r4]
1000360e:	f104 0218 	add.w	r2, r4, #24
10003612:	446a      	add	r2, sp
10003614:	f802 3c10 	strb.w	r3, [r2, #-16]
10003618:	b10b      	cbz	r3, 1000361e <prvCreateIdleTasks+0x1e>
1000361a:	3401      	adds	r4, #1
1000361c:	e7f3      	b.n	10003606 <prvCreateIdleTasks+0x6>
1000361e:	2500      	movs	r5, #0
10003620:	2201      	movs	r2, #1
10003622:	e016      	b.n	10003652 <prvCreateIdleTasks+0x52>
10003624:	4819      	ldr	r0, [pc, #100]	@ (1000368c <prvCreateIdleTasks+0x8c>)
10003626:	e019      	b.n	1000365c <prvCreateIdleTasks+0x5c>
10003628:	4b19      	ldr	r3, [pc, #100]	@ (10003690 <prvCreateIdleTasks+0x90>)
1000362a:	eb03 0385 	add.w	r3, r3, r5, lsl #2
1000362e:	9301      	str	r3, [sp, #4]
10003630:	2300      	movs	r3, #0
10003632:	9300      	str	r3, [sp, #0]
10003634:	f44f 7200 	mov.w	r2, #512	@ 0x200
10003638:	a902      	add	r1, sp, #8
1000363a:	f7ff ffcd 	bl	100035d8 <xTaskCreate>
1000363e:	4602      	mov	r2, r0
10003640:	b1f0      	cbz	r0, 10003680 <prvCreateIdleTasks+0x80>
10003642:	4b13      	ldr	r3, [pc, #76]	@ (10003690 <prvCreateIdleTasks+0x90>)
10003644:	f853 3025 	ldr.w	r3, [r3, r5, lsl #2]
10003648:	639d      	str	r5, [r3, #56]	@ 0x38
1000364a:	4912      	ldr	r1, [pc, #72]	@ (10003694 <prvCreateIdleTasks+0x94>)
1000364c:	f841 3025 	str.w	r3, [r1, r5, lsl #2]
10003650:	3501      	adds	r5, #1
10003652:	2d01      	cmp	r5, #1
10003654:	dc14      	bgt.n	10003680 <prvCreateIdleTasks+0x80>
10003656:	2d00      	cmp	r5, #0
10003658:	d0e4      	beq.n	10003624 <prvCreateIdleTasks+0x24>
1000365a:	480f      	ldr	r0, [pc, #60]	@ (10003698 <prvCreateIdleTasks+0x98>)
1000365c:	2c0f      	cmp	r4, #15
1000365e:	dce3      	bgt.n	10003628 <prvCreateIdleTasks+0x28>
10003660:	f105 0330 	add.w	r3, r5, #48	@ 0x30
10003664:	f104 0218 	add.w	r2, r4, #24
10003668:	446a      	add	r2, sp
1000366a:	f802 3c10 	strb.w	r3, [r2, #-16]
1000366e:	2c0e      	cmp	r4, #14
10003670:	dcda      	bgt.n	10003628 <prvCreateIdleTasks+0x28>
10003672:	f104 0319 	add.w	r3, r4, #25
10003676:	446b      	add	r3, sp
10003678:	2200      	movs	r2, #0
1000367a:	f803 2c10 	strb.w	r2, [r3, #-16]
1000367e:	e7d3      	b.n	10003628 <prvCreateIdleTasks+0x28>
10003680:	4610      	mov	r0, r2
10003682:	b007      	add	sp, #28
10003684:	bd30      	pop	{r4, r5, pc}
10003686:	bf00      	nop
10003688:	100087a0 	.word	0x100087a0
1000368c:	10003525 	.word	0x10003525
10003690:	20020c88 	.word	0x20020c88
10003694:	20000960 	.word	0x20000960
10003698:	100025c5 	.word	0x100025c5

1000369c <vTaskStartScheduler>:
1000369c:	b508      	push	{r3, lr}
1000369e:	f7ff ffaf 	bl	10003600 <prvCreateIdleTasks>
100036a2:	2801      	cmp	r0, #1
100036a4:	d005      	beq.n	100036b2 <vTaskStartScheduler+0x16>
100036a6:	f1b0 3fff 	cmp.w	r0, #4294967295
100036aa:	d015      	beq.n	100036d8 <vTaskStartScheduler+0x3c>
100036ac:	4b0e      	ldr	r3, [pc, #56]	@ (100036e8 <vTaskStartScheduler+0x4c>)
100036ae:	681b      	ldr	r3, [r3, #0]
100036b0:	bd08      	pop	{r3, pc}
100036b2:	f000 fe83 	bl	100043bc <xTimerCreateTimerTask>
100036b6:	2801      	cmp	r0, #1
100036b8:	d1f5      	bne.n	100036a6 <vTaskStartScheduler+0xa>
100036ba:	f7fd febd 	bl	10001438 <ulSetInterruptMask>
100036be:	4b0b      	ldr	r3, [pc, #44]	@ (100036ec <vTaskStartScheduler+0x50>)
100036c0:	f04f 32ff 	mov.w	r2, #4294967295
100036c4:	601a      	str	r2, [r3, #0]
100036c6:	4b0a      	ldr	r3, [pc, #40]	@ (100036f0 <vTaskStartScheduler+0x54>)
100036c8:	2201      	movs	r2, #1
100036ca:	601a      	str	r2, [r3, #0]
100036cc:	4b09      	ldr	r3, [pc, #36]	@ (100036f4 <vTaskStartScheduler+0x58>)
100036ce:	2200      	movs	r2, #0
100036d0:	601a      	str	r2, [r3, #0]
100036d2:	f7fd fd0b 	bl	100010ec <xPortStartScheduler>
100036d6:	e7e9      	b.n	100036ac <vTaskStartScheduler+0x10>
100036d8:	4b07      	ldr	r3, [pc, #28]	@ (100036f8 <vTaskStartScheduler+0x5c>)
100036da:	4a08      	ldr	r2, [pc, #32]	@ (100036fc <vTaskStartScheduler+0x60>)
100036dc:	f640 61ad 	movw	r1, #3757	@ 0xead
100036e0:	4807      	ldr	r0, [pc, #28]	@ (10003700 <vTaskStartScheduler+0x64>)
100036e2:	f003 fca9 	bl	10007038 <__assert_func>
100036e6:	bf00      	nop
100036e8:	100095cc 	.word	0x100095cc
100036ec:	20020c98 	.word	0x20020c98
100036f0:	20020d00 	.word	0x20020d00
100036f4:	20020d34 	.word	0x20020d34
100036f8:	100087a8 	.word	0x100087a8
100036fc:	10009578 	.word	0x10009578
10003700:	100083ec 	.word	0x100083ec

10003704 <xTaskCreateAffinitySet>:
10003704:	b510      	push	{r4, lr}
10003706:	b082      	sub	sp, #8
10003708:	9c06      	ldr	r4, [sp, #24]
1000370a:	9401      	str	r4, [sp, #4]
1000370c:	9c04      	ldr	r4, [sp, #16]
1000370e:	9400      	str	r4, [sp, #0]
10003710:	f7fe ff2a 	bl	10002568 <prvCreateTask>
10003714:	b130      	cbz	r0, 10003724 <xTaskCreateAffinitySet+0x20>
10003716:	9a05      	ldr	r2, [sp, #20]
10003718:	6042      	str	r2, [r0, #4]
1000371a:	f7ff ff11 	bl	10003540 <prvAddNewTaskToReadyList>
1000371e:	2001      	movs	r0, #1
10003720:	b002      	add	sp, #8
10003722:	bd10      	pop	{r4, pc}
10003724:	f04f 30ff 	mov.w	r0, #4294967295
10003728:	e7fa      	b.n	10003720 <xTaskCreateAffinitySet+0x1c>
	...

1000372c <vTaskDelete>:
1000372c:	b538      	push	{r3, r4, r5, lr}
1000372e:	4604      	mov	r4, r0
10003730:	f7ff fe1c 	bl	1000336c <vTaskEnterCritical>
10003734:	b31c      	cbz	r4, 1000377e <vTaskDelete+0x52>
10003736:	f104 0508 	add.w	r5, r4, #8
1000373a:	4628      	mov	r0, r5
1000373c:	f7fe f818 	bl	10001770 <uxListRemove>
10003740:	6ae3      	ldr	r3, [r4, #44]	@ 0x2c
10003742:	b11b      	cbz	r3, 1000374c <vTaskDelete+0x20>
10003744:	f104 001c 	add.w	r0, r4, #28
10003748:	f7fe f812 	bl	10001770 <uxListRemove>
1000374c:	4a35      	ldr	r2, [pc, #212]	@ (10003824 <vTaskDelete+0xf8>)
1000374e:	6813      	ldr	r3, [r2, #0]
10003750:	3301      	adds	r3, #1
10003752:	6013      	str	r3, [r2, #0]
10003754:	6ba3      	ldr	r3, [r4, #56]	@ 0x38
10003756:	f1b3 3fff 	cmp.w	r3, #4294967295
1000375a:	d014      	beq.n	10003786 <vTaskDelete+0x5a>
1000375c:	2201      	movs	r2, #1
1000375e:	4b32      	ldr	r3, [pc, #200]	@ (10003828 <vTaskDelete+0xfc>)
10003760:	681b      	ldr	r3, [r3, #0]
10003762:	b103      	cbz	r3, 10003766 <vTaskDelete+0x3a>
10003764:	b98a      	cbnz	r2, 1000378a <vTaskDelete+0x5e>
10003766:	4a31      	ldr	r2, [pc, #196]	@ (1000382c <vTaskDelete+0x100>)
10003768:	6813      	ldr	r3, [r2, #0]
1000376a:	3b01      	subs	r3, #1
1000376c:	6013      	str	r3, [r2, #0]
1000376e:	f7fe fdf5 	bl	1000235c <prvResetNextTaskUnblockTime>
10003772:	f7ff fe5b 	bl	1000342c <vTaskExitCritical>
10003776:	4620      	mov	r0, r4
10003778:	f7fe fe04 	bl	10002384 <prvDeleteTCB>
1000377c:	bd38      	pop	{r3, r4, r5, pc}
1000377e:	f7ff fb67 	bl	10002e50 <xTaskGetCurrentTaskHandle>
10003782:	4604      	mov	r4, r0
10003784:	e7d7      	b.n	10003736 <vTaskDelete+0xa>
10003786:	2200      	movs	r2, #0
10003788:	e7e9      	b.n	1000375e <vTaskDelete+0x32>
1000378a:	4629      	mov	r1, r5
1000378c:	4828      	ldr	r0, [pc, #160]	@ (10003830 <vTaskDelete+0x104>)
1000378e:	f7fd ffcb 	bl	10001728 <vListInsertEnd>
10003792:	4a28      	ldr	r2, [pc, #160]	@ (10003834 <vTaskDelete+0x108>)
10003794:	6813      	ldr	r3, [r2, #0]
10003796:	3301      	adds	r3, #1
10003798:	6013      	str	r3, [r2, #0]
1000379a:	6ba3      	ldr	r3, [r4, #56]	@ 0x38
1000379c:	2b00      	cmp	r3, #0
1000379e:	db20      	blt.n	100037e2 <vTaskDelete+0xb6>
100037a0:	6ba3      	ldr	r3, [r4, #56]	@ 0x38
100037a2:	2b01      	cmp	r3, #1
100037a4:	dc20      	bgt.n	100037e8 <vTaskDelete+0xbc>
100037a6:	6ba2      	ldr	r2, [r4, #56]	@ 0x38
100037a8:	f04f 4350 	mov.w	r3, #3489660928	@ 0xd0000000
100037ac:	681b      	ldr	r3, [r3, #0]
100037ae:	429a      	cmp	r2, r3
100037b0:	d01d      	beq.n	100037ee <vTaskDelete+0xc2>
100037b2:	6ba2      	ldr	r2, [r4, #56]	@ 0x38
100037b4:	4293      	cmp	r3, r2
100037b6:	d029      	beq.n	1000380c <vTaskDelete+0xe0>
100037b8:	6ba2      	ldr	r2, [r4, #56]	@ 0x38
100037ba:	4b1f      	ldr	r3, [pc, #124]	@ (10003838 <vTaskDelete+0x10c>)
100037bc:	f853 3022 	ldr.w	r3, [r3, r2, lsl #2]
100037c0:	6b9b      	ldr	r3, [r3, #56]	@ 0x38
100037c2:	f113 0f02 	cmn.w	r3, #2
100037c6:	d029      	beq.n	1000381c <vTaskDelete+0xf0>
100037c8:	6ba0      	ldr	r0, [r4, #56]	@ 0x38
100037ca:	f7fd fde3 	bl	10001394 <vYieldCore>
100037ce:	6ba2      	ldr	r2, [r4, #56]	@ 0x38
100037d0:	4b19      	ldr	r3, [pc, #100]	@ (10003838 <vTaskDelete+0x10c>)
100037d2:	f853 3022 	ldr.w	r3, [r3, r2, lsl #2]
100037d6:	f06f 0201 	mvn.w	r2, #1
100037da:	639a      	str	r2, [r3, #56]	@ 0x38
100037dc:	f7ff fe26 	bl	1000342c <vTaskExitCritical>
100037e0:	e7cc      	b.n	1000377c <vTaskDelete+0x50>
100037e2:	f7ff fe23 	bl	1000342c <vTaskExitCritical>
100037e6:	e7c9      	b.n	1000377c <vTaskDelete+0x50>
100037e8:	f7ff fe20 	bl	1000342c <vTaskExitCritical>
100037ec:	e7c6      	b.n	1000377c <vTaskDelete+0x50>
100037ee:	4b13      	ldr	r3, [pc, #76]	@ (1000383c <vTaskDelete+0x110>)
100037f0:	681b      	ldr	r3, [r3, #0]
100037f2:	b923      	cbnz	r3, 100037fe <vTaskDelete+0xd2>
100037f4:	f7ff fda6 	bl	10003344 <vTaskYieldWithinAPI>
100037f8:	f7ff fe18 	bl	1000342c <vTaskExitCritical>
100037fc:	e7be      	b.n	1000377c <vTaskDelete+0x50>
100037fe:	4b10      	ldr	r3, [pc, #64]	@ (10003840 <vTaskDelete+0x114>)
10003800:	4a10      	ldr	r2, [pc, #64]	@ (10003844 <vTaskDelete+0x118>)
10003802:	f640 01ef 	movw	r1, #2287	@ 0x8ef
10003806:	4810      	ldr	r0, [pc, #64]	@ (10003848 <vTaskDelete+0x11c>)
10003808:	f003 fc16 	bl	10007038 <__assert_func>
1000380c:	6ba2      	ldr	r2, [r4, #56]	@ 0x38
1000380e:	4b0f      	ldr	r3, [pc, #60]	@ (1000384c <vTaskDelete+0x120>)
10003810:	2101      	movs	r1, #1
10003812:	f843 1022 	str.w	r1, [r3, r2, lsl #2]
10003816:	f7ff fe09 	bl	1000342c <vTaskExitCritical>
1000381a:	e7af      	b.n	1000377c <vTaskDelete+0x50>
1000381c:	f7ff fe06 	bl	1000342c <vTaskExitCritical>
10003820:	e7ac      	b.n	1000377c <vTaskDelete+0x50>
10003822:	bf00      	nop
10003824:	20020c28 	.word	0x20020c28
10003828:	20020d00 	.word	0x20020d00
1000382c:	20020c1c 	.word	0x20020c1c
10003830:	20020d20 	.word	0x20020d20
10003834:	20020c20 	.word	0x20020c20
10003838:	20000960 	.word	0x20000960
1000383c:	20020c24 	.word	0x20020c24
10003840:	100087bc 	.word	0x100087bc
10003844:	10009598 	.word	0x10009598
10003848:	100083ec 	.word	0x100083ec
1000384c:	20020d40 	.word	0x20020d40

10003850 <vTaskCoreAffinitySet>:
10003850:	b538      	push	{r3, r4, r5, lr}
10003852:	4604      	mov	r4, r0
10003854:	460d      	mov	r5, r1
10003856:	f7ff fd89 	bl	1000336c <vTaskEnterCritical>
1000385a:	b194      	cbz	r4, 10003882 <vTaskCoreAffinitySet+0x32>
1000385c:	6863      	ldr	r3, [r4, #4]
1000385e:	6065      	str	r5, [r4, #4]
10003860:	4a1c      	ldr	r2, [pc, #112]	@ (100038d4 <vTaskCoreAffinitySet+0x84>)
10003862:	6812      	ldr	r2, [r2, #0]
10003864:	b152      	cbz	r2, 1000387c <vTaskCoreAffinitySet+0x2c>
10003866:	6ba2      	ldr	r2, [r4, #56]	@ 0x38
10003868:	2a00      	cmp	r2, #0
1000386a:	db02      	blt.n	10003872 <vTaskCoreAffinitySet+0x22>
1000386c:	6ba2      	ldr	r2, [r4, #56]	@ 0x38
1000386e:	2a01      	cmp	r2, #1
10003870:	dd0b      	ble.n	1000388a <vTaskCoreAffinitySet+0x3a>
10003872:	43db      	mvns	r3, r3
10003874:	f003 0303 	and.w	r3, r3, #3
10003878:	421d      	tst	r5, r3
1000387a:	d126      	bne.n	100038ca <vTaskCoreAffinitySet+0x7a>
1000387c:	f7ff fdd6 	bl	1000342c <vTaskExitCritical>
10003880:	bd38      	pop	{r3, r4, r5, pc}
10003882:	f7ff fae5 	bl	10002e50 <xTaskGetCurrentTaskHandle>
10003886:	4604      	mov	r4, r0
10003888:	e7e8      	b.n	1000385c <vTaskCoreAffinitySet+0xc>
1000388a:	6ba4      	ldr	r4, [r4, #56]	@ 0x38
1000388c:	40e5      	lsrs	r5, r4
1000388e:	f015 0f01 	tst.w	r5, #1
10003892:	d1f3      	bne.n	1000387c <vTaskCoreAffinitySet+0x2c>
10003894:	f04f 4350 	mov.w	r3, #3489660928	@ 0xd0000000
10003898:	681b      	ldr	r3, [r3, #0]
1000389a:	429c      	cmp	r4, r3
1000389c:	d010      	beq.n	100038c0 <vTaskCoreAffinitySet+0x70>
1000389e:	4b0e      	ldr	r3, [pc, #56]	@ (100038d8 <vTaskCoreAffinitySet+0x88>)
100038a0:	f853 3024 	ldr.w	r3, [r3, r4, lsl #2]
100038a4:	6b9b      	ldr	r3, [r3, #56]	@ 0x38
100038a6:	f113 0f02 	cmn.w	r3, #2
100038aa:	d0e7      	beq.n	1000387c <vTaskCoreAffinitySet+0x2c>
100038ac:	4620      	mov	r0, r4
100038ae:	f7fd fd71 	bl	10001394 <vYieldCore>
100038b2:	4b09      	ldr	r3, [pc, #36]	@ (100038d8 <vTaskCoreAffinitySet+0x88>)
100038b4:	f853 3024 	ldr.w	r3, [r3, r4, lsl #2]
100038b8:	f06f 0201 	mvn.w	r2, #1
100038bc:	639a      	str	r2, [r3, #56]	@ 0x38
100038be:	e7dd      	b.n	1000387c <vTaskCoreAffinitySet+0x2c>
100038c0:	4b06      	ldr	r3, [pc, #24]	@ (100038dc <vTaskCoreAffinitySet+0x8c>)
100038c2:	2201      	movs	r2, #1
100038c4:	f843 2024 	str.w	r2, [r3, r4, lsl #2]
100038c8:	e7d8      	b.n	1000387c <vTaskCoreAffinitySet+0x2c>
100038ca:	4620      	mov	r0, r4
100038cc:	f7fe feba 	bl	10002644 <prvYieldForTask>
100038d0:	e7d4      	b.n	1000387c <vTaskCoreAffinitySet+0x2c>
100038d2:	bf00      	nop
100038d4:	20020d00 	.word	0x20020d00
100038d8:	20000960 	.word	0x20000960
100038dc:	20020d40 	.word	0x20020d40

100038e0 <xTaskResumeAll>:
100038e0:	b538      	push	{r3, r4, r5, lr}
100038e2:	4b4a      	ldr	r3, [pc, #296]	@ (10003a0c <xTaskResumeAll+0x12c>)
100038e4:	681c      	ldr	r4, [r3, #0]
100038e6:	b90c      	cbnz	r4, 100038ec <xTaskResumeAll+0xc>
100038e8:	4620      	mov	r0, r4
100038ea:	bd38      	pop	{r3, r4, r5, pc}
100038ec:	f7ff fd3e 	bl	1000336c <vTaskEnterCritical>
100038f0:	f04f 4350 	mov.w	r3, #3489660928	@ 0xd0000000
100038f4:	681c      	ldr	r4, [r3, #0]
100038f6:	4b46      	ldr	r3, [pc, #280]	@ (10003a10 <xTaskResumeAll+0x130>)
100038f8:	681b      	ldr	r3, [r3, #0]
100038fa:	b18b      	cbz	r3, 10003920 <xTaskResumeAll+0x40>
100038fc:	4d44      	ldr	r5, [pc, #272]	@ (10003a10 <xTaskResumeAll+0x130>)
100038fe:	682b      	ldr	r3, [r5, #0]
10003900:	3b01      	subs	r3, #1
10003902:	602b      	str	r3, [r5, #0]
10003904:	2200      	movs	r2, #0
10003906:	4943      	ldr	r1, [pc, #268]	@ (10003a14 <xTaskResumeAll+0x134>)
10003908:	2001      	movs	r0, #1
1000390a:	f7fe fd45 	bl	10002398 <vPortRecursiveLock>
1000390e:	682b      	ldr	r3, [r5, #0]
10003910:	2b00      	cmp	r3, #0
10003912:	d176      	bne.n	10003a02 <xTaskResumeAll+0x122>
10003914:	4b40      	ldr	r3, [pc, #256]	@ (10003a18 <xTaskResumeAll+0x138>)
10003916:	681b      	ldr	r3, [r3, #0]
10003918:	2b00      	cmp	r3, #0
1000391a:	d155      	bne.n	100039c8 <xTaskResumeAll+0xe8>
1000391c:	2400      	movs	r4, #0
1000391e:	e071      	b.n	10003a04 <xTaskResumeAll+0x124>
10003920:	4b3e      	ldr	r3, [pc, #248]	@ (10003a1c <xTaskResumeAll+0x13c>)
10003922:	4a3f      	ldr	r2, [pc, #252]	@ (10003a20 <xTaskResumeAll+0x140>)
10003924:	f640 718f 	movw	r1, #3983	@ 0xf8f
10003928:	483e      	ldr	r0, [pc, #248]	@ (10003a24 <xTaskResumeAll+0x144>)
1000392a:	f003 fb85 	bl	10007038 <__assert_func>
1000392e:	6a59      	ldr	r1, [r3, #36]	@ 0x24
10003930:	6051      	str	r1, [r2, #4]
10003932:	e02c      	b.n	1000398e <xTaskResumeAll+0xae>
10003934:	6919      	ldr	r1, [r3, #16]
10003936:	6051      	str	r1, [r2, #4]
10003938:	e039      	b.n	100039ae <xTaskResumeAll+0xce>
1000393a:	493b      	ldr	r1, [pc, #236]	@ (10003a28 <xTaskResumeAll+0x148>)
1000393c:	eb02 0282 	add.w	r2, r2, r2, lsl #2
10003940:	eb01 0282 	add.w	r2, r1, r2, lsl #2
10003944:	6852      	ldr	r2, [r2, #4]
10003946:	60da      	str	r2, [r3, #12]
10003948:	6895      	ldr	r5, [r2, #8]
1000394a:	611d      	str	r5, [r3, #16]
1000394c:	6068      	str	r0, [r5, #4]
1000394e:	6090      	str	r0, [r2, #8]
10003950:	6b1a      	ldr	r2, [r3, #48]	@ 0x30
10003952:	eb02 0082 	add.w	r0, r2, r2, lsl #2
10003956:	eb01 0580 	add.w	r5, r1, r0, lsl #2
1000395a:	619d      	str	r5, [r3, #24]
1000395c:	f851 0020 	ldr.w	r0, [r1, r0, lsl #2]
10003960:	3001      	adds	r0, #1
10003962:	eb02 0282 	add.w	r2, r2, r2, lsl #2
10003966:	f841 0022 	str.w	r0, [r1, r2, lsl #2]
1000396a:	4a30      	ldr	r2, [pc, #192]	@ (10003a2c <xTaskResumeAll+0x14c>)
1000396c:	6812      	ldr	r2, [r2, #0]
1000396e:	2a00      	cmp	r2, #0
10003970:	d02c      	beq.n	100039cc <xTaskResumeAll+0xec>
10003972:	4b2e      	ldr	r3, [pc, #184]	@ (10003a2c <xTaskResumeAll+0x14c>)
10003974:	68db      	ldr	r3, [r3, #12]
10003976:	68db      	ldr	r3, [r3, #12]
10003978:	6ada      	ldr	r2, [r3, #44]	@ 0x2c
1000397a:	6a18      	ldr	r0, [r3, #32]
1000397c:	6a59      	ldr	r1, [r3, #36]	@ 0x24
1000397e:	6081      	str	r1, [r0, #8]
10003980:	6a18      	ldr	r0, [r3, #32]
10003982:	6048      	str	r0, [r1, #4]
10003984:	6850      	ldr	r0, [r2, #4]
10003986:	f103 011c 	add.w	r1, r3, #28
1000398a:	4288      	cmp	r0, r1
1000398c:	d0cf      	beq.n	1000392e <xTaskResumeAll+0x4e>
1000398e:	2100      	movs	r1, #0
10003990:	62d9      	str	r1, [r3, #44]	@ 0x2c
10003992:	6811      	ldr	r1, [r2, #0]
10003994:	3901      	subs	r1, #1
10003996:	6011      	str	r1, [r2, #0]
10003998:	699a      	ldr	r2, [r3, #24]
1000399a:	68d8      	ldr	r0, [r3, #12]
1000399c:	6919      	ldr	r1, [r3, #16]
1000399e:	6081      	str	r1, [r0, #8]
100039a0:	68d8      	ldr	r0, [r3, #12]
100039a2:	6048      	str	r0, [r1, #4]
100039a4:	6851      	ldr	r1, [r2, #4]
100039a6:	f103 0008 	add.w	r0, r3, #8
100039aa:	4281      	cmp	r1, r0
100039ac:	d0c2      	beq.n	10003934 <xTaskResumeAll+0x54>
100039ae:	2100      	movs	r1, #0
100039b0:	6199      	str	r1, [r3, #24]
100039b2:	6811      	ldr	r1, [r2, #0]
100039b4:	3901      	subs	r1, #1
100039b6:	6011      	str	r1, [r2, #0]
100039b8:	6b1a      	ldr	r2, [r3, #48]	@ 0x30
100039ba:	491d      	ldr	r1, [pc, #116]	@ (10003a30 <xTaskResumeAll+0x150>)
100039bc:	6809      	ldr	r1, [r1, #0]
100039be:	428a      	cmp	r2, r1
100039c0:	d9bb      	bls.n	1000393a <xTaskResumeAll+0x5a>
100039c2:	491b      	ldr	r1, [pc, #108]	@ (10003a30 <xTaskResumeAll+0x150>)
100039c4:	600a      	str	r2, [r1, #0]
100039c6:	e7b8      	b.n	1000393a <xTaskResumeAll+0x5a>
100039c8:	2300      	movs	r3, #0
100039ca:	e7ce      	b.n	1000396a <xTaskResumeAll+0x8a>
100039cc:	b10b      	cbz	r3, 100039d2 <xTaskResumeAll+0xf2>
100039ce:	f7fe fcc5 	bl	1000235c <prvResetNextTaskUnblockTime>
100039d2:	4b18      	ldr	r3, [pc, #96]	@ (10003a34 <xTaskResumeAll+0x154>)
100039d4:	681d      	ldr	r5, [r3, #0]
100039d6:	b93d      	cbnz	r5, 100039e8 <xTaskResumeAll+0x108>
100039d8:	4b17      	ldr	r3, [pc, #92]	@ (10003a38 <xTaskResumeAll+0x158>)
100039da:	f853 4024 	ldr.w	r4, [r3, r4, lsl #2]
100039de:	b18c      	cbz	r4, 10003a04 <xTaskResumeAll+0x124>
100039e0:	2401      	movs	r4, #1
100039e2:	e00f      	b.n	10003a04 <xTaskResumeAll+0x124>
100039e4:	3d01      	subs	r5, #1
100039e6:	d008      	beq.n	100039fa <xTaskResumeAll+0x11a>
100039e8:	f7ff f85e 	bl	10002aa8 <xTaskIncrementTick>
100039ec:	2800      	cmp	r0, #0
100039ee:	d0f9      	beq.n	100039e4 <xTaskResumeAll+0x104>
100039f0:	4b11      	ldr	r3, [pc, #68]	@ (10003a38 <xTaskResumeAll+0x158>)
100039f2:	2201      	movs	r2, #1
100039f4:	f843 2024 	str.w	r2, [r3, r4, lsl #2]
100039f8:	e7f4      	b.n	100039e4 <xTaskResumeAll+0x104>
100039fa:	4b0e      	ldr	r3, [pc, #56]	@ (10003a34 <xTaskResumeAll+0x154>)
100039fc:	2200      	movs	r2, #0
100039fe:	601a      	str	r2, [r3, #0]
10003a00:	e7ea      	b.n	100039d8 <xTaskResumeAll+0xf8>
10003a02:	2400      	movs	r4, #0
10003a04:	f7ff fd12 	bl	1000342c <vTaskExitCritical>
10003a08:	e76e      	b.n	100038e8 <xTaskResumeAll+0x8>
10003a0a:	bf00      	nop
10003a0c:	20020d00 	.word	0x20020d00
10003a10:	20020c24 	.word	0x20020c24
10003a14:	200008cf 	.word	0x200008cf
10003a18:	20020c1c 	.word	0x20020c1c
10003a1c:	100087d8 	.word	0x100087d8
10003a20:	10009528 	.word	0x10009528
10003a24:	100083ec 	.word	0x100083ec
10003a28:	2000097c 	.word	0x2000097c
10003a2c:	20020cac 	.word	0x20020cac
10003a30:	20020c2c 	.word	0x20020c2c
10003a34:	20020ca8 	.word	0x20020ca8
10003a38:	20020d40 	.word	0x20020d40

10003a3c <vTaskDelay>:
10003a3c:	b510      	push	{r4, lr}
10003a3e:	b168      	cbz	r0, 10003a5c <vTaskDelay+0x20>
10003a40:	4604      	mov	r4, r0
10003a42:	f7fe ffe1 	bl	10002a08 <vTaskSuspendAll>
10003a46:	4b0a      	ldr	r3, [pc, #40]	@ (10003a70 <vTaskDelay+0x34>)
10003a48:	681b      	ldr	r3, [r3, #0]
10003a4a:	2b01      	cmp	r3, #1
10003a4c:	d109      	bne.n	10003a62 <vTaskDelay+0x26>
10003a4e:	2100      	movs	r1, #0
10003a50:	4620      	mov	r0, r4
10003a52:	f7ff fa0d 	bl	10002e70 <prvAddCurrentTaskToDelayedList>
10003a56:	f7ff ff43 	bl	100038e0 <xTaskResumeAll>
10003a5a:	b908      	cbnz	r0, 10003a60 <vTaskDelay+0x24>
10003a5c:	f7ff fc72 	bl	10003344 <vTaskYieldWithinAPI>
10003a60:	bd10      	pop	{r4, pc}
10003a62:	4b04      	ldr	r3, [pc, #16]	@ (10003a74 <vTaskDelay+0x38>)
10003a64:	4a04      	ldr	r2, [pc, #16]	@ (10003a78 <vTaskDelay+0x3c>)
10003a66:	f44f 6119 	mov.w	r1, #2448	@ 0x990
10003a6a:	4804      	ldr	r0, [pc, #16]	@ (10003a7c <vTaskDelay+0x40>)
10003a6c:	f003 fae4 	bl	10007038 <__assert_func>
10003a70:	20020c24 	.word	0x20020c24
10003a74:	10008820 	.word	0x10008820
10003a78:	1000958c 	.word	0x1000958c
10003a7c:	100083ec 	.word	0x100083ec

10003a80 <vTaskRemoveFromUnorderedEventList>:
10003a80:	b510      	push	{r4, lr}
10003a82:	4b31      	ldr	r3, [pc, #196]	@ (10003b48 <vTaskRemoveFromUnorderedEventList+0xc8>)
10003a84:	681b      	ldr	r3, [r3, #0]
10003a86:	2b00      	cmp	r3, #0
10003a88:	d04a      	beq.n	10003b20 <vTaskRemoveFromUnorderedEventList+0xa0>
10003a8a:	f041 4100 	orr.w	r1, r1, #2147483648	@ 0x80000000
10003a8e:	6001      	str	r1, [r0, #0]
10003a90:	68c4      	ldr	r4, [r0, #12]
10003a92:	2c00      	cmp	r4, #0
10003a94:	d04b      	beq.n	10003b2e <vTaskRemoveFromUnorderedEventList+0xae>
10003a96:	6903      	ldr	r3, [r0, #16]
10003a98:	6841      	ldr	r1, [r0, #4]
10003a9a:	6882      	ldr	r2, [r0, #8]
10003a9c:	608a      	str	r2, [r1, #8]
10003a9e:	6841      	ldr	r1, [r0, #4]
10003aa0:	6051      	str	r1, [r2, #4]
10003aa2:	685a      	ldr	r2, [r3, #4]
10003aa4:	4282      	cmp	r2, r0
10003aa6:	d049      	beq.n	10003b3c <vTaskRemoveFromUnorderedEventList+0xbc>
10003aa8:	2200      	movs	r2, #0
10003aaa:	6102      	str	r2, [r0, #16]
10003aac:	681a      	ldr	r2, [r3, #0]
10003aae:	3a01      	subs	r2, #1
10003ab0:	601a      	str	r2, [r3, #0]
10003ab2:	69a3      	ldr	r3, [r4, #24]
10003ab4:	68e1      	ldr	r1, [r4, #12]
10003ab6:	6922      	ldr	r2, [r4, #16]
10003ab8:	608a      	str	r2, [r1, #8]
10003aba:	68e1      	ldr	r1, [r4, #12]
10003abc:	6051      	str	r1, [r2, #4]
10003abe:	685a      	ldr	r2, [r3, #4]
10003ac0:	f104 0008 	add.w	r0, r4, #8
10003ac4:	4282      	cmp	r2, r0
10003ac6:	d03c      	beq.n	10003b42 <vTaskRemoveFromUnorderedEventList+0xc2>
10003ac8:	2200      	movs	r2, #0
10003aca:	61a2      	str	r2, [r4, #24]
10003acc:	681a      	ldr	r2, [r3, #0]
10003ace:	3a01      	subs	r2, #1
10003ad0:	601a      	str	r2, [r3, #0]
10003ad2:	6b23      	ldr	r3, [r4, #48]	@ 0x30
10003ad4:	4a1d      	ldr	r2, [pc, #116]	@ (10003b4c <vTaskRemoveFromUnorderedEventList+0xcc>)
10003ad6:	6812      	ldr	r2, [r2, #0]
10003ad8:	4293      	cmp	r3, r2
10003ada:	d901      	bls.n	10003ae0 <vTaskRemoveFromUnorderedEventList+0x60>
10003adc:	4a1b      	ldr	r2, [pc, #108]	@ (10003b4c <vTaskRemoveFromUnorderedEventList+0xcc>)
10003ade:	6013      	str	r3, [r2, #0]
10003ae0:	4a1b      	ldr	r2, [pc, #108]	@ (10003b50 <vTaskRemoveFromUnorderedEventList+0xd0>)
10003ae2:	eb03 0383 	add.w	r3, r3, r3, lsl #2
10003ae6:	eb02 0383 	add.w	r3, r2, r3, lsl #2
10003aea:	685b      	ldr	r3, [r3, #4]
10003aec:	60e3      	str	r3, [r4, #12]
10003aee:	6899      	ldr	r1, [r3, #8]
10003af0:	6121      	str	r1, [r4, #16]
10003af2:	6048      	str	r0, [r1, #4]
10003af4:	6098      	str	r0, [r3, #8]
10003af6:	6b23      	ldr	r3, [r4, #48]	@ 0x30
10003af8:	eb03 0183 	add.w	r1, r3, r3, lsl #2
10003afc:	eb02 0081 	add.w	r0, r2, r1, lsl #2
10003b00:	61a0      	str	r0, [r4, #24]
10003b02:	f852 1021 	ldr.w	r1, [r2, r1, lsl #2]
10003b06:	3101      	adds	r1, #1
10003b08:	eb03 0383 	add.w	r3, r3, r3, lsl #2
10003b0c:	f842 1023 	str.w	r1, [r2, r3, lsl #2]
10003b10:	f7ff fc2c 	bl	1000336c <vTaskEnterCritical>
10003b14:	4620      	mov	r0, r4
10003b16:	f7fe fd95 	bl	10002644 <prvYieldForTask>
10003b1a:	f7ff fc87 	bl	1000342c <vTaskExitCritical>
10003b1e:	bd10      	pop	{r4, pc}
10003b20:	4b0c      	ldr	r3, [pc, #48]	@ (10003b54 <vTaskRemoveFromUnorderedEventList+0xd4>)
10003b22:	4a0d      	ldr	r2, [pc, #52]	@ (10003b58 <vTaskRemoveFromUnorderedEventList+0xd8>)
10003b24:	f241 5147 	movw	r1, #5447	@ 0x1547
10003b28:	480c      	ldr	r0, [pc, #48]	@ (10003b5c <vTaskRemoveFromUnorderedEventList+0xdc>)
10003b2a:	f003 fa85 	bl	10007038 <__assert_func>
10003b2e:	4b0c      	ldr	r3, [pc, #48]	@ (10003b60 <vTaskRemoveFromUnorderedEventList+0xe0>)
10003b30:	4a09      	ldr	r2, [pc, #36]	@ (10003b58 <vTaskRemoveFromUnorderedEventList+0xd8>)
10003b32:	f241 5152 	movw	r1, #5458	@ 0x1552
10003b36:	4809      	ldr	r0, [pc, #36]	@ (10003b5c <vTaskRemoveFromUnorderedEventList+0xdc>)
10003b38:	f003 fa7e 	bl	10007038 <__assert_func>
10003b3c:	6882      	ldr	r2, [r0, #8]
10003b3e:	605a      	str	r2, [r3, #4]
10003b40:	e7b2      	b.n	10003aa8 <vTaskRemoveFromUnorderedEventList+0x28>
10003b42:	6922      	ldr	r2, [r4, #16]
10003b44:	605a      	str	r2, [r3, #4]
10003b46:	e7bf      	b.n	10003ac8 <vTaskRemoveFromUnorderedEventList+0x48>
10003b48:	20020c24 	.word	0x20020c24
10003b4c:	20020c2c 	.word	0x20020c2c
10003b50:	2000097c 	.word	0x2000097c
10003b54:	1000870c 	.word	0x1000870c
10003b58:	10009448 	.word	0x10009448
10003b5c:	100083ec 	.word	0x100083ec
10003b60:	100086f0 	.word	0x100086f0

10003b64 <xTaskCheckForTimeOut>:
10003b64:	e92d 41f0 	stmdb	sp!, {r4, r5, r6, r7, r8, lr}
10003b68:	b1f0      	cbz	r0, 10003ba8 <xTaskCheckForTimeOut+0x44>
10003b6a:	460c      	mov	r4, r1
10003b6c:	4607      	mov	r7, r0
10003b6e:	b311      	cbz	r1, 10003bb6 <xTaskCheckForTimeOut+0x52>
10003b70:	f7ff fbfc 	bl	1000336c <vTaskEnterCritical>
10003b74:	4b21      	ldr	r3, [pc, #132]	@ (10003bfc <xTaskCheckForTimeOut+0x98>)
10003b76:	681e      	ldr	r6, [r3, #0]
10003b78:	687d      	ldr	r5, [r7, #4]
10003b7a:	eba6 0805 	sub.w	r8, r6, r5
10003b7e:	f7ff f967 	bl	10002e50 <xTaskGetCurrentTaskHandle>
10003b82:	f890 3079 	ldrb.w	r3, [r0, #121]	@ 0x79
10003b86:	b9eb      	cbnz	r3, 10003bc4 <xTaskCheckForTimeOut+0x60>
10003b88:	6823      	ldr	r3, [r4, #0]
10003b8a:	f1b3 3fff 	cmp.w	r3, #4294967295
10003b8e:	d032      	beq.n	10003bf6 <xTaskCheckForTimeOut+0x92>
10003b90:	6839      	ldr	r1, [r7, #0]
10003b92:	4a1b      	ldr	r2, [pc, #108]	@ (10003c00 <xTaskCheckForTimeOut+0x9c>)
10003b94:	6812      	ldr	r2, [r2, #0]
10003b96:	4291      	cmp	r1, r2
10003b98:	d01f      	beq.n	10003bda <xTaskCheckForTimeOut+0x76>
10003b9a:	687a      	ldr	r2, [r7, #4]
10003b9c:	42b2      	cmp	r2, r6
10003b9e:	d81c      	bhi.n	10003bda <xTaskCheckForTimeOut+0x76>
10003ba0:	2300      	movs	r3, #0
10003ba2:	6023      	str	r3, [r4, #0]
10003ba4:	2401      	movs	r4, #1
10003ba6:	e013      	b.n	10003bd0 <xTaskCheckForTimeOut+0x6c>
10003ba8:	4b16      	ldr	r3, [pc, #88]	@ (10003c04 <xTaskCheckForTimeOut+0xa0>)
10003baa:	4a17      	ldr	r2, [pc, #92]	@ (10003c08 <xTaskCheckForTimeOut+0xa4>)
10003bac:	f241 51a9 	movw	r1, #5545	@ 0x15a9
10003bb0:	4816      	ldr	r0, [pc, #88]	@ (10003c0c <xTaskCheckForTimeOut+0xa8>)
10003bb2:	f003 fa41 	bl	10007038 <__assert_func>
10003bb6:	4b16      	ldr	r3, [pc, #88]	@ (10003c10 <xTaskCheckForTimeOut+0xac>)
10003bb8:	4a13      	ldr	r2, [pc, #76]	@ (10003c08 <xTaskCheckForTimeOut+0xa4>)
10003bba:	f241 51aa 	movw	r1, #5546	@ 0x15aa
10003bbe:	4813      	ldr	r0, [pc, #76]	@ (10003c0c <xTaskCheckForTimeOut+0xa8>)
10003bc0:	f003 fa3a 	bl	10007038 <__assert_func>
10003bc4:	f7ff f944 	bl	10002e50 <xTaskGetCurrentTaskHandle>
10003bc8:	2300      	movs	r3, #0
10003bca:	f880 3079 	strb.w	r3, [r0, #121]	@ 0x79
10003bce:	2401      	movs	r4, #1
10003bd0:	f7ff fc2c 	bl	1000342c <vTaskExitCritical>
10003bd4:	4620      	mov	r0, r4
10003bd6:	e8bd 81f0 	ldmia.w	sp!, {r4, r5, r6, r7, r8, pc}
10003bda:	4543      	cmp	r3, r8
10003bdc:	d803      	bhi.n	10003be6 <xTaskCheckForTimeOut+0x82>
10003bde:	2300      	movs	r3, #0
10003be0:	6023      	str	r3, [r4, #0]
10003be2:	2401      	movs	r4, #1
10003be4:	e7f4      	b.n	10003bd0 <xTaskCheckForTimeOut+0x6c>
10003be6:	1bad      	subs	r5, r5, r6
10003be8:	441d      	add	r5, r3
10003bea:	6025      	str	r5, [r4, #0]
10003bec:	4638      	mov	r0, r7
10003bee:	f7ff f919 	bl	10002e24 <vTaskInternalSetTimeOutState>
10003bf2:	2400      	movs	r4, #0
10003bf4:	e7ec      	b.n	10003bd0 <xTaskCheckForTimeOut+0x6c>
10003bf6:	2400      	movs	r4, #0
10003bf8:	e7ea      	b.n	10003bd0 <xTaskCheckForTimeOut+0x6c>
10003bfa:	bf00      	nop
10003bfc:	20020d34 	.word	0x20020d34
10003c00:	20020c9c 	.word	0x20020c9c
10003c04:	1000883c 	.word	0x1000883c
10003c08:	10009430 	.word	0x10009430
10003c0c:	100083ec 	.word	0x100083ec
10003c10:	10008848 	.word	0x10008848

10003c14 <xTaskGetSchedulerState>:
10003c14:	b510      	push	{r4, lr}
10003c16:	4b08      	ldr	r3, [pc, #32]	@ (10003c38 <xTaskGetSchedulerState+0x24>)
10003c18:	681b      	ldr	r3, [r3, #0]
10003c1a:	b913      	cbnz	r3, 10003c22 <xTaskGetSchedulerState+0xe>
10003c1c:	2401      	movs	r4, #1
10003c1e:	4620      	mov	r0, r4
10003c20:	bd10      	pop	{r4, pc}
10003c22:	f7ff fba3 	bl	1000336c <vTaskEnterCritical>
10003c26:	4b05      	ldr	r3, [pc, #20]	@ (10003c3c <xTaskGetSchedulerState+0x28>)
10003c28:	681b      	ldr	r3, [r3, #0]
10003c2a:	b91b      	cbnz	r3, 10003c34 <xTaskGetSchedulerState+0x20>
10003c2c:	2402      	movs	r4, #2
10003c2e:	f7ff fbfd 	bl	1000342c <vTaskExitCritical>
10003c32:	e7f4      	b.n	10003c1e <xTaskGetSchedulerState+0xa>
10003c34:	2400      	movs	r4, #0
10003c36:	e7fa      	b.n	10003c2e <xTaskGetSchedulerState+0x1a>
10003c38:	20020d00 	.word	0x20020d00
10003c3c:	20020c24 	.word	0x20020c24

10003c40 <vTaskExitCriticalFromISR>:
10003c40:	4b16      	ldr	r3, [pc, #88]	@ (10003c9c <vTaskExitCriticalFromISR+0x5c>)
10003c42:	681b      	ldr	r3, [r3, #0]
10003c44:	b34b      	cbz	r3, 10003c9a <vTaskExitCriticalFromISR+0x5a>
10003c46:	b510      	push	{r4, lr}
10003c48:	4604      	mov	r4, r0
10003c4a:	f04f 4350 	mov.w	r3, #3489660928	@ 0xd0000000
10003c4e:	681b      	ldr	r3, [r3, #0]
10003c50:	4a13      	ldr	r2, [pc, #76]	@ (10003ca0 <vTaskExitCriticalFromISR+0x60>)
10003c52:	f852 2023 	ldr.w	r2, [r2, r3, lsl #2]
10003c56:	b182      	cbz	r2, 10003c7a <vTaskExitCriticalFromISR+0x3a>
10003c58:	4a11      	ldr	r2, [pc, #68]	@ (10003ca0 <vTaskExitCriticalFromISR+0x60>)
10003c5a:	f852 2023 	ldr.w	r2, [r2, r3, lsl #2]
10003c5e:	b15a      	cbz	r2, 10003c78 <vTaskExitCriticalFromISR+0x38>
10003c60:	4a0f      	ldr	r2, [pc, #60]	@ (10003ca0 <vTaskExitCriticalFromISR+0x60>)
10003c62:	f852 1023 	ldr.w	r1, [r2, r3, lsl #2]
10003c66:	3901      	subs	r1, #1
10003c68:	f842 1023 	str.w	r1, [r2, r3, lsl #2]
10003c6c:	f04f 4350 	mov.w	r3, #3489660928	@ 0xd0000000
10003c70:	681b      	ldr	r3, [r3, #0]
10003c72:	f852 3023 	ldr.w	r3, [r2, r3, lsl #2]
10003c76:	b13b      	cbz	r3, 10003c88 <vTaskExitCriticalFromISR+0x48>
10003c78:	bd10      	pop	{r4, pc}
10003c7a:	4b0a      	ldr	r3, [pc, #40]	@ (10003ca4 <vTaskExitCriticalFromISR+0x64>)
10003c7c:	4a0a      	ldr	r2, [pc, #40]	@ (10003ca8 <vTaskExitCriticalFromISR+0x68>)
10003c7e:	f641 31f4 	movw	r1, #7156	@ 0x1bf4
10003c82:	480a      	ldr	r0, [pc, #40]	@ (10003cac <vTaskExitCriticalFromISR+0x6c>)
10003c84:	f003 f9d8 	bl	10007038 <__assert_func>
10003c88:	2200      	movs	r2, #0
10003c8a:	4909      	ldr	r1, [pc, #36]	@ (10003cb0 <vTaskExitCriticalFromISR+0x70>)
10003c8c:	4610      	mov	r0, r2
10003c8e:	f7fe fb83 	bl	10002398 <vPortRecursiveLock>
10003c92:	4620      	mov	r0, r4
10003c94:	f7fd fbdb 	bl	1000144e <vClearInterruptMask>
10003c98:	e7ee      	b.n	10003c78 <vTaskExitCriticalFromISR+0x38>
10003c9a:	4770      	bx	lr
10003c9c:	20020d00 	.word	0x20020d00
10003ca0:	20020c10 	.word	0x20020c10
10003ca4:	10008554 	.word	0x10008554
10003ca8:	100093c4 	.word	0x100093c4
10003cac:	100083ec 	.word	0x100083ec
10003cb0:	200008ce 	.word	0x200008ce

10003cb4 <uxTaskResetEventItemValue>:
10003cb4:	b538      	push	{r3, r4, r5, lr}
10003cb6:	f7ff f8cb 	bl	10002e50 <xTaskGetCurrentTaskHandle>
10003cba:	69c5      	ldr	r5, [r0, #28]
10003cbc:	f7ff f8c8 	bl	10002e50 <xTaskGetCurrentTaskHandle>
10003cc0:	6b04      	ldr	r4, [r0, #48]	@ 0x30
10003cc2:	f7ff f8c5 	bl	10002e50 <xTaskGetCurrentTaskHandle>
10003cc6:	f1c4 0420 	rsb	r4, r4, #32
10003cca:	61c4      	str	r4, [r0, #28]
10003ccc:	4628      	mov	r0, r5
10003cce:	bd38      	pop	{r3, r4, r5, pc}

10003cd0 <pvTaskIncrementMutexHeldCount>:
10003cd0:	b508      	push	{r3, lr}
10003cd2:	f7ff f8bd 	bl	10002e50 <xTaskGetCurrentTaskHandle>
10003cd6:	4603      	mov	r3, r0
10003cd8:	b110      	cbz	r0, 10003ce0 <pvTaskIncrementMutexHeldCount+0x10>
10003cda:	6dc2      	ldr	r2, [r0, #92]	@ 0x5c
10003cdc:	3201      	adds	r2, #1
10003cde:	65c2      	str	r2, [r0, #92]	@ 0x5c
10003ce0:	4618      	mov	r0, r3
10003ce2:	bd08      	pop	{r3, pc}

10003ce4 <ulTaskGenericNotifyTake>:
10003ce4:	b570      	push	{r4, r5, r6, lr}
10003ce6:	bb88      	cbnz	r0, 10003d4c <ulTaskGenericNotifyTake+0x68>
10003ce8:	460d      	mov	r5, r1
10003cea:	4616      	mov	r6, r2
10003cec:	4604      	mov	r4, r0
10003cee:	f7fe fe8b 	bl	10002a08 <vTaskSuspendAll>
10003cf2:	f7ff fb3b 	bl	1000336c <vTaskEnterCritical>
10003cf6:	f7ff f8ab 	bl	10002e50 <xTaskGetCurrentTaskHandle>
10003cfa:	f104 031c 	add.w	r3, r4, #28
10003cfe:	eb00 0083 	add.w	r0, r0, r3, lsl #2
10003d02:	6843      	ldr	r3, [r0, #4]
10003d04:	b34b      	cbz	r3, 10003d5a <ulTaskGenericNotifyTake+0x76>
10003d06:	f7ff fb91 	bl	1000342c <vTaskExitCritical>
10003d0a:	2600      	movs	r6, #0
10003d0c:	f7ff fde8 	bl	100038e0 <xTaskResumeAll>
10003d10:	bbae      	cbnz	r6, 10003d7e <ulTaskGenericNotifyTake+0x9a>
10003d12:	f7ff fb2b 	bl	1000336c <vTaskEnterCritical>
10003d16:	f7ff f89b 	bl	10002e50 <xTaskGetCurrentTaskHandle>
10003d1a:	f104 031c 	add.w	r3, r4, #28
10003d1e:	eb00 0083 	add.w	r0, r0, r3, lsl #2
10003d22:	6846      	ldr	r6, [r0, #4]
10003d24:	b146      	cbz	r6, 10003d38 <ulTaskGenericNotifyTake+0x54>
10003d26:	b37d      	cbz	r5, 10003d88 <ulTaskGenericNotifyTake+0xa4>
10003d28:	f7ff f892 	bl	10002e50 <xTaskGetCurrentTaskHandle>
10003d2c:	f104 031c 	add.w	r3, r4, #28
10003d30:	eb00 0083 	add.w	r0, r0, r3, lsl #2
10003d34:	2300      	movs	r3, #0
10003d36:	6043      	str	r3, [r0, #4]
10003d38:	f7ff f88a 	bl	10002e50 <xTaskGetCurrentTaskHandle>
10003d3c:	4420      	add	r0, r4
10003d3e:	2300      	movs	r3, #0
10003d40:	f880 3078 	strb.w	r3, [r0, #120]	@ 0x78
10003d44:	f7ff fb72 	bl	1000342c <vTaskExitCritical>
10003d48:	4630      	mov	r0, r6
10003d4a:	bd70      	pop	{r4, r5, r6, pc}
10003d4c:	4b13      	ldr	r3, [pc, #76]	@ (10003d9c <ulTaskGenericNotifyTake+0xb8>)
10003d4e:	4a14      	ldr	r2, [pc, #80]	@ (10003da0 <ulTaskGenericNotifyTake+0xbc>)
10003d50:	f641 51cb 	movw	r1, #7627	@ 0x1dcb
10003d54:	4813      	ldr	r0, [pc, #76]	@ (10003da4 <ulTaskGenericNotifyTake+0xc0>)
10003d56:	f003 f96f 	bl	10007038 <__assert_func>
10003d5a:	f7ff f879 	bl	10002e50 <xTaskGetCurrentTaskHandle>
10003d5e:	4420      	add	r0, r4
10003d60:	2301      	movs	r3, #1
10003d62:	f880 3078 	strb.w	r3, [r0, #120]	@ 0x78
10003d66:	b916      	cbnz	r6, 10003d6e <ulTaskGenericNotifyTake+0x8a>
10003d68:	f7ff fb60 	bl	1000342c <vTaskExitCritical>
10003d6c:	e7ce      	b.n	10003d0c <ulTaskGenericNotifyTake+0x28>
10003d6e:	f7ff fb5d 	bl	1000342c <vTaskExitCritical>
10003d72:	2101      	movs	r1, #1
10003d74:	4630      	mov	r0, r6
10003d76:	f7ff f87b 	bl	10002e70 <prvAddCurrentTaskToDelayedList>
10003d7a:	2601      	movs	r6, #1
10003d7c:	e7c6      	b.n	10003d0c <ulTaskGenericNotifyTake+0x28>
10003d7e:	2800      	cmp	r0, #0
10003d80:	d1c7      	bne.n	10003d12 <ulTaskGenericNotifyTake+0x2e>
10003d82:	f7ff fadf 	bl	10003344 <vTaskYieldWithinAPI>
10003d86:	e7c4      	b.n	10003d12 <ulTaskGenericNotifyTake+0x2e>
10003d88:	f7ff f862 	bl	10002e50 <xTaskGetCurrentTaskHandle>
10003d8c:	1e73      	subs	r3, r6, #1
10003d8e:	f104 021c 	add.w	r2, r4, #28
10003d92:	eb00 0082 	add.w	r0, r0, r2, lsl #2
10003d96:	6043      	str	r3, [r0, #4]
10003d98:	e7ce      	b.n	10003d38 <ulTaskGenericNotifyTake+0x54>
10003d9a:	bf00      	nop
10003d9c:	10008858 	.word	0x10008858
10003da0:	100093ac 	.word	0x100093ac
10003da4:	100083ec 	.word	0x100083ec

10003da8 <xTaskGenericNotify>:
10003da8:	e92d 41f0 	stmdb	sp!, {r4, r5, r6, r7, r8, lr}
10003dac:	f8dd 8018 	ldr.w	r8, [sp, #24]
10003db0:	b9f1      	cbnz	r1, 10003df0 <xTaskGenericNotify+0x48>
10003db2:	4604      	mov	r4, r0
10003db4:	4617      	mov	r7, r2
10003db6:	461e      	mov	r6, r3
10003db8:	460d      	mov	r5, r1
10003dba:	b300      	cbz	r0, 10003dfe <xTaskGenericNotify+0x56>
10003dbc:	f7ff fad6 	bl	1000336c <vTaskEnterCritical>
10003dc0:	f1b8 0f00 	cmp.w	r8, #0
10003dc4:	d006      	beq.n	10003dd4 <xTaskGenericNotify+0x2c>
10003dc6:	f105 031c 	add.w	r3, r5, #28
10003dca:	eb04 0383 	add.w	r3, r4, r3, lsl #2
10003dce:	685b      	ldr	r3, [r3, #4]
10003dd0:	f8c8 3000 	str.w	r3, [r8]
10003dd4:	1963      	adds	r3, r4, r5
10003dd6:	f893 1078 	ldrb.w	r1, [r3, #120]	@ 0x78
10003dda:	b2c9      	uxtb	r1, r1
10003ddc:	2202      	movs	r2, #2
10003dde:	f883 2078 	strb.w	r2, [r3, #120]	@ 0x78
10003de2:	2e04      	cmp	r6, #4
10003de4:	d833      	bhi.n	10003e4e <xTaskGenericNotify+0xa6>
10003de6:	e8df f006 	tbb	[pc, r6]
10003dea:	1117      	.short	0x1117
10003dec:	261f      	.short	0x261f
10003dee:	2b          	.byte	0x2b
10003def:	00          	.byte	0x00
10003df0:	4b3d      	ldr	r3, [pc, #244]	@ (10003ee8 <xTaskGenericNotify+0x140>)
10003df2:	4a3e      	ldr	r2, [pc, #248]	@ (10003eec <xTaskGenericNotify+0x144>)
10003df4:	f641 61a8 	movw	r1, #7848	@ 0x1ea8
10003df8:	483d      	ldr	r0, [pc, #244]	@ (10003ef0 <xTaskGenericNotify+0x148>)
10003dfa:	f003 f91d 	bl	10007038 <__assert_func>
10003dfe:	4b3d      	ldr	r3, [pc, #244]	@ (10003ef4 <xTaskGenericNotify+0x14c>)
10003e00:	4a3a      	ldr	r2, [pc, #232]	@ (10003eec <xTaskGenericNotify+0x144>)
10003e02:	f641 61a9 	movw	r1, #7849	@ 0x1ea9
10003e06:	483a      	ldr	r0, [pc, #232]	@ (10003ef0 <xTaskGenericNotify+0x148>)
10003e08:	f003 f916 	bl	10007038 <__assert_func>
10003e0c:	351c      	adds	r5, #28
10003e0e:	eb04 0585 	add.w	r5, r4, r5, lsl #2
10003e12:	686b      	ldr	r3, [r5, #4]
10003e14:	433b      	orrs	r3, r7
10003e16:	606b      	str	r3, [r5, #4]
10003e18:	2901      	cmp	r1, #1
10003e1a:	d023      	beq.n	10003e64 <xTaskGenericNotify+0xbc>
10003e1c:	2401      	movs	r4, #1
10003e1e:	f7ff fb05 	bl	1000342c <vTaskExitCritical>
10003e22:	4620      	mov	r0, r4
10003e24:	e8bd 81f0 	ldmia.w	sp!, {r4, r5, r6, r7, r8, pc}
10003e28:	351c      	adds	r5, #28
10003e2a:	eb04 0585 	add.w	r5, r4, r5, lsl #2
10003e2e:	686b      	ldr	r3, [r5, #4]
10003e30:	3301      	adds	r3, #1
10003e32:	606b      	str	r3, [r5, #4]
10003e34:	e7f0      	b.n	10003e18 <xTaskGenericNotify+0x70>
10003e36:	351c      	adds	r5, #28
10003e38:	eb04 0585 	add.w	r5, r4, r5, lsl #2
10003e3c:	606f      	str	r7, [r5, #4]
10003e3e:	e7eb      	b.n	10003e18 <xTaskGenericNotify+0x70>
10003e40:	2902      	cmp	r1, #2
10003e42:	d04f      	beq.n	10003ee4 <xTaskGenericNotify+0x13c>
10003e44:	351c      	adds	r5, #28
10003e46:	eb04 0585 	add.w	r5, r4, r5, lsl #2
10003e4a:	606f      	str	r7, [r5, #4]
10003e4c:	e7e4      	b.n	10003e18 <xTaskGenericNotify+0x70>
10003e4e:	4b2a      	ldr	r3, [pc, #168]	@ (10003ef8 <xTaskGenericNotify+0x150>)
10003e50:	681b      	ldr	r3, [r3, #0]
10003e52:	2b00      	cmp	r3, #0
10003e54:	d0e0      	beq.n	10003e18 <xTaskGenericNotify+0x70>
10003e56:	4b29      	ldr	r3, [pc, #164]	@ (10003efc <xTaskGenericNotify+0x154>)
10003e58:	4a24      	ldr	r2, [pc, #144]	@ (10003eec <xTaskGenericNotify+0x144>)
10003e5a:	f641 61de 	movw	r1, #7902	@ 0x1ede
10003e5e:	4824      	ldr	r0, [pc, #144]	@ (10003ef0 <xTaskGenericNotify+0x148>)
10003e60:	f003 f8ea 	bl	10007038 <__assert_func>
10003e64:	69a3      	ldr	r3, [r4, #24]
10003e66:	68e1      	ldr	r1, [r4, #12]
10003e68:	6922      	ldr	r2, [r4, #16]
10003e6a:	608a      	str	r2, [r1, #8]
10003e6c:	68e1      	ldr	r1, [r4, #12]
10003e6e:	6051      	str	r1, [r2, #4]
10003e70:	685a      	ldr	r2, [r3, #4]
10003e72:	f104 0108 	add.w	r1, r4, #8
10003e76:	428a      	cmp	r2, r1
10003e78:	d02a      	beq.n	10003ed0 <xTaskGenericNotify+0x128>
10003e7a:	2200      	movs	r2, #0
10003e7c:	61a2      	str	r2, [r4, #24]
10003e7e:	681a      	ldr	r2, [r3, #0]
10003e80:	3a01      	subs	r2, #1
10003e82:	601a      	str	r2, [r3, #0]
10003e84:	6b23      	ldr	r3, [r4, #48]	@ 0x30
10003e86:	4a1e      	ldr	r2, [pc, #120]	@ (10003f00 <xTaskGenericNotify+0x158>)
10003e88:	6812      	ldr	r2, [r2, #0]
10003e8a:	4293      	cmp	r3, r2
10003e8c:	d901      	bls.n	10003e92 <xTaskGenericNotify+0xea>
10003e8e:	4a1c      	ldr	r2, [pc, #112]	@ (10003f00 <xTaskGenericNotify+0x158>)
10003e90:	6013      	str	r3, [r2, #0]
10003e92:	4a1c      	ldr	r2, [pc, #112]	@ (10003f04 <xTaskGenericNotify+0x15c>)
10003e94:	eb03 0383 	add.w	r3, r3, r3, lsl #2
10003e98:	eb02 0383 	add.w	r3, r2, r3, lsl #2
10003e9c:	685b      	ldr	r3, [r3, #4]
10003e9e:	60e3      	str	r3, [r4, #12]
10003ea0:	6898      	ldr	r0, [r3, #8]
10003ea2:	6120      	str	r0, [r4, #16]
10003ea4:	6041      	str	r1, [r0, #4]
10003ea6:	6099      	str	r1, [r3, #8]
10003ea8:	6b23      	ldr	r3, [r4, #48]	@ 0x30
10003eaa:	eb03 0183 	add.w	r1, r3, r3, lsl #2
10003eae:	eb02 0081 	add.w	r0, r2, r1, lsl #2
10003eb2:	61a0      	str	r0, [r4, #24]
10003eb4:	f852 1021 	ldr.w	r1, [r2, r1, lsl #2]
10003eb8:	3101      	adds	r1, #1
10003eba:	eb03 0383 	add.w	r3, r3, r3, lsl #2
10003ebe:	f842 1023 	str.w	r1, [r2, r3, lsl #2]
10003ec2:	6ae3      	ldr	r3, [r4, #44]	@ 0x2c
10003ec4:	b93b      	cbnz	r3, 10003ed6 <xTaskGenericNotify+0x12e>
10003ec6:	4620      	mov	r0, r4
10003ec8:	f7fe fbbc 	bl	10002644 <prvYieldForTask>
10003ecc:	2401      	movs	r4, #1
10003ece:	e7a6      	b.n	10003e1e <xTaskGenericNotify+0x76>
10003ed0:	6922      	ldr	r2, [r4, #16]
10003ed2:	605a      	str	r2, [r3, #4]
10003ed4:	e7d1      	b.n	10003e7a <xTaskGenericNotify+0xd2>
10003ed6:	4b0c      	ldr	r3, [pc, #48]	@ (10003f08 <xTaskGenericNotify+0x160>)
10003ed8:	4a04      	ldr	r2, [pc, #16]	@ (10003eec <xTaskGenericNotify+0x144>)
10003eda:	f641 61ed 	movw	r1, #7917	@ 0x1eed
10003ede:	4804      	ldr	r0, [pc, #16]	@ (10003ef0 <xTaskGenericNotify+0x148>)
10003ee0:	f003 f8aa 	bl	10007038 <__assert_func>
10003ee4:	2400      	movs	r4, #0
10003ee6:	e79a      	b.n	10003e1e <xTaskGenericNotify+0x76>
10003ee8:	1000886c 	.word	0x1000886c
10003eec:	10009398 	.word	0x10009398
10003ef0:	100083ec 	.word	0x100083ec
10003ef4:	10008880 	.word	0x10008880
10003ef8:	20020d34 	.word	0x20020d34
10003efc:	10008890 	.word	0x10008890
10003f00:	20020c2c 	.word	0x20020c2c
10003f04:	2000097c 	.word	0x2000097c
10003f08:	100088b0 	.word	0x100088b0

10003f0c <vTaskGenericNotifyGiveFromISR>:
10003f0c:	b5f8      	push	{r3, r4, r5, r6, r7, lr}
10003f0e:	2800      	cmp	r0, #0
10003f10:	d05d      	beq.n	10003fce <vTaskGenericNotifyGiveFromISR+0xc2>
10003f12:	460c      	mov	r4, r1
10003f14:	4617      	mov	r7, r2
10003f16:	4605      	mov	r5, r0
10003f18:	2900      	cmp	r1, #0
10003f1a:	d15f      	bne.n	10003fdc <vTaskGenericNotifyGiveFromISR+0xd0>
10003f1c:	f7fd f928 	bl	10001170 <vPortValidateInterruptPriority>
10003f20:	f7ff fa5c 	bl	100033dc <vTaskEnterCriticalFromISR>
10003f24:	4606      	mov	r6, r0
10003f26:	192a      	adds	r2, r5, r4
10003f28:	f892 3078 	ldrb.w	r3, [r2, #120]	@ 0x78
10003f2c:	b2db      	uxtb	r3, r3
10003f2e:	2102      	movs	r1, #2
10003f30:	f882 1078 	strb.w	r1, [r2, #120]	@ 0x78
10003f34:	341c      	adds	r4, #28
10003f36:	eb05 0484 	add.w	r4, r5, r4, lsl #2
10003f3a:	6862      	ldr	r2, [r4, #4]
10003f3c:	3201      	adds	r2, #1
10003f3e:	6062      	str	r2, [r4, #4]
10003f40:	2b01      	cmp	r3, #1
10003f42:	d140      	bne.n	10003fc6 <vTaskGenericNotifyGiveFromISR+0xba>
10003f44:	6aeb      	ldr	r3, [r5, #44]	@ 0x2c
10003f46:	2b00      	cmp	r3, #0
10003f48:	d14f      	bne.n	10003fea <vTaskGenericNotifyGiveFromISR+0xde>
10003f4a:	4b36      	ldr	r3, [pc, #216]	@ (10004024 <vTaskGenericNotifyGiveFromISR+0x118>)
10003f4c:	681b      	ldr	r3, [r3, #0]
10003f4e:	2b00      	cmp	r3, #0
10003f50:	d155      	bne.n	10003ffe <vTaskGenericNotifyGiveFromISR+0xf2>
10003f52:	69ab      	ldr	r3, [r5, #24]
10003f54:	68e9      	ldr	r1, [r5, #12]
10003f56:	692a      	ldr	r2, [r5, #16]
10003f58:	608a      	str	r2, [r1, #8]
10003f5a:	68e9      	ldr	r1, [r5, #12]
10003f5c:	6051      	str	r1, [r2, #4]
10003f5e:	685a      	ldr	r2, [r3, #4]
10003f60:	f105 0108 	add.w	r1, r5, #8
10003f64:	428a      	cmp	r2, r1
10003f66:	d047      	beq.n	10003ff8 <vTaskGenericNotifyGiveFromISR+0xec>
10003f68:	2200      	movs	r2, #0
10003f6a:	61aa      	str	r2, [r5, #24]
10003f6c:	681a      	ldr	r2, [r3, #0]
10003f6e:	3a01      	subs	r2, #1
10003f70:	601a      	str	r2, [r3, #0]
10003f72:	6b2b      	ldr	r3, [r5, #48]	@ 0x30
10003f74:	4a2c      	ldr	r2, [pc, #176]	@ (10004028 <vTaskGenericNotifyGiveFromISR+0x11c>)
10003f76:	6812      	ldr	r2, [r2, #0]
10003f78:	4293      	cmp	r3, r2
10003f7a:	d901      	bls.n	10003f80 <vTaskGenericNotifyGiveFromISR+0x74>
10003f7c:	4a2a      	ldr	r2, [pc, #168]	@ (10004028 <vTaskGenericNotifyGiveFromISR+0x11c>)
10003f7e:	6013      	str	r3, [r2, #0]
10003f80:	4a2a      	ldr	r2, [pc, #168]	@ (1000402c <vTaskGenericNotifyGiveFromISR+0x120>)
10003f82:	eb03 0383 	add.w	r3, r3, r3, lsl #2
10003f86:	eb02 0383 	add.w	r3, r2, r3, lsl #2
10003f8a:	685b      	ldr	r3, [r3, #4]
10003f8c:	60eb      	str	r3, [r5, #12]
10003f8e:	6898      	ldr	r0, [r3, #8]
10003f90:	6128      	str	r0, [r5, #16]
10003f92:	6041      	str	r1, [r0, #4]
10003f94:	6099      	str	r1, [r3, #8]
10003f96:	6b2b      	ldr	r3, [r5, #48]	@ 0x30
10003f98:	eb03 0183 	add.w	r1, r3, r3, lsl #2
10003f9c:	eb02 0081 	add.w	r0, r2, r1, lsl #2
10003fa0:	61a8      	str	r0, [r5, #24]
10003fa2:	f852 1021 	ldr.w	r1, [r2, r1, lsl #2]
10003fa6:	3101      	adds	r1, #1
10003fa8:	eb03 0383 	add.w	r3, r3, r3, lsl #2
10003fac:	f842 1023 	str.w	r1, [r2, r3, lsl #2]
10003fb0:	4628      	mov	r0, r5
10003fb2:	f7fe fb47 	bl	10002644 <prvYieldForTask>
10003fb6:	f04f 4350 	mov.w	r3, #3489660928	@ 0xd0000000
10003fba:	681a      	ldr	r2, [r3, #0]
10003fbc:	4b1c      	ldr	r3, [pc, #112]	@ (10004030 <vTaskGenericNotifyGiveFromISR+0x124>)
10003fbe:	f853 3022 	ldr.w	r3, [r3, r2, lsl #2]
10003fc2:	2b01      	cmp	r3, #1
10003fc4:	d029      	beq.n	1000401a <vTaskGenericNotifyGiveFromISR+0x10e>
10003fc6:	4630      	mov	r0, r6
10003fc8:	f7ff fe3a 	bl	10003c40 <vTaskExitCriticalFromISR>
10003fcc:	bdf8      	pop	{r3, r4, r5, r6, r7, pc}
10003fce:	4b19      	ldr	r3, [pc, #100]	@ (10004034 <vTaskGenericNotifyGiveFromISR+0x128>)
10003fd0:	4a19      	ldr	r2, [pc, #100]	@ (10004038 <vTaskGenericNotifyGiveFromISR+0x12c>)
10003fd2:	f641 71c4 	movw	r1, #8132	@ 0x1fc4
10003fd6:	4819      	ldr	r0, [pc, #100]	@ (1000403c <vTaskGenericNotifyGiveFromISR+0x130>)
10003fd8:	f003 f82e 	bl	10007038 <__assert_func>
10003fdc:	4b18      	ldr	r3, [pc, #96]	@ (10004040 <vTaskGenericNotifyGiveFromISR+0x134>)
10003fde:	4a16      	ldr	r2, [pc, #88]	@ (10004038 <vTaskGenericNotifyGiveFromISR+0x12c>)
10003fe0:	f641 71c5 	movw	r1, #8133	@ 0x1fc5
10003fe4:	4815      	ldr	r0, [pc, #84]	@ (1000403c <vTaskGenericNotifyGiveFromISR+0x130>)
10003fe6:	f003 f827 	bl	10007038 <__assert_func>
10003fea:	4b16      	ldr	r3, [pc, #88]	@ (10004044 <vTaskGenericNotifyGiveFromISR+0x138>)
10003fec:	4a12      	ldr	r2, [pc, #72]	@ (10004038 <vTaskGenericNotifyGiveFromISR+0x12c>)
10003fee:	f641 71ee 	movw	r1, #8174	@ 0x1fee
10003ff2:	4812      	ldr	r0, [pc, #72]	@ (1000403c <vTaskGenericNotifyGiveFromISR+0x130>)
10003ff4:	f003 f820 	bl	10007038 <__assert_func>
10003ff8:	692a      	ldr	r2, [r5, #16]
10003ffa:	605a      	str	r2, [r3, #4]
10003ffc:	e7b4      	b.n	10003f68 <vTaskGenericNotifyGiveFromISR+0x5c>
10003ffe:	4b12      	ldr	r3, [pc, #72]	@ (10004048 <vTaskGenericNotifyGiveFromISR+0x13c>)
10004000:	685a      	ldr	r2, [r3, #4]
10004002:	622a      	str	r2, [r5, #32]
10004004:	6890      	ldr	r0, [r2, #8]
10004006:	6268      	str	r0, [r5, #36]	@ 0x24
10004008:	f105 011c 	add.w	r1, r5, #28
1000400c:	6041      	str	r1, [r0, #4]
1000400e:	6091      	str	r1, [r2, #8]
10004010:	62eb      	str	r3, [r5, #44]	@ 0x2c
10004012:	681a      	ldr	r2, [r3, #0]
10004014:	3201      	adds	r2, #1
10004016:	601a      	str	r2, [r3, #0]
10004018:	e7ca      	b.n	10003fb0 <vTaskGenericNotifyGiveFromISR+0xa4>
1000401a:	2f00      	cmp	r7, #0
1000401c:	d0d3      	beq.n	10003fc6 <vTaskGenericNotifyGiveFromISR+0xba>
1000401e:	603b      	str	r3, [r7, #0]
10004020:	e7d1      	b.n	10003fc6 <vTaskGenericNotifyGiveFromISR+0xba>
10004022:	bf00      	nop
10004024:	20020c24 	.word	0x20020c24
10004028:	20020c2c 	.word	0x20020c2c
1000402c:	2000097c 	.word	0x2000097c
10004030:	20020d40 	.word	0x20020d40
10004034:	10008880 	.word	0x10008880
10004038:	10009378 	.word	0x10009378
1000403c:	100083ec 	.word	0x100083ec
10004040:	1000886c 	.word	0x1000886c
10004044:	100088b0 	.word	0x100088b0
10004048:	20020cac 	.word	0x20020cac

1000404c <prvGetNextExpireTime>:
1000404c:	4b06      	ldr	r3, [pc, #24]	@ (10004068 <prvGetNextExpireTime+0x1c>)
1000404e:	681a      	ldr	r2, [r3, #0]
10004050:	6813      	ldr	r3, [r2, #0]
10004052:	b92b      	cbnz	r3, 10004060 <prvGetNextExpireTime+0x14>
10004054:	2301      	movs	r3, #1
10004056:	6003      	str	r3, [r0, #0]
10004058:	b923      	cbnz	r3, 10004064 <prvGetNextExpireTime+0x18>
1000405a:	68d3      	ldr	r3, [r2, #12]
1000405c:	6818      	ldr	r0, [r3, #0]
1000405e:	4770      	bx	lr
10004060:	2300      	movs	r3, #0
10004062:	e7f8      	b.n	10004056 <prvGetNextExpireTime+0xa>
10004064:	2000      	movs	r0, #0
10004066:	4770      	bx	lr
10004068:	20000968 	.word	0x20000968

1000406c <prvInsertTimerInActiveList>:
1000406c:	b508      	push	{r3, lr}
1000406e:	6041      	str	r1, [r0, #4]
10004070:	6100      	str	r0, [r0, #16]
10004072:	4291      	cmp	r1, r2
10004074:	d80c      	bhi.n	10004090 <prvInsertTimerInActiveList+0x24>
10004076:	1ad2      	subs	r2, r2, r3
10004078:	6983      	ldr	r3, [r0, #24]
1000407a:	429a      	cmp	r2, r3
1000407c:	d301      	bcc.n	10004082 <prvInsertTimerInActiveList+0x16>
1000407e:	2001      	movs	r0, #1
10004080:	bd08      	pop	{r3, pc}
10004082:	1d01      	adds	r1, r0, #4
10004084:	4b09      	ldr	r3, [pc, #36]	@ (100040ac <prvInsertTimerInActiveList+0x40>)
10004086:	6818      	ldr	r0, [r3, #0]
10004088:	f7fd fb59 	bl	1000173e <vListInsert>
1000408c:	2000      	movs	r0, #0
1000408e:	e7f7      	b.n	10004080 <prvInsertTimerInActiveList+0x14>
10004090:	429a      	cmp	r2, r3
10004092:	d201      	bcs.n	10004098 <prvInsertTimerInActiveList+0x2c>
10004094:	4299      	cmp	r1, r3
10004096:	d206      	bcs.n	100040a6 <prvInsertTimerInActiveList+0x3a>
10004098:	1d01      	adds	r1, r0, #4
1000409a:	4b05      	ldr	r3, [pc, #20]	@ (100040b0 <prvInsertTimerInActiveList+0x44>)
1000409c:	6818      	ldr	r0, [r3, #0]
1000409e:	f7fd fb4e 	bl	1000173e <vListInsert>
100040a2:	2000      	movs	r0, #0
100040a4:	e7ec      	b.n	10004080 <prvInsertTimerInActiveList+0x14>
100040a6:	2001      	movs	r0, #1
100040a8:	e7ea      	b.n	10004080 <prvInsertTimerInActiveList+0x14>
100040aa:	bf00      	nop
100040ac:	20000978 	.word	0x20000978
100040b0:	20000968 	.word	0x20000968

100040b4 <prvReloadTimer>:
100040b4:	b570      	push	{r4, r5, r6, lr}
100040b6:	4604      	mov	r4, r0
100040b8:	460d      	mov	r5, r1
100040ba:	4616      	mov	r6, r2
100040bc:	e004      	b.n	100040c8 <prvReloadTimer+0x14>
100040be:	69a3      	ldr	r3, [r4, #24]
100040c0:	441d      	add	r5, r3
100040c2:	6a23      	ldr	r3, [r4, #32]
100040c4:	4620      	mov	r0, r4
100040c6:	4798      	blx	r3
100040c8:	69a1      	ldr	r1, [r4, #24]
100040ca:	462b      	mov	r3, r5
100040cc:	4632      	mov	r2, r6
100040ce:	4429      	add	r1, r5
100040d0:	4620      	mov	r0, r4
100040d2:	f7ff ffcb 	bl	1000406c <prvInsertTimerInActiveList>
100040d6:	2800      	cmp	r0, #0
100040d8:	d1f1      	bne.n	100040be <prvReloadTimer+0xa>
100040da:	bd70      	pop	{r4, r5, r6, pc}

100040dc <prvProcessExpiredTimer>:
100040dc:	b570      	push	{r4, r5, r6, lr}
100040de:	4605      	mov	r5, r0
100040e0:	460e      	mov	r6, r1
100040e2:	4b0d      	ldr	r3, [pc, #52]	@ (10004118 <prvProcessExpiredTimer+0x3c>)
100040e4:	681b      	ldr	r3, [r3, #0]
100040e6:	68db      	ldr	r3, [r3, #12]
100040e8:	68dc      	ldr	r4, [r3, #12]
100040ea:	1d20      	adds	r0, r4, #4
100040ec:	f7fd fb40 	bl	10001770 <uxListRemove>
100040f0:	f894 3028 	ldrb.w	r3, [r4, #40]	@ 0x28
100040f4:	f013 0f04 	tst.w	r3, #4
100040f8:	d107      	bne.n	1000410a <prvProcessExpiredTimer+0x2e>
100040fa:	f023 0301 	bic.w	r3, r3, #1
100040fe:	f884 3028 	strb.w	r3, [r4, #40]	@ 0x28
10004102:	6a23      	ldr	r3, [r4, #32]
10004104:	4620      	mov	r0, r4
10004106:	4798      	blx	r3
10004108:	bd70      	pop	{r4, r5, r6, pc}
1000410a:	4632      	mov	r2, r6
1000410c:	4629      	mov	r1, r5
1000410e:	4620      	mov	r0, r4
10004110:	f7ff ffd0 	bl	100040b4 <prvReloadTimer>
10004114:	e7f5      	b.n	10004102 <prvProcessExpiredTimer+0x26>
10004116:	bf00      	nop
10004118:	20000968 	.word	0x20000968

1000411c <prvSwitchTimerLists>:
1000411c:	b508      	push	{r3, lr}
1000411e:	e005      	b.n	1000412c <prvSwitchTimerLists+0x10>
10004120:	68db      	ldr	r3, [r3, #12]
10004122:	f04f 31ff 	mov.w	r1, #4294967295
10004126:	6818      	ldr	r0, [r3, #0]
10004128:	f7ff ffd8 	bl	100040dc <prvProcessExpiredTimer>
1000412c:	4b05      	ldr	r3, [pc, #20]	@ (10004144 <prvSwitchTimerLists+0x28>)
1000412e:	681b      	ldr	r3, [r3, #0]
10004130:	681a      	ldr	r2, [r3, #0]
10004132:	2a00      	cmp	r2, #0
10004134:	d1f4      	bne.n	10004120 <prvSwitchTimerLists+0x4>
10004136:	4a04      	ldr	r2, [pc, #16]	@ (10004148 <prvSwitchTimerLists+0x2c>)
10004138:	6810      	ldr	r0, [r2, #0]
1000413a:	4902      	ldr	r1, [pc, #8]	@ (10004144 <prvSwitchTimerLists+0x28>)
1000413c:	6008      	str	r0, [r1, #0]
1000413e:	6013      	str	r3, [r2, #0]
10004140:	bd08      	pop	{r3, pc}
10004142:	bf00      	nop
10004144:	20000968 	.word	0x20000968
10004148:	20000978 	.word	0x20000978

1000414c <prvSampleTimeNow>:
1000414c:	b538      	push	{r3, r4, r5, lr}
1000414e:	4605      	mov	r5, r0
10004150:	f7fe fc9e 	bl	10002a90 <xTaskGetTickCount>
10004154:	4604      	mov	r4, r0
10004156:	4b07      	ldr	r3, [pc, #28]	@ (10004174 <prvSampleTimeNow+0x28>)
10004158:	681b      	ldr	r3, [r3, #0]
1000415a:	4283      	cmp	r3, r0
1000415c:	d805      	bhi.n	1000416a <prvSampleTimeNow+0x1e>
1000415e:	2300      	movs	r3, #0
10004160:	602b      	str	r3, [r5, #0]
10004162:	4b04      	ldr	r3, [pc, #16]	@ (10004174 <prvSampleTimeNow+0x28>)
10004164:	601c      	str	r4, [r3, #0]
10004166:	4620      	mov	r0, r4
10004168:	bd38      	pop	{r3, r4, r5, pc}
1000416a:	f7ff ffd7 	bl	1000411c <prvSwitchTimerLists>
1000416e:	2301      	movs	r3, #1
10004170:	602b      	str	r3, [r5, #0]
10004172:	e7f6      	b.n	10004162 <prvSampleTimeNow+0x16>
10004174:	20020c90 	.word	0x20020c90

10004178 <prvProcessTimerOrBlockTask>:
10004178:	b570      	push	{r4, r5, r6, lr}
1000417a:	b082      	sub	sp, #8
1000417c:	4606      	mov	r6, r0
1000417e:	460c      	mov	r4, r1
10004180:	f7fe fc42 	bl	10002a08 <vTaskSuspendAll>
10004184:	a801      	add	r0, sp, #4
10004186:	f7ff ffe1 	bl	1000414c <prvSampleTimeNow>
1000418a:	9b01      	ldr	r3, [sp, #4]
1000418c:	bb03      	cbnz	r3, 100041d0 <prvProcessTimerOrBlockTask+0x58>
1000418e:	4605      	mov	r5, r0
10004190:	b99c      	cbnz	r4, 100041ba <prvProcessTimerOrBlockTask+0x42>
10004192:	42b0      	cmp	r0, r6
10004194:	d20a      	bcs.n	100041ac <prvProcessTimerOrBlockTask+0x34>
10004196:	4622      	mov	r2, r4
10004198:	1b71      	subs	r1, r6, r5
1000419a:	4b0f      	ldr	r3, [pc, #60]	@ (100041d8 <prvProcessTimerOrBlockTask+0x60>)
1000419c:	6818      	ldr	r0, [r3, #0]
1000419e:	f7fe f8b3 	bl	10002308 <vQueueWaitForMessageRestricted>
100041a2:	f7ff fb9d 	bl	100038e0 <xTaskResumeAll>
100041a6:	b180      	cbz	r0, 100041ca <prvProcessTimerOrBlockTask+0x52>
100041a8:	b002      	add	sp, #8
100041aa:	bd70      	pop	{r4, r5, r6, pc}
100041ac:	f7ff fb98 	bl	100038e0 <xTaskResumeAll>
100041b0:	4629      	mov	r1, r5
100041b2:	4630      	mov	r0, r6
100041b4:	f7ff ff92 	bl	100040dc <prvProcessExpiredTimer>
100041b8:	e7f6      	b.n	100041a8 <prvProcessTimerOrBlockTask+0x30>
100041ba:	4a08      	ldr	r2, [pc, #32]	@ (100041dc <prvProcessTimerOrBlockTask+0x64>)
100041bc:	6812      	ldr	r2, [r2, #0]
100041be:	6812      	ldr	r2, [r2, #0]
100041c0:	b90a      	cbnz	r2, 100041c6 <prvProcessTimerOrBlockTask+0x4e>
100041c2:	2401      	movs	r4, #1
100041c4:	e7e7      	b.n	10004196 <prvProcessTimerOrBlockTask+0x1e>
100041c6:	461c      	mov	r4, r3
100041c8:	e7e5      	b.n	10004196 <prvProcessTimerOrBlockTask+0x1e>
100041ca:	f7ff f8bb 	bl	10003344 <vTaskYieldWithinAPI>
100041ce:	e7eb      	b.n	100041a8 <prvProcessTimerOrBlockTask+0x30>
100041d0:	f7ff fb86 	bl	100038e0 <xTaskResumeAll>
100041d4:	e7e8      	b.n	100041a8 <prvProcessTimerOrBlockTask+0x30>
100041d6:	bf00      	nop
100041d8:	20020d38 	.word	0x20020d38
100041dc:	20000978 	.word	0x20000978

100041e0 <prvProcessReceivedCommands>:
100041e0:	b530      	push	{r4, r5, lr}
100041e2:	b087      	sub	sp, #28
100041e4:	2300      	movs	r3, #0
100041e6:	9302      	str	r3, [sp, #8]
100041e8:	9303      	str	r3, [sp, #12]
100041ea:	9304      	str	r3, [sp, #16]
100041ec:	9305      	str	r3, [sp, #20]
100041ee:	e002      	b.n	100041f6 <prvProcessReceivedCommands+0x16>
100041f0:	9b02      	ldr	r3, [sp, #8]
100041f2:	2b00      	cmp	r3, #0
100041f4:	da0f      	bge.n	10004216 <prvProcessReceivedCommands+0x36>
100041f6:	2200      	movs	r2, #0
100041f8:	a902      	add	r1, sp, #8
100041fa:	4b3a      	ldr	r3, [pc, #232]	@ (100042e4 <prvProcessReceivedCommands+0x104>)
100041fc:	6818      	ldr	r0, [r3, #0]
100041fe:	f7fd fe8f 	bl	10001f20 <xQueueReceive>
10004202:	2800      	cmp	r0, #0
10004204:	d06c      	beq.n	100042e0 <prvProcessReceivedCommands+0x100>
10004206:	9b02      	ldr	r3, [sp, #8]
10004208:	2b00      	cmp	r3, #0
1000420a:	daf1      	bge.n	100041f0 <prvProcessReceivedCommands+0x10>
1000420c:	9905      	ldr	r1, [sp, #20]
1000420e:	9804      	ldr	r0, [sp, #16]
10004210:	9b03      	ldr	r3, [sp, #12]
10004212:	4798      	blx	r3
10004214:	e7ec      	b.n	100041f0 <prvProcessReceivedCommands+0x10>
10004216:	9c04      	ldr	r4, [sp, #16]
10004218:	6963      	ldr	r3, [r4, #20]
1000421a:	b113      	cbz	r3, 10004222 <prvProcessReceivedCommands+0x42>
1000421c:	1d20      	adds	r0, r4, #4
1000421e:	f7fd faa7 	bl	10001770 <uxListRemove>
10004222:	a801      	add	r0, sp, #4
10004224:	f7ff ff92 	bl	1000414c <prvSampleTimeNow>
10004228:	4605      	mov	r5, r0
1000422a:	9b02      	ldr	r3, [sp, #8]
1000422c:	3b01      	subs	r3, #1
1000422e:	2b08      	cmp	r3, #8
10004230:	d8e1      	bhi.n	100041f6 <prvProcessReceivedCommands+0x16>
10004232:	e8df f003 	tbb	[pc, r3]
10004236:	0505      	.short	0x0505
10004238:	05473029 	.word	0x05473029
1000423c:	2905      	.short	0x2905
1000423e:	30          	.byte	0x30
1000423f:	00          	.byte	0x00
10004240:	f894 3028 	ldrb.w	r3, [r4, #40]	@ 0x28
10004244:	f043 0301 	orr.w	r3, r3, #1
10004248:	f884 3028 	strb.w	r3, [r4, #40]	@ 0x28
1000424c:	9b03      	ldr	r3, [sp, #12]
1000424e:	69a1      	ldr	r1, [r4, #24]
10004250:	4602      	mov	r2, r0
10004252:	4419      	add	r1, r3
10004254:	4620      	mov	r0, r4
10004256:	f7ff ff09 	bl	1000406c <prvInsertTimerInActiveList>
1000425a:	2800      	cmp	r0, #0
1000425c:	d0cb      	beq.n	100041f6 <prvProcessReceivedCommands+0x16>
1000425e:	f894 3028 	ldrb.w	r3, [r4, #40]	@ 0x28
10004262:	f013 0f04 	tst.w	r3, #4
10004266:	d107      	bne.n	10004278 <prvProcessReceivedCommands+0x98>
10004268:	f023 0301 	bic.w	r3, r3, #1
1000426c:	f884 3028 	strb.w	r3, [r4, #40]	@ 0x28
10004270:	6a23      	ldr	r3, [r4, #32]
10004272:	4620      	mov	r0, r4
10004274:	4798      	blx	r3
10004276:	e7be      	b.n	100041f6 <prvProcessReceivedCommands+0x16>
10004278:	69a3      	ldr	r3, [r4, #24]
1000427a:	462a      	mov	r2, r5
1000427c:	9903      	ldr	r1, [sp, #12]
1000427e:	4419      	add	r1, r3
10004280:	4620      	mov	r0, r4
10004282:	f7ff ff17 	bl	100040b4 <prvReloadTimer>
10004286:	e7f3      	b.n	10004270 <prvProcessReceivedCommands+0x90>
10004288:	f894 3028 	ldrb.w	r3, [r4, #40]	@ 0x28
1000428c:	f023 0301 	bic.w	r3, r3, #1
10004290:	f884 3028 	strb.w	r3, [r4, #40]	@ 0x28
10004294:	e7af      	b.n	100041f6 <prvProcessReceivedCommands+0x16>
10004296:	f894 3028 	ldrb.w	r3, [r4, #40]	@ 0x28
1000429a:	f043 0301 	orr.w	r3, r3, #1
1000429e:	f884 3028 	strb.w	r3, [r4, #40]	@ 0x28
100042a2:	9903      	ldr	r1, [sp, #12]
100042a4:	61a1      	str	r1, [r4, #24]
100042a6:	b131      	cbz	r1, 100042b6 <prvProcessReceivedCommands+0xd6>
100042a8:	4603      	mov	r3, r0
100042aa:	4602      	mov	r2, r0
100042ac:	4401      	add	r1, r0
100042ae:	4620      	mov	r0, r4
100042b0:	f7ff fedc 	bl	1000406c <prvInsertTimerInActiveList>
100042b4:	e79f      	b.n	100041f6 <prvProcessReceivedCommands+0x16>
100042b6:	4b0c      	ldr	r3, [pc, #48]	@ (100042e8 <prvProcessReceivedCommands+0x108>)
100042b8:	4a0c      	ldr	r2, [pc, #48]	@ (100042ec <prvProcessReceivedCommands+0x10c>)
100042ba:	f44f 6182 	mov.w	r1, #1040	@ 0x410
100042be:	480c      	ldr	r0, [pc, #48]	@ (100042f0 <prvProcessReceivedCommands+0x110>)
100042c0:	f002 feba 	bl	10007038 <__assert_func>
100042c4:	f894 3028 	ldrb.w	r3, [r4, #40]	@ 0x28
100042c8:	f013 0f02 	tst.w	r3, #2
100042cc:	d004      	beq.n	100042d8 <prvProcessReceivedCommands+0xf8>
100042ce:	f023 0301 	bic.w	r3, r3, #1
100042d2:	f884 3028 	strb.w	r3, [r4, #40]	@ 0x28
100042d6:	e78e      	b.n	100041f6 <prvProcessReceivedCommands+0x16>
100042d8:	4620      	mov	r0, r4
100042da:	f7fc fd0b 	bl	10000cf4 <vPortFree>
100042de:	e78a      	b.n	100041f6 <prvProcessReceivedCommands+0x16>
100042e0:	b007      	add	sp, #28
100042e2:	bd30      	pop	{r4, r5, pc}
100042e4:	20020d38 	.word	0x20020d38
100042e8:	100088f0 	.word	0x100088f0
100042ec:	1000961c 	.word	0x1000961c
100042f0:	10008918 	.word	0x10008918

100042f4 <prvTimerTask>:
100042f4:	b500      	push	{lr}
100042f6:	b083      	sub	sp, #12
100042f8:	a801      	add	r0, sp, #4
100042fa:	f7ff fea7 	bl	1000404c <prvGetNextExpireTime>
100042fe:	9901      	ldr	r1, [sp, #4]
10004300:	f7ff ff3a 	bl	10004178 <prvProcessTimerOrBlockTask>
10004304:	f7ff ff6c 	bl	100041e0 <prvProcessReceivedCommands>
10004308:	e7f6      	b.n	100042f8 <prvTimerTask+0x4>
	...

1000430c <prvCheckForValidListAndQueue>:
1000430c:	b538      	push	{r3, r4, r5, lr}
1000430e:	f7ff f82d 	bl	1000336c <vTaskEnterCritical>
10004312:	4b0f      	ldr	r3, [pc, #60]	@ (10004350 <prvCheckForValidListAndQueue+0x44>)
10004314:	681b      	ldr	r3, [r3, #0]
10004316:	b113      	cbz	r3, 1000431e <prvCheckForValidListAndQueue+0x12>
10004318:	f7ff f888 	bl	1000342c <vTaskExitCritical>
1000431c:	bd38      	pop	{r3, r4, r5, pc}
1000431e:	4d0d      	ldr	r5, [pc, #52]	@ (10004354 <prvCheckForValidListAndQueue+0x48>)
10004320:	4628      	mov	r0, r5
10004322:	f7fd f9f3 	bl	1000170c <vListInitialise>
10004326:	4c0c      	ldr	r4, [pc, #48]	@ (10004358 <prvCheckForValidListAndQueue+0x4c>)
10004328:	4620      	mov	r0, r4
1000432a:	f7fd f9ef 	bl	1000170c <vListInitialise>
1000432e:	4b0b      	ldr	r3, [pc, #44]	@ (1000435c <prvCheckForValidListAndQueue+0x50>)
10004330:	601d      	str	r5, [r3, #0]
10004332:	4b0b      	ldr	r3, [pc, #44]	@ (10004360 <prvCheckForValidListAndQueue+0x54>)
10004334:	601c      	str	r4, [r3, #0]
10004336:	2200      	movs	r2, #0
10004338:	2110      	movs	r1, #16
1000433a:	200a      	movs	r0, #10
1000433c:	f7fd fb98 	bl	10001a70 <xQueueGenericCreate>
10004340:	4b03      	ldr	r3, [pc, #12]	@ (10004350 <prvCheckForValidListAndQueue+0x44>)
10004342:	6018      	str	r0, [r3, #0]
10004344:	2800      	cmp	r0, #0
10004346:	d0e7      	beq.n	10004318 <prvCheckForValidListAndQueue+0xc>
10004348:	4906      	ldr	r1, [pc, #24]	@ (10004364 <prvCheckForValidListAndQueue+0x58>)
1000434a:	f7fd ff6f 	bl	1000222c <vQueueAddToRegistry>
1000434e:	e7e3      	b.n	10004318 <prvCheckForValidListAndQueue+0xc>
10004350:	20020d38 	.word	0x20020d38
10004354:	20020c30 	.word	0x20020c30
10004358:	20020c44 	.word	0x20020c44
1000435c:	20000968 	.word	0x20000968
10004360:	20000978 	.word	0x20000978
10004364:	10008948 	.word	0x10008948

10004368 <prvInitialiseNewTimer>:
10004368:	e92d 41f0 	stmdb	sp!, {r4, r5, r6, r7, r8, lr}
1000436c:	9c07      	ldr	r4, [sp, #28]
1000436e:	b1b9      	cbz	r1, 100043a0 <prvInitialiseNewTimer+0x38>
10004370:	4607      	mov	r7, r0
10004372:	4615      	mov	r5, r2
10004374:	461e      	mov	r6, r3
10004376:	4688      	mov	r8, r1
10004378:	f7ff ffc8 	bl	1000430c <prvCheckForValidListAndQueue>
1000437c:	6027      	str	r7, [r4, #0]
1000437e:	f8c4 8018 	str.w	r8, [r4, #24]
10004382:	61e6      	str	r6, [r4, #28]
10004384:	9b06      	ldr	r3, [sp, #24]
10004386:	6223      	str	r3, [r4, #32]
10004388:	1d20      	adds	r0, r4, #4
1000438a:	f7fd f9ca 	bl	10001722 <vListInitialiseItem>
1000438e:	b12d      	cbz	r5, 1000439c <prvInitialiseNewTimer+0x34>
10004390:	f894 3028 	ldrb.w	r3, [r4, #40]	@ 0x28
10004394:	f043 0304 	orr.w	r3, r3, #4
10004398:	f884 3028 	strb.w	r3, [r4, #40]	@ 0x28
1000439c:	e8bd 81f0 	ldmia.w	sp!, {r4, r5, r6, r7, r8, pc}
100043a0:	4b03      	ldr	r3, [pc, #12]	@ (100043b0 <prvInitialiseNewTimer+0x48>)
100043a2:	4a04      	ldr	r2, [pc, #16]	@ (100043b4 <prvInitialiseNewTimer+0x4c>)
100043a4:	f240 11a9 	movw	r1, #425	@ 0x1a9
100043a8:	4803      	ldr	r0, [pc, #12]	@ (100043b8 <prvInitialiseNewTimer+0x50>)
100043aa:	f002 fe45 	bl	10007038 <__assert_func>
100043ae:	bf00      	nop
100043b0:	10008950 	.word	0x10008950
100043b4:	10009604 	.word	0x10009604
100043b8:	10008918 	.word	0x10008918

100043bc <xTimerCreateTimerTask>:
100043bc:	b500      	push	{lr}
100043be:	b085      	sub	sp, #20
100043c0:	f7ff ffa4 	bl	1000430c <prvCheckForValidListAndQueue>
100043c4:	4b0d      	ldr	r3, [pc, #52]	@ (100043fc <xTimerCreateTimerTask+0x40>)
100043c6:	681b      	ldr	r3, [r3, #0]
100043c8:	b18b      	cbz	r3, 100043ee <xTimerCreateTimerTask+0x32>
100043ca:	4b0d      	ldr	r3, [pc, #52]	@ (10004400 <xTimerCreateTimerTask+0x44>)
100043cc:	9302      	str	r3, [sp, #8]
100043ce:	f04f 33ff 	mov.w	r3, #4294967295
100043d2:	9301      	str	r3, [sp, #4]
100043d4:	231f      	movs	r3, #31
100043d6:	9300      	str	r3, [sp, #0]
100043d8:	2300      	movs	r3, #0
100043da:	f44f 6280 	mov.w	r2, #1024	@ 0x400
100043de:	4909      	ldr	r1, [pc, #36]	@ (10004404 <xTimerCreateTimerTask+0x48>)
100043e0:	4809      	ldr	r0, [pc, #36]	@ (10004408 <xTimerCreateTimerTask+0x4c>)
100043e2:	f7ff f98f 	bl	10003704 <xTaskCreateAffinitySet>
100043e6:	b110      	cbz	r0, 100043ee <xTimerCreateTimerTask+0x32>
100043e8:	b005      	add	sp, #20
100043ea:	f85d fb04 	ldr.w	pc, [sp], #4
100043ee:	4b07      	ldr	r3, [pc, #28]	@ (1000440c <xTimerCreateTimerTask+0x50>)
100043f0:	4a07      	ldr	r2, [pc, #28]	@ (10004410 <xTimerCreateTimerTask+0x54>)
100043f2:	f44f 71a3 	mov.w	r1, #326	@ 0x146
100043f6:	4807      	ldr	r0, [pc, #28]	@ (10004414 <xTimerCreateTimerTask+0x58>)
100043f8:	f002 fe1e 	bl	10007038 <__assert_func>
100043fc:	20020d38 	.word	0x20020d38
10004400:	20020d3c 	.word	0x20020d3c
10004404:	1000896c 	.word	0x1000896c
10004408:	100042f5 	.word	0x100042f5
1000440c:	10008974 	.word	0x10008974
10004410:	10009638 	.word	0x10009638
10004414:	10008918 	.word	0x10008918

10004418 <xTimerCreate>:
10004418:	e92d 41f0 	stmdb	sp!, {r4, r5, r6, r7, r8, lr}
1000441c:	b082      	sub	sp, #8
1000441e:	4604      	mov	r4, r0
10004420:	4688      	mov	r8, r1
10004422:	4617      	mov	r7, r2
10004424:	461d      	mov	r5, r3
10004426:	202c      	movs	r0, #44	@ 0x2c
10004428:	f7fc fba6 	bl	10000b78 <pvPortMalloc>
1000442c:	4606      	mov	r6, r0
1000442e:	b158      	cbz	r0, 10004448 <xTimerCreate+0x30>
10004430:	2300      	movs	r3, #0
10004432:	f880 3028 	strb.w	r3, [r0, #40]	@ 0x28
10004436:	9001      	str	r0, [sp, #4]
10004438:	9b08      	ldr	r3, [sp, #32]
1000443a:	9300      	str	r3, [sp, #0]
1000443c:	462b      	mov	r3, r5
1000443e:	463a      	mov	r2, r7
10004440:	4641      	mov	r1, r8
10004442:	4620      	mov	r0, r4
10004444:	f7ff ff90 	bl	10004368 <prvInitialiseNewTimer>
10004448:	4630      	mov	r0, r6
1000444a:	b002      	add	sp, #8
1000444c:	e8bd 81f0 	ldmia.w	sp!, {r4, r5, r6, r7, r8, pc}

10004450 <xTimerGenericCommandFromTask>:
10004450:	b510      	push	{r4, lr}
10004452:	b084      	sub	sp, #16
10004454:	b1a0      	cbz	r0, 10004480 <xTimerGenericCommandFromTask+0x30>
10004456:	4b16      	ldr	r3, [pc, #88]	@ (100044b0 <xTimerGenericCommandFromTask+0x60>)
10004458:	681b      	ldr	r3, [r3, #0]
1000445a:	b33b      	cbz	r3, 100044ac <xTimerGenericCommandFromTask+0x5c>
1000445c:	9100      	str	r1, [sp, #0]
1000445e:	9201      	str	r2, [sp, #4]
10004460:	9002      	str	r0, [sp, #8]
10004462:	2905      	cmp	r1, #5
10004464:	dc13      	bgt.n	1000448e <xTimerGenericCommandFromTask+0x3e>
10004466:	f7ff fbd5 	bl	10003c14 <xTaskGetSchedulerState>
1000446a:	2802      	cmp	r0, #2
1000446c:	d016      	beq.n	1000449c <xTimerGenericCommandFromTask+0x4c>
1000446e:	2300      	movs	r3, #0
10004470:	461a      	mov	r2, r3
10004472:	4669      	mov	r1, sp
10004474:	480e      	ldr	r0, [pc, #56]	@ (100044b0 <xTimerGenericCommandFromTask+0x60>)
10004476:	6800      	ldr	r0, [r0, #0]
10004478:	f7fd fb46 	bl	10001b08 <xQueueGenericSend>
1000447c:	b004      	add	sp, #16
1000447e:	bd10      	pop	{r4, pc}
10004480:	4b0c      	ldr	r3, [pc, #48]	@ (100044b4 <xTimerGenericCommandFromTask+0x64>)
10004482:	4a0d      	ldr	r2, [pc, #52]	@ (100044b8 <xTimerGenericCommandFromTask+0x68>)
10004484:	f240 11cd 	movw	r1, #461	@ 0x1cd
10004488:	480c      	ldr	r0, [pc, #48]	@ (100044bc <xTimerGenericCommandFromTask+0x6c>)
1000448a:	f002 fdd5 	bl	10007038 <__assert_func>
1000448e:	4b0c      	ldr	r3, [pc, #48]	@ (100044c0 <xTimerGenericCommandFromTask+0x70>)
10004490:	4a09      	ldr	r2, [pc, #36]	@ (100044b8 <xTimerGenericCommandFromTask+0x68>)
10004492:	f44f 71ec 	mov.w	r1, #472	@ 0x1d8
10004496:	4809      	ldr	r0, [pc, #36]	@ (100044bc <xTimerGenericCommandFromTask+0x6c>)
10004498:	f002 fdce 	bl	10007038 <__assert_func>
1000449c:	2300      	movs	r3, #0
1000449e:	9a06      	ldr	r2, [sp, #24]
100044a0:	4669      	mov	r1, sp
100044a2:	4803      	ldr	r0, [pc, #12]	@ (100044b0 <xTimerGenericCommandFromTask+0x60>)
100044a4:	6800      	ldr	r0, [r0, #0]
100044a6:	f7fd fb2f 	bl	10001b08 <xQueueGenericSend>
100044aa:	e7e7      	b.n	1000447c <xTimerGenericCommandFromTask+0x2c>
100044ac:	2000      	movs	r0, #0
100044ae:	e7e5      	b.n	1000447c <xTimerGenericCommandFromTask+0x2c>
100044b0:	20020d38 	.word	0x20020d38
100044b4:	1000897c 	.word	0x1000897c
100044b8:	100095e4 	.word	0x100095e4
100044bc:	10008918 	.word	0x10008918
100044c0:	10008984 	.word	0x10008984

100044c4 <pvTimerGetTimerID>:
100044c4:	b510      	push	{r4, lr}
100044c6:	b138      	cbz	r0, 100044d8 <pvTimerGetTimerID+0x14>
100044c8:	4604      	mov	r4, r0
100044ca:	f7fe ff4f 	bl	1000336c <vTaskEnterCritical>
100044ce:	69e4      	ldr	r4, [r4, #28]
100044d0:	f7fe ffac 	bl	1000342c <vTaskExitCritical>
100044d4:	4620      	mov	r0, r4
100044d6:	bd10      	pop	{r4, pc}
100044d8:	4b03      	ldr	r3, [pc, #12]	@ (100044e8 <pvTimerGetTimerID+0x24>)
100044da:	4a04      	ldr	r2, [pc, #16]	@ (100044ec <pvTimerGetTimerID+0x28>)
100044dc:	f240 41ae 	movw	r1, #1198	@ 0x4ae
100044e0:	4803      	ldr	r0, [pc, #12]	@ (100044f0 <pvTimerGetTimerID+0x2c>)
100044e2:	f002 fda9 	bl	10007038 <__assert_func>
100044e6:	bf00      	nop
100044e8:	1000897c 	.word	0x1000897c
100044ec:	100095d0 	.word	0x100095d0
100044f0:	10008918 	.word	0x10008918

100044f4 <xTimerPendFunctionCallFromISR>:
100044f4:	b510      	push	{r4, lr}
100044f6:	b084      	sub	sp, #16
100044f8:	4614      	mov	r4, r2
100044fa:	461a      	mov	r2, r3
100044fc:	f06f 0301 	mvn.w	r3, #1
10004500:	9300      	str	r3, [sp, #0]
10004502:	9001      	str	r0, [sp, #4]
10004504:	9102      	str	r1, [sp, #8]
10004506:	9403      	str	r4, [sp, #12]
10004508:	2300      	movs	r3, #0
1000450a:	4669      	mov	r1, sp
1000450c:	4802      	ldr	r0, [pc, #8]	@ (10004518 <xTimerPendFunctionCallFromISR+0x24>)
1000450e:	6800      	ldr	r0, [r0, #0]
10004510:	f7fd fbf6 	bl	10001d00 <xQueueGenericSendFromISR>
10004514:	b004      	add	sp, #16
10004516:	bd10      	pop	{r4, pc}
10004518:	20020d38 	.word	0x20020d38

1000451c <clock_configure_internal>:
1000451c:	b570      	push	{r4, r5, r6, lr}
1000451e:	4616      	mov	r6, r2
10004520:	9d04      	ldr	r5, [sp, #16]
10004522:	eb00 0c40 	add.w	ip, r0, r0, lsl #1
10004526:	ea4f 0c8c 	mov.w	ip, ip, lsl #2
1000452a:	f10c 4c80 	add.w	ip, ip, #1073741824	@ 0x40000000
1000452e:	f50c 3c80 	add.w	ip, ip, #65536	@ 0x10000
10004532:	f8dc 2004 	ldr.w	r2, [ip, #4]
10004536:	42aa      	cmp	r2, r5
10004538:	d201      	bcs.n	1000453e <clock_configure_internal+0x22>
1000453a:	f8cc 5004 	str.w	r5, [ip, #4]
1000453e:	f1a0 0e04 	sub.w	lr, r0, #4
10004542:	fa5f fe8e 	uxtb.w	lr, lr
10004546:	f1be 0f01 	cmp.w	lr, #1
1000454a:	d928      	bls.n	1000459e <clock_configure_internal+0x82>
1000454c:	f50c 5240 	add.w	r2, ip, #12288	@ 0x3000
10004550:	f44f 6400 	mov.w	r4, #2048	@ 0x800
10004554:	6014      	str	r4, [r2, #0]
10004556:	4a1e      	ldr	r2, [pc, #120]	@ (100045d0 <clock_configure_internal+0xb4>)
10004558:	f852 2020 	ldr.w	r2, [r2, r0, lsl #2]
1000455c:	b142      	cbz	r2, 10004570 <clock_configure_internal+0x54>
1000455e:	4c1c      	ldr	r4, [pc, #112]	@ (100045d0 <clock_configure_internal+0xb4>)
10004560:	6964      	ldr	r4, [r4, #20]
10004562:	fbb4 f4f2 	udiv	r4, r4, r2
10004566:	3401      	adds	r4, #1
10004568:	eb04 0444 	add.w	r4, r4, r4, lsl #1
1000456c:	3c03      	subs	r4, #3
1000456e:	d2fd      	bcs.n	1000456c <clock_configure_internal+0x50>
10004570:	f8dc 2000 	ldr.w	r2, [ip]
10004574:	ea82 1246 	eor.w	r2, r2, r6, lsl #5
10004578:	f002 02e0 	and.w	r2, r2, #224	@ 0xe0
1000457c:	f50c 5480 	add.w	r4, ip, #4096	@ 0x1000
10004580:	6022      	str	r2, [r4, #0]
10004582:	f1be 0f01 	cmp.w	lr, #1
10004586:	d916      	bls.n	100045b6 <clock_configure_internal+0x9a>
10004588:	f50c 5200 	add.w	r2, ip, #8192	@ 0x2000
1000458c:	f44f 6100 	mov.w	r1, #2048	@ 0x800
10004590:	6011      	str	r1, [r2, #0]
10004592:	f8cc 5004 	str.w	r5, [ip, #4]
10004596:	4a0e      	ldr	r2, [pc, #56]	@ (100045d0 <clock_configure_internal+0xb4>)
10004598:	f842 3020 	str.w	r3, [r2, r0, lsl #2]
1000459c:	bd70      	pop	{r4, r5, r6, pc}
1000459e:	2901      	cmp	r1, #1
100045a0:	d1d4      	bne.n	1000454c <clock_configure_internal+0x30>
100045a2:	f50c 5240 	add.w	r2, ip, #12288	@ 0x3000
100045a6:	2403      	movs	r4, #3
100045a8:	6014      	str	r4, [r2, #0]
100045aa:	f8dc 2008 	ldr.w	r2, [ip, #8]
100045ae:	f012 0f01 	tst.w	r2, #1
100045b2:	d0fa      	beq.n	100045aa <clock_configure_internal+0x8e>
100045b4:	e7dc      	b.n	10004570 <clock_configure_internal+0x54>
100045b6:	f8dc 2000 	ldr.w	r2, [ip]
100045ba:	404a      	eors	r2, r1
100045bc:	f002 0203 	and.w	r2, r2, #3
100045c0:	6022      	str	r2, [r4, #0]
100045c2:	f8dc 4008 	ldr.w	r4, [ip, #8]
100045c6:	2201      	movs	r2, #1
100045c8:	408a      	lsls	r2, r1
100045ca:	4214      	tst	r4, r2
100045cc:	d0f9      	beq.n	100045c2 <clock_configure_internal+0xa6>
100045ce:	e7db      	b.n	10004588 <clock_configure_internal+0x6c>
100045d0:	200008f0 	.word	0x200008f0

100045d4 <clock_configure_undivided>:
100045d4:	b510      	push	{r4, lr}
100045d6:	b082      	sub	sp, #8
100045d8:	f44f 3480 	mov.w	r4, #65536	@ 0x10000
100045dc:	9400      	str	r4, [sp, #0]
100045de:	f7ff ff9d 	bl	1000451c <clock_configure_internal>
100045e2:	b002      	add	sp, #8
100045e4:	bd10      	pop	{r4, pc}
	...

100045e8 <clock_get_hz>:
100045e8:	4b01      	ldr	r3, [pc, #4]	@ (100045f0 <clock_get_hz+0x8>)
100045ea:	f853 0020 	ldr.w	r0, [r3, r0, lsl #2]
100045ee:	4770      	bx	lr
100045f0:	200008f0 	.word	0x200008f0

100045f4 <hw_claim_lock>:
100045f4:	f3ef 8010 	mrs	r0, PRIMASK
100045f8:	b672      	cpsid	i
100045fa:	4b06      	ldr	r3, [pc, #24]	@ (10004614 <hw_claim_lock+0x20>)
100045fc:	e8d3 1fcf 	ldaexb	r1, [r3]
10004600:	2201      	movs	r2, #1
10004602:	2900      	cmp	r1, #0
10004604:	d1fa      	bne.n	100045fc <hw_claim_lock+0x8>
10004606:	e8c3 2f41 	strexb	r1, r2, [r3]
1000460a:	2900      	cmp	r1, #0
1000460c:	d1f6      	bne.n	100045fc <hw_claim_lock+0x8>
1000460e:	f3bf 8f5f 	dmb	sy
10004612:	4770      	bx	lr
10004614:	200008cb 	.word	0x200008cb

10004618 <hw_claim_unlock>:
10004618:	2300      	movs	r3, #0
1000461a:	4a03      	ldr	r2, [pc, #12]	@ (10004628 <hw_claim_unlock+0x10>)
1000461c:	e8c2 3f8f 	stlb	r3, [r2]
10004620:	f380 8810 	msr	PRIMASK, r0
10004624:	4770      	bx	lr
10004626:	bf00      	nop
10004628:	200008cb 	.word	0x200008cb

1000462c <hw_claim_or_assert>:
1000462c:	b570      	push	{r4, r5, r6, lr}
1000462e:	4605      	mov	r5, r0
10004630:	460c      	mov	r4, r1
10004632:	4616      	mov	r6, r2
10004634:	f7ff ffde 	bl	100045f4 <hw_claim_lock>
10004638:	08e2      	lsrs	r2, r4, #3
1000463a:	5ca9      	ldrb	r1, [r5, r2]
1000463c:	f004 0c07 	and.w	ip, r4, #7
10004640:	2301      	movs	r3, #1
10004642:	fa03 f30c 	lsl.w	r3, r3, ip
10004646:	4219      	tst	r1, r3
10004648:	d105      	bne.n	10004656 <hw_claim_or_assert+0x2a>
1000464a:	b2db      	uxtb	r3, r3
1000464c:	430b      	orrs	r3, r1
1000464e:	54ab      	strb	r3, [r5, r2]
10004650:	f7ff ffe2 	bl	10004618 <hw_claim_unlock>
10004654:	bd70      	pop	{r4, r5, r6, pc}
10004656:	4621      	mov	r1, r4
10004658:	4630      	mov	r0, r6
1000465a:	f7fc fa03 	bl	10000a64 <panic>
	...

10004660 <next_striped_spin_lock_num>:
10004660:	4a05      	ldr	r2, [pc, #20]	@ (10004678 <next_striped_spin_lock_num+0x18>)
10004662:	7810      	ldrb	r0, [r2, #0]
10004664:	1c43      	adds	r3, r0, #1
10004666:	b2db      	uxtb	r3, r3
10004668:	7013      	strb	r3, [r2, #0]
1000466a:	2b17      	cmp	r3, #23
1000466c:	d902      	bls.n	10004674 <next_striped_spin_lock_num+0x14>
1000466e:	4613      	mov	r3, r2
10004670:	2210      	movs	r2, #16
10004672:	701a      	strb	r2, [r3, #0]
10004674:	4770      	bx	lr
10004676:	bf00      	nop
10004678:	2000067a 	.word	0x2000067a

1000467c <spin_lock_claim>:
1000467c:	b508      	push	{r3, lr}
1000467e:	4601      	mov	r1, r0
10004680:	4a02      	ldr	r2, [pc, #8]	@ (1000468c <spin_lock_claim+0x10>)
10004682:	4803      	ldr	r0, [pc, #12]	@ (10004690 <spin_lock_claim+0x14>)
10004684:	f7ff ffd2 	bl	1000462c <hw_claim_or_assert>
10004688:	bd08      	pop	{r3, pc}
1000468a:	bf00      	nop
1000468c:	100089a8 	.word	0x100089a8
10004690:	200008e8 	.word	0x200008e8

10004694 <spinlock_set_extexclall>:
10004694:	f04f 22e0 	mov.w	r2, #3758153728	@ 0xe000e000
10004698:	6893      	ldr	r3, [r2, #8]
1000469a:	f043 5300 	orr.w	r3, r3, #536870912	@ 0x20000000
1000469e:	6093      	str	r3, [r2, #8]
100046a0:	4770      	bx	lr
	...

100046a4 <spin_locks_reset>:
100046a4:	2300      	movs	r3, #0
100046a6:	e005      	b.n	100046b4 <spin_locks_reset+0x10>
100046a8:	4a04      	ldr	r2, [pc, #16]	@ (100046bc <spin_locks_reset+0x18>)
100046aa:	441a      	add	r2, r3
100046ac:	2100      	movs	r1, #0
100046ae:	e8c2 1f8f 	stlb	r1, [r2]
100046b2:	3301      	adds	r3, #1
100046b4:	2b1f      	cmp	r3, #31
100046b6:	d9f7      	bls.n	100046a8 <spin_locks_reset+0x4>
100046b8:	4770      	bx	lr
100046ba:	bf00      	nop
100046bc:	200008c0 	.word	0x200008c0

100046c0 <gpio_set_function>:
100046c0:	4b0c      	ldr	r3, [pc, #48]	@ (100046f4 <gpio_set_function+0x34>)
100046c2:	eb03 0280 	add.w	r2, r3, r0, lsl #2
100046c6:	f853 3020 	ldr.w	r3, [r3, r0, lsl #2]
100046ca:	f083 0340 	eor.w	r3, r3, #64	@ 0x40
100046ce:	f003 03c0 	and.w	r3, r3, #192	@ 0xc0
100046d2:	f502 5c80 	add.w	ip, r2, #4096	@ 0x1000
100046d6:	f8cc 3000 	str.w	r3, [ip]
100046da:	00c0      	lsls	r0, r0, #3
100046dc:	f100 4080 	add.w	r0, r0, #1073741824	@ 0x40000000
100046e0:	f500 3020 	add.w	r0, r0, #163840	@ 0x28000
100046e4:	6041      	str	r1, [r0, #4]
100046e6:	f502 5240 	add.w	r2, r2, #12288	@ 0x3000
100046ea:	f44f 7380 	mov.w	r3, #256	@ 0x100
100046ee:	6013      	str	r3, [r2, #0]
100046f0:	4770      	bx	lr
100046f2:	bf00      	nop
100046f4:	40038004 	.word	0x40038004

100046f8 <gpio_init>:
100046f8:	b508      	push	{r3, lr}
100046fa:	f04f 0200 	mov.w	r2, #0
100046fe:	ec42 0044 	gpioc_bit_oe_put r0, r2
10004702:	ec42 0040 	gpioc_bit_out_put r0, r2
10004706:	2105      	movs	r1, #5
10004708:	f7ff ffda 	bl	100046c0 <gpio_set_function>
1000470c:	bd08      	pop	{r3, pc}
	...

10004710 <set_raw_irq_handler_and_unlock>:
10004710:	4b06      	ldr	r3, [pc, #24]	@ (1000472c <set_raw_irq_handler_and_unlock+0x1c>)
10004712:	689b      	ldr	r3, [r3, #8]
10004714:	3010      	adds	r0, #16
10004716:	f843 1020 	str.w	r1, [r3, r0, lsl #2]
1000471a:	f3bf 8f5f 	dmb	sy
1000471e:	2300      	movs	r3, #0
10004720:	4903      	ldr	r1, [pc, #12]	@ (10004730 <set_raw_irq_handler_and_unlock+0x20>)
10004722:	e8c1 3f8f 	stlb	r3, [r1]
10004726:	f382 8810 	msr	PRIMASK, r2
1000472a:	4770      	bx	lr
1000472c:	e000ed00 	.word	0xe000ed00
10004730:	200008c9 	.word	0x200008c9

10004734 <nvic_ipr0>:
10004734:	4800      	ldr	r0, [pc, #0]	@ (10004738 <nvic_ipr0+0x4>)
10004736:	4770      	bx	lr
10004738:	e000e400 	.word	0xe000e400

1000473c <runtime_init_per_core_irq_priorities>:
1000473c:	b508      	push	{r3, lr}
1000473e:	f7ff fff9 	bl	10004734 <nvic_ipr0>
10004742:	2300      	movs	r3, #0
10004744:	e004      	b.n	10004750 <runtime_init_per_core_irq_priorities+0x14>
10004746:	f04f 3280 	mov.w	r2, #2155905152	@ 0x80808080
1000474a:	f840 2b04 	str.w	r2, [r0], #4
1000474e:	3301      	adds	r3, #1
10004750:	2b0c      	cmp	r3, #12
10004752:	d9f8      	bls.n	10004746 <runtime_init_per_core_irq_priorities+0xa>
10004754:	bd08      	pop	{r3, pc}
	...

10004758 <resolve_j_16>:
10004758:	b508      	push	{r3, lr}
1000475a:	8803      	ldrh	r3, [r0, #0]
1000475c:	0ada      	lsrs	r2, r3, #11
1000475e:	2a1c      	cmp	r2, #28
10004760:	d106      	bne.n	10004770 <resolve_j_16+0x18>
10004762:	055b      	lsls	r3, r3, #21
10004764:	d40b      	bmi.n	1000477e <resolve_j_16+0x26>
10004766:	155b      	asrs	r3, r3, #21
10004768:	3302      	adds	r3, #2
1000476a:	eb00 0043 	add.w	r0, r0, r3, lsl #1
1000476e:	bd08      	pop	{r3, pc}
10004770:	4b06      	ldr	r3, [pc, #24]	@ (1000478c <resolve_j_16+0x34>)
10004772:	4a07      	ldr	r2, [pc, #28]	@ (10004790 <resolve_j_16+0x38>)
10004774:	f240 110f 	movw	r1, #271	@ 0x10f
10004778:	4806      	ldr	r0, [pc, #24]	@ (10004794 <resolve_j_16+0x3c>)
1000477a:	f002 fc5d 	bl	10007038 <__assert_func>
1000477e:	f503 13ff 	add.w	r3, r3, #2088960	@ 0x1fe000
10004782:	f503 53ff 	add.w	r3, r3, #8160	@ 0x1fe0
10004786:	331f      	adds	r3, #31
10004788:	e7ed      	b.n	10004766 <resolve_j_16+0xe>
1000478a:	bf00      	nop
1000478c:	100089c8 	.word	0x100089c8
10004790:	1000969c 	.word	0x1000969c
10004794:	100089e0 	.word	0x100089e0

10004798 <make_j_16>:
10004798:	b508      	push	{r3, lr}
1000479a:	1a09      	subs	r1, r1, r0
1000479c:	f201 72fc 	addw	r2, r1, #2044	@ 0x7fc
100047a0:	f640 73fe 	movw	r3, #4094	@ 0xffe
100047a4:	429a      	cmp	r2, r3
100047a6:	d808      	bhi.n	100047ba <make_j_16+0x22>
100047a8:	1f08      	subs	r0, r1, #4
100047aa:	f011 0f01 	tst.w	r1, #1
100047ae:	d104      	bne.n	100047ba <make_j_16+0x22>
100047b0:	f3c0 004a 	ubfx	r0, r0, #1, #11
100047b4:	f440 4060 	orr.w	r0, r0, #57344	@ 0xe000
100047b8:	bd08      	pop	{r3, pc}
100047ba:	4b03      	ldr	r3, [pc, #12]	@ (100047c8 <make_j_16+0x30>)
100047bc:	4a03      	ldr	r2, [pc, #12]	@ (100047cc <make_j_16+0x34>)
100047be:	f240 1101 	movw	r1, #257	@ 0x101
100047c2:	4803      	ldr	r0, [pc, #12]	@ (100047d0 <make_j_16+0x38>)
100047c4:	f002 fc38 	bl	10007038 <__assert_func>
100047c8:	10008a28 	.word	0x10008a28
100047cc:	10009690 	.word	0x10009690
100047d0:	100089e0 	.word	0x100089e0

100047d4 <insert_bl_32>:
100047d4:	b508      	push	{r3, lr}
100047d6:	1a09      	subs	r1, r1, r0
100047d8:	3904      	subs	r1, #4
100047da:	084b      	lsrs	r3, r1, #1
100047dc:	0b09      	lsrs	r1, r1, #12
100047de:	d10a      	bne.n	100047f6 <insert_bl_32+0x22>
100047e0:	f3c1 010a 	ubfx	r1, r1, #0, #11
100047e4:	f441 4170 	orr.w	r1, r1, #61440	@ 0xf000
100047e8:	8001      	strh	r1, [r0, #0]
100047ea:	ea6f 5343 	mvn.w	r3, r3, lsl #21
100047ee:	ea6f 5353 	mvn.w	r3, r3, lsr #21
100047f2:	8043      	strh	r3, [r0, #2]
100047f4:	bd08      	pop	{r3, pc}
100047f6:	4b03      	ldr	r3, [pc, #12]	@ (10004804 <insert_bl_32+0x30>)
100047f8:	4a03      	ldr	r2, [pc, #12]	@ (10004808 <insert_bl_32+0x34>)
100047fa:	f240 1109 	movw	r1, #265	@ 0x109
100047fe:	4803      	ldr	r0, [pc, #12]	@ (1000480c <insert_bl_32+0x38>)
10004800:	f002 fc1a 	bl	10007038 <__assert_func>
10004804:	10008a58 	.word	0x10008a58
10004808:	1000966c 	.word	0x1000966c
1000480c:	100089e0 	.word	0x100089e0

10004810 <irq_is_enabled>:
10004810:	0942      	lsrs	r2, r0, #5
10004812:	4b06      	ldr	r3, [pc, #24]	@ (1000482c <irq_is_enabled+0x1c>)
10004814:	f853 2022 	ldr.w	r2, [r3, r2, lsl #2]
10004818:	f000 001f 	and.w	r0, r0, #31
1000481c:	2301      	movs	r3, #1
1000481e:	4083      	lsls	r3, r0
10004820:	421a      	tst	r2, r3
10004822:	bf14      	ite	ne
10004824:	2001      	movne	r0, #1
10004826:	2000      	moveq	r0, #0
10004828:	4770      	bx	lr
1000482a:	bf00      	nop
1000482c:	e000e100 	.word	0xe000e100

10004830 <irq_set_mask_n_enabled>:
10004830:	b13a      	cbz	r2, 10004842 <irq_set_mask_n_enabled+0x12>
10004832:	4b06      	ldr	r3, [pc, #24]	@ (1000484c <irq_set_mask_n_enabled+0x1c>)
10004834:	f100 0260 	add.w	r2, r0, #96	@ 0x60
10004838:	f843 1022 	str.w	r1, [r3, r2, lsl #2]
1000483c:	f843 1020 	str.w	r1, [r3, r0, lsl #2]
10004840:	4770      	bx	lr
10004842:	3020      	adds	r0, #32
10004844:	4b01      	ldr	r3, [pc, #4]	@ (1000484c <irq_set_mask_n_enabled+0x1c>)
10004846:	f843 1020 	str.w	r1, [r3, r0, lsl #2]
1000484a:	4770      	bx	lr
1000484c:	e000e100 	.word	0xe000e100

10004850 <irq_set_enabled>:
10004850:	b508      	push	{r3, lr}
10004852:	460a      	mov	r2, r1
10004854:	f000 031f 	and.w	r3, r0, #31
10004858:	2101      	movs	r1, #1
1000485a:	4099      	lsls	r1, r3
1000485c:	0940      	lsrs	r0, r0, #5
1000485e:	f7ff ffe7 	bl	10004830 <irq_set_mask_n_enabled>
10004862:	bd08      	pop	{r3, pc}

10004864 <irq_get_vtable_handler>:
10004864:	4b02      	ldr	r3, [pc, #8]	@ (10004870 <irq_get_vtable_handler+0xc>)
10004866:	689b      	ldr	r3, [r3, #8]
10004868:	3010      	adds	r0, #16
1000486a:	f853 0020 	ldr.w	r0, [r3, r0, lsl #2]
1000486e:	4770      	bx	lr
10004870:	e000ed00 	.word	0xe000ed00

10004874 <irq_set_exclusive_handler>:
10004874:	b570      	push	{r4, r5, r6, lr}
10004876:	4605      	mov	r5, r0
10004878:	460c      	mov	r4, r1
1000487a:	f3ef 8610 	mrs	r6, PRIMASK
1000487e:	b672      	cpsid	i
10004880:	4b0f      	ldr	r3, [pc, #60]	@ (100048c0 <irq_set_exclusive_handler+0x4c>)
10004882:	e8d3 1fcf 	ldaexb	r1, [r3]
10004886:	2201      	movs	r2, #1
10004888:	2900      	cmp	r1, #0
1000488a:	d1fa      	bne.n	10004882 <irq_set_exclusive_handler+0xe>
1000488c:	e8c3 2f41 	strexb	r1, r2, [r3]
10004890:	2900      	cmp	r1, #0
10004892:	d1f6      	bne.n	10004882 <irq_set_exclusive_handler+0xe>
10004894:	f3bf 8f5f 	dmb	sy
10004898:	f7ff ffe4 	bl	10004864 <irq_get_vtable_handler>
1000489c:	4b09      	ldr	r3, [pc, #36]	@ (100048c4 <irq_set_exclusive_handler+0x50>)
1000489e:	4298      	cmp	r0, r3
100048a0:	d001      	beq.n	100048a6 <irq_set_exclusive_handler+0x32>
100048a2:	42a0      	cmp	r0, r4
100048a4:	d105      	bne.n	100048b2 <irq_set_exclusive_handler+0x3e>
100048a6:	4632      	mov	r2, r6
100048a8:	4621      	mov	r1, r4
100048aa:	4628      	mov	r0, r5
100048ac:	f7ff ff30 	bl	10004710 <set_raw_irq_handler_and_unlock>
100048b0:	bd70      	pop	{r4, r5, r6, pc}
100048b2:	4b05      	ldr	r3, [pc, #20]	@ (100048c8 <irq_set_exclusive_handler+0x54>)
100048b4:	4a05      	ldr	r2, [pc, #20]	@ (100048cc <irq_set_exclusive_handler+0x58>)
100048b6:	21e1      	movs	r1, #225	@ 0xe1
100048b8:	4805      	ldr	r0, [pc, #20]	@ (100048d0 <irq_set_exclusive_handler+0x5c>)
100048ba:	f002 fbbd 	bl	10007038 <__assert_func>
100048be:	bf00      	nop
100048c0:	200008c9 	.word	0x200008c9
100048c4:	1000011d 	.word	0x1000011d
100048c8:	10008a68 	.word	0x10008a68
100048cc:	100096ac 	.word	0x100096ac
100048d0:	100089e0 	.word	0x100089e0

100048d4 <irq_remove_handler>:
100048d4:	e92d 47f0 	stmdb	sp!, {r4, r5, r6, r7, r8, r9, sl, lr}
100048d8:	4606      	mov	r6, r0
100048da:	460d      	mov	r5, r1
100048dc:	f3ef 8810 	mrs	r8, PRIMASK
100048e0:	b672      	cpsid	i
100048e2:	4b50      	ldr	r3, [pc, #320]	@ (10004a24 <irq_remove_handler+0x150>)
100048e4:	e8d3 1fcf 	ldaexb	r1, [r3]
100048e8:	2201      	movs	r2, #1
100048ea:	2900      	cmp	r1, #0
100048ec:	d1fa      	bne.n	100048e4 <irq_remove_handler+0x10>
100048ee:	e8c3 2f41 	strexb	r1, r2, [r3]
100048f2:	2900      	cmp	r1, #0
100048f4:	d1f6      	bne.n	100048e4 <irq_remove_handler+0x10>
100048f6:	f3bf 8f5f 	dmb	sy
100048fa:	4b4b      	ldr	r3, [pc, #300]	@ (10004a28 <irq_remove_handler+0x154>)
100048fc:	689b      	ldr	r3, [r3, #8]
100048fe:	f100 0a10 	add.w	sl, r0, #16
10004902:	f853 702a 	ldr.w	r7, [r3, sl, lsl #2]
10004906:	4b49      	ldr	r3, [pc, #292]	@ (10004a2c <irq_remove_handler+0x158>)
10004908:	429f      	cmp	r7, r3
1000490a:	d007      	beq.n	1000491c <irq_remove_handler+0x48>
1000490c:	42af      	cmp	r7, r5
1000490e:	f000 8087 	beq.w	10004a20 <irq_remove_handler+0x14c>
10004912:	463c      	mov	r4, r7
10004914:	4b46      	ldr	r3, [pc, #280]	@ (10004a30 <irq_remove_handler+0x15c>)
10004916:	1afb      	subs	r3, r7, r3
10004918:	2b2f      	cmp	r3, #47	@ 0x2f
1000491a:	d906      	bls.n	1000492a <irq_remove_handler+0x56>
1000491c:	4642      	mov	r2, r8
1000491e:	4639      	mov	r1, r7
10004920:	4630      	mov	r0, r6
10004922:	f7ff fef5 	bl	10004710 <set_raw_irq_handler_and_unlock>
10004926:	e8bd 87f0 	ldmia.w	sp!, {r4, r5, r6, r7, r8, r9, sl, pc}
1000492a:	f7ff ff71 	bl	10004810 <irq_is_enabled>
1000492e:	4681      	mov	r9, r0
10004930:	2100      	movs	r1, #0
10004932:	4630      	mov	r0, r6
10004934:	f7ff ff8c 	bl	10004850 <irq_set_enabled>
10004938:	f3bf 8f5f 	dmb	sy
1000493c:	f3ef 8005 	mrs	r0, IPSR
10004940:	b2c0      	uxtb	r0, r0
10004942:	b108      	cbz	r0, 10004948 <irq_remove_handler+0x74>
10004944:	4582      	cmp	sl, r0
10004946:	d110      	bne.n	1000496a <irq_remove_handler+0x96>
10004948:	f024 0401 	bic.w	r4, r4, #1
1000494c:	2100      	movs	r1, #0
1000494e:	68a2      	ldr	r2, [r4, #8]
10004950:	4295      	cmp	r5, r2
10004952:	d012      	beq.n	1000497a <irq_remove_handler+0xa6>
10004954:	f994 3006 	ldrsb.w	r3, [r4, #6]
10004958:	2b00      	cmp	r3, #0
1000495a:	db0d      	blt.n	10004978 <irq_remove_handler+0xa4>
1000495c:	eb03 0343 	add.w	r3, r3, r3, lsl #1
10004960:	4621      	mov	r1, r4
10004962:	4c33      	ldr	r4, [pc, #204]	@ (10004a30 <irq_remove_handler+0x15c>)
10004964:	eb04 0483 	add.w	r4, r4, r3, lsl #2
10004968:	e7f1      	b.n	1000494e <irq_remove_handler+0x7a>
1000496a:	4b32      	ldr	r3, [pc, #200]	@ (10004a34 <irq_remove_handler+0x160>)
1000496c:	4a32      	ldr	r2, [pc, #200]	@ (10004a38 <irq_remove_handler+0x164>)
1000496e:	f240 11f3 	movw	r1, #499	@ 0x1f3
10004972:	4832      	ldr	r0, [pc, #200]	@ (10004a3c <irq_remove_handler+0x168>)
10004974:	f002 fb60 	bl	10007038 <__assert_func>
10004978:	4621      	mov	r1, r4
1000497a:	4295      	cmp	r5, r2
1000497c:	d149      	bne.n	10004a12 <irq_remove_handler+0x13e>
1000497e:	f994 5006 	ldrsb.w	r5, [r4, #6]
10004982:	2d00      	cmp	r5, #0
10004984:	db2b      	blt.n	100049de <irq_remove_handler+0x10a>
10004986:	eb05 0245 	add.w	r2, r5, r5, lsl #1
1000498a:	4b29      	ldr	r3, [pc, #164]	@ (10004a30 <irq_remove_handler+0x15c>)
1000498c:	eb03 0382 	add.w	r3, r3, r2, lsl #2
10004990:	689a      	ldr	r2, [r3, #8]
10004992:	60a2      	str	r2, [r4, #8]
10004994:	79da      	ldrb	r2, [r3, #7]
10004996:	71e2      	strb	r2, [r4, #7]
10004998:	f993 3006 	ldrsb.w	r3, [r3, #6]
1000499c:	71a3      	strb	r3, [r4, #6]
1000499e:	2b00      	cmp	r3, #0
100049a0:	da10      	bge.n	100049c4 <irq_remove_handler+0xf0>
100049a2:	f64b 5001 	movw	r0, #48385	@ 0xbd01
100049a6:	80a0      	strh	r0, [r4, #4]
100049a8:	eb05 0245 	add.w	r2, r5, r5, lsl #1
100049ac:	4b20      	ldr	r3, [pc, #128]	@ (10004a30 <irq_remove_handler+0x15c>)
100049ae:	eb03 0382 	add.w	r3, r3, r2, lsl #2
100049b2:	4a23      	ldr	r2, [pc, #140]	@ (10004a40 <irq_remove_handler+0x16c>)
100049b4:	7811      	ldrb	r1, [r2, #0]
100049b6:	7199      	strb	r1, [r3, #6]
100049b8:	7015      	strb	r5, [r2, #0]
100049ba:	4649      	mov	r1, r9
100049bc:	4630      	mov	r0, r6
100049be:	f7ff ff47 	bl	10004850 <irq_set_enabled>
100049c2:	e7ab      	b.n	1000491c <irq_remove_handler+0x48>
100049c4:	eb05 0345 	add.w	r3, r5, r5, lsl #1
100049c8:	4819      	ldr	r0, [pc, #100]	@ (10004a30 <irq_remove_handler+0x15c>)
100049ca:	eb00 0083 	add.w	r0, r0, r3, lsl #2
100049ce:	3004      	adds	r0, #4
100049d0:	f7ff fec2 	bl	10004758 <resolve_j_16>
100049d4:	4601      	mov	r1, r0
100049d6:	1d20      	adds	r0, r4, #4
100049d8:	f7ff fede 	bl	10004798 <make_j_16>
100049dc:	e7e3      	b.n	100049a6 <irq_remove_handler+0xd2>
100049de:	b998      	cbnz	r0, 10004a08 <irq_remove_handler+0x134>
100049e0:	b181      	cbz	r1, 10004a04 <irq_remove_handler+0x130>
100049e2:	23ff      	movs	r3, #255	@ 0xff
100049e4:	718b      	strb	r3, [r1, #6]
100049e6:	f64b 5301 	movw	r3, #48385	@ 0xbd01
100049ea:	808b      	strh	r3, [r1, #4]
100049ec:	4a14      	ldr	r2, [pc, #80]	@ (10004a40 <irq_remove_handler+0x16c>)
100049ee:	7813      	ldrb	r3, [r2, #0]
100049f0:	71a3      	strb	r3, [r4, #6]
100049f2:	f64a 23aa 	movw	r3, #43690	@ 0xaaaa
100049f6:	490e      	ldr	r1, [pc, #56]	@ (10004a30 <irq_remove_handler+0x15c>)
100049f8:	1a64      	subs	r4, r4, r1
100049fa:	4164      	adcs	r4, r4
100049fc:	4363      	muls	r3, r4
100049fe:	0d1b      	lsrs	r3, r3, #20
10004a00:	7013      	strb	r3, [r2, #0]
10004a02:	e7da      	b.n	100049ba <irq_remove_handler+0xe6>
10004a04:	4f09      	ldr	r7, [pc, #36]	@ (10004a2c <irq_remove_handler+0x158>)
10004a06:	e7f1      	b.n	100049ec <irq_remove_handler+0x118>
10004a08:	490e      	ldr	r1, [pc, #56]	@ (10004a44 <irq_remove_handler+0x170>)
10004a0a:	1d20      	adds	r0, r4, #4
10004a0c:	f7ff fee2 	bl	100047d4 <insert_bl_32>
10004a10:	e7d3      	b.n	100049ba <irq_remove_handler+0xe6>
10004a12:	4b0d      	ldr	r3, [pc, #52]	@ (10004a48 <irq_remove_handler+0x174>)
10004a14:	4a08      	ldr	r2, [pc, #32]	@ (10004a38 <irq_remove_handler+0x164>)
10004a16:	f240 2135 	movw	r1, #565	@ 0x235
10004a1a:	4808      	ldr	r0, [pc, #32]	@ (10004a3c <irq_remove_handler+0x168>)
10004a1c:	f002 fb0c 	bl	10007038 <__assert_func>
10004a20:	4f02      	ldr	r7, [pc, #8]	@ (10004a2c <irq_remove_handler+0x158>)
10004a22:	e77b      	b.n	1000491c <irq_remove_handler+0x48>
10004a24:	200008c9 	.word	0x200008c9
10004a28:	e000ed00 	.word	0xe000ed00
10004a2c:	1000011d 	.word	0x1000011d
10004a30:	2000067c 	.word	0x2000067c
10004a34:	10008aa0 	.word	0x10008aa0
10004a38:	1000967c 	.word	0x1000967c
10004a3c:	100089e0 	.word	0x100089e0
10004a40:	20020d48 	.word	0x20020d48
10004a44:	200006b6 	.word	0x200006b6
10004a48:	10008ad4 	.word	0x10008ad4

10004a4c <irq_set_priority>:
10004a4c:	b538      	push	{r3, r4, r5, lr}
10004a4e:	4604      	mov	r4, r0
10004a50:	460d      	mov	r5, r1
10004a52:	f7ff fe6f 	bl	10004734 <nvic_ipr0>
10004a56:	ea4f 0c94 	mov.w	ip, r4, lsr #2
10004a5a:	f850 302c 	ldr.w	r3, [r0, ip, lsl #2]
10004a5e:	f004 0403 	and.w	r4, r4, #3
10004a62:	00e4      	lsls	r4, r4, #3
10004a64:	22ff      	movs	r2, #255	@ 0xff
10004a66:	40a2      	lsls	r2, r4
10004a68:	ea23 0302 	bic.w	r3, r3, r2
10004a6c:	40a5      	lsls	r5, r4
10004a6e:	432b      	orrs	r3, r5
10004a70:	f840 302c 	str.w	r3, [r0, ip, lsl #2]
10004a74:	bd38      	pop	{r3, r4, r5, pc}
	...

10004a78 <irq_add_tail_to_free_list>:
10004a78:	b538      	push	{r3, r4, r5, lr}
10004a7a:	f040 0401 	orr.w	r4, r0, #1
10004a7e:	4b32      	ldr	r3, [pc, #200]	@ (10004b48 <irq_add_tail_to_free_list+0xd0>)
10004a80:	1ae3      	subs	r3, r4, r3
10004a82:	2b2f      	cmp	r3, #47	@ 0x2f
10004a84:	d831      	bhi.n	10004aea <irq_add_tail_to_free_list+0x72>
10004a86:	f3ef 8105 	mrs	r1, IPSR
10004a8a:	b2c9      	uxtb	r1, r1
10004a8c:	2900      	cmp	r1, #0
10004a8e:	d033      	beq.n	10004af8 <irq_add_tail_to_free_list+0x80>
10004a90:	f3ef 8e10 	mrs	lr, PRIMASK
10004a94:	b672      	cpsid	i
10004a96:	4b2d      	ldr	r3, [pc, #180]	@ (10004b4c <irq_add_tail_to_free_list+0xd4>)
10004a98:	e8d3 5fcf 	ldaexb	r5, [r3]
10004a9c:	2201      	movs	r2, #1
10004a9e:	2d00      	cmp	r5, #0
10004aa0:	d1fa      	bne.n	10004a98 <irq_add_tail_to_free_list+0x20>
10004aa2:	e8c3 2f45 	strexb	r5, r2, [r3]
10004aa6:	2d00      	cmp	r5, #0
10004aa8:	d1f6      	bne.n	10004a98 <irq_add_tail_to_free_list+0x20>
10004aaa:	f3bf 8f5f 	dmb	sy
10004aae:	f64a 23aa 	movw	r3, #43690	@ 0xaaaa
10004ab2:	4602      	mov	r2, r0
10004ab4:	4d24      	ldr	r5, [pc, #144]	@ (10004b48 <irq_add_tail_to_free_list+0xd0>)
10004ab6:	1b52      	subs	r2, r2, r5
10004ab8:	4152      	adcs	r2, r2
10004aba:	4353      	muls	r3, r2
10004abc:	0d1b      	lsrs	r3, r3, #20
10004abe:	fa4f fc83 	sxtb.w	ip, r3
10004ac2:	4b23      	ldr	r3, [pc, #140]	@ (10004b50 <irq_add_tail_to_free_list+0xd8>)
10004ac4:	689b      	ldr	r3, [r3, #8]
10004ac6:	f853 3021 	ldr.w	r3, [r3, r1, lsl #2]
10004aca:	42a3      	cmp	r3, r4
10004acc:	d01b      	beq.n	10004b06 <irq_add_tail_to_free_list+0x8e>
10004ace:	2300      	movs	r3, #0
10004ad0:	2b03      	cmp	r3, #3
10004ad2:	d832      	bhi.n	10004b3a <irq_add_tail_to_free_list+0xc2>
10004ad4:	eb03 0143 	add.w	r1, r3, r3, lsl #1
10004ad8:	4a1b      	ldr	r2, [pc, #108]	@ (10004b48 <irq_add_tail_to_free_list+0xd0>)
10004ada:	eb02 0281 	add.w	r2, r2, r1, lsl #2
10004ade:	f992 2006 	ldrsb.w	r2, [r2, #6]
10004ae2:	4562      	cmp	r2, ip
10004ae4:	d020      	beq.n	10004b28 <irq_add_tail_to_free_list+0xb0>
10004ae6:	3301      	adds	r3, #1
10004ae8:	e7f2      	b.n	10004ad0 <irq_add_tail_to_free_list+0x58>
10004aea:	4b1a      	ldr	r3, [pc, #104]	@ (10004b54 <irq_add_tail_to_free_list+0xdc>)
10004aec:	4a1a      	ldr	r2, [pc, #104]	@ (10004b58 <irq_add_tail_to_free_list+0xe0>)
10004aee:	f240 216e 	movw	r1, #622	@ 0x26e
10004af2:	481a      	ldr	r0, [pc, #104]	@ (10004b5c <irq_add_tail_to_free_list+0xe4>)
10004af4:	f002 faa0 	bl	10007038 <__assert_func>
10004af8:	4b19      	ldr	r3, [pc, #100]	@ (10004b60 <irq_add_tail_to_free_list+0xe8>)
10004afa:	4a17      	ldr	r2, [pc, #92]	@ (10004b58 <irq_add_tail_to_free_list+0xe0>)
10004afc:	f240 2171 	movw	r1, #625	@ 0x271
10004b00:	4816      	ldr	r0, [pc, #88]	@ (10004b5c <irq_add_tail_to_free_list+0xe4>)
10004b02:	f002 fa99 	bl	10007038 <__assert_func>
10004b06:	4b12      	ldr	r3, [pc, #72]	@ (10004b50 <irq_add_tail_to_free_list+0xd8>)
10004b08:	689b      	ldr	r3, [r3, #8]
10004b0a:	4a16      	ldr	r2, [pc, #88]	@ (10004b64 <irq_add_tail_to_free_list+0xec>)
10004b0c:	f843 2021 	str.w	r2, [r3, r1, lsl #2]
10004b10:	4b15      	ldr	r3, [pc, #84]	@ (10004b68 <irq_add_tail_to_free_list+0xf0>)
10004b12:	781a      	ldrb	r2, [r3, #0]
10004b14:	7182      	strb	r2, [r0, #6]
10004b16:	f883 c000 	strb.w	ip, [r3]
10004b1a:	2300      	movs	r3, #0
10004b1c:	4a0b      	ldr	r2, [pc, #44]	@ (10004b4c <irq_add_tail_to_free_list+0xd4>)
10004b1e:	e8c2 3f8f 	stlb	r3, [r2]
10004b22:	f38e 8810 	msr	PRIMASK, lr
10004b26:	bd38      	pop	{r3, r4, r5, pc}
10004b28:	4a07      	ldr	r2, [pc, #28]	@ (10004b48 <irq_add_tail_to_free_list+0xd0>)
10004b2a:	eb02 0181 	add.w	r1, r2, r1, lsl #2
10004b2e:	24ff      	movs	r4, #255	@ 0xff
10004b30:	718c      	strb	r4, [r1, #6]
10004b32:	f64b 5301 	movw	r3, #48385	@ 0xbd01
10004b36:	808b      	strh	r3, [r1, #4]
10004b38:	e7ea      	b.n	10004b10 <irq_add_tail_to_free_list+0x98>
10004b3a:	4b0c      	ldr	r3, [pc, #48]	@ (10004b6c <irq_add_tail_to_free_list+0xf4>)
10004b3c:	4a06      	ldr	r2, [pc, #24]	@ (10004b58 <irq_add_tail_to_free_list+0xe0>)
10004b3e:	f240 2182 	movw	r1, #642	@ 0x282
10004b42:	4806      	ldr	r0, [pc, #24]	@ (10004b5c <irq_add_tail_to_free_list+0xe4>)
10004b44:	f002 fa78 	bl	10007038 <__assert_func>
10004b48:	2000067c 	.word	0x2000067c
10004b4c:	200008c9 	.word	0x200008c9
10004b50:	e000ed00 	.word	0xe000ed00
10004b54:	10008adc 	.word	0x10008adc
10004b58:	10009650 	.word	0x10009650
10004b5c:	100089e0 	.word	0x100089e0
10004b60:	10008b04 	.word	0x10008b04
10004b64:	1000011d 	.word	0x1000011d
10004b68:	20020d48 	.word	0x20020d48
10004b6c:	10008b10 	.word	0x10008b10

10004b70 <lock_init>:
10004b70:	4b01      	ldr	r3, [pc, #4]	@ (10004b78 <lock_init+0x8>)
10004b72:	440b      	add	r3, r1
10004b74:	6003      	str	r3, [r0, #0]
10004b76:	4770      	bx	lr
10004b78:	200008c0 	.word	0x200008c0

10004b7c <mutex_init>:
10004b7c:	b510      	push	{r4, lr}
10004b7e:	4604      	mov	r4, r0
10004b80:	f7ff fd6e 	bl	10004660 <next_striped_spin_lock_num>
10004b84:	4601      	mov	r1, r0
10004b86:	4620      	mov	r0, r4
10004b88:	f7ff fff2 	bl	10004b70 <lock_init>
10004b8c:	f04f 33ff 	mov.w	r3, #4294967295
10004b90:	6063      	str	r3, [r4, #4]
10004b92:	f3bf 8f5f 	dmb	sy
10004b96:	bd10      	pop	{r4, pc}

10004b98 <recursive_mutex_init>:
10004b98:	b510      	push	{r4, lr}
10004b9a:	4604      	mov	r4, r0
10004b9c:	f7ff fd60 	bl	10004660 <next_striped_spin_lock_num>
10004ba0:	4601      	mov	r1, r0
10004ba2:	4620      	mov	r0, r4
10004ba4:	f7ff ffe4 	bl	10004b70 <lock_init>
10004ba8:	f04f 33ff 	mov.w	r3, #4294967295
10004bac:	6063      	str	r3, [r4, #4]
10004bae:	2300      	movs	r3, #0
10004bb0:	7223      	strb	r3, [r4, #8]
10004bb2:	f3bf 8f5f 	dmb	sy
10004bb6:	bd10      	pop	{r4, pc}

10004bb8 <runtime_init_mutex>:
10004bb8:	b510      	push	{r4, lr}
10004bba:	4c0d      	ldr	r4, [pc, #52]	@ (10004bf0 <runtime_init_mutex+0x38>)
10004bbc:	e009      	b.n	10004bd2 <runtime_init_mutex+0x1a>
10004bbe:	4b0d      	ldr	r3, [pc, #52]	@ (10004bf4 <runtime_init_mutex+0x3c>)
10004bc0:	4a0d      	ldr	r2, [pc, #52]	@ (10004bf8 <runtime_init_mutex+0x40>)
10004bc2:	211a      	movs	r1, #26
10004bc4:	480d      	ldr	r0, [pc, #52]	@ (10004bfc <runtime_init_mutex+0x44>)
10004bc6:	f002 fa37 	bl	10007038 <__assert_func>
10004bca:	4620      	mov	r0, r4
10004bcc:	f7ff ffd6 	bl	10004b7c <mutex_init>
10004bd0:	3408      	adds	r4, #8
10004bd2:	4b0b      	ldr	r3, [pc, #44]	@ (10004c00 <runtime_init_mutex+0x48>)
10004bd4:	429c      	cmp	r4, r3
10004bd6:	d209      	bcs.n	10004bec <runtime_init_mutex+0x34>
10004bd8:	6823      	ldr	r3, [r4, #0]
10004bda:	2b00      	cmp	r3, #0
10004bdc:	d0f5      	beq.n	10004bca <runtime_init_mutex+0x12>
10004bde:	2b01      	cmp	r3, #1
10004be0:	d1ed      	bne.n	10004bbe <runtime_init_mutex+0x6>
10004be2:	4620      	mov	r0, r4
10004be4:	f7ff ffd8 	bl	10004b98 <recursive_mutex_init>
10004be8:	340c      	adds	r4, #12
10004bea:	e7f2      	b.n	10004bd2 <runtime_init_mutex+0x1a>
10004bec:	bd10      	pop	{r4, pc}
10004bee:	bf00      	nop
10004bf0:	200006f4 	.word	0x200006f4
10004bf4:	10008b18 	.word	0x10008b18
10004bf8:	100096ec 	.word	0x100096ec
10004bfc:	10008b38 	.word	0x10008b38
10004c00:	20000704 	.word	0x20000704

10004c04 <ta_from_current_irq>:
10004c04:	4602      	mov	r2, r0
10004c06:	f3ef 8305 	mrs	r3, IPSR
10004c0a:	b2db      	uxtb	r3, r3
10004c0c:	3b10      	subs	r3, #16
10004c0e:	0899      	lsrs	r1, r3, #2
10004c10:	d004      	beq.n	10004c1c <ta_from_current_irq+0x18>
10004c12:	4803      	ldr	r0, [pc, #12]	@ (10004c20 <ta_from_current_irq+0x1c>)
10004c14:	f003 0303 	and.w	r3, r3, #3
10004c18:	6013      	str	r3, [r2, #0]
10004c1a:	4770      	bx	lr
10004c1c:	4801      	ldr	r0, [pc, #4]	@ (10004c24 <ta_from_current_irq+0x20>)
10004c1e:	e7f9      	b.n	10004c14 <ta_from_current_irq+0x10>
10004c20:	400b8000 	.word	0x400b8000
10004c24:	400b0000 	.word	0x400b0000

10004c28 <make_alarm_id>:
10004c28:	ea41 4000 	orr.w	r0, r1, r0, lsl #16
10004c2c:	4770      	bx	lr
	...

10004c30 <alarm_pool_irq_handler>:
10004c30:	e92d 4ff0 	stmdb	sp!, {r4, r5, r6, r7, r8, r9, sl, fp, lr}
10004c34:	b085      	sub	sp, #20
10004c36:	a803      	add	r0, sp, #12
10004c38:	f7ff ffe4 	bl	10004c04 <ta_from_current_irq>
10004c3c:	4b8f      	ldr	r3, [pc, #572]	@ (10004e7c <alarm_pool_irq_handler+0x24c>)
10004c3e:	4298      	cmp	r0, r3
10004c40:	bf14      	ite	ne
10004c42:	2300      	movne	r3, #0
10004c44:	2301      	moveq	r3, #1
10004c46:	9903      	ldr	r1, [sp, #12]
10004c48:	eb01 0383 	add.w	r3, r1, r3, lsl #2
10004c4c:	4a8c      	ldr	r2, [pc, #560]	@ (10004e80 <alarm_pool_irq_handler+0x250>)
10004c4e:	f852 4023 	ldr.w	r4, [r2, r3, lsl #2]
10004c52:	7823      	ldrb	r3, [r4, #0]
10004c54:	4299      	cmp	r1, r3
10004c56:	d106      	bne.n	10004c66 <alarm_pool_irq_handler+0x36>
10004c58:	4605      	mov	r5, r0
10004c5a:	2201      	movs	r2, #1
10004c5c:	408a      	lsls	r2, r1
10004c5e:	f500 5341 	add.w	r3, r0, #12352	@ 0x3040
10004c62:	605a      	str	r2, [r3, #4]
10004c64:	e120      	b.n	10004ea8 <alarm_pool_irq_handler+0x278>
10004c66:	4b87      	ldr	r3, [pc, #540]	@ (10004e84 <alarm_pool_irq_handler+0x254>)
10004c68:	4a87      	ldr	r2, [pc, #540]	@ (10004e88 <alarm_pool_irq_handler+0x258>)
10004c6a:	2192      	movs	r1, #146	@ 0x92
10004c6c:	4887      	ldr	r0, [pc, #540]	@ (10004e8c <alarm_pool_irq_handler+0x25c>)
10004c6e:	f002 f9e3 	bl	10007038 <__assert_func>
10004c72:	f8d4 9014 	ldr.w	r9, [r4, #20]
10004c76:	eb06 0746 	add.w	r7, r6, r6, lsl #1
10004c7a:	ea4f 0ac7 	mov.w	sl, r7, lsl #3
10004c7e:	eb09 07c7 	add.w	r7, r9, r7, lsl #3
10004c82:	f8d7 b008 	ldr.w	fp, [r7, #8]
10004c86:	f8d7 800c 	ldr.w	r8, [r7, #12]
10004c8a:	4628      	mov	r0, r5
10004c8c:	f000 fb48 	bl	10005320 <timer_time_us_64>
10004c90:	ebb0 000b 	subs.w	r0, r0, fp
10004c94:	eb61 0308 	sbc.w	r3, r1, r8
10004c98:	2b00      	cmp	r3, #0
10004c9a:	f2c0 810e 	blt.w	10004eba <alarm_pool_irq_handler+0x28a>
10004c9e:	f1b8 0f00 	cmp.w	r8, #0
10004ca2:	db60      	blt.n	10004d66 <alarm_pool_irq_handler+0x136>
10004ca4:	693b      	ldr	r3, [r7, #16]
10004ca6:	461a      	mov	r2, r3
10004ca8:	9300      	str	r3, [sp, #0]
10004caa:	4b79      	ldr	r3, [pc, #484]	@ (10004e90 <alarm_pool_irq_handler+0x260>)
10004cac:	429a      	cmp	r2, r3
10004cae:	d030      	beq.n	10004d12 <alarm_pool_irq_handler+0xe2>
10004cb0:	8879      	ldrh	r1, [r7, #2]
10004cb2:	b289      	uxth	r1, r1
10004cb4:	f9b4 0008 	ldrsh.w	r0, [r4, #8]
10004cb8:	f7ff ffb6 	bl	10004c28 <make_alarm_id>
10004cbc:	6979      	ldr	r1, [r7, #20]
10004cbe:	9b00      	ldr	r3, [sp, #0]
10004cc0:	4798      	blx	r3
10004cc2:	9000      	str	r0, [sp, #0]
10004cc4:	9101      	str	r1, [sp, #4]
10004cc6:	9900      	ldr	r1, [sp, #0]
10004cc8:	9a01      	ldr	r2, [sp, #4]
10004cca:	ea51 0302 	orrs.w	r3, r1, r2
10004cce:	d04a      	beq.n	10004d66 <alarm_pool_irq_handler+0x136>
10004cd0:	4613      	mov	r3, r2
10004cd2:	2a00      	cmp	r2, #0
10004cd4:	da29      	bge.n	10004d2a <alarm_pool_irq_handler+0xfa>
10004cd6:	ebbb 0201 	subs.w	r2, fp, r1
10004cda:	eb68 0803 	sbc.w	r8, r8, r3
10004cde:	60ba      	str	r2, [r7, #8]
10004ce0:	f8c7 800c 	str.w	r8, [r7, #12]
10004ce4:	f939 300a 	ldrsh.w	r3, [r9, sl]
10004ce8:	2b00      	cmp	r3, #0
10004cea:	f2c0 80e6 	blt.w	10004eba <alarm_pool_irq_handler+0x28a>
10004cee:	f8d4 e014 	ldr.w	lr, [r4, #20]
10004cf2:	eb03 0143 	add.w	r1, r3, r3, lsl #1
10004cf6:	eb0e 01c1 	add.w	r1, lr, r1, lsl #3
10004cfa:	6888      	ldr	r0, [r1, #8]
10004cfc:	68c9      	ldr	r1, [r1, #12]
10004cfe:	1a10      	subs	r0, r2, r0
10004d00:	eb68 0101 	sbc.w	r1, r8, r1
10004d04:	2900      	cmp	r1, #0
10004d06:	f2c0 80d8 	blt.w	10004eba <alarm_pool_irq_handler+0x28a>
10004d0a:	46a4      	mov	ip, r4
10004d0c:	f82c 3f08 	strh.w	r3, [ip, #8]!
10004d10:	e015      	b.n	10004d3e <alarm_pool_irq_handler+0x10e>
10004d12:	697a      	ldr	r2, [r7, #20]
10004d14:	6913      	ldr	r3, [r2, #16]
10004d16:	9200      	str	r2, [sp, #0]
10004d18:	4610      	mov	r0, r2
10004d1a:	4798      	blx	r3
10004d1c:	b318      	cbz	r0, 10004d66 <alarm_pool_irq_handler+0x136>
10004d1e:	9a00      	ldr	r2, [sp, #0]
10004d20:	6813      	ldr	r3, [r2, #0]
10004d22:	9300      	str	r3, [sp, #0]
10004d24:	6853      	ldr	r3, [r2, #4]
10004d26:	9301      	str	r3, [sp, #4]
10004d28:	e7cd      	b.n	10004cc6 <alarm_pool_irq_handler+0x96>
10004d2a:	4628      	mov	r0, r5
10004d2c:	f000 faf8 	bl	10005320 <timer_time_us_64>
10004d30:	9b00      	ldr	r3, [sp, #0]
10004d32:	181a      	adds	r2, r3, r0
10004d34:	9b01      	ldr	r3, [sp, #4]
10004d36:	eb43 0801 	adc.w	r8, r3, r1
10004d3a:	e7d0      	b.n	10004cde <alarm_pool_irq_handler+0xae>
10004d3c:	469c      	mov	ip, r3
10004d3e:	f9bc 7000 	ldrsh.w	r7, [ip]
10004d42:	2f00      	cmp	r7, #0
10004d44:	db0a      	blt.n	10004d5c <alarm_pool_irq_handler+0x12c>
10004d46:	eb07 0347 	add.w	r3, r7, r7, lsl #1
10004d4a:	eb0e 03c3 	add.w	r3, lr, r3, lsl #3
10004d4e:	6898      	ldr	r0, [r3, #8]
10004d50:	68d9      	ldr	r1, [r3, #12]
10004d52:	1a10      	subs	r0, r2, r0
10004d54:	eb68 0101 	sbc.w	r1, r8, r1
10004d58:	2900      	cmp	r1, #0
10004d5a:	daef      	bge.n	10004d3c <alarm_pool_irq_handler+0x10c>
10004d5c:	f829 700a 	strh.w	r7, [r9, sl]
10004d60:	f8ac 6000 	strh.w	r6, [ip]
10004d64:	e0a9      	b.n	10004eba <alarm_pool_irq_handler+0x28a>
10004d66:	f939 300a 	ldrsh.w	r3, [r9, sl]
10004d6a:	8123      	strh	r3, [r4, #8]
10004d6c:	6923      	ldr	r3, [r4, #16]
10004d6e:	f3ef 8210 	mrs	r2, PRIMASK
10004d72:	b672      	cpsid	i
10004d74:	e8d3 0fcf 	ldaexb	r0, [r3]
10004d78:	2101      	movs	r1, #1
10004d7a:	2800      	cmp	r0, #0
10004d7c:	d1fa      	bne.n	10004d74 <alarm_pool_irq_handler+0x144>
10004d7e:	e8c3 1f40 	strexb	r0, r1, [r3]
10004d82:	2800      	cmp	r0, #0
10004d84:	d1f6      	bne.n	10004d74 <alarm_pool_irq_handler+0x144>
10004d86:	f3bf 8f5f 	dmb	sy
10004d8a:	f9b4 3002 	ldrsh.w	r3, [r4, #2]
10004d8e:	f829 300a 	strh.w	r3, [r9, sl]
10004d92:	8066      	strh	r6, [r4, #2]
10004d94:	6921      	ldr	r1, [r4, #16]
10004d96:	2300      	movs	r3, #0
10004d98:	e8c1 3f8f 	stlb	r3, [r1]
10004d9c:	f382 8810 	msr	PRIMASK, r2
10004da0:	e08b      	b.n	10004eba <alarm_pool_irq_handler+0x28a>
10004da2:	6923      	ldr	r3, [r4, #16]
10004da4:	f3ef 8210 	mrs	r2, PRIMASK
10004da8:	b672      	cpsid	i
10004daa:	e8d3 0fcf 	ldaexb	r0, [r3]
10004dae:	2101      	movs	r1, #1
10004db0:	2800      	cmp	r0, #0
10004db2:	d1fa      	bne.n	10004daa <alarm_pool_irq_handler+0x17a>
10004db4:	e8c3 1f40 	strexb	r0, r1, [r3]
10004db8:	2800      	cmp	r0, #0
10004dba:	d1f6      	bne.n	10004daa <alarm_pool_irq_handler+0x17a>
10004dbc:	f3bf 8f5f 	dmb	sy
10004dc0:	f8b4 8004 	ldrh.w	r8, [r4, #4]
10004dc4:	fa0f f888 	sxth.w	r8, r8
10004dc8:	f64f 73ff 	movw	r3, #65535	@ 0xffff
10004dcc:	80a3      	strh	r3, [r4, #4]
10004dce:	6921      	ldr	r1, [r4, #16]
10004dd0:	2300      	movs	r3, #0
10004dd2:	e8c1 3f8f 	stlb	r3, [r1]
10004dd6:	f382 8810 	msr	PRIMASK, r2
10004dda:	e015      	b.n	10004e08 <alarm_pool_irq_handler+0x1d8>
10004ddc:	461e      	mov	r6, r3
10004dde:	f9b6 2000 	ldrsh.w	r2, [r6]
10004de2:	2a00      	cmp	r2, #0
10004de4:	db0a      	blt.n	10004dfc <alarm_pool_irq_handler+0x1cc>
10004de6:	eb02 0342 	add.w	r3, r2, r2, lsl #1
10004dea:	eb0c 03c3 	add.w	r3, ip, r3, lsl #3
10004dee:	6898      	ldr	r0, [r3, #8]
10004df0:	68d9      	ldr	r1, [r3, #12]
10004df2:	1a38      	subs	r0, r7, r0
10004df4:	eb6e 0101 	sbc.w	r1, lr, r1
10004df8:	2900      	cmp	r1, #0
10004dfa:	daef      	bge.n	10004ddc <alarm_pool_irq_handler+0x1ac>
10004dfc:	f8a6 8000 	strh.w	r8, [r6]
10004e00:	f93c 8009 	ldrsh.w	r8, [ip, r9]
10004e04:	f82c 2009 	strh.w	r2, [ip, r9]
10004e08:	f1b8 0f00 	cmp.w	r8, #0
10004e0c:	db5a      	blt.n	10004ec4 <alarm_pool_irq_handler+0x294>
10004e0e:	f8d4 c014 	ldr.w	ip, [r4, #20]
10004e12:	eb08 0348 	add.w	r3, r8, r8, lsl #1
10004e16:	ea4f 09c3 	mov.w	r9, r3, lsl #3
10004e1a:	eb0c 03c3 	add.w	r3, ip, r3, lsl #3
10004e1e:	689f      	ldr	r7, [r3, #8]
10004e20:	f8d3 e00c 	ldr.w	lr, [r3, #12]
10004e24:	f104 0608 	add.w	r6, r4, #8
10004e28:	e7d9      	b.n	10004dde <alarm_pool_irq_handler+0x1ae>
10004e2a:	2300      	movs	r3, #0
10004e2c:	71a3      	strb	r3, [r4, #6]
10004e2e:	f104 0c08 	add.w	ip, r4, #8
10004e32:	f9b4 3008 	ldrsh.w	r3, [r4, #8]
10004e36:	e010      	b.n	10004e5a <alarm_pool_irq_handler+0x22a>
10004e38:	f04f 38ff 	mov.w	r8, #4294967295
10004e3c:	f04f 39ff 	mov.w	r9, #4294967295
10004e40:	e9c0 8902 	strd	r8, r9, [r0, #8]
10004e44:	f9b4 0008 	ldrsh.w	r0, [r4, #8]
10004e48:	4298      	cmp	r0, r3
10004e4a:	d005      	beq.n	10004e58 <alarm_pool_irq_handler+0x228>
10004e4c:	f8ac 2000 	strh.w	r2, [ip]
10004e50:	f9b4 0008 	ldrsh.w	r0, [r4, #8]
10004e54:	53c8      	strh	r0, [r1, r7]
10004e56:	8123      	strh	r3, [r4, #8]
10004e58:	4613      	mov	r3, r2
10004e5a:	f1b3 3fff 	cmp.w	r3, #4294967295
10004e5e:	d034      	beq.n	10004eca <alarm_pool_irq_handler+0x29a>
10004e60:	6961      	ldr	r1, [r4, #20]
10004e62:	eb03 0243 	add.w	r2, r3, r3, lsl #1
10004e66:	00d7      	lsls	r7, r2, #3
10004e68:	eb01 00c2 	add.w	r0, r1, r2, lsl #3
10004e6c:	f931 2032 	ldrsh.w	r2, [r1, r2, lsl #3]
10004e70:	8846      	ldrh	r6, [r0, #2]
10004e72:	f416 4f00 	tst.w	r6, #32768	@ 0x8000
10004e76:	d1df      	bne.n	10004e38 <alarm_pool_irq_handler+0x208>
10004e78:	4684      	mov	ip, r0
10004e7a:	e7ed      	b.n	10004e58 <alarm_pool_irq_handler+0x228>
10004e7c:	400b8000 	.word	0x400b8000
10004e80:	20000940 	.word	0x20000940
10004e84:	10008bcc 	.word	0x10008bcc
10004e88:	10009718 	.word	0x10009718
10004e8c:	10008bf8 	.word	0x10008bf8
10004e90:	10004c31 	.word	0x10004c31
10004e94:	4628      	mov	r0, r5
10004e96:	f000 fa43 	bl	10005320 <timer_time_us_64>
10004e9a:	1a36      	subs	r6, r6, r0
10004e9c:	eb67 0701 	sbc.w	r7, r7, r1
10004ea0:	2e01      	cmp	r6, #1
10004ea2:	f177 0700 	sbcs.w	r7, r7, #0
10004ea6:	da2e      	bge.n	10004f06 <alarm_pool_irq_handler+0x2d6>
10004ea8:	9a03      	ldr	r2, [sp, #12]
10004eaa:	2301      	movs	r3, #1
10004eac:	4093      	lsls	r3, r2
10004eae:	63eb      	str	r3, [r5, #60]	@ 0x3c
10004eb0:	f9b4 6008 	ldrsh.w	r6, [r4, #8]
10004eb4:	2e00      	cmp	r6, #0
10004eb6:	f6bf aedc 	bge.w	10004c72 <alarm_pool_irq_handler+0x42>
10004eba:	88a3      	ldrh	r3, [r4, #4]
10004ebc:	f413 4f00 	tst.w	r3, #32768	@ 0x8000
10004ec0:	f43f af6f 	beq.w	10004da2 <alarm_pool_irq_handler+0x172>
10004ec4:	79a3      	ldrb	r3, [r4, #6]
10004ec6:	2b00      	cmp	r3, #0
10004ec8:	d1af      	bne.n	10004e2a <alarm_pool_irq_handler+0x1fa>
10004eca:	f9b4 3008 	ldrsh.w	r3, [r4, #8]
10004ece:	2b00      	cmp	r3, #0
10004ed0:	db19      	blt.n	10004f06 <alarm_pool_irq_handler+0x2d6>
10004ed2:	6962      	ldr	r2, [r4, #20]
10004ed4:	eb03 0343 	add.w	r3, r3, r3, lsl #1
10004ed8:	eb02 03c3 	add.w	r3, r2, r3, lsl #3
10004edc:	689e      	ldr	r6, [r3, #8]
10004ede:	68df      	ldr	r7, [r3, #12]
10004ee0:	f1b7 3fff 	cmp.w	r7, #4294967295
10004ee4:	bf08      	it	eq
10004ee6:	f1b6 3fff 	cmpeq.w	r6, #4294967295
10004eea:	d0d3      	beq.n	10004e94 <alarm_pool_irq_handler+0x264>
10004eec:	9a03      	ldr	r2, [sp, #12]
10004eee:	6aa9      	ldr	r1, [r5, #40]	@ 0x28
10004ef0:	1a70      	subs	r0, r6, r1
10004ef2:	1d13      	adds	r3, r2, #4
10004ef4:	f855 3023 	ldr.w	r3, [r5, r3, lsl #2]
10004ef8:	1a5b      	subs	r3, r3, r1
10004efa:	4298      	cmp	r0, r3
10004efc:	d2ca      	bcs.n	10004e94 <alarm_pool_irq_handler+0x264>
10004efe:	3204      	adds	r2, #4
10004f00:	f845 6022 	str.w	r6, [r5, r2, lsl #2]
10004f04:	e7c6      	b.n	10004e94 <alarm_pool_irq_handler+0x264>
10004f06:	bf40      	sev
10004f08:	b005      	add	sp, #20
10004f0a:	e8bd 8ff0 	ldmia.w	sp!, {r4, r5, r6, r7, r8, r9, sl, fp, pc}
10004f0e:	bf00      	nop

10004f10 <ta_enable_irq_handler>:
10004f10:	b5f8      	push	{r3, r4, r5, r6, r7, lr}
10004f12:	4604      	mov	r4, r0
10004f14:	460d      	mov	r5, r1
10004f16:	4611      	mov	r1, r2
10004f18:	4b0a      	ldr	r3, [pc, #40]	@ (10004f44 <ta_enable_irq_handler+0x34>)
10004f1a:	4298      	cmp	r0, r3
10004f1c:	d010      	beq.n	10004f40 <ta_enable_irq_handler+0x30>
10004f1e:	2600      	movs	r6, #0
10004f20:	442e      	add	r6, r5
10004f22:	2701      	movs	r7, #1
10004f24:	fa07 f505 	lsl.w	r5, r7, r5
10004f28:	6225      	str	r5, [r4, #32]
10004f2a:	4630      	mov	r0, r6
10004f2c:	f7ff fca2 	bl	10004874 <irq_set_exclusive_handler>
10004f30:	4639      	mov	r1, r7
10004f32:	4630      	mov	r0, r6
10004f34:	f7ff fc8c 	bl	10004850 <irq_set_enabled>
10004f38:	f504 5401 	add.w	r4, r4, #8256	@ 0x2040
10004f3c:	6025      	str	r5, [r4, #0]
10004f3e:	bdf8      	pop	{r3, r4, r5, r6, r7, pc}
10004f40:	2604      	movs	r6, #4
10004f42:	e7ed      	b.n	10004f20 <ta_enable_irq_handler+0x10>
10004f44:	400b8000 	.word	0x400b8000

10004f48 <alarm_pool_post_alloc_init>:
10004f48:	b5f8      	push	{r3, r4, r5, r6, r7, lr}
10004f4a:	4604      	mov	r4, r0
10004f4c:	460e      	mov	r6, r1
10004f4e:	4617      	mov	r7, r2
10004f50:	461d      	mov	r5, r3
10004f52:	60c1      	str	r1, [r0, #12]
10004f54:	f7ff fb84 	bl	10004660 <next_striped_spin_lock_num>
10004f58:	4b16      	ldr	r3, [pc, #88]	@ (10004fb4 <alarm_pool_post_alloc_init+0x6c>)
10004f5a:	4403      	add	r3, r0
10004f5c:	6123      	str	r3, [r4, #16]
10004f5e:	7027      	strb	r7, [r4, #0]
10004f60:	b2ab      	uxth	r3, r5
10004f62:	8163      	strh	r3, [r4, #10]
10004f64:	f04f 4250 	mov.w	r2, #3489660928	@ 0xd0000000
10004f68:	7812      	ldrb	r2, [r2, #0]
10004f6a:	7062      	strb	r2, [r4, #1]
10004f6c:	f64f 72ff 	movw	r2, #65535	@ 0xffff
10004f70:	8122      	strh	r2, [r4, #8]
10004f72:	80a2      	strh	r2, [r4, #4]
10004f74:	3b01      	subs	r3, #1
10004f76:	8063      	strh	r3, [r4, #2]
10004f78:	f04f 0c00 	mov.w	ip, #0
10004f7c:	e008      	b.n	10004f90 <alarm_pool_post_alloc_init+0x48>
10004f7e:	f10c 30ff 	add.w	r0, ip, #4294967295
10004f82:	eb0c 0e4c 	add.w	lr, ip, ip, lsl #1
10004f86:	6963      	ldr	r3, [r4, #20]
10004f88:	f823 003e 	strh.w	r0, [r3, lr, lsl #3]
10004f8c:	f10c 0c01 	add.w	ip, ip, #1
10004f90:	45ac      	cmp	ip, r5
10004f92:	d3f4      	bcc.n	10004f7e <alarm_pool_post_alloc_init+0x36>
10004f94:	4b08      	ldr	r3, [pc, #32]	@ (10004fb8 <alarm_pool_post_alloc_init+0x70>)
10004f96:	429e      	cmp	r6, r3
10004f98:	bf14      	ite	ne
10004f9a:	2300      	movne	r3, #0
10004f9c:	2301      	moveq	r3, #1
10004f9e:	eb07 0383 	add.w	r3, r7, r3, lsl #2
10004fa2:	4a06      	ldr	r2, [pc, #24]	@ (10004fbc <alarm_pool_post_alloc_init+0x74>)
10004fa4:	f842 4023 	str.w	r4, [r2, r3, lsl #2]
10004fa8:	4a05      	ldr	r2, [pc, #20]	@ (10004fc0 <alarm_pool_post_alloc_init+0x78>)
10004faa:	4639      	mov	r1, r7
10004fac:	4630      	mov	r0, r6
10004fae:	f7ff ffaf 	bl	10004f10 <ta_enable_irq_handler>
10004fb2:	bdf8      	pop	{r3, r4, r5, r6, r7, pc}
10004fb4:	200008c0 	.word	0x200008c0
10004fb8:	400b8000 	.word	0x400b8000
10004fbc:	20000940 	.word	0x20000940
10004fc0:	10004c31 	.word	0x10004c31

10004fc4 <sleep_until_callback>:
10004fc4:	b508      	push	{r3, lr}
10004fc6:	480b      	ldr	r0, [pc, #44]	@ (10004ff4 <sleep_until_callback+0x30>)
10004fc8:	6803      	ldr	r3, [r0, #0]
10004fca:	f3ef 8110 	mrs	r1, PRIMASK
10004fce:	b672      	cpsid	i
10004fd0:	e8d3 cfcf 	ldaexb	ip, [r3]
10004fd4:	2201      	movs	r2, #1
10004fd6:	f1bc 0f00 	cmp.w	ip, #0
10004fda:	d1f9      	bne.n	10004fd0 <sleep_until_callback+0xc>
10004fdc:	e8c3 2f4c 	strexb	ip, r2, [r3]
10004fe0:	f1bc 0f00 	cmp.w	ip, #0
10004fe4:	d1f4      	bne.n	10004fd0 <sleep_until_callback+0xc>
10004fe6:	f3bf 8f5f 	dmb	sy
10004fea:	f7fc f90d 	bl	10001208 <vPortLockInternalSpinUnlockWithNotify>
10004fee:	2000      	movs	r0, #0
10004ff0:	2100      	movs	r1, #0
10004ff2:	bd08      	pop	{r3, pc}
10004ff4:	20000bfc 	.word	0x20000bfc

10004ff8 <alarm_pool_get_default>:
10004ff8:	b508      	push	{r3, lr}
10004ffa:	4b05      	ldr	r3, [pc, #20]	@ (10005010 <alarm_pool_get_default+0x18>)
10004ffc:	691b      	ldr	r3, [r3, #16]
10004ffe:	b10b      	cbz	r3, 10005004 <alarm_pool_get_default+0xc>
10005000:	4803      	ldr	r0, [pc, #12]	@ (10005010 <alarm_pool_get_default+0x18>)
10005002:	bd08      	pop	{r3, pc}
10005004:	4b03      	ldr	r3, [pc, #12]	@ (10005014 <alarm_pool_get_default+0x1c>)
10005006:	4a04      	ldr	r2, [pc, #16]	@ (10005018 <alarm_pool_get_default+0x20>)
10005008:	2165      	movs	r1, #101	@ 0x65
1000500a:	4804      	ldr	r0, [pc, #16]	@ (1000501c <alarm_pool_get_default+0x24>)
1000500c:	f002 f814 	bl	10007038 <__assert_func>
10005010:	200006c4 	.word	0x200006c4
10005014:	10008c38 	.word	0x10008c38
10005018:	10009700 	.word	0x10009700
1000501c:	10008bf8 	.word	0x10008bf8

10005020 <alarm_pool_add_alarm_at_force_in_context>:
10005020:	b5f8      	push	{r3, r4, r5, r6, r7, lr}
10005022:	4604      	mov	r4, r0
10005024:	469e      	mov	lr, r3
10005026:	6900      	ldr	r0, [r0, #16]
10005028:	f3ef 8110 	mrs	r1, PRIMASK
1000502c:	b672      	cpsid	i
1000502e:	e8d0 6fcf 	ldaexb	r6, [r0]
10005032:	2501      	movs	r5, #1
10005034:	2e00      	cmp	r6, #0
10005036:	d1fa      	bne.n	1000502e <alarm_pool_add_alarm_at_force_in_context+0xe>
10005038:	e8c0 5f46 	strexb	r6, r5, [r0]
1000503c:	2e00      	cmp	r6, #0
1000503e:	d1f6      	bne.n	1000502e <alarm_pool_add_alarm_at_force_in_context+0xe>
10005040:	f3bf 8f5f 	dmb	sy
10005044:	f9b4 5002 	ldrsh.w	r5, [r4, #2]
10005048:	6966      	ldr	r6, [r4, #20]
1000504a:	eb05 0045 	add.w	r0, r5, r5, lsl #1
1000504e:	00c7      	lsls	r7, r0, #3
10005050:	eb06 00c0 	add.w	r0, r6, r0, lsl #3
10005054:	2d00      	cmp	r5, #0
10005056:	db03      	blt.n	10005060 <alarm_pool_add_alarm_at_force_in_context+0x40>
10005058:	f936 c007 	ldrsh.w	ip, [r6, r7]
1000505c:	f8a4 c002 	strh.w	ip, [r4, #2]
10005060:	f04f 0c00 	mov.w	ip, #0
10005064:	6923      	ldr	r3, [r4, #16]
10005066:	e8c3 cf8f 	stlb	ip, [r3]
1000506a:	f381 8810 	msr	PRIMASK, r1
1000506e:	4565      	cmp	r5, ip
10005070:	db33      	blt.n	100050da <alarm_pool_add_alarm_at_force_in_context+0xba>
10005072:	9906      	ldr	r1, [sp, #24]
10005074:	6101      	str	r1, [r0, #16]
10005076:	9907      	ldr	r1, [sp, #28]
10005078:	6141      	str	r1, [r0, #20]
1000507a:	6082      	str	r2, [r0, #8]
1000507c:	f8c0 e00c 	str.w	lr, [r0, #12]
10005080:	8841      	ldrh	r1, [r0, #2]
10005082:	b289      	uxth	r1, r1
10005084:	3101      	adds	r1, #1
10005086:	f3c1 010e 	ubfx	r1, r1, #0, #15
1000508a:	b901      	cbnz	r1, 1000508e <alarm_pool_add_alarm_at_force_in_context+0x6e>
1000508c:	2101      	movs	r1, #1
1000508e:	8041      	strh	r1, [r0, #2]
10005090:	4628      	mov	r0, r5
10005092:	f7ff fdc9 	bl	10004c28 <make_alarm_id>
10005096:	6923      	ldr	r3, [r4, #16]
10005098:	f3ef 8210 	mrs	r2, PRIMASK
1000509c:	b672      	cpsid	i
1000509e:	e8d3 cfcf 	ldaexb	ip, [r3]
100050a2:	2101      	movs	r1, #1
100050a4:	f1bc 0f00 	cmp.w	ip, #0
100050a8:	d1f9      	bne.n	1000509e <alarm_pool_add_alarm_at_force_in_context+0x7e>
100050aa:	e8c3 1f4c 	strexb	ip, r1, [r3]
100050ae:	f1bc 0f00 	cmp.w	ip, #0
100050b2:	d1f4      	bne.n	1000509e <alarm_pool_add_alarm_at_force_in_context+0x7e>
100050b4:	f3bf 8f5f 	dmb	sy
100050b8:	88a3      	ldrh	r3, [r4, #4]
100050ba:	53f3      	strh	r3, [r6, r7]
100050bc:	80a5      	strh	r5, [r4, #4]
100050be:	6921      	ldr	r1, [r4, #16]
100050c0:	2300      	movs	r3, #0
100050c2:	e8c1 3f8f 	stlb	r3, [r1]
100050c6:	f382 8810 	msr	PRIMASK, r2
100050ca:	68e3      	ldr	r3, [r4, #12]
100050cc:	7821      	ldrb	r1, [r4, #0]
100050ce:	2201      	movs	r2, #1
100050d0:	408a      	lsls	r2, r1
100050d2:	f503 5301 	add.w	r3, r3, #8256	@ 0x2040
100050d6:	605a      	str	r2, [r3, #4]
100050d8:	bdf8      	pop	{r3, r4, r5, r6, r7, pc}
100050da:	f04f 30ff 	mov.w	r0, #4294967295
100050de:	e7fb      	b.n	100050d8 <alarm_pool_add_alarm_at_force_in_context+0xb8>

100050e0 <alarm_pool_add_alarm_at>:
100050e0:	b570      	push	{r4, r5, r6, lr}
100050e2:	b082      	sub	sp, #8
100050e4:	4606      	mov	r6, r0
100050e6:	4615      	mov	r5, r2
100050e8:	461c      	mov	r4, r3
100050ea:	f89d 3020 	ldrb.w	r3, [sp, #32]
100050ee:	b933      	cbnz	r3, 100050fe <alarm_pool_add_alarm_at+0x1e>
100050f0:	f000 f940 	bl	10005374 <time_us_64>
100050f4:	4285      	cmp	r5, r0
100050f6:	eb64 0101 	sbc.w	r1, r4, r1
100050fa:	2900      	cmp	r1, #0
100050fc:	db0a      	blt.n	10005114 <alarm_pool_add_alarm_at+0x34>
100050fe:	9b07      	ldr	r3, [sp, #28]
10005100:	9301      	str	r3, [sp, #4]
10005102:	9b06      	ldr	r3, [sp, #24]
10005104:	9300      	str	r3, [sp, #0]
10005106:	462a      	mov	r2, r5
10005108:	4623      	mov	r3, r4
1000510a:	4630      	mov	r0, r6
1000510c:	f7ff ff88 	bl	10005020 <alarm_pool_add_alarm_at_force_in_context>
10005110:	b002      	add	sp, #8
10005112:	bd70      	pop	{r4, r5, r6, pc}
10005114:	2000      	movs	r0, #0
10005116:	e7fb      	b.n	10005110 <alarm_pool_add_alarm_at+0x30>

10005118 <add_alarm_at>:
10005118:	b5f0      	push	{r4, r5, r6, r7, lr}
1000511a:	b085      	sub	sp, #20
1000511c:	4605      	mov	r5, r0
1000511e:	460c      	mov	r4, r1
10005120:	4616      	mov	r6, r2
10005122:	461f      	mov	r7, r3
10005124:	f7ff ff68 	bl	10004ff8 <alarm_pool_get_default>
10005128:	f89d 3028 	ldrb.w	r3, [sp, #40]	@ 0x28
1000512c:	9302      	str	r3, [sp, #8]
1000512e:	9701      	str	r7, [sp, #4]
10005130:	9600      	str	r6, [sp, #0]
10005132:	462a      	mov	r2, r5
10005134:	4623      	mov	r3, r4
10005136:	f7ff ffd3 	bl	100050e0 <alarm_pool_add_alarm_at>
1000513a:	b005      	add	sp, #20
1000513c:	bdf0      	pop	{r4, r5, r6, r7, pc}

1000513e <alarm_pool_cancel_alarm>:
1000513e:	4603      	mov	r3, r0
10005140:	8940      	ldrh	r0, [r0, #10]
10005142:	ebb0 4f21 	cmp.w	r0, r1, asr #16
10005146:	dd31      	ble.n	100051ac <alarm_pool_cancel_alarm+0x6e>
10005148:	b510      	push	{r4, lr}
1000514a:	140a      	asrs	r2, r1, #16
1000514c:	6958      	ldr	r0, [r3, #20]
1000514e:	eb02 0242 	add.w	r2, r2, r2, lsl #1
10005152:	eb00 00c2 	add.w	r0, r0, r2, lsl #3
10005156:	691a      	ldr	r2, [r3, #16]
10005158:	f3ef 8c10 	mrs	ip, PRIMASK
1000515c:	b672      	cpsid	i
1000515e:	e8d2 4fcf 	ldaexb	r4, [r2]
10005162:	f05f 0e01 	movs.w	lr, #1
10005166:	2c00      	cmp	r4, #0
10005168:	d1f9      	bne.n	1000515e <alarm_pool_cancel_alarm+0x20>
1000516a:	e8c2 ef44 	strexb	r4, lr, [r2]
1000516e:	2c00      	cmp	r4, #0
10005170:	d1f5      	bne.n	1000515e <alarm_pool_cancel_alarm+0x20>
10005172:	f3bf 8f5f 	dmb	sy
10005176:	8842      	ldrh	r2, [r0, #2]
10005178:	b292      	uxth	r2, r2
1000517a:	b289      	uxth	r1, r1
1000517c:	428a      	cmp	r2, r1
1000517e:	d00f      	beq.n	100051a0 <alarm_pool_cancel_alarm+0x62>
10005180:	2000      	movs	r0, #0
10005182:	6919      	ldr	r1, [r3, #16]
10005184:	2200      	movs	r2, #0
10005186:	e8c1 2f8f 	stlb	r2, [r1]
1000518a:	f38c 8810 	msr	PRIMASK, ip
1000518e:	b130      	cbz	r0, 1000519e <alarm_pool_cancel_alarm+0x60>
10005190:	68da      	ldr	r2, [r3, #12]
10005192:	781b      	ldrb	r3, [r3, #0]
10005194:	2101      	movs	r1, #1
10005196:	4099      	lsls	r1, r3
10005198:	f502 5301 	add.w	r3, r2, #8256	@ 0x2040
1000519c:	6059      	str	r1, [r3, #4]
1000519e:	bd10      	pop	{r4, pc}
100051a0:	f442 4200 	orr.w	r2, r2, #32768	@ 0x8000
100051a4:	8042      	strh	r2, [r0, #2]
100051a6:	2001      	movs	r0, #1
100051a8:	7198      	strb	r0, [r3, #6]
100051aa:	e7ea      	b.n	10005182 <alarm_pool_cancel_alarm+0x44>
100051ac:	2000      	movs	r0, #0
100051ae:	4770      	bx	lr

100051b0 <cancel_alarm>:
100051b0:	b510      	push	{r4, lr}
100051b2:	4604      	mov	r4, r0
100051b4:	f7ff ff20 	bl	10004ff8 <alarm_pool_get_default>
100051b8:	4621      	mov	r1, r4
100051ba:	f7ff ffc0 	bl	1000513e <alarm_pool_cancel_alarm>
100051be:	bd10      	pop	{r4, pc}

100051c0 <best_effort_wfe_or_timeout>:
100051c0:	b530      	push	{r4, r5, lr}
100051c2:	b083      	sub	sp, #12
100051c4:	4605      	mov	r5, r0
100051c6:	460c      	mov	r4, r1
100051c8:	f3ef 8305 	mrs	r3, IPSR
100051cc:	b2db      	uxtb	r3, r3
100051ce:	b193      	cbz	r3, 100051f6 <best_effort_wfe_or_timeout+0x36>
100051d0:	4b39      	ldr	r3, [pc, #228]	@ (100052b8 <best_effort_wfe_or_timeout+0xf8>)
100051d2:	6a5b      	ldr	r3, [r3, #36]	@ 0x24
100051d4:	428b      	cmp	r3, r1
100051d6:	d309      	bcc.n	100051ec <best_effort_wfe_or_timeout+0x2c>
100051d8:	4a37      	ldr	r2, [pc, #220]	@ (100052b8 <best_effort_wfe_or_timeout+0xf8>)
100051da:	6a92      	ldr	r2, [r2, #40]	@ 0x28
100051dc:	4282      	cmp	r2, r0
100051de:	d208      	bcs.n	100051f2 <best_effort_wfe_or_timeout+0x32>
100051e0:	428b      	cmp	r3, r1
100051e2:	d001      	beq.n	100051e8 <best_effort_wfe_or_timeout+0x28>
100051e4:	2001      	movs	r0, #1
100051e6:	e002      	b.n	100051ee <best_effort_wfe_or_timeout+0x2e>
100051e8:	2000      	movs	r0, #0
100051ea:	e000      	b.n	100051ee <best_effort_wfe_or_timeout+0x2e>
100051ec:	2000      	movs	r0, #0
100051ee:	b003      	add	sp, #12
100051f0:	bd30      	pop	{r4, r5, pc}
100051f2:	2001      	movs	r0, #1
100051f4:	e7fb      	b.n	100051ee <best_effort_wfe_or_timeout+0x2e>
100051f6:	f7ff feff 	bl	10004ff8 <alarm_pool_get_default>
100051fa:	68c1      	ldr	r1, [r0, #12]
100051fc:	7803      	ldrb	r3, [r0, #0]
100051fe:	6a8a      	ldr	r2, [r1, #40]	@ 0x28
10005200:	1aa8      	subs	r0, r5, r2
10005202:	3304      	adds	r3, #4
10005204:	f851 3023 	ldr.w	r3, [r1, r3, lsl #2]
10005208:	1a9b      	subs	r3, r3, r2
1000520a:	4298      	cmp	r0, r3
1000520c:	d312      	bcc.n	10005234 <best_effort_wfe_or_timeout+0x74>
1000520e:	bf20      	wfe
10005210:	4b29      	ldr	r3, [pc, #164]	@ (100052b8 <best_effort_wfe_or_timeout+0xf8>)
10005212:	6a5b      	ldr	r3, [r3, #36]	@ 0x24
10005214:	429c      	cmp	r4, r3
10005216:	d809      	bhi.n	1000522c <best_effort_wfe_or_timeout+0x6c>
10005218:	4a27      	ldr	r2, [pc, #156]	@ (100052b8 <best_effort_wfe_or_timeout+0xf8>)
1000521a:	6a92      	ldr	r2, [r2, #40]	@ 0x28
1000521c:	4295      	cmp	r5, r2
1000521e:	d907      	bls.n	10005230 <best_effort_wfe_or_timeout+0x70>
10005220:	429c      	cmp	r4, r3
10005222:	d001      	beq.n	10005228 <best_effort_wfe_or_timeout+0x68>
10005224:	2001      	movs	r0, #1
10005226:	e7e2      	b.n	100051ee <best_effort_wfe_or_timeout+0x2e>
10005228:	2000      	movs	r0, #0
1000522a:	e7e0      	b.n	100051ee <best_effort_wfe_or_timeout+0x2e>
1000522c:	2000      	movs	r0, #0
1000522e:	e7de      	b.n	100051ee <best_effort_wfe_or_timeout+0x2e>
10005230:	2001      	movs	r0, #1
10005232:	e7dc      	b.n	100051ee <best_effort_wfe_or_timeout+0x2e>
10005234:	2300      	movs	r3, #0
10005236:	9300      	str	r3, [sp, #0]
10005238:	4a20      	ldr	r2, [pc, #128]	@ (100052bc <best_effort_wfe_or_timeout+0xfc>)
1000523a:	4628      	mov	r0, r5
1000523c:	4621      	mov	r1, r4
1000523e:	f7ff ff6b 	bl	10005118 <add_alarm_at>
10005242:	2800      	cmp	r0, #0
10005244:	dd0b      	ble.n	1000525e <best_effort_wfe_or_timeout+0x9e>
10005246:	4b1c      	ldr	r3, [pc, #112]	@ (100052b8 <best_effort_wfe_or_timeout+0xf8>)
10005248:	6a5b      	ldr	r3, [r3, #36]	@ 0x24
1000524a:	429c      	cmp	r4, r3
1000524c:	d81b      	bhi.n	10005286 <best_effort_wfe_or_timeout+0xc6>
1000524e:	4a1a      	ldr	r2, [pc, #104]	@ (100052b8 <best_effort_wfe_or_timeout+0xf8>)
10005250:	6a92      	ldr	r2, [r2, #40]	@ 0x28
10005252:	4295      	cmp	r5, r2
10005254:	d928      	bls.n	100052a8 <best_effort_wfe_or_timeout+0xe8>
10005256:	429c      	cmp	r4, r3
10005258:	d013      	beq.n	10005282 <best_effort_wfe_or_timeout+0xc2>
1000525a:	2301      	movs	r3, #1
1000525c:	e014      	b.n	10005288 <best_effort_wfe_or_timeout+0xc8>
1000525e:	4b16      	ldr	r3, [pc, #88]	@ (100052b8 <best_effort_wfe_or_timeout+0xf8>)
10005260:	6a5b      	ldr	r3, [r3, #36]	@ 0x24
10005262:	429c      	cmp	r4, r3
10005264:	d809      	bhi.n	1000527a <best_effort_wfe_or_timeout+0xba>
10005266:	4a14      	ldr	r2, [pc, #80]	@ (100052b8 <best_effort_wfe_or_timeout+0xf8>)
10005268:	6a92      	ldr	r2, [r2, #40]	@ 0x28
1000526a:	4295      	cmp	r5, r2
1000526c:	d907      	bls.n	1000527e <best_effort_wfe_or_timeout+0xbe>
1000526e:	429c      	cmp	r4, r3
10005270:	d001      	beq.n	10005276 <best_effort_wfe_or_timeout+0xb6>
10005272:	2001      	movs	r0, #1
10005274:	e7bb      	b.n	100051ee <best_effort_wfe_or_timeout+0x2e>
10005276:	2000      	movs	r0, #0
10005278:	e7b9      	b.n	100051ee <best_effort_wfe_or_timeout+0x2e>
1000527a:	2000      	movs	r0, #0
1000527c:	e7b7      	b.n	100051ee <best_effort_wfe_or_timeout+0x2e>
1000527e:	2001      	movs	r0, #1
10005280:	e7b5      	b.n	100051ee <best_effort_wfe_or_timeout+0x2e>
10005282:	2300      	movs	r3, #0
10005284:	e000      	b.n	10005288 <best_effort_wfe_or_timeout+0xc8>
10005286:	2300      	movs	r3, #0
10005288:	b903      	cbnz	r3, 1000528c <best_effort_wfe_or_timeout+0xcc>
1000528a:	bf20      	wfe
1000528c:	f7ff ff90 	bl	100051b0 <cancel_alarm>
10005290:	4b09      	ldr	r3, [pc, #36]	@ (100052b8 <best_effort_wfe_or_timeout+0xf8>)
10005292:	6a5b      	ldr	r3, [r3, #36]	@ 0x24
10005294:	429c      	cmp	r4, r3
10005296:	d80b      	bhi.n	100052b0 <best_effort_wfe_or_timeout+0xf0>
10005298:	4a07      	ldr	r2, [pc, #28]	@ (100052b8 <best_effort_wfe_or_timeout+0xf8>)
1000529a:	6a92      	ldr	r2, [r2, #40]	@ 0x28
1000529c:	4295      	cmp	r5, r2
1000529e:	d909      	bls.n	100052b4 <best_effort_wfe_or_timeout+0xf4>
100052a0:	429c      	cmp	r4, r3
100052a2:	d003      	beq.n	100052ac <best_effort_wfe_or_timeout+0xec>
100052a4:	2001      	movs	r0, #1
100052a6:	e7a2      	b.n	100051ee <best_effort_wfe_or_timeout+0x2e>
100052a8:	2301      	movs	r3, #1
100052aa:	e7ed      	b.n	10005288 <best_effort_wfe_or_timeout+0xc8>
100052ac:	2000      	movs	r0, #0
100052ae:	e79e      	b.n	100051ee <best_effort_wfe_or_timeout+0x2e>
100052b0:	2000      	movs	r0, #0
100052b2:	e79c      	b.n	100051ee <best_effort_wfe_or_timeout+0x2e>
100052b4:	2001      	movs	r0, #1
100052b6:	e79a      	b.n	100051ee <best_effort_wfe_or_timeout+0x2e>
100052b8:	400b0000 	.word	0x400b0000
100052bc:	10004fc5 	.word	0x10004fc5

100052c0 <alarm_pool_get_default_timer>:
100052c0:	4800      	ldr	r0, [pc, #0]	@ (100052c4 <alarm_pool_get_default_timer+0x4>)
100052c2:	4770      	bx	lr
100052c4:	400b0000 	.word	0x400b0000

100052c8 <runtime_init_default_alarm_pool>:
100052c8:	b510      	push	{r4, lr}
100052ca:	4b0a      	ldr	r3, [pc, #40]	@ (100052f4 <runtime_init_default_alarm_pool+0x2c>)
100052cc:	691b      	ldr	r3, [r3, #16]
100052ce:	b123      	cbz	r3, 100052da <runtime_init_default_alarm_pool+0x12>
100052d0:	210a      	movs	r1, #10
100052d2:	4809      	ldr	r0, [pc, #36]	@ (100052f8 <runtime_init_default_alarm_pool+0x30>)
100052d4:	f7ff fc4c 	bl	10004b70 <lock_init>
100052d8:	bd10      	pop	{r4, pc}
100052da:	f7ff fff1 	bl	100052c0 <alarm_pool_get_default_timer>
100052de:	4604      	mov	r4, r0
100052e0:	2103      	movs	r1, #3
100052e2:	f000 f80b 	bl	100052fc <timer_hardware_alarm_claim>
100052e6:	2310      	movs	r3, #16
100052e8:	2203      	movs	r2, #3
100052ea:	4621      	mov	r1, r4
100052ec:	4801      	ldr	r0, [pc, #4]	@ (100052f4 <runtime_init_default_alarm_pool+0x2c>)
100052ee:	f7ff fe2b 	bl	10004f48 <alarm_pool_post_alloc_init>
100052f2:	e7ed      	b.n	100052d0 <runtime_init_default_alarm_pool+0x8>
100052f4:	200006c4 	.word	0x200006c4
100052f8:	20000bfc 	.word	0x20000bfc

100052fc <timer_hardware_alarm_claim>:
100052fc:	b510      	push	{r4, lr}
100052fe:	4a05      	ldr	r2, [pc, #20]	@ (10005314 <timer_hardware_alarm_claim+0x18>)
10005300:	4c05      	ldr	r4, [pc, #20]	@ (10005318 <timer_hardware_alarm_claim+0x1c>)
10005302:	4b06      	ldr	r3, [pc, #24]	@ (1000531c <timer_hardware_alarm_claim+0x20>)
10005304:	42a0      	cmp	r0, r4
10005306:	bf14      	ite	ne
10005308:	4618      	movne	r0, r3
1000530a:	1c58      	addeq	r0, r3, #1
1000530c:	f7ff f98e 	bl	1000462c <hw_claim_or_assert>
10005310:	bd10      	pop	{r4, pc}
10005312:	bf00      	nop
10005314:	10008c5c 	.word	0x10008c5c
10005318:	400b8000 	.word	0x400b8000
1000531c:	200008ec 	.word	0x200008ec

10005320 <timer_time_us_64>:
10005320:	4602      	mov	r2, r0
10005322:	6a43      	ldr	r3, [r0, #36]	@ 0x24
10005324:	6a90      	ldr	r0, [r2, #40]	@ 0x28
10005326:	4619      	mov	r1, r3
10005328:	6a53      	ldr	r3, [r2, #36]	@ 0x24
1000532a:	4299      	cmp	r1, r3
1000532c:	d1fa      	bne.n	10005324 <timer_time_us_64+0x4>
1000532e:	4770      	bx	lr

10005330 <timer_busy_wait_until>:
10005330:	6a41      	ldr	r1, [r0, #36]	@ 0x24
10005332:	e000      	b.n	10005336 <timer_busy_wait_until+0x6>
10005334:	6a41      	ldr	r1, [r0, #36]	@ 0x24
10005336:	4299      	cmp	r1, r3
10005338:	d3fc      	bcc.n	10005334 <timer_busy_wait_until+0x4>
1000533a:	e000      	b.n	1000533e <timer_busy_wait_until+0xe>
1000533c:	6a41      	ldr	r1, [r0, #36]	@ 0x24
1000533e:	4299      	cmp	r1, r3
10005340:	d102      	bne.n	10005348 <timer_busy_wait_until+0x18>
10005342:	6a81      	ldr	r1, [r0, #40]	@ 0x28
10005344:	4291      	cmp	r1, r2
10005346:	d3f9      	bcc.n	1000533c <timer_busy_wait_until+0xc>
10005348:	4770      	bx	lr

1000534a <timer_busy_wait_us>:
1000534a:	b570      	push	{r4, r5, r6, lr}
1000534c:	4606      	mov	r6, r0
1000534e:	4614      	mov	r4, r2
10005350:	461d      	mov	r5, r3
10005352:	f7ff ffe5 	bl	10005320 <timer_time_us_64>
10005356:	1902      	adds	r2, r0, r4
10005358:	eb41 0305 	adc.w	r3, r1, r5
1000535c:	4282      	cmp	r2, r0
1000535e:	eb73 0101 	sbcs.w	r1, r3, r1
10005362:	d202      	bcs.n	1000536a <timer_busy_wait_us+0x20>
10005364:	f04f 32ff 	mov.w	r2, #4294967295
10005368:	4613      	mov	r3, r2
1000536a:	4630      	mov	r0, r6
1000536c:	f7ff ffe0 	bl	10005330 <timer_busy_wait_until>
10005370:	bd70      	pop	{r4, r5, r6, pc}
	...

10005374 <time_us_64>:
10005374:	b508      	push	{r3, lr}
10005376:	4802      	ldr	r0, [pc, #8]	@ (10005380 <time_us_64+0xc>)
10005378:	f7ff ffd2 	bl	10005320 <timer_time_us_64>
1000537c:	bd08      	pop	{r3, pc}
1000537e:	bf00      	nop
10005380:	400b0000 	.word	0x400b0000

10005384 <busy_wait_us>:
10005384:	b508      	push	{r3, lr}
10005386:	4602      	mov	r2, r0
10005388:	460b      	mov	r3, r1
1000538a:	4802      	ldr	r0, [pc, #8]	@ (10005394 <busy_wait_us+0x10>)
1000538c:	f7ff ffdd 	bl	1000534a <timer_busy_wait_us>
10005390:	bd08      	pop	{r3, pc}
10005392:	bf00      	nop
10005394:	400b0000 	.word	0x400b0000

10005398 <timer_busy_wait_us_32>:
10005398:	b508      	push	{r3, lr}
1000539a:	2900      	cmp	r1, #0
1000539c:	db05      	blt.n	100053aa <timer_busy_wait_us_32+0x12>
1000539e:	6a82      	ldr	r2, [r0, #40]	@ 0x28
100053a0:	6a83      	ldr	r3, [r0, #40]	@ 0x28
100053a2:	1a9b      	subs	r3, r3, r2
100053a4:	428b      	cmp	r3, r1
100053a6:	d3fb      	bcc.n	100053a0 <timer_busy_wait_us_32+0x8>
100053a8:	bd08      	pop	{r3, pc}
100053aa:	4608      	mov	r0, r1
100053ac:	2100      	movs	r1, #0
100053ae:	f7ff ffe9 	bl	10005384 <busy_wait_us>
100053b2:	e7f9      	b.n	100053a8 <timer_busy_wait_us_32+0x10>

100053b4 <timer_busy_wait_ms>:
100053b4:	b508      	push	{r3, lr}
100053b6:	4b0e      	ldr	r3, [pc, #56]	@ (100053f0 <timer_busy_wait_ms+0x3c>)
100053b8:	4299      	cmp	r1, r3
100053ba:	d806      	bhi.n	100053ca <timer_busy_wait_ms+0x16>
100053bc:	f44f 737a 	mov.w	r3, #1000	@ 0x3e8
100053c0:	fb03 f101 	mul.w	r1, r3, r1
100053c4:	f7ff ffe8 	bl	10005398 <timer_busy_wait_us_32>
100053c8:	bd08      	pop	{r3, pc}
100053ca:	0eca      	lsrs	r2, r1, #27
100053cc:	014b      	lsls	r3, r1, #5
100053ce:	1a5b      	subs	r3, r3, r1
100053d0:	f162 0200 	sbc.w	r2, r2, #0
100053d4:	0092      	lsls	r2, r2, #2
100053d6:	ea42 7293 	orr.w	r2, r2, r3, lsr #30
100053da:	009b      	lsls	r3, r3, #2
100053dc:	185b      	adds	r3, r3, r1
100053de:	f142 0200 	adc.w	r2, r2, #0
100053e2:	00d1      	lsls	r1, r2, #3
100053e4:	00da      	lsls	r2, r3, #3
100053e6:	ea41 7353 	orr.w	r3, r1, r3, lsr #29
100053ea:	f7ff ffae 	bl	1000534a <timer_busy_wait_us>
100053ee:	e7eb      	b.n	100053c8 <timer_busy_wait_ms+0x14>
100053f0:	0020c49b 	.word	0x0020c49b

100053f4 <busy_wait_ms>:
100053f4:	b508      	push	{r3, lr}
100053f6:	4601      	mov	r1, r0
100053f8:	4801      	ldr	r0, [pc, #4]	@ (10005400 <busy_wait_ms+0xc>)
100053fa:	f7ff ffdb 	bl	100053b4 <timer_busy_wait_ms>
100053fe:	bd08      	pop	{r3, pc}
10005400:	400b0000 	.word	0x400b0000

10005404 <pll_init>:
10005404:	b570      	push	{r4, r5, r6, lr}
10005406:	9c04      	ldr	r4, [sp, #16]
10005408:	4d34      	ldr	r5, [pc, #208]	@ (100054dc <pll_init+0xd8>)
1000540a:	fbb5 fcf1 	udiv	ip, r5, r1
1000540e:	4d34      	ldr	r5, [pc, #208]	@ (100054e0 <pll_init+0xdc>)
10005410:	4415      	add	r5, r2
10005412:	4e34      	ldr	r6, [pc, #208]	@ (100054e4 <pll_init+0xe0>)
10005414:	42b5      	cmp	r5, r6
10005416:	d837      	bhi.n	10005488 <pll_init+0x84>
10005418:	fbb2 f5fc 	udiv	r5, r2, ip
1000541c:	f1a5 0e10 	sub.w	lr, r5, #16
10005420:	f5be 7f98 	cmp.w	lr, #304	@ 0x130
10005424:	d836      	bhi.n	10005494 <pll_init+0x90>
10005426:	f103 3eff 	add.w	lr, r3, #4294967295
1000542a:	f1be 0f06 	cmp.w	lr, #6
1000542e:	d837      	bhi.n	100054a0 <pll_init+0x9c>
10005430:	f104 3eff 	add.w	lr, r4, #4294967295
10005434:	f1be 0f06 	cmp.w	lr, #6
10005438:	d832      	bhi.n	100054a0 <pll_init+0x9c>
1000543a:	ebbc 1f12 	cmp.w	ip, r2, lsr #4
1000543e:	d835      	bhi.n	100054ac <pll_init+0xa8>
10005440:	0324      	lsls	r4, r4, #12
10005442:	ea44 4403 	orr.w	r4, r4, r3, lsl #16
10005446:	6803      	ldr	r3, [r0, #0]
10005448:	2b00      	cmp	r3, #0
1000544a:	db35      	blt.n	100054b8 <pll_init+0xb4>
1000544c:	4b26      	ldr	r3, [pc, #152]	@ (100054e8 <pll_init+0xe4>)
1000544e:	4298      	cmp	r0, r3
10005450:	d042      	beq.n	100054d8 <pll_init+0xd4>
10005452:	230e      	movs	r3, #14
10005454:	2201      	movs	r2, #1
10005456:	409a      	lsls	r2, r3
10005458:	4b24      	ldr	r3, [pc, #144]	@ (100054ec <pll_init+0xe8>)
1000545a:	601a      	str	r2, [r3, #0]
1000545c:	f503 5380 	add.w	r3, r3, #4096	@ 0x1000
10005460:	601a      	str	r2, [r3, #0]
10005462:	4b23      	ldr	r3, [pc, #140]	@ (100054f0 <pll_init+0xec>)
10005464:	689b      	ldr	r3, [r3, #8]
10005466:	ea32 0303 	bics.w	r3, r2, r3
1000546a:	d1fa      	bne.n	10005462 <pll_init+0x5e>
1000546c:	6001      	str	r1, [r0, #0]
1000546e:	6085      	str	r5, [r0, #8]
10005470:	f500 5240 	add.w	r2, r0, #12288	@ 0x3000
10005474:	3204      	adds	r2, #4
10005476:	2321      	movs	r3, #33	@ 0x21
10005478:	6013      	str	r3, [r2, #0]
1000547a:	6803      	ldr	r3, [r0, #0]
1000547c:	2b00      	cmp	r3, #0
1000547e:	dafc      	bge.n	1000547a <pll_init+0x76>
10005480:	60c4      	str	r4, [r0, #12]
10005482:	2308      	movs	r3, #8
10005484:	6013      	str	r3, [r2, #0]
10005486:	bd70      	pop	{r4, r5, r6, pc}
10005488:	4b1a      	ldr	r3, [pc, #104]	@ (100054f4 <pll_init+0xf0>)
1000548a:	4a1b      	ldr	r2, [pc, #108]	@ (100054f8 <pll_init+0xf4>)
1000548c:	2111      	movs	r1, #17
1000548e:	481b      	ldr	r0, [pc, #108]	@ (100054fc <pll_init+0xf8>)
10005490:	f001 fdd2 	bl	10007038 <__assert_func>
10005494:	4b1a      	ldr	r3, [pc, #104]	@ (10005500 <pll_init+0xfc>)
10005496:	4a18      	ldr	r2, [pc, #96]	@ (100054f8 <pll_init+0xf4>)
10005498:	2119      	movs	r1, #25
1000549a:	4818      	ldr	r0, [pc, #96]	@ (100054fc <pll_init+0xf8>)
1000549c:	f001 fdcc 	bl	10007038 <__assert_func>
100054a0:	4b18      	ldr	r3, [pc, #96]	@ (10005504 <pll_init+0x100>)
100054a2:	4a15      	ldr	r2, [pc, #84]	@ (100054f8 <pll_init+0xf4>)
100054a4:	211c      	movs	r1, #28
100054a6:	4815      	ldr	r0, [pc, #84]	@ (100054fc <pll_init+0xf8>)
100054a8:	f001 fdc6 	bl	10007038 <__assert_func>
100054ac:	4b16      	ldr	r3, [pc, #88]	@ (10005508 <pll_init+0x104>)
100054ae:	4a12      	ldr	r2, [pc, #72]	@ (100054f8 <pll_init+0xf4>)
100054b0:	2123      	movs	r1, #35	@ 0x23
100054b2:	4812      	ldr	r0, [pc, #72]	@ (100054fc <pll_init+0xf8>)
100054b4:	f001 fdc0 	bl	10007038 <__assert_func>
100054b8:	6803      	ldr	r3, [r0, #0]
100054ba:	f003 033f 	and.w	r3, r3, #63	@ 0x3f
100054be:	428b      	cmp	r3, r1
100054c0:	d1c4      	bne.n	1000544c <pll_init+0x48>
100054c2:	6883      	ldr	r3, [r0, #8]
100054c4:	f3c3 030b 	ubfx	r3, r3, #0, #12
100054c8:	42ab      	cmp	r3, r5
100054ca:	d1bf      	bne.n	1000544c <pll_init+0x48>
100054cc:	68c3      	ldr	r3, [r0, #12]
100054ce:	f403 23ee 	and.w	r3, r3, #487424	@ 0x77000
100054d2:	42a3      	cmp	r3, r4
100054d4:	d1ba      	bne.n	1000544c <pll_init+0x48>
100054d6:	e7d6      	b.n	10005486 <pll_init+0x82>
100054d8:	230f      	movs	r3, #15
100054da:	e7bb      	b.n	10005454 <pll_init+0x50>
100054dc:	00b71b00 	.word	0x00b71b00
100054e0:	d34be880 	.word	0xd34be880
100054e4:	32a9f880 	.word	0x32a9f880
100054e8:	40058000 	.word	0x40058000
100054ec:	40022000 	.word	0x40022000
100054f0:	40020000 	.word	0x40020000
100054f4:	10008c80 	.word	0x10008c80
100054f8:	10009738 	.word	0x10009738
100054fc:	10008cd0 	.word	0x10008cd0
10005500:	10008d18 	.word	0x10008d18
10005504:	10008d34 	.word	0x10008d34
10005508:	10008d80 	.word	0x10008d80

1000550c <tick_start>:
1000550c:	4a05      	ldr	r2, [pc, #20]	@ (10005524 <tick_start+0x18>)
1000550e:	eb00 0340 	add.w	r3, r0, r0, lsl #1
10005512:	eb02 0383 	add.w	r3, r2, r3, lsl #2
10005516:	6059      	str	r1, [r3, #4]
10005518:	eb00 0040 	add.w	r0, r0, r0, lsl #1
1000551c:	0080      	lsls	r0, r0, #2
1000551e:	2301      	movs	r3, #1
10005520:	5013      	str	r3, [r2, r0]
10005522:	4770      	bx	lr
10005524:	40108000 	.word	0x40108000

10005528 <rom_func_lookup>:
10005528:	b508      	push	{r3, lr}
1000552a:	2300      	movs	r3, #0
1000552c:	8adb      	ldrh	r3, [r3, #22]
1000552e:	2200      	movs	r2, #0
10005530:	e842 f200 	tt	r2, r2
10005534:	f412 0f80 	tst.w	r2, #4194304	@ 0x400000
10005538:	d102      	bne.n	10005540 <rom_func_lookup+0x18>
1000553a:	2110      	movs	r1, #16
1000553c:	4798      	blx	r3
1000553e:	bd08      	pop	{r3, pc}
10005540:	2104      	movs	r1, #4
10005542:	4798      	blx	r3
10005544:	e7fb      	b.n	1000553e <rom_func_lookup+0x16>
	...

10005548 <runtime_init_bootrom_locking_enable>:
10005548:	4b03      	ldr	r3, [pc, #12]	@ (10005558 <runtime_init_bootrom_locking_enable+0x10>)
1000554a:	f8d3 3828 	ldr.w	r3, [r3, #2088]	@ 0x828
1000554e:	2b00      	cmp	r3, #0
10005550:	d0fa      	beq.n	10005548 <runtime_init_bootrom_locking_enable>
10005552:	f3bf 8f5f 	dmb	sy
10005556:	4770      	bx	lr
10005558:	400e0000 	.word	0x400e0000

1000555c <boot_locks_reset>:
1000555c:	2200      	movs	r2, #0
1000555e:	e007      	b.n	10005570 <boot_locks_reset+0x14>
10005560:	4b05      	ldr	r3, [pc, #20]	@ (10005578 <boot_locks_reset+0x1c>)
10005562:	4413      	add	r3, r2
10005564:	009b      	lsls	r3, r3, #2
10005566:	f3bf 8f5f 	dmb	sy
1000556a:	2100      	movs	r1, #0
1000556c:	6019      	str	r1, [r3, #0]
1000556e:	3201      	adds	r2, #1
10005570:	2a07      	cmp	r2, #7
10005572:	d9f5      	bls.n	10005560 <boot_locks_reset+0x4>
10005574:	4770      	bx	lr
10005576:	bf00      	nop
10005578:	10038203 	.word	0x10038203

1000557c <runtime_init_boot_locks_reset>:
1000557c:	b508      	push	{r3, lr}
1000557e:	f7ff ffed 	bl	1000555c <boot_locks_reset>
10005582:	bd08      	pop	{r3, pc}

10005584 <xosc_init>:
10005584:	4b07      	ldr	r3, [pc, #28]	@ (100055a4 <xosc_init+0x20>)
10005586:	f44f 622a 	mov.w	r2, #2720	@ 0xaa0
1000558a:	601a      	str	r2, [r3, #0]
1000558c:	222f      	movs	r2, #47	@ 0x2f
1000558e:	60da      	str	r2, [r3, #12]
10005590:	f503 5300 	add.w	r3, r3, #8192	@ 0x2000
10005594:	4a04      	ldr	r2, [pc, #16]	@ (100055a8 <xosc_init+0x24>)
10005596:	601a      	str	r2, [r3, #0]
10005598:	4b02      	ldr	r3, [pc, #8]	@ (100055a4 <xosc_init+0x20>)
1000559a:	685b      	ldr	r3, [r3, #4]
1000559c:	2b00      	cmp	r3, #0
1000559e:	dafb      	bge.n	10005598 <xosc_init+0x14>
100055a0:	4770      	bx	lr
100055a2:	bf00      	nop
100055a4:	40048000 	.word	0x40048000
100055a8:	00fab000 	.word	0x00fab000

100055ac <exception_is_compile_time_default>:
100055ac:	4b05      	ldr	r3, [pc, #20]	@ (100055c4 <exception_is_compile_time_default+0x18>)
100055ae:	4298      	cmp	r0, r3
100055b0:	d304      	bcc.n	100055bc <exception_is_compile_time_default+0x10>
100055b2:	4b05      	ldr	r3, [pc, #20]	@ (100055c8 <exception_is_compile_time_default+0x1c>)
100055b4:	4298      	cmp	r0, r3
100055b6:	d303      	bcc.n	100055c0 <exception_is_compile_time_default+0x14>
100055b8:	2000      	movs	r0, #0
100055ba:	4770      	bx	lr
100055bc:	2000      	movs	r0, #0
100055be:	4770      	bx	lr
100055c0:	2001      	movs	r0, #1
100055c2:	4770      	bx	lr
100055c4:	10000110 	.word	0x10000110
100055c8:	1000011c 	.word	0x1000011c

100055cc <set_raw_exception_handler_and_restore_interrupts>:
100055cc:	4b04      	ldr	r3, [pc, #16]	@ (100055e0 <set_raw_exception_handler_and_restore_interrupts+0x14>)
100055ce:	689b      	ldr	r3, [r3, #8]
100055d0:	f843 1020 	str.w	r1, [r3, r0, lsl #2]
100055d4:	f3bf 8f5f 	dmb	sy
100055d8:	f382 8810 	msr	PRIMASK, r2
100055dc:	4770      	bx	lr
100055de:	bf00      	nop
100055e0:	e000ed00 	.word	0xe000ed00

100055e4 <exception_get_vtable_handler>:
100055e4:	4b02      	ldr	r3, [pc, #8]	@ (100055f0 <exception_get_vtable_handler+0xc>)
100055e6:	689b      	ldr	r3, [r3, #8]
100055e8:	f853 0020 	ldr.w	r0, [r3, r0, lsl #2]
100055ec:	4770      	bx	lr
100055ee:	bf00      	nop
100055f0:	e000ed00 	.word	0xe000ed00

100055f4 <exception_set_exclusive_handler>:
100055f4:	b5f8      	push	{r3, r4, r5, r6, r7, lr}
100055f6:	4606      	mov	r6, r0
100055f8:	460d      	mov	r5, r1
100055fa:	f3ef 8710 	mrs	r7, PRIMASK
100055fe:	b672      	cpsid	i
10005600:	f7ff fff0 	bl	100055e4 <exception_get_vtable_handler>
10005604:	4604      	mov	r4, r0
10005606:	42a8      	cmp	r0, r5
10005608:	d002      	beq.n	10005610 <exception_set_exclusive_handler+0x1c>
1000560a:	f7ff ffcf 	bl	100055ac <exception_is_compile_time_default>
1000560e:	b130      	cbz	r0, 1000561e <exception_set_exclusive_handler+0x2a>
10005610:	463a      	mov	r2, r7
10005612:	4629      	mov	r1, r5
10005614:	4630      	mov	r0, r6
10005616:	f7ff ffd9 	bl	100055cc <set_raw_exception_handler_and_restore_interrupts>
1000561a:	4620      	mov	r0, r4
1000561c:	bdf8      	pop	{r3, r4, r5, r6, r7, pc}
1000561e:	4b03      	ldr	r3, [pc, #12]	@ (1000562c <exception_set_exclusive_handler+0x38>)
10005620:	4a03      	ldr	r2, [pc, #12]	@ (10005630 <exception_set_exclusive_handler+0x3c>)
10005622:	2137      	movs	r1, #55	@ 0x37
10005624:	4803      	ldr	r0, [pc, #12]	@ (10005634 <exception_set_exclusive_handler+0x40>)
10005626:	f001 fd07 	bl	10007038 <__assert_func>
1000562a:	bf00      	nop
1000562c:	10008d9c 	.word	0x10008d9c
10005630:	10009744 	.word	0x10009744
10005634:	10008de0 	.word	0x10008de0

10005638 <core1_trampoline>:
10005638:	bd03      	pop	{r0, r1, pc}

1000563a <core1_wrapper>:
1000563a:	b510      	push	{r4, lr}
1000563c:	4604      	mov	r4, r0
1000563e:	f000 f9b3 	bl	100059a8 <runtime_run_per_core_initializers>
10005642:	47a0      	blx	r4
10005644:	bd10      	pop	{r4, pc}
	...

10005648 <multicore_doorbell_claim_under_lock>:
10005648:	b570      	push	{r4, r5, r6, lr}
1000564a:	4603      	mov	r3, r0
1000564c:	4610      	mov	r0, r2
1000564e:	08dd      	lsrs	r5, r3, #3
10005650:	4c1a      	ldr	r4, [pc, #104]	@ (100056bc <multicore_doorbell_claim_under_lock+0x74>)
10005652:	5d66      	ldrb	r6, [r4, r5]
10005654:	f003 0e07 	and.w	lr, r3, #7
10005658:	2201      	movs	r2, #1
1000565a:	fa02 fe0e 	lsl.w	lr, r2, lr
1000565e:	ea16 0f0e 	tst.w	r6, lr
10005662:	bf14      	ite	ne
10005664:	4694      	movne	ip, r2
10005666:	f04f 0c00 	moveq.w	ip, #0
1000566a:	4413      	add	r3, r2
1000566c:	08de      	lsrs	r6, r3, #3
1000566e:	4414      	add	r4, r2
10005670:	5da4      	ldrb	r4, [r4, r6]
10005672:	f003 0307 	and.w	r3, r3, #7
10005676:	409a      	lsls	r2, r3
10005678:	4214      	tst	r4, r2
1000567a:	bf14      	ite	ne
1000567c:	2301      	movne	r3, #1
1000567e:	2300      	moveq	r3, #0
10005680:	ea4c 0343 	orr.w	r3, ip, r3, lsl #1
10005684:	ea13 0201 	ands.w	r2, r3, r1
10005688:	d007      	beq.n	1000569a <multicore_doorbell_claim_under_lock+0x52>
1000568a:	b900      	cbnz	r0, 1000568e <multicore_doorbell_claim_under_lock+0x46>
1000568c:	bd70      	pop	{r4, r5, r6, pc}
1000568e:	460a      	mov	r2, r1
10005690:	4619      	mov	r1, r3
10005692:	480b      	ldr	r0, [pc, #44]	@ (100056c0 <multicore_doorbell_claim_under_lock+0x78>)
10005694:	f7fb f9e6 	bl	10000a64 <panic>
10005698:	3201      	adds	r2, #1
1000569a:	2a01      	cmp	r2, #1
1000569c:	d80b      	bhi.n	100056b6 <multicore_doorbell_claim_under_lock+0x6e>
1000569e:	2301      	movs	r3, #1
100056a0:	4093      	lsls	r3, r2
100056a2:	420b      	tst	r3, r1
100056a4:	d0f8      	beq.n	10005698 <multicore_doorbell_claim_under_lock+0x50>
100056a6:	4b05      	ldr	r3, [pc, #20]	@ (100056bc <multicore_doorbell_claim_under_lock+0x74>)
100056a8:	4413      	add	r3, r2
100056aa:	5d58      	ldrb	r0, [r3, r5]
100056ac:	fa5f f48e 	uxtb.w	r4, lr
100056b0:	4320      	orrs	r0, r4
100056b2:	5558      	strb	r0, [r3, r5]
100056b4:	e7f0      	b.n	10005698 <multicore_doorbell_claim_under_lock+0x50>
100056b6:	2001      	movs	r0, #1
100056b8:	e7e8      	b.n	1000568c <multicore_doorbell_claim_under_lock+0x44>
100056ba:	bf00      	nop
100056bc:	2000091c 	.word	0x2000091c
100056c0:	10008e34 	.word	0x10008e34

100056c4 <multicore_fifo_push_blocking>:
100056c4:	f04f 4350 	mov.w	r3, #3489660928	@ 0xd0000000
100056c8:	6d1b      	ldr	r3, [r3, #80]	@ 0x50
100056ca:	f013 0f02 	tst.w	r3, #2
100056ce:	d0f9      	beq.n	100056c4 <multicore_fifo_push_blocking>
100056d0:	f04f 4350 	mov.w	r3, #3489660928	@ 0xd0000000
100056d4:	6558      	str	r0, [r3, #84]	@ 0x54
100056d6:	bf40      	sev
100056d8:	4770      	bx	lr

100056da <multicore_fifo_pop_blocking>:
100056da:	e000      	b.n	100056de <multicore_fifo_pop_blocking+0x4>
100056dc:	bf20      	wfe
100056de:	f04f 4350 	mov.w	r3, #3489660928	@ 0xd0000000
100056e2:	6d1b      	ldr	r3, [r3, #80]	@ 0x50
100056e4:	f013 0f01 	tst.w	r3, #1
100056e8:	d0f8      	beq.n	100056dc <multicore_fifo_pop_blocking+0x2>
100056ea:	f04f 4350 	mov.w	r3, #3489660928	@ 0xd0000000
100056ee:	6d98      	ldr	r0, [r3, #88]	@ 0x58
100056f0:	4770      	bx	lr

100056f2 <multicore_launch_core1_raw>:
100056f2:	e92d 41f0 	stmdb	sp!, {r4, r5, r6, r7, r8, lr}
100056f6:	b086      	sub	sp, #24
100056f8:	4604      	mov	r4, r0
100056fa:	460f      	mov	r7, r1
100056fc:	4690      	mov	r8, r2
100056fe:	2019      	movs	r0, #25
10005700:	f7ff f886 	bl	10004810 <irq_is_enabled>
10005704:	4606      	mov	r6, r0
10005706:	2100      	movs	r1, #0
10005708:	2019      	movs	r0, #25
1000570a:	f7ff f8a1 	bl	10004850 <irq_set_enabled>
1000570e:	2500      	movs	r5, #0
10005710:	9500      	str	r5, [sp, #0]
10005712:	9501      	str	r5, [sp, #4]
10005714:	2301      	movs	r3, #1
10005716:	9302      	str	r3, [sp, #8]
10005718:	f8cd 800c 	str.w	r8, [sp, #12]
1000571c:	9704      	str	r7, [sp, #16]
1000571e:	9405      	str	r4, [sp, #20]
10005720:	e00d      	b.n	1000573e <multicore_launch_core1_raw+0x4c>
10005722:	f04f 4350 	mov.w	r3, #3489660928	@ 0xd0000000
10005726:	6d9b      	ldr	r3, [r3, #88]	@ 0x58
10005728:	f04f 4350 	mov.w	r3, #3489660928	@ 0xd0000000
1000572c:	6d1b      	ldr	r3, [r3, #80]	@ 0x50
1000572e:	f013 0f01 	tst.w	r3, #1
10005732:	d1f6      	bne.n	10005722 <multicore_launch_core1_raw+0x30>
10005734:	bf40      	sev
10005736:	e009      	b.n	1000574c <multicore_launch_core1_raw+0x5a>
10005738:	3501      	adds	r5, #1
1000573a:	2d05      	cmp	r5, #5
1000573c:	d80f      	bhi.n	1000575e <multicore_launch_core1_raw+0x6c>
1000573e:	ab06      	add	r3, sp, #24
10005740:	eb03 0385 	add.w	r3, r3, r5, lsl #2
10005744:	f853 4c18 	ldr.w	r4, [r3, #-24]
10005748:	2c00      	cmp	r4, #0
1000574a:	d0ed      	beq.n	10005728 <multicore_launch_core1_raw+0x36>
1000574c:	4620      	mov	r0, r4
1000574e:	f7ff ffb9 	bl	100056c4 <multicore_fifo_push_blocking>
10005752:	f7ff ffc2 	bl	100056da <multicore_fifo_pop_blocking>
10005756:	4284      	cmp	r4, r0
10005758:	d0ee      	beq.n	10005738 <multicore_launch_core1_raw+0x46>
1000575a:	2500      	movs	r5, #0
1000575c:	e7ed      	b.n	1000573a <multicore_launch_core1_raw+0x48>
1000575e:	4631      	mov	r1, r6
10005760:	2019      	movs	r0, #25
10005762:	f7ff f875 	bl	10004850 <irq_set_enabled>
10005766:	b006      	add	sp, #24
10005768:	e8bd 81f0 	ldmia.w	sp!, {r4, r5, r6, r7, r8, pc}

1000576c <multicore_launch_core1_with_stack>:
1000576c:	b508      	push	{r3, lr}
1000576e:	f012 0f03 	tst.w	r2, #3
10005772:	d111      	bne.n	10005798 <multicore_launch_core1_with_stack+0x2c>
10005774:	f022 0203 	bic.w	r2, r2, #3
10005778:	188b      	adds	r3, r1, r2
1000577a:	4a0a      	ldr	r2, [pc, #40]	@ (100057a4 <multicore_launch_core1_with_stack+0x38>)
1000577c:	6892      	ldr	r2, [r2, #8]
1000577e:	f843 0c0c 	str.w	r0, [r3, #-12]
10005782:	f843 1c08 	str.w	r1, [r3, #-8]
10005786:	4908      	ldr	r1, [pc, #32]	@ (100057a8 <multicore_launch_core1_with_stack+0x3c>)
10005788:	f843 1c04 	str.w	r1, [r3, #-4]
1000578c:	f1a3 010c 	sub.w	r1, r3, #12
10005790:	4806      	ldr	r0, [pc, #24]	@ (100057ac <multicore_launch_core1_with_stack+0x40>)
10005792:	f7ff ffae 	bl	100056f2 <multicore_launch_core1_raw>
10005796:	bd08      	pop	{r3, pc}
10005798:	4b05      	ldr	r3, [pc, #20]	@ (100057b0 <multicore_launch_core1_with_stack+0x44>)
1000579a:	4a06      	ldr	r2, [pc, #24]	@ (100057b4 <multicore_launch_core1_with_stack+0x48>)
1000579c:	2187      	movs	r1, #135	@ 0x87
1000579e:	4806      	ldr	r0, [pc, #24]	@ (100057b8 <multicore_launch_core1_with_stack+0x4c>)
100057a0:	f001 fc4a 	bl	10007038 <__assert_func>
100057a4:	e000ed00 	.word	0xe000ed00
100057a8:	1000563b 	.word	0x1000563b
100057ac:	10005639 	.word	0x10005639
100057b0:	10008ef0 	.word	0x10008ef0
100057b4:	10009764 	.word	0x10009764
100057b8:	10008ea0 	.word	0x10008ea0

100057bc <multicore_launch_core1>:
100057bc:	b508      	push	{r3, lr}
100057be:	4a06      	ldr	r2, [pc, #24]	@ (100057d8 <multicore_launch_core1+0x1c>)
100057c0:	4b06      	ldr	r3, [pc, #24]	@ (100057dc <multicore_launch_core1+0x20>)
100057c2:	429a      	cmp	r2, r3
100057c4:	d305      	bcc.n	100057d2 <multicore_launch_core1+0x16>
100057c6:	4611      	mov	r1, r2
100057c8:	f44f 6200 	mov.w	r2, #2048	@ 0x800
100057cc:	f7ff ffce 	bl	1000576c <multicore_launch_core1_with_stack>
100057d0:	bd08      	pop	{r3, pc}
100057d2:	f04f 31ff 	mov.w	r1, #4294967295
100057d6:	e7f7      	b.n	100057c8 <multicore_launch_core1+0xc>
100057d8:	20080800 	.word	0x20080800
100057dc:	20080000 	.word	0x20080000

100057e0 <multicore_doorbell_claim_unused>:
100057e0:	b5f8      	push	{r3, r4, r5, r6, r7, lr}
100057e2:	4605      	mov	r5, r0
100057e4:	460e      	mov	r6, r1
100057e6:	f7fe ff05 	bl	100045f4 <hw_claim_lock>
100057ea:	4607      	mov	r7, r0
100057ec:	2407      	movs	r4, #7
100057ee:	2c00      	cmp	r4, #0
100057f0:	db07      	blt.n	10005802 <multicore_doorbell_claim_unused+0x22>
100057f2:	2200      	movs	r2, #0
100057f4:	4629      	mov	r1, r5
100057f6:	4620      	mov	r0, r4
100057f8:	f7ff ff26 	bl	10005648 <multicore_doorbell_claim_under_lock>
100057fc:	b918      	cbnz	r0, 10005806 <multicore_doorbell_claim_unused+0x26>
100057fe:	3c01      	subs	r4, #1
10005800:	e7f5      	b.n	100057ee <multicore_doorbell_claim_unused+0xe>
10005802:	f06f 0408 	mvn.w	r4, #8
10005806:	b10e      	cbz	r6, 1000580c <multicore_doorbell_claim_unused+0x2c>
10005808:	2c00      	cmp	r4, #0
1000580a:	db04      	blt.n	10005816 <multicore_doorbell_claim_unused+0x36>
1000580c:	4638      	mov	r0, r7
1000580e:	f7fe ff03 	bl	10004618 <hw_claim_unlock>
10005812:	4620      	mov	r0, r4
10005814:	bdf8      	pop	{r3, r4, r5, r6, r7, pc}
10005816:	4801      	ldr	r0, [pc, #4]	@ (1000581c <multicore_doorbell_claim_unused+0x3c>)
10005818:	f7fb f924 	bl	10000a64 <panic>
1000581c:	10008f0c 	.word	0x10008f0c

10005820 <uart_unreset>:
10005820:	4b07      	ldr	r3, [pc, #28]	@ (10005840 <uart_unreset+0x20>)
10005822:	4298      	cmp	r0, r3
10005824:	d00a      	beq.n	1000583c <uart_unreset+0x1c>
10005826:	231a      	movs	r3, #26
10005828:	2201      	movs	r2, #1
1000582a:	409a      	lsls	r2, r3
1000582c:	4b05      	ldr	r3, [pc, #20]	@ (10005844 <uart_unreset+0x24>)
1000582e:	601a      	str	r2, [r3, #0]
10005830:	4b05      	ldr	r3, [pc, #20]	@ (10005848 <uart_unreset+0x28>)
10005832:	689b      	ldr	r3, [r3, #8]
10005834:	ea32 0303 	bics.w	r3, r2, r3
10005838:	d1fa      	bne.n	10005830 <uart_unreset+0x10>
1000583a:	4770      	bx	lr
1000583c:	231b      	movs	r3, #27
1000583e:	e7f3      	b.n	10005828 <uart_unreset+0x8>
10005840:	40078000 	.word	0x40078000
10005844:	40023000 	.word	0x40023000
10005848:	40020000 	.word	0x40020000

1000584c <uart_disable_before_lcr_write>:
1000584c:	b538      	push	{r3, r4, r5, lr}
1000584e:	6b04      	ldr	r4, [r0, #48]	@ 0x30
10005850:	f014 0f01 	tst.w	r4, #1
10005854:	d101      	bne.n	1000585a <uart_disable_before_lcr_write+0xe>
10005856:	4620      	mov	r0, r4
10005858:	bd38      	pop	{r3, r4, r5, pc}
1000585a:	f500 5340 	add.w	r3, r0, #12288	@ 0x3000
1000585e:	f240 3201 	movw	r2, #769	@ 0x301
10005862:	631a      	str	r2, [r3, #48]	@ 0x30
10005864:	6a43      	ldr	r3, [r0, #36]	@ 0x24
10005866:	6a85      	ldr	r5, [r0, #40]	@ 0x28
10005868:	eb05 1583 	add.w	r5, r5, r3, lsl #6
1000586c:	02ad      	lsls	r5, r5, #10
1000586e:	2006      	movs	r0, #6
10005870:	f7fe feba 	bl	100045e8 <clock_get_hz>
10005874:	4b04      	ldr	r3, [pc, #16]	@ (10005888 <uart_disable_before_lcr_write+0x3c>)
10005876:	fba3 3000 	umull	r3, r0, r3, r0
1000587a:	0ac0      	lsrs	r0, r0, #11
1000587c:	fbb5 f0f0 	udiv	r0, r5, r0
10005880:	2100      	movs	r1, #0
10005882:	f7ff fd7f 	bl	10005384 <busy_wait_us>
10005886:	e7e6      	b.n	10005856 <uart_disable_before_lcr_write+0xa>
10005888:	8f2b7b75 	.word	0x8f2b7b75

1000588c <uart_write_lcr_bits_masked>:
1000588c:	b570      	push	{r4, r5, r6, lr}
1000588e:	4605      	mov	r5, r0
10005890:	460c      	mov	r4, r1
10005892:	4616      	mov	r6, r2
10005894:	f7ff ffda 	bl	1000584c <uart_disable_before_lcr_write>
10005898:	6aeb      	ldr	r3, [r5, #44]	@ 0x2c
1000589a:	405c      	eors	r4, r3
1000589c:	4034      	ands	r4, r6
1000589e:	f505 5381 	add.w	r3, r5, #4128	@ 0x1020
100058a2:	60dc      	str	r4, [r3, #12]
100058a4:	6328      	str	r0, [r5, #48]	@ 0x30
100058a6:	bd70      	pop	{r4, r5, r6, pc}

100058a8 <uart_set_baudrate>:
100058a8:	b570      	push	{r4, r5, r6, lr}
100058aa:	4605      	mov	r5, r0
100058ac:	460c      	mov	r4, r1
100058ae:	2006      	movs	r0, #6
100058b0:	f7fe fe9a 	bl	100045e8 <clock_get_hz>
100058b4:	00c3      	lsls	r3, r0, #3
100058b6:	fbb3 f3f4 	udiv	r3, r3, r4
100058ba:	3301      	adds	r3, #1
100058bc:	09dc      	lsrs	r4, r3, #7
100058be:	d007      	beq.n	100058d0 <uart_set_baudrate+0x28>
100058c0:	f64f 72fe 	movw	r2, #65534	@ 0xfffe
100058c4:	4294      	cmp	r4, r2
100058c6:	d814      	bhi.n	100058f2 <uart_set_baudrate+0x4a>
100058c8:	4626      	mov	r6, r4
100058ca:	f3c3 0445 	ubfx	r4, r3, #1, #6
100058ce:	e000      	b.n	100058d2 <uart_set_baudrate+0x2a>
100058d0:	2601      	movs	r6, #1
100058d2:	626e      	str	r6, [r5, #36]	@ 0x24
100058d4:	62ac      	str	r4, [r5, #40]	@ 0x28
100058d6:	2200      	movs	r2, #0
100058d8:	4611      	mov	r1, r2
100058da:	4628      	mov	r0, r5
100058dc:	f7ff ffd6 	bl	1000588c <uart_write_lcr_bits_masked>
100058e0:	2006      	movs	r0, #6
100058e2:	f7fe fe81 	bl	100045e8 <clock_get_hz>
100058e6:	0080      	lsls	r0, r0, #2
100058e8:	eb04 1486 	add.w	r4, r4, r6, lsl #6
100058ec:	fbb0 f0f4 	udiv	r0, r0, r4
100058f0:	bd70      	pop	{r4, r5, r6, pc}
100058f2:	2400      	movs	r4, #0
100058f4:	f64f 76ff 	movw	r6, #65535	@ 0xffff
100058f8:	e7eb      	b.n	100058d2 <uart_set_baudrate+0x2a>
	...

100058fc <uart_set_translate_crlf>:
100058fc:	b149      	cbz	r1, 10005912 <uart_set_translate_crlf+0x16>
100058fe:	220a      	movs	r2, #10
10005900:	4b05      	ldr	r3, [pc, #20]	@ (10005918 <uart_set_translate_crlf+0x1c>)
10005902:	4298      	cmp	r0, r3
10005904:	bf14      	ite	ne
10005906:	2000      	movne	r0, #0
10005908:	2001      	moveq	r0, #1
1000590a:	4b04      	ldr	r3, [pc, #16]	@ (1000591c <uart_set_translate_crlf+0x20>)
1000590c:	f823 2010 	strh.w	r2, [r3, r0, lsl #1]
10005910:	4770      	bx	lr
10005912:	f44f 7280 	mov.w	r2, #256	@ 0x100
10005916:	e7f3      	b.n	10005900 <uart_set_translate_crlf+0x4>
10005918:	40078000 	.word	0x40078000
1000591c:	20000c00 	.word	0x20000c00

10005920 <uart_init>:
10005920:	b538      	push	{r3, r4, r5, lr}
10005922:	4604      	mov	r4, r0
10005924:	460d      	mov	r5, r1
10005926:	2006      	movs	r0, #6
10005928:	f7fe fe5e 	bl	100045e8 <clock_get_hz>
1000592c:	b1f8      	cbz	r0, 1000596e <uart_init+0x4e>
1000592e:	4b11      	ldr	r3, [pc, #68]	@ (10005974 <uart_init+0x54>)
10005930:	429c      	cmp	r4, r3
10005932:	d01d      	beq.n	10005970 <uart_init+0x50>
10005934:	221a      	movs	r2, #26
10005936:	2301      	movs	r3, #1
10005938:	4093      	lsls	r3, r2
1000593a:	4a0f      	ldr	r2, [pc, #60]	@ (10005978 <uart_init+0x58>)
1000593c:	6013      	str	r3, [r2, #0]
1000593e:	4620      	mov	r0, r4
10005940:	f7ff ff6e 	bl	10005820 <uart_unreset>
10005944:	2100      	movs	r1, #0
10005946:	4620      	mov	r0, r4
10005948:	f7ff ffd8 	bl	100058fc <uart_set_translate_crlf>
1000594c:	4629      	mov	r1, r5
1000594e:	4620      	mov	r0, r4
10005950:	f7ff ffaa 	bl	100058a8 <uart_set_baudrate>
10005954:	6ae3      	ldr	r3, [r4, #44]	@ 0x2c
10005956:	f083 0370 	eor.w	r3, r3, #112	@ 0x70
1000595a:	f003 037e 	and.w	r3, r3, #126	@ 0x7e
1000595e:	f504 5281 	add.w	r2, r4, #4128	@ 0x1020
10005962:	60d3      	str	r3, [r2, #12]
10005964:	f240 3301 	movw	r3, #769	@ 0x301
10005968:	6323      	str	r3, [r4, #48]	@ 0x30
1000596a:	2303      	movs	r3, #3
1000596c:	64a3      	str	r3, [r4, #72]	@ 0x48
1000596e:	bd38      	pop	{r3, r4, r5, pc}
10005970:	221b      	movs	r2, #27
10005972:	e7e0      	b.n	10005936 <uart_init+0x16>
10005974:	40078000 	.word	0x40078000
10005978:	40022000 	.word	0x40022000

1000597c <runtime_run_initializers_from>:
1000597c:	b510      	push	{r4, lr}
1000597e:	4604      	mov	r4, r0
10005980:	e002      	b.n	10005988 <runtime_run_initializers_from+0xc>
10005982:	f854 3b04 	ldr.w	r3, [r4], #4
10005986:	4798      	blx	r3
10005988:	4b01      	ldr	r3, [pc, #4]	@ (10005990 <runtime_run_initializers_from+0x14>)
1000598a:	429c      	cmp	r4, r3
1000598c:	d3f9      	bcc.n	10005982 <runtime_run_initializers_from+0x6>
1000598e:	bd10      	pop	{r4, pc}
10005990:	100077b8 	.word	0x100077b8

10005994 <first_per_core_initializer>:
10005994:	4770      	bx	lr
	...

10005998 <runtime_run_initializers>:
10005998:	b508      	push	{r3, lr}
1000599a:	4802      	ldr	r0, [pc, #8]	@ (100059a4 <runtime_run_initializers+0xc>)
1000599c:	f7ff ffee 	bl	1000597c <runtime_run_initializers_from>
100059a0:	bd08      	pop	{r3, pc}
100059a2:	bf00      	nop
100059a4:	10007778 	.word	0x10007778

100059a8 <runtime_run_per_core_initializers>:
100059a8:	b508      	push	{r3, lr}
100059aa:	4802      	ldr	r0, [pc, #8]	@ (100059b4 <runtime_run_per_core_initializers+0xc>)
100059ac:	f7ff ffe6 	bl	1000597c <runtime_run_initializers_from>
100059b0:	bd08      	pop	{r3, pc}
100059b2:	bf00      	nop
100059b4:	100077a4 	.word	0x100077a4

100059b8 <runtime_init_early_resets>:
100059b8:	4b06      	ldr	r3, [pc, #24]	@ (100059d4 <runtime_init_early_resets+0x1c>)
100059ba:	4a07      	ldr	r2, [pc, #28]	@ (100059d8 <runtime_init_early_resets+0x20>)
100059bc:	601a      	str	r2, [r3, #0]
100059be:	f503 5380 	add.w	r3, r3, #4096	@ 0x1000
100059c2:	4a06      	ldr	r2, [pc, #24]	@ (100059dc <runtime_init_early_resets+0x24>)
100059c4:	601a      	str	r2, [r3, #0]
100059c6:	4b06      	ldr	r3, [pc, #24]	@ (100059e0 <runtime_init_early_resets+0x28>)
100059c8:	689a      	ldr	r2, [r3, #8]
100059ca:	4b04      	ldr	r3, [pc, #16]	@ (100059dc <runtime_init_early_resets+0x24>)
100059cc:	4393      	bics	r3, r2
100059ce:	d1fa      	bne.n	100059c6 <runtime_init_early_resets+0xe>
100059d0:	4770      	bx	lr
100059d2:	bf00      	nop
100059d4:	40022000 	.word	0x40022000
100059d8:	efef3b7f 	.word	0xefef3b7f
100059dc:	03f3fff6 	.word	0x03f3fff6
100059e0:	40020000 	.word	0x40020000

100059e4 <runtime_init_usb_power_down>:
100059e4:	4b05      	ldr	r3, [pc, #20]	@ (100059fc <runtime_init_usb_power_down+0x18>)
100059e6:	6cdb      	ldr	r3, [r3, #76]	@ 0x4c
100059e8:	f5b3 4f00 	cmp.w	r3, #32768	@ 0x8000
100059ec:	d000      	beq.n	100059f0 <runtime_init_usb_power_down+0xc>
100059ee:	4770      	bx	lr
100059f0:	4b03      	ldr	r3, [pc, #12]	@ (10005a00 <runtime_init_usb_power_down+0x1c>)
100059f2:	f44f 2280 	mov.w	r2, #262144	@ 0x40000
100059f6:	64da      	str	r2, [r3, #76]	@ 0x4c
100059f8:	e7f9      	b.n	100059ee <runtime_init_usb_power_down+0xa>
100059fa:	bf00      	nop
100059fc:	50110000 	.word	0x50110000
10005a00:	50112000 	.word	0x50112000

10005a04 <runtime_init_per_core_enable_coprocessors>:
10005a04:	f04f 22e0 	mov.w	r2, #3758153728	@ 0xe000e000
10005a08:	f8d2 1d88 	ldr.w	r1, [r2, #3464]	@ 0xd88
10005a0c:	4b03      	ldr	r3, [pc, #12]	@ (10005a1c <runtime_init_per_core_enable_coprocessors+0x18>)
10005a0e:	430b      	orrs	r3, r1
10005a10:	f8c2 3d88 	str.w	r3, [r2, #3464]	@ 0xd88
10005a14:	ee10 0430 	dcp_rcmp r0
10005a18:	4770      	bx	lr
10005a1a:	bf00      	nop
10005a1c:	00300303 	.word	0x00300303

10005a20 <runtime_init_post_clock_resets>:
10005a20:	4b05      	ldr	r3, [pc, #20]	@ (10005a38 <runtime_init_post_clock_resets+0x18>)
10005a22:	f06f 4260 	mvn.w	r2, #3758096384	@ 0xe0000000
10005a26:	601a      	str	r2, [r3, #0]
10005a28:	4b04      	ldr	r3, [pc, #16]	@ (10005a3c <runtime_init_post_clock_resets+0x1c>)
10005a2a:	689b      	ldr	r3, [r3, #8]
10005a2c:	43db      	mvns	r3, r3
10005a2e:	f033 4360 	bics.w	r3, r3, #3758096384	@ 0xe0000000
10005a32:	d1f9      	bne.n	10005a28 <runtime_init_post_clock_resets+0x8>
10005a34:	4770      	bx	lr
10005a36:	bf00      	nop
10005a38:	40023000 	.word	0x40023000
10005a3c:	40020000 	.word	0x40020000

10005a40 <runtime_init_bootrom_reset>:
10005a40:	b508      	push	{r3, lr}
10005a42:	f245 2053 	movw	r0, #21075	@ 0x5253
10005a46:	f7ff fd6f 	bl	10005528 <rom_func_lookup>
10005a4a:	4603      	mov	r3, r0
10005a4c:	2004      	movs	r0, #4
10005a4e:	4798      	blx	r3
10005a50:	bd08      	pop	{r3, pc}

10005a52 <runtime_init_per_core_bootrom_reset>:
10005a52:	b508      	push	{r3, lr}
10005a54:	f245 2053 	movw	r0, #21075	@ 0x5253
10005a58:	f7ff fd66 	bl	10005528 <rom_func_lookup>
10005a5c:	4603      	mov	r3, r0
10005a5e:	2001      	movs	r0, #1
10005a60:	4798      	blx	r3
10005a62:	bd08      	pop	{r3, pc}

10005a64 <runtime_init_spin_locks_reset>:
10005a64:	b508      	push	{r3, lr}
10005a66:	f7fe fe1d 	bl	100046a4 <spin_locks_reset>
10005a6a:	bd08      	pop	{r3, pc}

10005a6c <runtime_init_install_ram_vector_table>:
10005a6c:	b538      	push	{r3, r4, r5, lr}
10005a6e:	4c05      	ldr	r4, [pc, #20]	@ (10005a84 <runtime_init_install_ram_vector_table+0x18>)
10005a70:	68a1      	ldr	r1, [r4, #8]
10005a72:	4d05      	ldr	r5, [pc, #20]	@ (10005a88 <runtime_init_install_ram_vector_table+0x1c>)
10005a74:	f44f 7288 	mov.w	r2, #272	@ 0x110
10005a78:	4628      	mov	r0, r5
10005a7a:	f001 fdc5 	bl	10007608 <memcpy>
10005a7e:	60a5      	str	r5, [r4, #8]
10005a80:	bd38      	pop	{r3, r4, r5, pc}
10005a82:	bf00      	nop
10005a84:	e000ed00 	.word	0xe000ed00
10005a88:	20000000 	.word	0x20000000

10005a8c <start_all_ticks>:
10005a8c:	b538      	push	{r3, r4, r5, lr}
10005a8e:	2004      	movs	r0, #4
10005a90:	f7fe fdaa 	bl	100045e8 <clock_get_hz>
10005a94:	4b06      	ldr	r3, [pc, #24]	@ (10005ab0 <start_all_ticks+0x24>)
10005a96:	fba3 3500 	umull	r3, r5, r3, r0
10005a9a:	0cad      	lsrs	r5, r5, #18
10005a9c:	2400      	movs	r4, #0
10005a9e:	e004      	b.n	10005aaa <start_all_ticks+0x1e>
10005aa0:	4629      	mov	r1, r5
10005aa2:	b2e0      	uxtb	r0, r4
10005aa4:	f7ff fd32 	bl	1000550c <tick_start>
10005aa8:	3401      	adds	r4, #1
10005aaa:	2c05      	cmp	r4, #5
10005aac:	ddf8      	ble.n	10005aa0 <start_all_ticks+0x14>
10005aae:	bd38      	pop	{r3, r4, r5, pc}
10005ab0:	431bde83 	.word	0x431bde83

10005ab4 <runtime_init_clocks>:
10005ab4:	b530      	push	{r4, r5, lr}
10005ab6:	b083      	sub	sp, #12
10005ab8:	4b26      	ldr	r3, [pc, #152]	@ (10005b54 <runtime_init_clocks+0xa0>)
10005aba:	2200      	movs	r2, #0
10005abc:	f8c3 2084 	str.w	r2, [r3, #132]	@ 0x84
10005ac0:	f7ff fd60 	bl	10005584 <xosc_init>
10005ac4:	4b24      	ldr	r3, [pc, #144]	@ (10005b58 <runtime_init_clocks+0xa4>)
10005ac6:	2201      	movs	r2, #1
10005ac8:	63da      	str	r2, [r3, #60]	@ 0x3c
10005aca:	4b22      	ldr	r3, [pc, #136]	@ (10005b54 <runtime_init_clocks+0xa0>)
10005acc:	6c5b      	ldr	r3, [r3, #68]	@ 0x44
10005ace:	2b01      	cmp	r3, #1
10005ad0:	d1fb      	bne.n	10005aca <runtime_init_clocks+0x16>
10005ad2:	4b21      	ldr	r3, [pc, #132]	@ (10005b58 <runtime_init_clocks+0xa4>)
10005ad4:	2203      	movs	r2, #3
10005ad6:	631a      	str	r2, [r3, #48]	@ 0x30
10005ad8:	4b1e      	ldr	r3, [pc, #120]	@ (10005b54 <runtime_init_clocks+0xa0>)
10005ada:	6b9b      	ldr	r3, [r3, #56]	@ 0x38
10005adc:	2b01      	cmp	r3, #1
10005ade:	d1fb      	bne.n	10005ad8 <runtime_init_clocks+0x24>
10005ae0:	2402      	movs	r4, #2
10005ae2:	9400      	str	r4, [sp, #0]
10005ae4:	2305      	movs	r3, #5
10005ae6:	4a1d      	ldr	r2, [pc, #116]	@ (10005b5c <runtime_init_clocks+0xa8>)
10005ae8:	2101      	movs	r1, #1
10005aea:	481d      	ldr	r0, [pc, #116]	@ (10005b60 <runtime_init_clocks+0xac>)
10005aec:	f7ff fc8a 	bl	10005404 <pll_init>
10005af0:	2505      	movs	r5, #5
10005af2:	9500      	str	r5, [sp, #0]
10005af4:	462b      	mov	r3, r5
10005af6:	4a1b      	ldr	r2, [pc, #108]	@ (10005b64 <runtime_init_clocks+0xb0>)
10005af8:	2101      	movs	r1, #1
10005afa:	481b      	ldr	r0, [pc, #108]	@ (10005b68 <runtime_init_clocks+0xb4>)
10005afc:	f7ff fc82 	bl	10005404 <pll_init>
10005b00:	4b1a      	ldr	r3, [pc, #104]	@ (10005b6c <runtime_init_clocks+0xb8>)
10005b02:	2200      	movs	r2, #0
10005b04:	4621      	mov	r1, r4
10005b06:	2004      	movs	r0, #4
10005b08:	f7fe fd64 	bl	100045d4 <clock_configure_undivided>
10005b0c:	4c18      	ldr	r4, [pc, #96]	@ (10005b70 <runtime_init_clocks+0xbc>)
10005b0e:	4623      	mov	r3, r4
10005b10:	2200      	movs	r2, #0
10005b12:	2101      	movs	r1, #1
10005b14:	4628      	mov	r0, r5
10005b16:	f7fe fd5d 	bl	100045d4 <clock_configure_undivided>
10005b1a:	4d16      	ldr	r5, [pc, #88]	@ (10005b74 <runtime_init_clocks+0xc0>)
10005b1c:	462b      	mov	r3, r5
10005b1e:	2200      	movs	r2, #0
10005b20:	4611      	mov	r1, r2
10005b22:	2008      	movs	r0, #8
10005b24:	f7fe fd56 	bl	100045d4 <clock_configure_undivided>
10005b28:	462b      	mov	r3, r5
10005b2a:	2200      	movs	r2, #0
10005b2c:	4611      	mov	r1, r2
10005b2e:	2009      	movs	r0, #9
10005b30:	f7fe fd50 	bl	100045d4 <clock_configure_undivided>
10005b34:	4623      	mov	r3, r4
10005b36:	2200      	movs	r2, #0
10005b38:	4611      	mov	r1, r2
10005b3a:	2006      	movs	r0, #6
10005b3c:	f7fe fd4a 	bl	100045d4 <clock_configure_undivided>
10005b40:	4623      	mov	r3, r4
10005b42:	2200      	movs	r2, #0
10005b44:	4611      	mov	r1, r2
10005b46:	2007      	movs	r0, #7
10005b48:	f7fe fd44 	bl	100045d4 <clock_configure_undivided>
10005b4c:	f7ff ff9e 	bl	10005a8c <start_all_ticks>
10005b50:	b003      	add	sp, #12
10005b52:	bd30      	pop	{r4, r5, pc}
10005b54:	40010000 	.word	0x40010000
10005b58:	40013000 	.word	0x40013000
10005b5c:	59682f00 	.word	0x59682f00
10005b60:	40050000 	.word	0x40050000
10005b64:	47868c00 	.word	0x47868c00
10005b68:	40058000 	.word	0x40058000
10005b6c:	00b71b00 	.word	0x00b71b00
10005b70:	08f0d180 	.word	0x08f0d180
10005b74:	02dc6c00 	.word	0x02dc6c00

10005b78 <generic_save_state>:
10005b78:	b086      	sub	sp, #24
10005b7a:	b403      	push	{r0, r1}
10005b7c:	fc51 0408 	dcp_pxmd r0, r1
10005b80:	e9cd 0102 	strd	r0, r1, [sp, #8]
10005b84:	fc51 0409 	dcp_pymd r0, r1
10005b88:	e9cd 0104 	strd	r0, r1, [sp, #16]
10005b8c:	ec51 040a 	dcp_refd r0, r1
10005b90:	e9cd 0106 	strd	r0, r1, [sp, #24]
10005b94:	bc03      	pop	{r0, r1}
10005b96:	47f0      	blx	lr

10005b98 <generic_restore_state>:
10005b98:	e8bd 5000 	ldmia.w	sp!, {ip, lr}
10005b9c:	ec4e c400 	dcp_wxmd ip, lr
10005ba0:	e8bd 5000 	ldmia.w	sp!, {ip, lr}
10005ba4:	ec4e c401 	dcp_wymd ip, lr
10005ba8:	e8bd 5000 	ldmia.w	sp!, {ip, lr}
10005bac:	ec4e c402 	dcp_wefd ip, lr
10005bb0:	bd00      	pop	{pc}
10005bb2:	0000      	movs	r0, r0
10005bb4:	b500      	push	{lr}
10005bb6:	f7ff ffdf 	bl	10005b78 <generic_save_state>
10005bba:	e002      	b.n	10005bc2 <__wrap___aeabi_dadd+0x6>

10005bbc <__wrap___aeabi_dadd>:
10005bbc:	fe10 f430 	dcp_pcmp APSR_nzcv
10005bc0:	d4f8      	bmi.n	10005bb4 <generic_restore_state+0x1c>
10005bc2:	ec41 0410 	dcp_wxup r0, r1
10005bc6:	ec43 2411 	dcp_wyup r2, r3
10005bca:	ee00 0401 	dcp_add0
10005bce:	ee10 0401 	dcp_add1
10005bd2:	ee80 0420 	dcp_nrdd
10005bd6:	ec51 0410 	dcp_rdda r0, r1
10005bda:	4770      	bx	lr
10005bdc:	b500      	push	{lr}
10005bde:	f7ff ffcb 	bl	10005b78 <generic_save_state>
10005be2:	e002      	b.n	10005bea <__wrap___aeabi_dsub+0x6>

10005be4 <__wrap___aeabi_dsub>:
10005be4:	fe10 f430 	dcp_pcmp APSR_nzcv
10005be8:	d4f8      	bmi.n	10005bdc <__wrap___aeabi_dadd+0x20>
10005bea:	ec41 0410 	dcp_wxup r0, r1
10005bee:	ec43 2411 	dcp_wyup r2, r3
10005bf2:	ee00 0401 	dcp_add0
10005bf6:	ee10 0421 	dcp_sub1
10005bfa:	ee80 0420 	dcp_nrdd
10005bfe:	ec51 0430 	dcp_rdds r0, r1
10005c02:	4770      	bx	lr
10005c04:	b500      	push	{lr}
10005c06:	f7ff ffb7 	bl	10005b78 <generic_save_state>
10005c0a:	e002      	b.n	10005c12 <__wrap___aeabi_dmul+0x6>

10005c0c <__wrap___aeabi_dmul>:
10005c0c:	fe10 f430 	dcp_pcmp APSR_nzcv
10005c10:	d4f8      	bmi.n	10005c04 <__wrap___aeabi_dsub+0x20>
10005c12:	b510      	push	{r4, lr}
10005c14:	ec41 0410 	dcp_wxup r0, r1
10005c18:	ec43 2411 	dcp_wyup r2, r3
10005c1c:	ec51 0404 	dcp_rxms r0, r1, #0x0
10005c20:	ec53 2405 	dcp_ryms r2, r3, #0x0
10005c24:	fba0 4c02 	umull	r4, ip, r0, r2
10005c28:	f05f 0e00 	movs.w	lr, #0
10005c2c:	fbe0 ce03 	umlal	ip, lr, r0, r3
10005c30:	fbe1 ce02 	umlal	ip, lr, r1, r2
10005c34:	ec4c 4420 	dcp_wxms r4, ip
10005c38:	2400      	movs	r4, #0
10005c3a:	fbe1 e403 	umlal	lr, r4, r1, r3
10005c3e:	ec44 e430 	dcp_wxmo lr, r4
10005c42:	ee80 0420 	dcp_nrdd
10005c46:	ec51 0450 	dcp_rddm r0, r1
10005c4a:	e8bd 4010 	ldmia.w	sp!, {r4, lr}
10005c4e:	4770      	bx	lr
10005c50:	b500      	push	{lr}
10005c52:	f7ff ff91 	bl	10005b78 <generic_save_state>
10005c56:	e002      	b.n	10005c5e <__wrap___aeabi_ddiv+0x6>

10005c58 <__wrap___aeabi_ddiv>:
10005c58:	fe10 f430 	dcp_pcmp APSR_nzcv
10005c5c:	d4f8      	bmi.n	10005c50 <__wrap___aeabi_dmul+0x44>
10005c5e:	ec41 0410 	dcp_wxup r0, r1
10005c62:	ec43 2411 	dcp_wyup r2, r3
10005c66:	ec51 0421 	dcp_rymr r0, r1
10005c6a:	fba0 1201 	umull	r1, r2, r0, r1
10005c6e:	ea6f 0282 	mvn.w	r2, r2, lsl #2
10005c72:	fb52 0010 	smmlar	r0, r2, r0, r0
10005c76:	fb52 f212 	smmulr	r2, r2, r2
10005c7a:	fb52 0010 	smmlar	r0, r2, r0, r0
10005c7e:	eba0 7cd0 	sub.w	ip, r0, r0, lsr #31
10005c82:	ec53 2404 	dcp_rxms r2, r3, #0x0
10005c86:	fb5c f113 	smmulr	r1, ip, r3
10005c8a:	ec53 2415 	dcp_ryms r2, r3, #0x1
10005c8e:	fba1 2002 	umull	r2, r0, r1, r2
10005c92:	fb01 0003 	mla	r0, r1, r3, r0
10005c96:	ec53 2444 	dcp_rxms r2, r3, #0x4
10005c9a:	eba2 0000 	sub.w	r0, r2, r0
10005c9e:	fb50 f21c 	smmulr	r2, r0, ip
10005ca2:	ea4f 1311 	mov.w	r3, r1, lsr #4
10005ca6:	eb12 7001 	adds.w	r0, r2, r1, lsl #28
10005caa:	eb43 71e2 	adc.w	r1, r3, r2, asr #31
10005cae:	ea40 5051 	orr.w	r0, r0, r1, lsr #21
10005cb2:	ea20 5091 	bic.w	r0, r0, r1, lsr #22
10005cb6:	f020 0007 	bic.w	r0, r0, #7
10005cba:	ec53 2475 	dcp_ryms r2, r3, #0x7
10005cbe:	fba0 3c02 	umull	r3, ip, r0, r2
10005cc2:	ec53 2475 	dcp_ryms r2, r3, #0x7
10005cc6:	fb00 cc03 	mla	ip, r0, r3, ip
10005cca:	fb01 cc02 	mla	ip, r1, r2, ip
10005cce:	ec53 2404 	dcp_rxms r2, r3, #0x0
10005cd2:	ebac 4c82 	sub.w	ip, ip, r2, lsl #18
10005cd6:	ea40 705c 	orr.w	r0, r0, ip, lsr #29
10005cda:	f1a0 0001 	sub.w	r0, r0, #1
10005cde:	ec41 0440 	dcp_wxdd r0, r1
10005ce2:	ee80 0420 	dcp_nrdd
10005ce6:	ec51 0470 	dcp_rddd r0, r1
10005cea:	4770      	bx	lr
10005cec:	b500      	push	{lr}
10005cee:	f7ff ff43 	bl	10005b78 <generic_save_state>
10005cf2:	e002      	b.n	10005cfa <__wrap___aeabi_i2d+0x6>

10005cf4 <__wrap___aeabi_i2d>:
10005cf4:	fe10 f430 	dcp_pcmp APSR_nzcv
10005cf8:	d4f8      	bmi.n	10005cec <__wrap___aeabi_ddiv+0x94>
10005cfa:	ec40 0470 	dcp_wxic r0, r0
10005cfe:	ee00 0401 	dcp_add0
10005d02:	ee10 0421 	dcp_sub1
10005d06:	ee80 0420 	dcp_nrdd
10005d0a:	ec51 0430 	dcp_rdds r0, r1
10005d0e:	4770      	bx	lr
10005d10:	b500      	push	{lr}
10005d12:	f7ff ff31 	bl	10005b78 <generic_save_state>
10005d16:	e002      	b.n	10005d1e <__wrap___aeabi_ui2d+0x6>

10005d18 <__wrap___aeabi_ui2d>:
10005d18:	fe10 f430 	dcp_pcmp APSR_nzcv
10005d1c:	d4f8      	bmi.n	10005d10 <__wrap___aeabi_i2d+0x1c>
10005d1e:	ec40 0460 	dcp_wxuc r0, r0
10005d22:	ee00 0401 	dcp_add0
10005d26:	ee10 0421 	dcp_sub1
10005d2a:	ee80 0420 	dcp_nrdd
10005d2e:	ec51 0430 	dcp_rdds r0, r1
10005d32:	4770      	bx	lr
10005d34:	b500      	push	{lr}
10005d36:	f7ff ff1f 	bl	10005b78 <generic_save_state>
10005d3a:	e002      	b.n	10005d42 <__wrap___aeabi_d2iz+0x6>

10005d3c <__wrap___aeabi_d2iz>:
10005d3c:	fe10 f430 	dcp_pcmp APSR_nzcv
10005d40:	d4f8      	bmi.n	10005d34 <__wrap___aeabi_ui2d+0x1c>
10005d42:	ec41 0480 	dcp_wxdc r0, r1
10005d46:	ee00 0401 	dcp_add0
10005d4a:	ee10 0401 	dcp_add1
10005d4e:	ee80 0440 	dcp_ntdc
10005d52:	ee10 0413 	dcp_rdic r0
10005d56:	4770      	bx	lr
10005d58:	b500      	push	{lr}
10005d5a:	f7ff ff0d 	bl	10005b78 <generic_save_state>
10005d5e:	e002      	b.n	10005d66 <__wrap___aeabi_d2uiz+0x6>

10005d60 <__wrap___aeabi_d2uiz>:
10005d60:	fe10 f430 	dcp_pcmp APSR_nzcv
10005d64:	d4f8      	bmi.n	10005d58 <__wrap___aeabi_d2iz+0x1c>
10005d66:	ec41 0480 	dcp_wxdc r0, r1
10005d6a:	ee00 0401 	dcp_add0
10005d6e:	ee10 0401 	dcp_add1
10005d72:	ee80 0440 	dcp_ntdc
10005d76:	ee10 0433 	dcp_rduc r0
10005d7a:	4770      	bx	lr
10005d7c:	b500      	push	{lr}
10005d7e:	f7ff fefb 	bl	10005b78 <generic_save_state>
10005d82:	e002      	b.n	10005d8a <__wrap___aeabi_dcmpun+0x6>

10005d84 <__wrap___aeabi_dcmpun>:
10005d84:	fe10 f430 	dcp_pcmp APSR_nzcv
10005d88:	d4f8      	bmi.n	10005d7c <__wrap___aeabi_d2uiz+0x1c>
10005d8a:	ec41 0410 	dcp_wxup r0, r1
10005d8e:	ec43 2411 	dcp_wyup r2, r3
10005d92:	ee00 0401 	dcp_add0
10005d96:	ee10 0430 	dcp_rcmp r0
10005d9a:	f3c0 7000 	ubfx	r0, r0, #28, #1
10005d9e:	4770      	bx	lr
10005da0:	b500      	push	{lr}
10005da2:	f7ff fee9 	bl	10005b78 <generic_save_state>
10005da6:	e002      	b.n	10005dae <__wrap___aeabi_dcmplt+0x6>

10005da8 <__wrap___aeabi_dcmplt>:
10005da8:	fe10 f430 	dcp_pcmp APSR_nzcv
10005dac:	d4f8      	bmi.n	10005da0 <__wrap___aeabi_dcmpun+0x1c>
10005dae:	ec43 2410 	dcp_wxup r2, r3
10005db2:	ec41 0411 	dcp_wyup r0, r1
10005db6:	ee00 0401 	dcp_add0
10005dba:	ee10 f430 	dcp_rcmp APSR_nzcv
10005dbe:	bf8c      	ite	hi
10005dc0:	2001      	movhi	r0, #1
10005dc2:	2000      	movls	r0, #0
10005dc4:	4770      	bx	lr
10005dc6:	bf00      	nop
10005dc8:	b500      	push	{lr}
10005dca:	f7ff fed5 	bl	10005b78 <generic_save_state>
10005dce:	e002      	b.n	10005dd6 <__wrap___aeabi_dcmple+0x6>

10005dd0 <__wrap___aeabi_dcmple>:
10005dd0:	fe10 f430 	dcp_pcmp APSR_nzcv
10005dd4:	d4f8      	bmi.n	10005dc8 <__wrap___aeabi_dcmplt+0x20>
10005dd6:	ec43 2410 	dcp_wxup r2, r3
10005dda:	ec41 0411 	dcp_wyup r0, r1
10005dde:	ee00 0401 	dcp_add0
10005de2:	ee10 f430 	dcp_rcmp APSR_nzcv
10005de6:	bf2c      	ite	cs
10005de8:	2001      	movcs	r0, #1
10005dea:	2000      	movcc	r0, #0
10005dec:	4770      	bx	lr
10005dee:	bf00      	nop
10005df0:	b500      	push	{lr}
10005df2:	f7ff fec1 	bl	10005b78 <generic_save_state>
10005df6:	e002      	b.n	10005dfe <__wrap___aeabi_dcmpge+0x6>

10005df8 <__wrap___aeabi_dcmpge>:
10005df8:	fe10 f430 	dcp_pcmp APSR_nzcv
10005dfc:	d4f8      	bmi.n	10005df0 <__wrap___aeabi_dcmple+0x20>
10005dfe:	ec41 0410 	dcp_wxup r0, r1
10005e02:	ec43 2411 	dcp_wyup r2, r3
10005e06:	ee00 0401 	dcp_add0
10005e0a:	ee10 f430 	dcp_rcmp APSR_nzcv
10005e0e:	bf2c      	ite	cs
10005e10:	2001      	movcs	r0, #1
10005e12:	2000      	movcc	r0, #0
10005e14:	4770      	bx	lr
10005e16:	bf00      	nop
10005e18:	b500      	push	{lr}
10005e1a:	f7ff fead 	bl	10005b78 <generic_save_state>
10005e1e:	e002      	b.n	10005e26 <__wrap___aeabi_dcmpgt+0x6>

10005e20 <__wrap___aeabi_dcmpgt>:
10005e20:	fe10 f430 	dcp_pcmp APSR_nzcv
10005e24:	d4f8      	bmi.n	10005e18 <__wrap___aeabi_dcmpge+0x20>
10005e26:	ec41 0410 	dcp_wxup r0, r1
10005e2a:	ec43 2411 	dcp_wyup r2, r3
10005e2e:	ee00 0401 	dcp_add0
10005e32:	ee10 f430 	dcp_rcmp APSR_nzcv
10005e36:	bf8c      	ite	hi
10005e38:	2001      	movhi	r0, #1
10005e3a:	2000      	movls	r0, #0
10005e3c:	4770      	bx	lr
10005e3e:	bf00      	nop

10005e40 <_out_null>:
10005e40:	4770      	bx	lr

10005e42 <_out_fct>:
10005e42:	b120      	cbz	r0, 10005e4e <_out_fct+0xc>
10005e44:	b508      	push	{r3, lr}
10005e46:	680a      	ldr	r2, [r1, #0]
10005e48:	6849      	ldr	r1, [r1, #4]
10005e4a:	4790      	blx	r2
10005e4c:	bd08      	pop	{r3, pc}
10005e4e:	4770      	bx	lr

10005e50 <_atoi>:
10005e50:	4601      	mov	r1, r0
10005e52:	2000      	movs	r0, #0
10005e54:	e008      	b.n	10005e68 <_atoi+0x18>
10005e56:	eb00 0080 	add.w	r0, r0, r0, lsl #2
10005e5a:	1c53      	adds	r3, r2, #1
10005e5c:	600b      	str	r3, [r1, #0]
10005e5e:	7813      	ldrb	r3, [r2, #0]
10005e60:	eb03 0340 	add.w	r3, r3, r0, lsl #1
10005e64:	f1a3 0030 	sub.w	r0, r3, #48	@ 0x30
10005e68:	680a      	ldr	r2, [r1, #0]
10005e6a:	7813      	ldrb	r3, [r2, #0]
10005e6c:	3b30      	subs	r3, #48	@ 0x30
10005e6e:	b2db      	uxtb	r3, r3
10005e70:	2b09      	cmp	r3, #9
10005e72:	d9f0      	bls.n	10005e56 <_atoi+0x6>
10005e74:	4770      	bx	lr

10005e76 <_out_rev>:
10005e76:	e92d 4ff0 	stmdb	sp!, {r4, r5, r6, r7, r8, r9, sl, fp, lr}
10005e7a:	b083      	sub	sp, #12
10005e7c:	4605      	mov	r5, r0
10005e7e:	460e      	mov	r6, r1
10005e80:	4693      	mov	fp, r2
10005e82:	461f      	mov	r7, r3
10005e84:	f8dd a030 	ldr.w	sl, [sp, #48]	@ 0x30
10005e88:	9c0d      	ldr	r4, [sp, #52]	@ 0x34
10005e8a:	f8dd 9038 	ldr.w	r9, [sp, #56]	@ 0x38
10005e8e:	9b0f      	ldr	r3, [sp, #60]	@ 0x3c
10005e90:	f013 0f03 	tst.w	r3, #3
10005e94:	d119      	bne.n	10005eca <_out_rev+0x54>
10005e96:	46a0      	mov	r8, r4
10005e98:	9201      	str	r2, [sp, #4]
10005e9a:	45c8      	cmp	r8, r9
10005e9c:	d209      	bcs.n	10005eb2 <_out_rev+0x3c>
10005e9e:	f102 0b01 	add.w	fp, r2, #1
10005ea2:	463b      	mov	r3, r7
10005ea4:	4631      	mov	r1, r6
10005ea6:	2020      	movs	r0, #32
10005ea8:	47a8      	blx	r5
10005eaa:	f108 0801 	add.w	r8, r8, #1
10005eae:	465a      	mov	r2, fp
10005eb0:	e7f3      	b.n	10005e9a <_out_rev+0x24>
10005eb2:	f8dd b004 	ldr.w	fp, [sp, #4]
10005eb6:	e008      	b.n	10005eca <_out_rev+0x54>
10005eb8:	3c01      	subs	r4, #1
10005eba:	f102 0801 	add.w	r8, r2, #1
10005ebe:	463b      	mov	r3, r7
10005ec0:	4631      	mov	r1, r6
10005ec2:	f81a 0004 	ldrb.w	r0, [sl, r4]
10005ec6:	47a8      	blx	r5
10005ec8:	4642      	mov	r2, r8
10005eca:	2c00      	cmp	r4, #0
10005ecc:	d1f4      	bne.n	10005eb8 <_out_rev+0x42>
10005ece:	9b0f      	ldr	r3, [sp, #60]	@ 0x3c
10005ed0:	f013 0f02 	tst.w	r3, #2
10005ed4:	d103      	bne.n	10005ede <_out_rev+0x68>
10005ed6:	4610      	mov	r0, r2
10005ed8:	b003      	add	sp, #12
10005eda:	e8bd 8ff0 	ldmia.w	sp!, {r4, r5, r6, r7, r8, r9, sl, fp, pc}
10005ede:	eba2 030b 	sub.w	r3, r2, fp
10005ee2:	454b      	cmp	r3, r9
10005ee4:	d2f7      	bcs.n	10005ed6 <_out_rev+0x60>
10005ee6:	1c54      	adds	r4, r2, #1
10005ee8:	463b      	mov	r3, r7
10005eea:	4631      	mov	r1, r6
10005eec:	2020      	movs	r0, #32
10005eee:	47a8      	blx	r5
10005ef0:	4622      	mov	r2, r4
10005ef2:	e7f4      	b.n	10005ede <_out_rev+0x68>

10005ef4 <_ntoa_format>:
10005ef4:	e92d 43f0 	stmdb	sp!, {r4, r5, r6, r7, r8, r9, lr}
10005ef8:	b085      	sub	sp, #20
10005efa:	4699      	mov	r9, r3
10005efc:	9d0c      	ldr	r5, [sp, #48]	@ 0x30
10005efe:	9c0d      	ldr	r4, [sp, #52]	@ 0x34
10005f00:	f89d 8038 	ldrb.w	r8, [sp, #56]	@ 0x38
10005f04:	f8dd e040 	ldr.w	lr, [sp, #64]	@ 0x40
10005f08:	9f11      	ldr	r7, [sp, #68]	@ 0x44
10005f0a:	9e12      	ldr	r6, [sp, #72]	@ 0x48
10005f0c:	f016 0f02 	tst.w	r6, #2
10005f10:	d121      	bne.n	10005f56 <_ntoa_format+0x62>
10005f12:	b17f      	cbz	r7, 10005f34 <_ntoa_format+0x40>
10005f14:	f016 0f01 	tst.w	r6, #1
10005f18:	d00c      	beq.n	10005f34 <_ntoa_format+0x40>
10005f1a:	f1b8 0f00 	cmp.w	r8, #0
10005f1e:	d102      	bne.n	10005f26 <_ntoa_format+0x32>
10005f20:	f016 0f0c 	tst.w	r6, #12
10005f24:	d006      	beq.n	10005f34 <_ntoa_format+0x40>
10005f26:	3f01      	subs	r7, #1
10005f28:	e004      	b.n	10005f34 <_ntoa_format+0x40>
10005f2a:	f04f 0c30 	mov.w	ip, #48	@ 0x30
10005f2e:	f805 c004 	strb.w	ip, [r5, r4]
10005f32:	3401      	adds	r4, #1
10005f34:	4574      	cmp	r4, lr
10005f36:	d201      	bcs.n	10005f3c <_ntoa_format+0x48>
10005f38:	2c1f      	cmp	r4, #31
10005f3a:	d9f6      	bls.n	10005f2a <_ntoa_format+0x36>
10005f3c:	f016 0f01 	tst.w	r6, #1
10005f40:	d009      	beq.n	10005f56 <_ntoa_format+0x62>
10005f42:	42bc      	cmp	r4, r7
10005f44:	d207      	bcs.n	10005f56 <_ntoa_format+0x62>
10005f46:	2c1f      	cmp	r4, #31
10005f48:	d805      	bhi.n	10005f56 <_ntoa_format+0x62>
10005f4a:	f04f 0c30 	mov.w	ip, #48	@ 0x30
10005f4e:	f805 c004 	strb.w	ip, [r5, r4]
10005f52:	3401      	adds	r4, #1
10005f54:	e7f2      	b.n	10005f3c <_ntoa_format+0x48>
10005f56:	f016 0f10 	tst.w	r6, #16
10005f5a:	d014      	beq.n	10005f86 <_ntoa_format+0x92>
10005f5c:	f416 6f80 	tst.w	r6, #1024	@ 0x400
10005f60:	d104      	bne.n	10005f6c <_ntoa_format+0x78>
10005f62:	b11c      	cbz	r4, 10005f6c <_ntoa_format+0x78>
10005f64:	4574      	cmp	r4, lr
10005f66:	d022      	beq.n	10005fae <_ntoa_format+0xba>
10005f68:	42bc      	cmp	r4, r7
10005f6a:	d020      	beq.n	10005fae <_ntoa_format+0xba>
10005f6c:	9b0f      	ldr	r3, [sp, #60]	@ 0x3c
10005f6e:	2b10      	cmp	r3, #16
10005f70:	d036      	beq.n	10005fe0 <_ntoa_format+0xec>
10005f72:	9b0f      	ldr	r3, [sp, #60]	@ 0x3c
10005f74:	2b02      	cmp	r3, #2
10005f76:	d03e      	beq.n	10005ff6 <_ntoa_format+0x102>
10005f78:	2c1f      	cmp	r4, #31
10005f7a:	d80e      	bhi.n	10005f9a <_ntoa_format+0xa6>
10005f7c:	f04f 0c30 	mov.w	ip, #48	@ 0x30
10005f80:	f805 c004 	strb.w	ip, [r5, r4]
10005f84:	3401      	adds	r4, #1
10005f86:	2c1f      	cmp	r4, #31
10005f88:	d807      	bhi.n	10005f9a <_ntoa_format+0xa6>
10005f8a:	f1b8 0f00 	cmp.w	r8, #0
10005f8e:	d03a      	beq.n	10006006 <_ntoa_format+0x112>
10005f90:	f04f 0c2d 	mov.w	ip, #45	@ 0x2d
10005f94:	f805 c004 	strb.w	ip, [r5, r4]
10005f98:	3401      	adds	r4, #1
10005f9a:	9603      	str	r6, [sp, #12]
10005f9c:	9702      	str	r7, [sp, #8]
10005f9e:	9401      	str	r4, [sp, #4]
10005fa0:	9500      	str	r5, [sp, #0]
10005fa2:	464b      	mov	r3, r9
10005fa4:	f7ff ff67 	bl	10005e76 <_out_rev>
10005fa8:	b005      	add	sp, #20
10005faa:	e8bd 83f0 	ldmia.w	sp!, {r4, r5, r6, r7, r8, r9, pc}
10005fae:	f1b4 0c01 	subs.w	ip, r4, #1
10005fb2:	d013      	beq.n	10005fdc <_ntoa_format+0xe8>
10005fb4:	9b0f      	ldr	r3, [sp, #60]	@ 0x3c
10005fb6:	2b10      	cmp	r3, #16
10005fb8:	d00e      	beq.n	10005fd8 <_ntoa_format+0xe4>
10005fba:	4664      	mov	r4, ip
10005fbc:	9b0f      	ldr	r3, [sp, #60]	@ 0x3c
10005fbe:	2b10      	cmp	r3, #16
10005fc0:	d1d7      	bne.n	10005f72 <_ntoa_format+0x7e>
10005fc2:	f016 0f20 	tst.w	r6, #32
10005fc6:	d0d4      	beq.n	10005f72 <_ntoa_format+0x7e>
10005fc8:	2c1f      	cmp	r4, #31
10005fca:	d8d2      	bhi.n	10005f72 <_ntoa_format+0x7e>
10005fcc:	f04f 0c58 	mov.w	ip, #88	@ 0x58
10005fd0:	f805 c004 	strb.w	ip, [r5, r4]
10005fd4:	3401      	adds	r4, #1
10005fd6:	e7cf      	b.n	10005f78 <_ntoa_format+0x84>
10005fd8:	3c02      	subs	r4, #2
10005fda:	e7c7      	b.n	10005f6c <_ntoa_format+0x78>
10005fdc:	4664      	mov	r4, ip
10005fde:	e7c5      	b.n	10005f6c <_ntoa_format+0x78>
10005fe0:	f016 0f20 	tst.w	r6, #32
10005fe4:	d1ea      	bne.n	10005fbc <_ntoa_format+0xc8>
10005fe6:	2c1f      	cmp	r4, #31
10005fe8:	d8e8      	bhi.n	10005fbc <_ntoa_format+0xc8>
10005fea:	f04f 0c78 	mov.w	ip, #120	@ 0x78
10005fee:	f805 c004 	strb.w	ip, [r5, r4]
10005ff2:	3401      	adds	r4, #1
10005ff4:	e7c0      	b.n	10005f78 <_ntoa_format+0x84>
10005ff6:	2c1f      	cmp	r4, #31
10005ff8:	d8cf      	bhi.n	10005f9a <_ntoa_format+0xa6>
10005ffa:	f04f 0c62 	mov.w	ip, #98	@ 0x62
10005ffe:	f805 c004 	strb.w	ip, [r5, r4]
10006002:	3401      	adds	r4, #1
10006004:	e7b8      	b.n	10005f78 <_ntoa_format+0x84>
10006006:	f016 0f04 	tst.w	r6, #4
1000600a:	d005      	beq.n	10006018 <_ntoa_format+0x124>
1000600c:	f04f 0c2b 	mov.w	ip, #43	@ 0x2b
10006010:	f805 c004 	strb.w	ip, [r5, r4]
10006014:	3401      	adds	r4, #1
10006016:	e7c0      	b.n	10005f9a <_ntoa_format+0xa6>
10006018:	f016 0f08 	tst.w	r6, #8
1000601c:	d0bd      	beq.n	10005f9a <_ntoa_format+0xa6>
1000601e:	f04f 0c20 	mov.w	ip, #32
10006022:	f805 c004 	strb.w	ip, [r5, r4]
10006026:	3401      	adds	r4, #1
10006028:	e7b7      	b.n	10005f9a <_ntoa_format+0xa6>

1000602a <_ntoa_long>:
1000602a:	b5f0      	push	{r4, r5, r6, r7, lr}
1000602c:	b091      	sub	sp, #68	@ 0x44
1000602e:	9c16      	ldr	r4, [sp, #88]	@ 0x58
10006030:	9d18      	ldr	r5, [sp, #96]	@ 0x60
10006032:	9e1b      	ldr	r6, [sp, #108]	@ 0x6c
10006034:	b90c      	cbnz	r4, 1000603a <_ntoa_long+0x10>
10006036:	f026 0610 	bic.w	r6, r6, #16
1000603a:	f416 6e80 	ands.w	lr, r6, #1024	@ 0x400
1000603e:	d016      	beq.n	1000606e <_ntoa_long+0x44>
10006040:	b364      	cbz	r4, 1000609c <_ntoa_long+0x72>
10006042:	f04f 0e00 	mov.w	lr, #0
10006046:	e012      	b.n	1000606e <_ntoa_long+0x44>
10006048:	f10c 0c30 	add.w	ip, ip, #48	@ 0x30
1000604c:	fa5f fc8c 	uxtb.w	ip, ip
10006050:	f10e 0701 	add.w	r7, lr, #1
10006054:	f10e 0e40 	add.w	lr, lr, #64	@ 0x40
10006058:	44ee      	add	lr, sp
1000605a:	f80e cc20 	strb.w	ip, [lr, #-32]
1000605e:	fbb4 fcf5 	udiv	ip, r4, r5
10006062:	42ac      	cmp	r4, r5
10006064:	d31b      	bcc.n	1000609e <_ntoa_long+0x74>
10006066:	2f1f      	cmp	r7, #31
10006068:	d819      	bhi.n	1000609e <_ntoa_long+0x74>
1000606a:	46be      	mov	lr, r7
1000606c:	4664      	mov	r4, ip
1000606e:	fbb4 fcf5 	udiv	ip, r4, r5
10006072:	fb05 4c1c 	mls	ip, r5, ip, r4
10006076:	fa5f fc8c 	uxtb.w	ip, ip
1000607a:	f1bc 0f09 	cmp.w	ip, #9
1000607e:	d9e3      	bls.n	10006048 <_ntoa_long+0x1e>
10006080:	f016 0f20 	tst.w	r6, #32
10006084:	d008      	beq.n	10006098 <_ntoa_long+0x6e>
10006086:	2741      	movs	r7, #65	@ 0x41
10006088:	44bc      	add	ip, r7
1000608a:	fa5f fc8c 	uxtb.w	ip, ip
1000608e:	f1ac 0c0a 	sub.w	ip, ip, #10
10006092:	fa5f fc8c 	uxtb.w	ip, ip
10006096:	e7db      	b.n	10006050 <_ntoa_long+0x26>
10006098:	2761      	movs	r7, #97	@ 0x61
1000609a:	e7f5      	b.n	10006088 <_ntoa_long+0x5e>
1000609c:	4627      	mov	r7, r4
1000609e:	9606      	str	r6, [sp, #24]
100060a0:	9c1a      	ldr	r4, [sp, #104]	@ 0x68
100060a2:	9405      	str	r4, [sp, #20]
100060a4:	9c19      	ldr	r4, [sp, #100]	@ 0x64
100060a6:	9404      	str	r4, [sp, #16]
100060a8:	9503      	str	r5, [sp, #12]
100060aa:	f89d 405c 	ldrb.w	r4, [sp, #92]	@ 0x5c
100060ae:	9402      	str	r4, [sp, #8]
100060b0:	9701      	str	r7, [sp, #4]
100060b2:	ac08      	add	r4, sp, #32
100060b4:	9400      	str	r4, [sp, #0]
100060b6:	f7ff ff1d 	bl	10005ef4 <_ntoa_format>
100060ba:	b011      	add	sp, #68	@ 0x44
100060bc:	bdf0      	pop	{r4, r5, r6, r7, pc}

100060be <_ntoa_long_long>:
100060be:	e92d 4ff0 	stmdb	sp!, {r4, r5, r6, r7, r8, r9, sl, fp, lr}
100060c2:	b095      	sub	sp, #84	@ 0x54
100060c4:	9009      	str	r0, [sp, #36]	@ 0x24
100060c6:	910a      	str	r1, [sp, #40]	@ 0x28
100060c8:	920b      	str	r2, [sp, #44]	@ 0x2c
100060ca:	4698      	mov	r8, r3
100060cc:	f8dd b078 	ldr.w	fp, [sp, #120]	@ 0x78
100060d0:	f8dd 907c 	ldr.w	r9, [sp, #124]	@ 0x7c
100060d4:	9d22      	ldr	r5, [sp, #136]	@ 0x88
100060d6:	9f23      	ldr	r7, [sp, #140]	@ 0x8c
100060d8:	9e26      	ldr	r6, [sp, #152]	@ 0x98
100060da:	ea5b 0209 	orrs.w	r2, fp, r9
100060de:	d101      	bne.n	100060e4 <_ntoa_long_long+0x26>
100060e0:	f026 0610 	bic.w	r6, r6, #16
100060e4:	f416 6480 	ands.w	r4, r6, #1024	@ 0x400
100060e8:	d01e      	beq.n	10006128 <_ntoa_long_long+0x6a>
100060ea:	ea5b 0209 	orrs.w	r2, fp, r9
100060ee:	d02f      	beq.n	10006150 <_ntoa_long_long+0x92>
100060f0:	2400      	movs	r4, #0
100060f2:	e019      	b.n	10006128 <_ntoa_long_long+0x6a>
100060f4:	3230      	adds	r2, #48	@ 0x30
100060f6:	b2d3      	uxtb	r3, r2
100060f8:	f104 0a01 	add.w	sl, r4, #1
100060fc:	f104 0250 	add.w	r2, r4, #80	@ 0x50
10006100:	eb0d 0402 	add.w	r4, sp, r2
10006104:	f804 3c20 	strb.w	r3, [r4, #-32]
10006108:	462a      	mov	r2, r5
1000610a:	463b      	mov	r3, r7
1000610c:	4658      	mov	r0, fp
1000610e:	4649      	mov	r1, r9
10006110:	f001 fb22 	bl	10007758 <____aeabi_uldivmod_veneer>
10006114:	45ab      	cmp	fp, r5
10006116:	eb79 0907 	sbcs.w	r9, r9, r7
1000611a:	d31b      	bcc.n	10006154 <_ntoa_long_long+0x96>
1000611c:	f1ba 0f1f 	cmp.w	sl, #31
10006120:	d818      	bhi.n	10006154 <_ntoa_long_long+0x96>
10006122:	4654      	mov	r4, sl
10006124:	4683      	mov	fp, r0
10006126:	4689      	mov	r9, r1
10006128:	462a      	mov	r2, r5
1000612a:	463b      	mov	r3, r7
1000612c:	4658      	mov	r0, fp
1000612e:	4649      	mov	r1, r9
10006130:	f001 fb12 	bl	10007758 <____aeabi_uldivmod_veneer>
10006134:	b2d2      	uxtb	r2, r2
10006136:	2a09      	cmp	r2, #9
10006138:	d9dc      	bls.n	100060f4 <_ntoa_long_long+0x36>
1000613a:	f016 0f20 	tst.w	r6, #32
1000613e:	d005      	beq.n	1000614c <_ntoa_long_long+0x8e>
10006140:	2341      	movs	r3, #65	@ 0x41
10006142:	4413      	add	r3, r2
10006144:	b2db      	uxtb	r3, r3
10006146:	3b0a      	subs	r3, #10
10006148:	b2db      	uxtb	r3, r3
1000614a:	e7d5      	b.n	100060f8 <_ntoa_long_long+0x3a>
1000614c:	2361      	movs	r3, #97	@ 0x61
1000614e:	e7f8      	b.n	10006142 <_ntoa_long_long+0x84>
10006150:	f04f 0a00 	mov.w	sl, #0
10006154:	9606      	str	r6, [sp, #24]
10006156:	9b25      	ldr	r3, [sp, #148]	@ 0x94
10006158:	9305      	str	r3, [sp, #20]
1000615a:	9b24      	ldr	r3, [sp, #144]	@ 0x90
1000615c:	9304      	str	r3, [sp, #16]
1000615e:	9503      	str	r5, [sp, #12]
10006160:	f89d 3080 	ldrb.w	r3, [sp, #128]	@ 0x80
10006164:	9302      	str	r3, [sp, #8]
10006166:	f8cd a004 	str.w	sl, [sp, #4]
1000616a:	ab0c      	add	r3, sp, #48	@ 0x30
1000616c:	9300      	str	r3, [sp, #0]
1000616e:	4643      	mov	r3, r8
10006170:	9a0b      	ldr	r2, [sp, #44]	@ 0x2c
10006172:	990a      	ldr	r1, [sp, #40]	@ 0x28
10006174:	9809      	ldr	r0, [sp, #36]	@ 0x24
10006176:	f7ff febd 	bl	10005ef4 <_ntoa_format>
1000617a:	b015      	add	sp, #84	@ 0x54
1000617c:	e8bd 8ff0 	ldmia.w	sp!, {r4, r5, r6, r7, r8, r9, sl, fp, pc}

10006180 <_etoa>:
10006180:	e92d 4ff0 	stmdb	sp!, {r4, r5, r6, r7, r8, r9, sl, fp, lr}
10006184:	b091      	sub	sp, #68	@ 0x44
10006186:	4604      	mov	r4, r0
10006188:	460d      	mov	r5, r1
1000618a:	4617      	mov	r7, r2
1000618c:	461e      	mov	r6, r3
1000618e:	e9dd 231a 	ldrd	r2, r3, [sp, #104]	@ 0x68
10006192:	4610      	mov	r0, r2
10006194:	4619      	mov	r1, r3
10006196:	f7ff fdf5 	bl	10005d84 <__wrap___aeabi_dcmpun>
1000619a:	2800      	cmp	r0, #0
1000619c:	f040 80ed 	bne.w	1000637a <_etoa+0x1fa>
100061a0:	f04f 32ff 	mov.w	r2, #4294967295
100061a4:	4bae      	ldr	r3, [pc, #696]	@ (10006460 <_etoa+0x2e0>)
100061a6:	e9dd 011a 	ldrd	r0, r1, [sp, #104]	@ 0x68
100061aa:	f7ff fe39 	bl	10005e20 <__wrap___aeabi_dcmpgt>
100061ae:	2800      	cmp	r0, #0
100061b0:	f040 80e3 	bne.w	1000637a <_etoa+0x1fa>
100061b4:	f04f 32ff 	mov.w	r2, #4294967295
100061b8:	f46f 1380 	mvn.w	r3, #1048576	@ 0x100000
100061bc:	e9dd 011a 	ldrd	r0, r1, [sp, #104]	@ 0x68
100061c0:	f7ff fdf2 	bl	10005da8 <__wrap___aeabi_dcmplt>
100061c4:	2800      	cmp	r0, #0
100061c6:	f040 80d8 	bne.w	1000637a <_etoa+0x1fa>
100061ca:	2200      	movs	r2, #0
100061cc:	2300      	movs	r3, #0
100061ce:	e9dd 011a 	ldrd	r0, r1, [sp, #104]	@ 0x68
100061d2:	f7ff fde9 	bl	10005da8 <__wrap___aeabi_dcmplt>
100061d6:	2800      	cmp	r0, #0
100061d8:	f040 80e2 	bne.w	100063a0 <_etoa+0x220>
100061dc:	ed9d 7b1a 	vldr	d7, [sp, #104]	@ 0x68
100061e0:	ed8d 7b06 	vstr	d7, [sp, #24]
100061e4:	9b1e      	ldr	r3, [sp, #120]	@ 0x78
100061e6:	f413 6380 	ands.w	r3, r3, #1024	@ 0x400
100061ea:	930d      	str	r3, [sp, #52]	@ 0x34
100061ec:	d101      	bne.n	100061f2 <_etoa+0x72>
100061ee:	2306      	movs	r3, #6
100061f0:	931c      	str	r3, [sp, #112]	@ 0x70
100061f2:	e9dd 2306 	ldrd	r2, r3, [sp, #24]
100061f6:	4610      	mov	r0, r2
100061f8:	4619      	mov	r1, r3
100061fa:	e9cd 0108 	strd	r0, r1, [sp, #32]
100061fe:	ea52 0103 	orrs.w	r1, r2, r3
10006202:	f000 80d8 	beq.w	100063b6 <_etoa+0x236>
10006206:	f3c3 500a 	ubfx	r0, r3, #20, #11
1000620a:	f3c3 0313 	ubfx	r3, r3, #0, #20
1000620e:	4690      	mov	r8, r2
10006210:	f043 597f 	orr.w	r9, r3, #1069547520	@ 0x3fc00000
10006214:	f449 1940 	orr.w	r9, r9, #3145728	@ 0x300000
10006218:	f2a0 30ff 	subw	r0, r0, #1023	@ 0x3ff
1000621c:	f7ff fd6a 	bl	10005cf4 <__wrap___aeabi_i2d>
10006220:	a37d      	add	r3, pc, #500	@ (adr r3, 10006418 <_etoa+0x298>)
10006222:	e9d3 2300 	ldrd	r2, r3, [r3]
10006226:	f7ff fcf1 	bl	10005c0c <__wrap___aeabi_dmul>
1000622a:	a37d      	add	r3, pc, #500	@ (adr r3, 10006420 <_etoa+0x2a0>)
1000622c:	e9d3 2300 	ldrd	r2, r3, [r3]
10006230:	f7ff fcc4 	bl	10005bbc <__wrap___aeabi_dadd>
10006234:	4682      	mov	sl, r0
10006236:	468b      	mov	fp, r1
10006238:	2200      	movs	r2, #0
1000623a:	4b8a      	ldr	r3, [pc, #552]	@ (10006464 <_etoa+0x2e4>)
1000623c:	4640      	mov	r0, r8
1000623e:	4649      	mov	r1, r9
10006240:	f7ff fcd0 	bl	10005be4 <__wrap___aeabi_dsub>
10006244:	a378      	add	r3, pc, #480	@ (adr r3, 10006428 <_etoa+0x2a8>)
10006246:	e9d3 2300 	ldrd	r2, r3, [r3]
1000624a:	f7ff fcdf 	bl	10005c0c <__wrap___aeabi_dmul>
1000624e:	4602      	mov	r2, r0
10006250:	460b      	mov	r3, r1
10006252:	4650      	mov	r0, sl
10006254:	4659      	mov	r1, fp
10006256:	f7ff fcb1 	bl	10005bbc <__wrap___aeabi_dadd>
1000625a:	f7ff fd6f 	bl	10005d3c <__wrap___aeabi_d2iz>
1000625e:	4682      	mov	sl, r0
10006260:	f7ff fd48 	bl	10005cf4 <__wrap___aeabi_i2d>
10006264:	4680      	mov	r8, r0
10006266:	4689      	mov	r9, r1
10006268:	a371      	add	r3, pc, #452	@ (adr r3, 10006430 <_etoa+0x2b0>)
1000626a:	e9d3 2300 	ldrd	r2, r3, [r3]
1000626e:	f7ff fccd 	bl	10005c0c <__wrap___aeabi_dmul>
10006272:	2200      	movs	r2, #0
10006274:	4b7c      	ldr	r3, [pc, #496]	@ (10006468 <_etoa+0x2e8>)
10006276:	f7ff fca1 	bl	10005bbc <__wrap___aeabi_dadd>
1000627a:	f7ff fd5f 	bl	10005d3c <__wrap___aeabi_d2iz>
1000627e:	4683      	mov	fp, r0
10006280:	a36d      	add	r3, pc, #436	@ (adr r3, 10006438 <_etoa+0x2b8>)
10006282:	e9d3 2300 	ldrd	r2, r3, [r3]
10006286:	4640      	mov	r0, r8
10006288:	4649      	mov	r1, r9
1000628a:	f7ff fcbf 	bl	10005c0c <__wrap___aeabi_dmul>
1000628e:	4680      	mov	r8, r0
10006290:	4689      	mov	r9, r1
10006292:	4658      	mov	r0, fp
10006294:	f7ff fd2e 	bl	10005cf4 <__wrap___aeabi_i2d>
10006298:	a369      	add	r3, pc, #420	@ (adr r3, 10006440 <_etoa+0x2c0>)
1000629a:	e9d3 2300 	ldrd	r2, r3, [r3]
1000629e:	f7ff fcb5 	bl	10005c0c <__wrap___aeabi_dmul>
100062a2:	4602      	mov	r2, r0
100062a4:	460b      	mov	r3, r1
100062a6:	4640      	mov	r0, r8
100062a8:	4649      	mov	r1, r9
100062aa:	f7ff fc9b 	bl	10005be4 <__wrap___aeabi_dsub>
100062ae:	4680      	mov	r8, r0
100062b0:	4689      	mov	r9, r1
100062b2:	4602      	mov	r2, r0
100062b4:	460b      	mov	r3, r1
100062b6:	f7ff fca9 	bl	10005c0c <__wrap___aeabi_dmul>
100062ba:	e9cd 010a 	strd	r0, r1, [sp, #40]	@ 0x28
100062be:	f20b 3bff 	addw	fp, fp, #1023	@ 0x3ff
100062c2:	2100      	movs	r1, #0
100062c4:	2200      	movs	r2, #0
100062c6:	e9cd 1208 	strd	r1, r2, [sp, #32]
100062ca:	ea4f 530b 	mov.w	r3, fp, lsl #20
100062ce:	9309      	str	r3, [sp, #36]	@ 0x24
100062d0:	2300      	movs	r3, #0
100062d2:	9308      	str	r3, [sp, #32]
100062d4:	4642      	mov	r2, r8
100062d6:	464b      	mov	r3, r9
100062d8:	4640      	mov	r0, r8
100062da:	4649      	mov	r1, r9
100062dc:	f7ff fc6e 	bl	10005bbc <__wrap___aeabi_dadd>
100062e0:	e9cd 010e 	strd	r0, r1, [sp, #56]	@ 0x38
100062e4:	4642      	mov	r2, r8
100062e6:	464b      	mov	r3, r9
100062e8:	2000      	movs	r0, #0
100062ea:	f04f 4180 	mov.w	r1, #1073741824	@ 0x40000000
100062ee:	f7ff fc79 	bl	10005be4 <__wrap___aeabi_dsub>
100062f2:	4680      	mov	r8, r0
100062f4:	4689      	mov	r9, r1
100062f6:	2200      	movs	r2, #0
100062f8:	4b5c      	ldr	r3, [pc, #368]	@ (1000646c <_etoa+0x2ec>)
100062fa:	e9dd 010a 	ldrd	r0, r1, [sp, #40]	@ 0x28
100062fe:	f7ff fcab 	bl	10005c58 <__wrap___aeabi_ddiv>
10006302:	2200      	movs	r2, #0
10006304:	4b5a      	ldr	r3, [pc, #360]	@ (10006470 <_etoa+0x2f0>)
10006306:	f7ff fc59 	bl	10005bbc <__wrap___aeabi_dadd>
1000630a:	4602      	mov	r2, r0
1000630c:	460b      	mov	r3, r1
1000630e:	e9dd 010a 	ldrd	r0, r1, [sp, #40]	@ 0x28
10006312:	f7ff fca1 	bl	10005c58 <__wrap___aeabi_ddiv>
10006316:	2200      	movs	r2, #0
10006318:	4b56      	ldr	r3, [pc, #344]	@ (10006474 <_etoa+0x2f4>)
1000631a:	f7ff fc4f 	bl	10005bbc <__wrap___aeabi_dadd>
1000631e:	4602      	mov	r2, r0
10006320:	460b      	mov	r3, r1
10006322:	e9dd 010a 	ldrd	r0, r1, [sp, #40]	@ 0x28
10006326:	f7ff fc97 	bl	10005c58 <__wrap___aeabi_ddiv>
1000632a:	4602      	mov	r2, r0
1000632c:	460b      	mov	r3, r1
1000632e:	4640      	mov	r0, r8
10006330:	4649      	mov	r1, r9
10006332:	f7ff fc43 	bl	10005bbc <__wrap___aeabi_dadd>
10006336:	4602      	mov	r2, r0
10006338:	460b      	mov	r3, r1
1000633a:	e9dd 010e 	ldrd	r0, r1, [sp, #56]	@ 0x38
1000633e:	f7ff fc8b 	bl	10005c58 <__wrap___aeabi_ddiv>
10006342:	2200      	movs	r2, #0
10006344:	4b4c      	ldr	r3, [pc, #304]	@ (10006478 <_etoa+0x2f8>)
10006346:	f7ff fc39 	bl	10005bbc <__wrap___aeabi_dadd>
1000634a:	e9dd 2308 	ldrd	r2, r3, [sp, #32]
1000634e:	f7ff fc5d 	bl	10005c0c <__wrap___aeabi_dmul>
10006352:	4680      	mov	r8, r0
10006354:	4689      	mov	r9, r1
10006356:	e9cd 8908 	strd	r8, r9, [sp, #32]
1000635a:	e9dd 2306 	ldrd	r2, r3, [sp, #24]
1000635e:	f7ff fd5f 	bl	10005e20 <__wrap___aeabi_dcmpgt>
10006362:	b350      	cbz	r0, 100063ba <_etoa+0x23a>
10006364:	f10a 3aff 	add.w	sl, sl, #4294967295
10006368:	2200      	movs	r2, #0
1000636a:	4b41      	ldr	r3, [pc, #260]	@ (10006470 <_etoa+0x2f0>)
1000636c:	4640      	mov	r0, r8
1000636e:	4649      	mov	r1, r9
10006370:	f7ff fc72 	bl	10005c58 <__wrap___aeabi_ddiv>
10006374:	e9cd 0108 	strd	r0, r1, [sp, #32]
10006378:	e01f      	b.n	100063ba <_etoa+0x23a>
1000637a:	9b1e      	ldr	r3, [sp, #120]	@ 0x78
1000637c:	9304      	str	r3, [sp, #16]
1000637e:	9b1d      	ldr	r3, [sp, #116]	@ 0x74
10006380:	9303      	str	r3, [sp, #12]
10006382:	9b1c      	ldr	r3, [sp, #112]	@ 0x70
10006384:	9302      	str	r3, [sp, #8]
10006386:	ed9d 7b1a 	vldr	d7, [sp, #104]	@ 0x68
1000638a:	ed8d 7b00 	vstr	d7, [sp]
1000638e:	4633      	mov	r3, r6
10006390:	463a      	mov	r2, r7
10006392:	4629      	mov	r1, r5
10006394:	4620      	mov	r0, r4
10006396:	f000 f903 	bl	100065a0 <_ftoa>
1000639a:	b011      	add	sp, #68	@ 0x44
1000639c:	e8bd 8ff0 	ldmia.w	sp!, {r4, r5, r6, r7, r8, r9, sl, fp, pc}
100063a0:	ed9f 7b29 	vldr	d7, [pc, #164]	@ 10006448 <_etoa+0x2c8>
100063a4:	ed8d 7b06 	vstr	d7, [sp, #24]
100063a8:	9b1a      	ldr	r3, [sp, #104]	@ 0x68
100063aa:	9306      	str	r3, [sp, #24]
100063ac:	9b1b      	ldr	r3, [sp, #108]	@ 0x6c
100063ae:	f103 4300 	add.w	r3, r3, #2147483648	@ 0x80000000
100063b2:	9307      	str	r3, [sp, #28]
100063b4:	e716      	b.n	100061e4 <_etoa+0x64>
100063b6:	f04f 0a00 	mov.w	sl, #0
100063ba:	f10a 0363 	add.w	r3, sl, #99	@ 0x63
100063be:	2bc6      	cmp	r3, #198	@ 0xc6
100063c0:	d827      	bhi.n	10006412 <_etoa+0x292>
100063c2:	f04f 0804 	mov.w	r8, #4
100063c6:	9b1e      	ldr	r3, [sp, #120]	@ 0x78
100063c8:	f413 6f00 	tst.w	r3, #2048	@ 0x800
100063cc:	d05f      	beq.n	1000648e <_etoa+0x30e>
100063ce:	e9dd 1208 	ldrd	r1, r2, [sp, #32]
100063d2:	4613      	mov	r3, r2
100063d4:	430b      	orrs	r3, r1
100063d6:	d013      	beq.n	10006400 <_etoa+0x280>
100063d8:	a31d      	add	r3, pc, #116	@ (adr r3, 10006450 <_etoa+0x2d0>)
100063da:	e9d3 2300 	ldrd	r2, r3, [r3]
100063de:	e9dd 0106 	ldrd	r0, r1, [sp, #24]
100063e2:	f7ff fd09 	bl	10005df8 <__wrap___aeabi_dcmpge>
100063e6:	2800      	cmp	r0, #0
100063e8:	f000 80b4 	beq.w	10006554 <_etoa+0x3d4>
100063ec:	a31a      	add	r3, pc, #104	@ (adr r3, 10006458 <_etoa+0x2d8>)
100063ee:	e9d3 2300 	ldrd	r2, r3, [r3]
100063f2:	e9dd 0106 	ldrd	r0, r1, [sp, #24]
100063f6:	f7ff fcd7 	bl	10005da8 <__wrap___aeabi_dcmplt>
100063fa:	2800      	cmp	r0, #0
100063fc:	f000 80aa 	beq.w	10006554 <_etoa+0x3d4>
10006400:	9b1c      	ldr	r3, [sp, #112]	@ 0x70
10006402:	4553      	cmp	r3, sl
10006404:	dd3a      	ble.n	1000647c <_etoa+0x2fc>
10006406:	eba3 0a0a 	sub.w	sl, r3, sl
1000640a:	f10a 33ff 	add.w	r3, sl, #4294967295
1000640e:	931c      	str	r3, [sp, #112]	@ 0x70
10006410:	e036      	b.n	10006480 <_etoa+0x300>
10006412:	f04f 0805 	mov.w	r8, #5
10006416:	e7d6      	b.n	100063c6 <_etoa+0x246>
10006418:	509f79fb 	.word	0x509f79fb
1000641c:	3fd34413 	.word	0x3fd34413
10006420:	8b60c8b3 	.word	0x8b60c8b3
10006424:	3fc68a28 	.word	0x3fc68a28
10006428:	636f4361 	.word	0x636f4361
1000642c:	3fd287a7 	.word	0x3fd287a7
10006430:	0979a371 	.word	0x0979a371
10006434:	400a934f 	.word	0x400a934f
10006438:	bbb55516 	.word	0xbbb55516
1000643c:	40026bb1 	.word	0x40026bb1
10006440:	fefa39ef 	.word	0xfefa39ef
10006444:	3fe62e42 	.word	0x3fe62e42
	...
10006450:	eb1c432d 	.word	0xeb1c432d
10006454:	3f1a36e2 	.word	0x3f1a36e2
10006458:	00000000 	.word	0x00000000
1000645c:	412e8480 	.word	0x412e8480
10006460:	7fefffff 	.word	0x7fefffff
10006464:	3ff80000 	.word	0x3ff80000
10006468:	3fe00000 	.word	0x3fe00000
1000646c:	402c0000 	.word	0x402c0000
10006470:	40240000 	.word	0x40240000
10006474:	40180000 	.word	0x40180000
10006478:	3ff00000 	.word	0x3ff00000
1000647c:	2300      	movs	r3, #0
1000647e:	931c      	str	r3, [sp, #112]	@ 0x70
10006480:	9b1e      	ldr	r3, [sp, #120]	@ 0x78
10006482:	f443 6380 	orr.w	r3, r3, #1024	@ 0x400
10006486:	931e      	str	r3, [sp, #120]	@ 0x78
10006488:	f04f 0800 	mov.w	r8, #0
1000648c:	46c2      	mov	sl, r8
1000648e:	9b1d      	ldr	r3, [sp, #116]	@ 0x74
10006490:	4598      	cmp	r8, r3
10006492:	d269      	bcs.n	10006568 <_etoa+0x3e8>
10006494:	eba3 0908 	sub.w	r9, r3, r8
10006498:	9b1e      	ldr	r3, [sp, #120]	@ 0x78
1000649a:	f013 0b02 	ands.w	fp, r3, #2
1000649e:	d004      	beq.n	100064aa <_etoa+0x32a>
100064a0:	f1b8 0f00 	cmp.w	r8, #0
100064a4:	d001      	beq.n	100064aa <_etoa+0x32a>
100064a6:	f04f 0900 	mov.w	r9, #0
100064aa:	f1ba 0f00 	cmp.w	sl, #0
100064ae:	d007      	beq.n	100064c0 <_etoa+0x340>
100064b0:	e9dd 2308 	ldrd	r2, r3, [sp, #32]
100064b4:	e9dd 0106 	ldrd	r0, r1, [sp, #24]
100064b8:	f7ff fbce 	bl	10005c58 <__wrap___aeabi_ddiv>
100064bc:	e9cd 0106 	strd	r0, r1, [sp, #24]
100064c0:	2200      	movs	r2, #0
100064c2:	2300      	movs	r3, #0
100064c4:	e9dd 011a 	ldrd	r0, r1, [sp, #104]	@ 0x68
100064c8:	f7ff fc6e 	bl	10005da8 <__wrap___aeabi_dcmplt>
100064cc:	2800      	cmp	r0, #0
100064ce:	d14e      	bne.n	1000656e <_etoa+0x3ee>
100064d0:	9b1e      	ldr	r3, [sp, #120]	@ 0x78
100064d2:	f423 6300 	bic.w	r3, r3, #2048	@ 0x800
100064d6:	9304      	str	r3, [sp, #16]
100064d8:	f8cd 900c 	str.w	r9, [sp, #12]
100064dc:	9b1c      	ldr	r3, [sp, #112]	@ 0x70
100064de:	9302      	str	r3, [sp, #8]
100064e0:	ed9d 7b06 	vldr	d7, [sp, #24]
100064e4:	ed8d 7b00 	vstr	d7, [sp]
100064e8:	4633      	mov	r3, r6
100064ea:	463a      	mov	r2, r7
100064ec:	4629      	mov	r1, r5
100064ee:	4620      	mov	r0, r4
100064f0:	f000 f856 	bl	100065a0 <_ftoa>
100064f4:	f1b8 0f00 	cmp.w	r8, #0
100064f8:	f43f af4f 	beq.w	1000639a <_etoa+0x21a>
100064fc:	9b1e      	ldr	r3, [sp, #120]	@ 0x78
100064fe:	f013 0f20 	tst.w	r3, #32
10006502:	d03c      	beq.n	1000657e <_etoa+0x3fe>
10006504:	f04f 0c45 	mov.w	ip, #69	@ 0x45
10006508:	f100 0901 	add.w	r9, r0, #1
1000650c:	4633      	mov	r3, r6
1000650e:	4602      	mov	r2, r0
10006510:	4629      	mov	r1, r5
10006512:	4660      	mov	r0, ip
10006514:	47a0      	blx	r4
10006516:	ea8a 72ea 	eor.w	r2, sl, sl, asr #31
1000651a:	eba2 72ea 	sub.w	r2, r2, sl, asr #31
1000651e:	2305      	movs	r3, #5
10006520:	9305      	str	r3, [sp, #20]
10006522:	f108 33ff 	add.w	r3, r8, #4294967295
10006526:	9304      	str	r3, [sp, #16]
10006528:	2300      	movs	r3, #0
1000652a:	9303      	str	r3, [sp, #12]
1000652c:	230a      	movs	r3, #10
1000652e:	9302      	str	r3, [sp, #8]
10006530:	ea4f 73da 	mov.w	r3, sl, lsr #31
10006534:	9301      	str	r3, [sp, #4]
10006536:	9200      	str	r2, [sp, #0]
10006538:	4633      	mov	r3, r6
1000653a:	464a      	mov	r2, r9
1000653c:	4629      	mov	r1, r5
1000653e:	4620      	mov	r0, r4
10006540:	f7ff fd73 	bl	1000602a <_ntoa_long>
10006544:	f1bb 0f00 	cmp.w	fp, #0
10006548:	f43f af27 	beq.w	1000639a <_etoa+0x21a>
1000654c:	4602      	mov	r2, r0
1000654e:	f8dd 9074 	ldr.w	r9, [sp, #116]	@ 0x74
10006552:	e01e      	b.n	10006592 <_etoa+0x412>
10006554:	9b1c      	ldr	r3, [sp, #112]	@ 0x70
10006556:	2b00      	cmp	r3, #0
10006558:	d099      	beq.n	1000648e <_etoa+0x30e>
1000655a:	9b0d      	ldr	r3, [sp, #52]	@ 0x34
1000655c:	2b00      	cmp	r3, #0
1000655e:	d096      	beq.n	1000648e <_etoa+0x30e>
10006560:	9b1c      	ldr	r3, [sp, #112]	@ 0x70
10006562:	3b01      	subs	r3, #1
10006564:	931c      	str	r3, [sp, #112]	@ 0x70
10006566:	e792      	b.n	1000648e <_etoa+0x30e>
10006568:	f04f 0900 	mov.w	r9, #0
1000656c:	e794      	b.n	10006498 <_etoa+0x318>
1000656e:	e9dd 0106 	ldrd	r0, r1, [sp, #24]
10006572:	4602      	mov	r2, r0
10006574:	f101 4300 	add.w	r3, r1, #2147483648	@ 0x80000000
10006578:	e9cd 2306 	strd	r2, r3, [sp, #24]
1000657c:	e7a8      	b.n	100064d0 <_etoa+0x350>
1000657e:	f04f 0c65 	mov.w	ip, #101	@ 0x65
10006582:	e7c1      	b.n	10006508 <_etoa+0x388>
10006584:	f102 0801 	add.w	r8, r2, #1
10006588:	4633      	mov	r3, r6
1000658a:	4629      	mov	r1, r5
1000658c:	2020      	movs	r0, #32
1000658e:	47a0      	blx	r4
10006590:	4642      	mov	r2, r8
10006592:	1bd3      	subs	r3, r2, r7
10006594:	454b      	cmp	r3, r9
10006596:	d3f5      	bcc.n	10006584 <_etoa+0x404>
10006598:	4610      	mov	r0, r2
1000659a:	e6fe      	b.n	1000639a <_etoa+0x21a>
1000659c:	0000      	movs	r0, r0
	...

100065a0 <_ftoa>:
100065a0:	e92d 4ff0 	stmdb	sp!, {r4, r5, r6, r7, r8, r9, sl, fp, lr}
100065a4:	ed2d 8b02 	vpush	{d8}
100065a8:	b095      	sub	sp, #84	@ 0x54
100065aa:	9007      	str	r0, [sp, #28]
100065ac:	910a      	str	r1, [sp, #40]	@ 0x28
100065ae:	4692      	mov	sl, r2
100065b0:	469b      	mov	fp, r3
100065b2:	e9dd 8920 	ldrd	r8, r9, [sp, #128]	@ 0x80
100065b6:	9d22      	ldr	r5, [sp, #136]	@ 0x88
100065b8:	4642      	mov	r2, r8
100065ba:	464b      	mov	r3, r9
100065bc:	4640      	mov	r0, r8
100065be:	4649      	mov	r1, r9
100065c0:	f7ff fbe0 	bl	10005d84 <__wrap___aeabi_dcmpun>
100065c4:	2800      	cmp	r0, #0
100065c6:	d135      	bne.n	10006634 <_ftoa+0x94>
100065c8:	f04f 32ff 	mov.w	r2, #4294967295
100065cc:	f46f 1380 	mvn.w	r3, #1048576	@ 0x100000
100065d0:	4640      	mov	r0, r8
100065d2:	4649      	mov	r1, r9
100065d4:	f7ff fbe8 	bl	10005da8 <__wrap___aeabi_dcmplt>
100065d8:	2800      	cmp	r0, #0
100065da:	d13a      	bne.n	10006652 <_ftoa+0xb2>
100065dc:	f04f 32ff 	mov.w	r2, #4294967295
100065e0:	4b9f      	ldr	r3, [pc, #636]	@ (10006860 <_ftoa+0x2c0>)
100065e2:	4640      	mov	r0, r8
100065e4:	4649      	mov	r1, r9
100065e6:	f7ff fc1b 	bl	10005e20 <__wrap___aeabi_dcmpgt>
100065ea:	2800      	cmp	r0, #0
100065ec:	d140      	bne.n	10006670 <_ftoa+0xd0>
100065ee:	a398      	add	r3, pc, #608	@ (adr r3, 10006850 <_ftoa+0x2b0>)
100065f0:	e9d3 2300 	ldrd	r2, r3, [r3]
100065f4:	4640      	mov	r0, r8
100065f6:	4649      	mov	r1, r9
100065f8:	f7ff fc12 	bl	10005e20 <__wrap___aeabi_dcmpgt>
100065fc:	2800      	cmp	r0, #0
100065fe:	d14f      	bne.n	100066a0 <_ftoa+0x100>
10006600:	a395      	add	r3, pc, #596	@ (adr r3, 10006858 <_ftoa+0x2b8>)
10006602:	e9d3 2300 	ldrd	r2, r3, [r3]
10006606:	4640      	mov	r0, r8
10006608:	4649      	mov	r1, r9
1000660a:	f7ff fbcd 	bl	10005da8 <__wrap___aeabi_dcmplt>
1000660e:	2800      	cmp	r0, #0
10006610:	d146      	bne.n	100066a0 <_ftoa+0x100>
10006612:	2200      	movs	r2, #0
10006614:	2300      	movs	r3, #0
10006616:	4640      	mov	r0, r8
10006618:	4649      	mov	r1, r9
1000661a:	f7ff fbc5 	bl	10005da8 <__wrap___aeabi_dcmplt>
1000661e:	2800      	cmp	r0, #0
10006620:	d14c      	bne.n	100066bc <_ftoa+0x11c>
10006622:	2300      	movs	r3, #0
10006624:	930b      	str	r3, [sp, #44]	@ 0x2c
10006626:	9b24      	ldr	r3, [sp, #144]	@ 0x90
10006628:	f413 6f80 	tst.w	r3, #1024	@ 0x400
1000662c:	f000 80b7 	beq.w	1000679e <_ftoa+0x1fe>
10006630:	2400      	movs	r4, #0
10006632:	e056      	b.n	100066e2 <_ftoa+0x142>
10006634:	9b24      	ldr	r3, [sp, #144]	@ 0x90
10006636:	9303      	str	r3, [sp, #12]
10006638:	9b23      	ldr	r3, [sp, #140]	@ 0x8c
1000663a:	9302      	str	r3, [sp, #8]
1000663c:	2303      	movs	r3, #3
1000663e:	9301      	str	r3, [sp, #4]
10006640:	4b88      	ldr	r3, [pc, #544]	@ (10006864 <_ftoa+0x2c4>)
10006642:	9300      	str	r3, [sp, #0]
10006644:	465b      	mov	r3, fp
10006646:	4652      	mov	r2, sl
10006648:	990a      	ldr	r1, [sp, #40]	@ 0x28
1000664a:	9807      	ldr	r0, [sp, #28]
1000664c:	f7ff fc13 	bl	10005e76 <_out_rev>
10006650:	e137      	b.n	100068c2 <_ftoa+0x322>
10006652:	9b24      	ldr	r3, [sp, #144]	@ 0x90
10006654:	9303      	str	r3, [sp, #12]
10006656:	9b23      	ldr	r3, [sp, #140]	@ 0x8c
10006658:	9302      	str	r3, [sp, #8]
1000665a:	2304      	movs	r3, #4
1000665c:	9301      	str	r3, [sp, #4]
1000665e:	4b82      	ldr	r3, [pc, #520]	@ (10006868 <_ftoa+0x2c8>)
10006660:	9300      	str	r3, [sp, #0]
10006662:	465b      	mov	r3, fp
10006664:	4652      	mov	r2, sl
10006666:	990a      	ldr	r1, [sp, #40]	@ 0x28
10006668:	9807      	ldr	r0, [sp, #28]
1000666a:	f7ff fc04 	bl	10005e76 <_out_rev>
1000666e:	e128      	b.n	100068c2 <_ftoa+0x322>
10006670:	9b24      	ldr	r3, [sp, #144]	@ 0x90
10006672:	f013 0304 	ands.w	r3, r3, #4
10006676:	d00f      	beq.n	10006698 <_ftoa+0xf8>
10006678:	4a7c      	ldr	r2, [pc, #496]	@ (1000686c <_ftoa+0x2cc>)
1000667a:	b17b      	cbz	r3, 1000669c <_ftoa+0xfc>
1000667c:	2304      	movs	r3, #4
1000667e:	9924      	ldr	r1, [sp, #144]	@ 0x90
10006680:	9103      	str	r1, [sp, #12]
10006682:	9923      	ldr	r1, [sp, #140]	@ 0x8c
10006684:	9102      	str	r1, [sp, #8]
10006686:	9301      	str	r3, [sp, #4]
10006688:	9200      	str	r2, [sp, #0]
1000668a:	465b      	mov	r3, fp
1000668c:	4652      	mov	r2, sl
1000668e:	990a      	ldr	r1, [sp, #40]	@ 0x28
10006690:	9807      	ldr	r0, [sp, #28]
10006692:	f7ff fbf0 	bl	10005e76 <_out_rev>
10006696:	e114      	b.n	100068c2 <_ftoa+0x322>
10006698:	4a75      	ldr	r2, [pc, #468]	@ (10006870 <_ftoa+0x2d0>)
1000669a:	e7ee      	b.n	1000667a <_ftoa+0xda>
1000669c:	2303      	movs	r3, #3
1000669e:	e7ee      	b.n	1000667e <_ftoa+0xde>
100066a0:	9b24      	ldr	r3, [sp, #144]	@ 0x90
100066a2:	9304      	str	r3, [sp, #16]
100066a4:	9b23      	ldr	r3, [sp, #140]	@ 0x8c
100066a6:	9303      	str	r3, [sp, #12]
100066a8:	9502      	str	r5, [sp, #8]
100066aa:	e9cd 8900 	strd	r8, r9, [sp]
100066ae:	465b      	mov	r3, fp
100066b0:	4652      	mov	r2, sl
100066b2:	990a      	ldr	r1, [sp, #40]	@ 0x28
100066b4:	9807      	ldr	r0, [sp, #28]
100066b6:	f7ff fd63 	bl	10006180 <_etoa>
100066ba:	e102      	b.n	100068c2 <_ftoa+0x322>
100066bc:	4642      	mov	r2, r8
100066be:	464b      	mov	r3, r9
100066c0:	2000      	movs	r0, #0
100066c2:	2100      	movs	r1, #0
100066c4:	f7ff fa8e 	bl	10005be4 <__wrap___aeabi_dsub>
100066c8:	4680      	mov	r8, r0
100066ca:	4689      	mov	r9, r1
100066cc:	2301      	movs	r3, #1
100066ce:	930b      	str	r3, [sp, #44]	@ 0x2c
100066d0:	e7a9      	b.n	10006626 <_ftoa+0x86>
100066d2:	f104 0350 	add.w	r3, r4, #80	@ 0x50
100066d6:	446b      	add	r3, sp
100066d8:	2230      	movs	r2, #48	@ 0x30
100066da:	f803 2c20 	strb.w	r2, [r3, #-32]
100066de:	3d01      	subs	r5, #1
100066e0:	3401      	adds	r4, #1
100066e2:	2c1f      	cmp	r4, #31
100066e4:	d801      	bhi.n	100066ea <_ftoa+0x14a>
100066e6:	2d09      	cmp	r5, #9
100066e8:	d8f3      	bhi.n	100066d2 <_ftoa+0x132>
100066ea:	4640      	mov	r0, r8
100066ec:	4649      	mov	r1, r9
100066ee:	f7ff fb25 	bl	10005d3c <__wrap___aeabi_d2iz>
100066f2:	4606      	mov	r6, r0
100066f4:	f7ff fafe 	bl	10005cf4 <__wrap___aeabi_i2d>
100066f8:	4602      	mov	r2, r0
100066fa:	460b      	mov	r3, r1
100066fc:	4640      	mov	r0, r8
100066fe:	4649      	mov	r1, r9
10006700:	f7ff fa70 	bl	10005be4 <__wrap___aeabi_dsub>
10006704:	4b5b      	ldr	r3, [pc, #364]	@ (10006874 <_ftoa+0x2d4>)
10006706:	eb03 03c5 	add.w	r3, r3, r5, lsl #3
1000670a:	ed93 8b00 	vldr	d8, [r3]
1000670e:	ec53 2b18 	vmov	r2, r3, d8
10006712:	f7ff fa7b 	bl	10005c0c <__wrap___aeabi_dmul>
10006716:	4602      	mov	r2, r0
10006718:	460b      	mov	r3, r1
1000671a:	e9cd 2308 	strd	r2, r3, [sp, #32]
1000671e:	f7ff fb1f 	bl	10005d60 <__wrap___aeabi_d2uiz>
10006722:	4607      	mov	r7, r0
10006724:	f7ff faf8 	bl	10005d18 <__wrap___aeabi_ui2d>
10006728:	4602      	mov	r2, r0
1000672a:	460b      	mov	r3, r1
1000672c:	e9dd 0108 	ldrd	r0, r1, [sp, #32]
10006730:	f7ff fa58 	bl	10005be4 <__wrap___aeabi_dsub>
10006734:	4602      	mov	r2, r0
10006736:	460b      	mov	r3, r1
10006738:	e9cd 2308 	strd	r2, r3, [sp, #32]
1000673c:	2200      	movs	r2, #0
1000673e:	4b4e      	ldr	r3, [pc, #312]	@ (10006878 <_ftoa+0x2d8>)
10006740:	f7ff fb6e 	bl	10005e20 <__wrap___aeabi_dcmpgt>
10006744:	b368      	cbz	r0, 100067a2 <_ftoa+0x202>
10006746:	3701      	adds	r7, #1
10006748:	4638      	mov	r0, r7
1000674a:	f7ff fae5 	bl	10005d18 <__wrap___aeabi_ui2d>
1000674e:	4602      	mov	r2, r0
10006750:	460b      	mov	r3, r1
10006752:	ec51 0b18 	vmov	r0, r1, d8
10006756:	f7ff fb3b 	bl	10005dd0 <__wrap___aeabi_dcmple>
1000675a:	b108      	cbz	r0, 10006760 <_ftoa+0x1c0>
1000675c:	3601      	adds	r6, #1
1000675e:	2700      	movs	r7, #0
10006760:	bb6d      	cbnz	r5, 100067be <_ftoa+0x21e>
10006762:	4630      	mov	r0, r6
10006764:	f7ff fac6 	bl	10005cf4 <__wrap___aeabi_i2d>
10006768:	4602      	mov	r2, r0
1000676a:	460b      	mov	r3, r1
1000676c:	4640      	mov	r0, r8
1000676e:	4649      	mov	r1, r9
10006770:	f7ff fa38 	bl	10005be4 <__wrap___aeabi_dsub>
10006774:	4607      	mov	r7, r0
10006776:	4688      	mov	r8, r1
10006778:	2200      	movs	r2, #0
1000677a:	4b3f      	ldr	r3, [pc, #252]	@ (10006878 <_ftoa+0x2d8>)
1000677c:	f7ff fb14 	bl	10005da8 <__wrap___aeabi_dcmplt>
10006780:	2800      	cmp	r0, #0
10006782:	d14c      	bne.n	1000681e <_ftoa+0x27e>
10006784:	2200      	movs	r2, #0
10006786:	4b3c      	ldr	r3, [pc, #240]	@ (10006878 <_ftoa+0x2d8>)
10006788:	4638      	mov	r0, r7
1000678a:	4641      	mov	r1, r8
1000678c:	f7ff fb48 	bl	10005e20 <__wrap___aeabi_dcmpgt>
10006790:	2800      	cmp	r0, #0
10006792:	d144      	bne.n	1000681e <_ftoa+0x27e>
10006794:	f016 0f01 	tst.w	r6, #1
10006798:	d041      	beq.n	1000681e <_ftoa+0x27e>
1000679a:	3601      	adds	r6, #1
1000679c:	e03f      	b.n	1000681e <_ftoa+0x27e>
1000679e:	2506      	movs	r5, #6
100067a0:	e746      	b.n	10006630 <_ftoa+0x90>
100067a2:	2200      	movs	r2, #0
100067a4:	4b34      	ldr	r3, [pc, #208]	@ (10006878 <_ftoa+0x2d8>)
100067a6:	e9dd 0108 	ldrd	r0, r1, [sp, #32]
100067aa:	f7ff fafd 	bl	10005da8 <__wrap___aeabi_dcmplt>
100067ae:	2800      	cmp	r0, #0
100067b0:	d1d6      	bne.n	10006760 <_ftoa+0x1c0>
100067b2:	b117      	cbz	r7, 100067ba <_ftoa+0x21a>
100067b4:	f017 0f01 	tst.w	r7, #1
100067b8:	d0d2      	beq.n	10006760 <_ftoa+0x1c0>
100067ba:	3701      	adds	r7, #1
100067bc:	e7d0      	b.n	10006760 <_ftoa+0x1c0>
100067be:	2c1f      	cmp	r4, #31
100067c0:	d817      	bhi.n	100067f2 <_ftoa+0x252>
100067c2:	3d01      	subs	r5, #1
100067c4:	4b2d      	ldr	r3, [pc, #180]	@ (1000687c <_ftoa+0x2dc>)
100067c6:	fba3 2307 	umull	r2, r3, r3, r7
100067ca:	08db      	lsrs	r3, r3, #3
100067cc:	4619      	mov	r1, r3
100067ce:	eb03 0383 	add.w	r3, r3, r3, lsl #2
100067d2:	eba7 0343 	sub.w	r3, r7, r3, lsl #1
100067d6:	1c62      	adds	r2, r4, #1
100067d8:	3330      	adds	r3, #48	@ 0x30
100067da:	f104 0050 	add.w	r0, r4, #80	@ 0x50
100067de:	eb0d 0400 	add.w	r4, sp, r0
100067e2:	f804 3c20 	strb.w	r3, [r4, #-32]
100067e6:	2f09      	cmp	r7, #9
100067e8:	d902      	bls.n	100067f0 <_ftoa+0x250>
100067ea:	460f      	mov	r7, r1
100067ec:	4614      	mov	r4, r2
100067ee:	e7e6      	b.n	100067be <_ftoa+0x21e>
100067f0:	4614      	mov	r4, r2
100067f2:	2c1f      	cmp	r4, #31
100067f4:	d80a      	bhi.n	1000680c <_ftoa+0x26c>
100067f6:	1e6b      	subs	r3, r5, #1
100067f8:	b145      	cbz	r5, 1000680c <_ftoa+0x26c>
100067fa:	f104 0250 	add.w	r2, r4, #80	@ 0x50
100067fe:	446a      	add	r2, sp
10006800:	2130      	movs	r1, #48	@ 0x30
10006802:	f802 1c20 	strb.w	r1, [r2, #-32]
10006806:	461d      	mov	r5, r3
10006808:	3401      	adds	r4, #1
1000680a:	e7f2      	b.n	100067f2 <_ftoa+0x252>
1000680c:	2c1f      	cmp	r4, #31
1000680e:	d806      	bhi.n	1000681e <_ftoa+0x27e>
10006810:	f104 0350 	add.w	r3, r4, #80	@ 0x50
10006814:	446b      	add	r3, sp
10006816:	222e      	movs	r2, #46	@ 0x2e
10006818:	f803 2c20 	strb.w	r2, [r3, #-32]
1000681c:	3401      	adds	r4, #1
1000681e:	2c1f      	cmp	r4, #31
10006820:	d831      	bhi.n	10006886 <_ftoa+0x2e6>
10006822:	4a17      	ldr	r2, [pc, #92]	@ (10006880 <_ftoa+0x2e0>)
10006824:	fb82 3206 	smull	r3, r2, r2, r6
10006828:	17f3      	asrs	r3, r6, #31
1000682a:	ebc3 03a2 	rsb	r3, r3, r2, asr #2
1000682e:	461a      	mov	r2, r3
10006830:	eb03 0383 	add.w	r3, r3, r3, lsl #2
10006834:	eba6 0343 	sub.w	r3, r6, r3, lsl #1
10006838:	1c61      	adds	r1, r4, #1
1000683a:	3330      	adds	r3, #48	@ 0x30
1000683c:	f104 0050 	add.w	r0, r4, #80	@ 0x50
10006840:	eb0d 0400 	add.w	r4, sp, r0
10006844:	f804 3c20 	strb.w	r3, [r4, #-32]
10006848:	4616      	mov	r6, r2
1000684a:	b1da      	cbz	r2, 10006884 <_ftoa+0x2e4>
1000684c:	460c      	mov	r4, r1
1000684e:	e7e6      	b.n	1000681e <_ftoa+0x27e>
10006850:	00000000 	.word	0x00000000
10006854:	41cdcd65 	.word	0x41cdcd65
10006858:	00000000 	.word	0x00000000
1000685c:	c1cdcd65 	.word	0xc1cdcd65
10006860:	7fefffff 	.word	0x7fefffff
10006864:	10008f70 	.word	0x10008f70
10006868:	10008f74 	.word	0x10008f74
1000686c:	10008f64 	.word	0x10008f64
10006870:	10008f6c 	.word	0x10008f6c
10006874:	100097e0 	.word	0x100097e0
10006878:	3fe00000 	.word	0x3fe00000
1000687c:	cccccccd 	.word	0xcccccccd
10006880:	66666667 	.word	0x66666667
10006884:	460c      	mov	r4, r1
10006886:	9b24      	ldr	r3, [sp, #144]	@ 0x90
10006888:	f003 0303 	and.w	r3, r3, #3
1000688c:	2b01      	cmp	r3, #1
1000688e:	d01d      	beq.n	100068cc <_ftoa+0x32c>
10006890:	2c1f      	cmp	r4, #31
10006892:	d809      	bhi.n	100068a8 <_ftoa+0x308>
10006894:	9b0b      	ldr	r3, [sp, #44]	@ 0x2c
10006896:	2b00      	cmp	r3, #0
10006898:	d035      	beq.n	10006906 <_ftoa+0x366>
1000689a:	f104 0350 	add.w	r3, r4, #80	@ 0x50
1000689e:	446b      	add	r3, sp
100068a0:	222d      	movs	r2, #45	@ 0x2d
100068a2:	f803 2c20 	strb.w	r2, [r3, #-32]
100068a6:	3401      	adds	r4, #1
100068a8:	9b24      	ldr	r3, [sp, #144]	@ 0x90
100068aa:	9303      	str	r3, [sp, #12]
100068ac:	9b23      	ldr	r3, [sp, #140]	@ 0x8c
100068ae:	9302      	str	r3, [sp, #8]
100068b0:	9401      	str	r4, [sp, #4]
100068b2:	ab0c      	add	r3, sp, #48	@ 0x30
100068b4:	9300      	str	r3, [sp, #0]
100068b6:	465b      	mov	r3, fp
100068b8:	4652      	mov	r2, sl
100068ba:	990a      	ldr	r1, [sp, #40]	@ 0x28
100068bc:	9807      	ldr	r0, [sp, #28]
100068be:	f7ff fada 	bl	10005e76 <_out_rev>
100068c2:	b015      	add	sp, #84	@ 0x54
100068c4:	ecbd 8b02 	vpop	{d8}
100068c8:	e8bd 8ff0 	ldmia.w	sp!, {r4, r5, r6, r7, r8, r9, sl, fp, pc}
100068cc:	9b23      	ldr	r3, [sp, #140]	@ 0x8c
100068ce:	b1b3      	cbz	r3, 100068fe <_ftoa+0x35e>
100068d0:	9b0b      	ldr	r3, [sp, #44]	@ 0x2c
100068d2:	b91b      	cbnz	r3, 100068dc <_ftoa+0x33c>
100068d4:	9b24      	ldr	r3, [sp, #144]	@ 0x90
100068d6:	f013 0f0c 	tst.w	r3, #12
100068da:	d012      	beq.n	10006902 <_ftoa+0x362>
100068dc:	9b23      	ldr	r3, [sp, #140]	@ 0x8c
100068de:	3b01      	subs	r3, #1
100068e0:	9323      	str	r3, [sp, #140]	@ 0x8c
100068e2:	4619      	mov	r1, r3
100068e4:	e006      	b.n	100068f4 <_ftoa+0x354>
100068e6:	f104 0350 	add.w	r3, r4, #80	@ 0x50
100068ea:	446b      	add	r3, sp
100068ec:	2230      	movs	r2, #48	@ 0x30
100068ee:	f803 2c20 	strb.w	r2, [r3, #-32]
100068f2:	3401      	adds	r4, #1
100068f4:	428c      	cmp	r4, r1
100068f6:	d2cb      	bcs.n	10006890 <_ftoa+0x2f0>
100068f8:	2c1f      	cmp	r4, #31
100068fa:	d9f4      	bls.n	100068e6 <_ftoa+0x346>
100068fc:	e7c8      	b.n	10006890 <_ftoa+0x2f0>
100068fe:	9923      	ldr	r1, [sp, #140]	@ 0x8c
10006900:	e7f8      	b.n	100068f4 <_ftoa+0x354>
10006902:	9923      	ldr	r1, [sp, #140]	@ 0x8c
10006904:	e7f6      	b.n	100068f4 <_ftoa+0x354>
10006906:	9b24      	ldr	r3, [sp, #144]	@ 0x90
10006908:	f013 0f04 	tst.w	r3, #4
1000690c:	d007      	beq.n	1000691e <_ftoa+0x37e>
1000690e:	f104 0350 	add.w	r3, r4, #80	@ 0x50
10006912:	446b      	add	r3, sp
10006914:	222b      	movs	r2, #43	@ 0x2b
10006916:	f803 2c20 	strb.w	r2, [r3, #-32]
1000691a:	3401      	adds	r4, #1
1000691c:	e7c4      	b.n	100068a8 <_ftoa+0x308>
1000691e:	9b24      	ldr	r3, [sp, #144]	@ 0x90
10006920:	f013 0f08 	tst.w	r3, #8
10006924:	d0c0      	beq.n	100068a8 <_ftoa+0x308>
10006926:	f104 0350 	add.w	r3, r4, #80	@ 0x50
1000692a:	446b      	add	r3, sp
1000692c:	2220      	movs	r2, #32
1000692e:	f803 2c20 	strb.w	r2, [r3, #-32]
10006932:	3401      	adds	r4, #1
10006934:	e7b8      	b.n	100068a8 <_ftoa+0x308>
10006936:	bf00      	nop

10006938 <_vsnprintf>:
10006938:	e92d 4ff0 	stmdb	sp!, {r4, r5, r6, r7, r8, r9, sl, fp, lr}
1000693c:	b091      	sub	sp, #68	@ 0x44
1000693e:	4680      	mov	r8, r0
10006940:	4617      	mov	r7, r2
10006942:	930f      	str	r3, [sp, #60]	@ 0x3c
10006944:	4689      	mov	r9, r1
10006946:	2900      	cmp	r1, #0
10006948:	f000 834b 	beq.w	10006fe2 <_vsnprintf+0x6aa>
1000694c:	2600      	movs	r6, #0
1000694e:	9b0f      	ldr	r3, [sp, #60]	@ 0x3c
10006950:	7818      	ldrb	r0, [r3, #0]
10006952:	2800      	cmp	r0, #0
10006954:	f000 8348 	beq.w	10006fe8 <_vsnprintf+0x6b0>
10006958:	2825      	cmp	r0, #37	@ 0x25
1000695a:	d009      	beq.n	10006970 <_vsnprintf+0x38>
1000695c:	1c74      	adds	r4, r6, #1
1000695e:	463b      	mov	r3, r7
10006960:	4632      	mov	r2, r6
10006962:	4649      	mov	r1, r9
10006964:	47c0      	blx	r8
10006966:	9b0f      	ldr	r3, [sp, #60]	@ 0x3c
10006968:	3301      	adds	r3, #1
1000696a:	930f      	str	r3, [sp, #60]	@ 0x3c
1000696c:	4626      	mov	r6, r4
1000696e:	e7ee      	b.n	1000694e <_vsnprintf+0x16>
10006970:	3301      	adds	r3, #1
10006972:	930f      	str	r3, [sp, #60]	@ 0x3c
10006974:	2500      	movs	r5, #0
10006976:	e01f      	b.n	100069b8 <_vsnprintf+0x80>
10006978:	f045 0501 	orr.w	r5, r5, #1
1000697c:	3201      	adds	r2, #1
1000697e:	920f      	str	r2, [sp, #60]	@ 0x3c
10006980:	2301      	movs	r3, #1
10006982:	e018      	b.n	100069b6 <_vsnprintf+0x7e>
10006984:	f045 0502 	orr.w	r5, r5, #2
10006988:	3201      	adds	r2, #1
1000698a:	920f      	str	r2, [sp, #60]	@ 0x3c
1000698c:	2301      	movs	r3, #1
1000698e:	e012      	b.n	100069b6 <_vsnprintf+0x7e>
10006990:	f045 0504 	orr.w	r5, r5, #4
10006994:	3201      	adds	r2, #1
10006996:	920f      	str	r2, [sp, #60]	@ 0x3c
10006998:	2301      	movs	r3, #1
1000699a:	e00c      	b.n	100069b6 <_vsnprintf+0x7e>
1000699c:	f045 0508 	orr.w	r5, r5, #8
100069a0:	3201      	adds	r2, #1
100069a2:	920f      	str	r2, [sp, #60]	@ 0x3c
100069a4:	2301      	movs	r3, #1
100069a6:	e006      	b.n	100069b6 <_vsnprintf+0x7e>
100069a8:	f045 0510 	orr.w	r5, r5, #16
100069ac:	3201      	adds	r2, #1
100069ae:	920f      	str	r2, [sp, #60]	@ 0x3c
100069b0:	2301      	movs	r3, #1
100069b2:	e000      	b.n	100069b6 <_vsnprintf+0x7e>
100069b4:	2300      	movs	r3, #0
100069b6:	b34b      	cbz	r3, 10006a0c <_vsnprintf+0xd4>
100069b8:	9a0f      	ldr	r2, [sp, #60]	@ 0x3c
100069ba:	7813      	ldrb	r3, [r2, #0]
100069bc:	3b20      	subs	r3, #32
100069be:	2b10      	cmp	r3, #16
100069c0:	d8f8      	bhi.n	100069b4 <_vsnprintf+0x7c>
100069c2:	a101      	add	r1, pc, #4	@ (adr r1, 100069c8 <_vsnprintf+0x90>)
100069c4:	f851 f023 	ldr.w	pc, [r1, r3, lsl #2]
100069c8:	1000699d 	.word	0x1000699d
100069cc:	100069b5 	.word	0x100069b5
100069d0:	100069b5 	.word	0x100069b5
100069d4:	100069a9 	.word	0x100069a9
100069d8:	100069b5 	.word	0x100069b5
100069dc:	100069b5 	.word	0x100069b5
100069e0:	100069b5 	.word	0x100069b5
100069e4:	100069b5 	.word	0x100069b5
100069e8:	100069b5 	.word	0x100069b5
100069ec:	100069b5 	.word	0x100069b5
100069f0:	100069b5 	.word	0x100069b5
100069f4:	10006991 	.word	0x10006991
100069f8:	100069b5 	.word	0x100069b5
100069fc:	10006985 	.word	0x10006985
10006a00:	100069b5 	.word	0x100069b5
10006a04:	100069b5 	.word	0x100069b5
10006a08:	10006979 	.word	0x10006979
10006a0c:	930b      	str	r3, [sp, #44]	@ 0x2c
10006a0e:	9b0f      	ldr	r3, [sp, #60]	@ 0x3c
10006a10:	781a      	ldrb	r2, [r3, #0]
10006a12:	f1a2 0330 	sub.w	r3, r2, #48	@ 0x30
10006a16:	b2db      	uxtb	r3, r3
10006a18:	2b09      	cmp	r3, #9
10006a1a:	d918      	bls.n	10006a4e <_vsnprintf+0x116>
10006a1c:	2a2a      	cmp	r2, #42	@ 0x2a
10006a1e:	d01b      	beq.n	10006a58 <_vsnprintf+0x120>
10006a20:	f8dd b02c 	ldr.w	fp, [sp, #44]	@ 0x2c
10006a24:	9b0f      	ldr	r3, [sp, #60]	@ 0x3c
10006a26:	781a      	ldrb	r2, [r3, #0]
10006a28:	2a2e      	cmp	r2, #46	@ 0x2e
10006a2a:	d025      	beq.n	10006a78 <_vsnprintf+0x140>
10006a2c:	9a0f      	ldr	r2, [sp, #60]	@ 0x3c
10006a2e:	7813      	ldrb	r3, [r2, #0]
10006a30:	3b68      	subs	r3, #104	@ 0x68
10006a32:	2b12      	cmp	r3, #18
10006a34:	d85c      	bhi.n	10006af0 <_vsnprintf+0x1b8>
10006a36:	e8df f003 	tbb	[pc, r3]
10006a3a:	5b49      	.short	0x5b49
10006a3c:	5b3b5bac 	.word	0x5b3b5bac
10006a40:	5b5b5b5b 	.word	0x5b5b5b5b
10006a44:	5b575b5b 	.word	0x5b575b5b
10006a48:	5b5b5b5b 	.word	0x5b5b5b5b
10006a4c:	b1          	.byte	0xb1
10006a4d:	00          	.byte	0x00
10006a4e:	a80f      	add	r0, sp, #60	@ 0x3c
10006a50:	f7ff f9fe 	bl	10005e50 <_atoi>
10006a54:	4683      	mov	fp, r0
10006a56:	e7e5      	b.n	10006a24 <_vsnprintf+0xec>
10006a58:	9b1a      	ldr	r3, [sp, #104]	@ 0x68
10006a5a:	1d1a      	adds	r2, r3, #4
10006a5c:	921a      	str	r2, [sp, #104]	@ 0x68
10006a5e:	681b      	ldr	r3, [r3, #0]
10006a60:	2b00      	cmp	r3, #0
10006a62:	db04      	blt.n	10006a6e <_vsnprintf+0x136>
10006a64:	469b      	mov	fp, r3
10006a66:	9b0f      	ldr	r3, [sp, #60]	@ 0x3c
10006a68:	3301      	adds	r3, #1
10006a6a:	930f      	str	r3, [sp, #60]	@ 0x3c
10006a6c:	e7da      	b.n	10006a24 <_vsnprintf+0xec>
10006a6e:	f045 0502 	orr.w	r5, r5, #2
10006a72:	f1c3 0b00 	rsb	fp, r3, #0
10006a76:	e7f6      	b.n	10006a66 <_vsnprintf+0x12e>
10006a78:	f445 6580 	orr.w	r5, r5, #1024	@ 0x400
10006a7c:	1c5a      	adds	r2, r3, #1
10006a7e:	920f      	str	r2, [sp, #60]	@ 0x3c
10006a80:	785a      	ldrb	r2, [r3, #1]
10006a82:	f1a2 0330 	sub.w	r3, r2, #48	@ 0x30
10006a86:	b2db      	uxtb	r3, r3
10006a88:	2b09      	cmp	r3, #9
10006a8a:	d90c      	bls.n	10006aa6 <_vsnprintf+0x16e>
10006a8c:	2a2a      	cmp	r2, #42	@ 0x2a
10006a8e:	d1cd      	bne.n	10006a2c <_vsnprintf+0xf4>
10006a90:	9b1a      	ldr	r3, [sp, #104]	@ 0x68
10006a92:	1d1a      	adds	r2, r3, #4
10006a94:	921a      	str	r2, [sp, #104]	@ 0x68
10006a96:	681c      	ldr	r4, [r3, #0]
10006a98:	ea24 73e4 	bic.w	r3, r4, r4, asr #31
10006a9c:	930b      	str	r3, [sp, #44]	@ 0x2c
10006a9e:	9b0f      	ldr	r3, [sp, #60]	@ 0x3c
10006aa0:	3301      	adds	r3, #1
10006aa2:	930f      	str	r3, [sp, #60]	@ 0x3c
10006aa4:	e7c2      	b.n	10006a2c <_vsnprintf+0xf4>
10006aa6:	a80f      	add	r0, sp, #60	@ 0x3c
10006aa8:	f7ff f9d2 	bl	10005e50 <_atoi>
10006aac:	900b      	str	r0, [sp, #44]	@ 0x2c
10006aae:	e7bd      	b.n	10006a2c <_vsnprintf+0xf4>
10006ab0:	f445 7180 	orr.w	r1, r5, #256	@ 0x100
10006ab4:	1c53      	adds	r3, r2, #1
10006ab6:	930f      	str	r3, [sp, #60]	@ 0x3c
10006ab8:	7853      	ldrb	r3, [r2, #1]
10006aba:	2b6c      	cmp	r3, #108	@ 0x6c
10006abc:	d001      	beq.n	10006ac2 <_vsnprintf+0x18a>
10006abe:	460d      	mov	r5, r1
10006ac0:	e016      	b.n	10006af0 <_vsnprintf+0x1b8>
10006ac2:	f445 7540 	orr.w	r5, r5, #768	@ 0x300
10006ac6:	3202      	adds	r2, #2
10006ac8:	920f      	str	r2, [sp, #60]	@ 0x3c
10006aca:	e011      	b.n	10006af0 <_vsnprintf+0x1b8>
10006acc:	f045 0180 	orr.w	r1, r5, #128	@ 0x80
10006ad0:	1c53      	adds	r3, r2, #1
10006ad2:	930f      	str	r3, [sp, #60]	@ 0x3c
10006ad4:	7853      	ldrb	r3, [r2, #1]
10006ad6:	2b68      	cmp	r3, #104	@ 0x68
10006ad8:	d001      	beq.n	10006ade <_vsnprintf+0x1a6>
10006ada:	460d      	mov	r5, r1
10006adc:	e008      	b.n	10006af0 <_vsnprintf+0x1b8>
10006ade:	f045 05c0 	orr.w	r5, r5, #192	@ 0xc0
10006ae2:	3202      	adds	r2, #2
10006ae4:	920f      	str	r2, [sp, #60]	@ 0x3c
10006ae6:	e003      	b.n	10006af0 <_vsnprintf+0x1b8>
10006ae8:	f445 7580 	orr.w	r5, r5, #256	@ 0x100
10006aec:	3201      	adds	r2, #1
10006aee:	920f      	str	r2, [sp, #60]	@ 0x3c
10006af0:	9b0f      	ldr	r3, [sp, #60]	@ 0x3c
10006af2:	7818      	ldrb	r0, [r3, #0]
10006af4:	2867      	cmp	r0, #103	@ 0x67
10006af6:	d856      	bhi.n	10006ba6 <_vsnprintf+0x26e>
10006af8:	2825      	cmp	r0, #37	@ 0x25
10006afa:	f0c0 8268 	bcc.w	10006fce <_vsnprintf+0x696>
10006afe:	f1a0 0325 	sub.w	r3, r0, #37	@ 0x25
10006b02:	2b42      	cmp	r3, #66	@ 0x42
10006b04:	f200 8263 	bhi.w	10006fce <_vsnprintf+0x696>
10006b08:	e8df f013 	tbh	[pc, r3, lsl #1]
10006b0c:	02610256 	.word	0x02610256
10006b10:	02610261 	.word	0x02610261
10006b14:	02610261 	.word	0x02610261
10006b18:	02610261 	.word	0x02610261
10006b1c:	02610261 	.word	0x02610261
10006b20:	02610261 	.word	0x02610261
10006b24:	02610261 	.word	0x02610261
10006b28:	02610261 	.word	0x02610261
10006b2c:	02610261 	.word	0x02610261
10006b30:	02610261 	.word	0x02610261
10006b34:	02610261 	.word	0x02610261
10006b38:	02610261 	.word	0x02610261
10006b3c:	02610261 	.word	0x02610261
10006b40:	02610261 	.word	0x02610261
10006b44:	02610261 	.word	0x02610261
10006b48:	02610261 	.word	0x02610261
10006b4c:	01680188 	.word	0x01680188
10006b50:	02610188 	.word	0x02610188
10006b54:	02610261 	.word	0x02610261
10006b58:	02610261 	.word	0x02610261
10006b5c:	02610261 	.word	0x02610261
10006b60:	02610261 	.word	0x02610261
10006b64:	02610261 	.word	0x02610261
10006b68:	02610261 	.word	0x02610261
10006b6c:	02610261 	.word	0x02610261
10006b70:	00710261 	.word	0x00710261
10006b74:	02610261 	.word	0x02610261
10006b78:	02610261 	.word	0x02610261
10006b7c:	02610261 	.word	0x02610261
10006b80:	02610261 	.word	0x02610261
10006b84:	00710261 	.word	0x00710261
10006b88:	007101af 	.word	0x007101af
10006b8c:	01680188 	.word	0x01680188
10006b90:	0188      	.short	0x0188
10006b92:	f445 7500 	orr.w	r5, r5, #512	@ 0x200
10006b96:	3201      	adds	r2, #1
10006b98:	920f      	str	r2, [sp, #60]	@ 0x3c
10006b9a:	e7a9      	b.n	10006af0 <_vsnprintf+0x1b8>
10006b9c:	f445 7580 	orr.w	r5, r5, #256	@ 0x100
10006ba0:	3201      	adds	r2, #1
10006ba2:	920f      	str	r2, [sp, #60]	@ 0x3c
10006ba4:	e7a4      	b.n	10006af0 <_vsnprintf+0x1b8>
10006ba6:	2878      	cmp	r0, #120	@ 0x78
10006ba8:	f200 8211 	bhi.w	10006fce <_vsnprintf+0x696>
10006bac:	2869      	cmp	r0, #105	@ 0x69
10006bae:	f0c0 820e 	bcc.w	10006fce <_vsnprintf+0x696>
10006bb2:	f1a0 0269 	sub.w	r2, r0, #105	@ 0x69
10006bb6:	b2d2      	uxtb	r2, r2
10006bb8:	2301      	movs	r3, #1
10006bba:	4093      	lsls	r3, r2
10006bbc:	f249 0241 	movw	r2, #36929	@ 0x9041
10006bc0:	4213      	tst	r3, r2
10006bc2:	d114      	bne.n	10006bee <_vsnprintf+0x2b6>
10006bc4:	f013 0f80 	tst.w	r3, #128	@ 0x80
10006bc8:	f040 81db 	bne.w	10006f82 <_vsnprintf+0x64a>
10006bcc:	f413 6f80 	tst.w	r3, #1024	@ 0x400
10006bd0:	f000 81fd 	beq.w	10006fce <_vsnprintf+0x696>
10006bd4:	9b1a      	ldr	r3, [sp, #104]	@ 0x68
10006bd6:	1d1a      	adds	r2, r3, #4
10006bd8:	921a      	str	r2, [sp, #104]	@ 0x68
10006bda:	f8d3 a000 	ldr.w	sl, [r3]
10006bde:	9b0b      	ldr	r3, [sp, #44]	@ 0x2c
10006be0:	2b00      	cmp	r3, #0
10006be2:	f040 8190 	bne.w	10006f06 <_vsnprintf+0x5ce>
10006be6:	f04f 32ff 	mov.w	r2, #4294967295
10006bea:	4653      	mov	r3, sl
10006bec:	e171      	b.n	10006ed2 <_vsnprintf+0x59a>
10006bee:	286f      	cmp	r0, #111	@ 0x6f
10006bf0:	d00c      	beq.n	10006c0c <_vsnprintf+0x2d4>
10006bf2:	d805      	bhi.n	10006c00 <_vsnprintf+0x2c8>
10006bf4:	2858      	cmp	r0, #88	@ 0x58
10006bf6:	d03c      	beq.n	10006c72 <_vsnprintf+0x33a>
10006bf8:	2862      	cmp	r0, #98	@ 0x62
10006bfa:	d103      	bne.n	10006c04 <_vsnprintf+0x2cc>
10006bfc:	2302      	movs	r3, #2
10006bfe:	e006      	b.n	10006c0e <_vsnprintf+0x2d6>
10006c00:	2878      	cmp	r0, #120	@ 0x78
10006c02:	d038      	beq.n	10006c76 <_vsnprintf+0x33e>
10006c04:	f025 0510 	bic.w	r5, r5, #16
10006c08:	230a      	movs	r3, #10
10006c0a:	e000      	b.n	10006c0e <_vsnprintf+0x2d6>
10006c0c:	2308      	movs	r3, #8
10006c0e:	2858      	cmp	r0, #88	@ 0x58
10006c10:	d033      	beq.n	10006c7a <_vsnprintf+0x342>
10006c12:	2869      	cmp	r0, #105	@ 0x69
10006c14:	d003      	beq.n	10006c1e <_vsnprintf+0x2e6>
10006c16:	2864      	cmp	r0, #100	@ 0x64
10006c18:	d001      	beq.n	10006c1e <_vsnprintf+0x2e6>
10006c1a:	f025 050c 	bic.w	r5, r5, #12
10006c1e:	f415 6f80 	tst.w	r5, #1024	@ 0x400
10006c22:	d001      	beq.n	10006c28 <_vsnprintf+0x2f0>
10006c24:	f025 0501 	bic.w	r5, r5, #1
10006c28:	2869      	cmp	r0, #105	@ 0x69
10006c2a:	d029      	beq.n	10006c80 <_vsnprintf+0x348>
10006c2c:	2864      	cmp	r0, #100	@ 0x64
10006c2e:	d027      	beq.n	10006c80 <_vsnprintf+0x348>
10006c30:	f415 7f00 	tst.w	r5, #512	@ 0x200
10006c34:	f040 8094 	bne.w	10006d60 <_vsnprintf+0x428>
10006c38:	f415 7f80 	tst.w	r5, #256	@ 0x100
10006c3c:	f040 80ac 	bne.w	10006d98 <_vsnprintf+0x460>
10006c40:	f015 0f40 	tst.w	r5, #64	@ 0x40
10006c44:	f000 80bd 	beq.w	10006dc2 <_vsnprintf+0x48a>
10006c48:	9a1a      	ldr	r2, [sp, #104]	@ 0x68
10006c4a:	1d11      	adds	r1, r2, #4
10006c4c:	911a      	str	r1, [sp, #104]	@ 0x68
10006c4e:	7812      	ldrb	r2, [r2, #0]
10006c50:	9505      	str	r5, [sp, #20]
10006c52:	f8cd b010 	str.w	fp, [sp, #16]
10006c56:	990b      	ldr	r1, [sp, #44]	@ 0x2c
10006c58:	9103      	str	r1, [sp, #12]
10006c5a:	9302      	str	r3, [sp, #8]
10006c5c:	2300      	movs	r3, #0
10006c5e:	9301      	str	r3, [sp, #4]
10006c60:	9200      	str	r2, [sp, #0]
10006c62:	463b      	mov	r3, r7
10006c64:	4632      	mov	r2, r6
10006c66:	4649      	mov	r1, r9
10006c68:	4640      	mov	r0, r8
10006c6a:	f7ff f9de 	bl	1000602a <_ntoa_long>
10006c6e:	4606      	mov	r6, r0
10006c70:	e027      	b.n	10006cc2 <_vsnprintf+0x38a>
10006c72:	2310      	movs	r3, #16
10006c74:	e7cb      	b.n	10006c0e <_vsnprintf+0x2d6>
10006c76:	2310      	movs	r3, #16
10006c78:	e7c9      	b.n	10006c0e <_vsnprintf+0x2d6>
10006c7a:	f045 0520 	orr.w	r5, r5, #32
10006c7e:	e7c8      	b.n	10006c12 <_vsnprintf+0x2da>
10006c80:	f415 7f00 	tst.w	r5, #512	@ 0x200
10006c84:	d121      	bne.n	10006cca <_vsnprintf+0x392>
10006c86:	f415 7f80 	tst.w	r5, #256	@ 0x100
10006c8a:	d142      	bne.n	10006d12 <_vsnprintf+0x3da>
10006c8c:	f015 0f40 	tst.w	r5, #64	@ 0x40
10006c90:	d058      	beq.n	10006d44 <_vsnprintf+0x40c>
10006c92:	9a1a      	ldr	r2, [sp, #104]	@ 0x68
10006c94:	1d11      	adds	r1, r2, #4
10006c96:	911a      	str	r1, [sp, #104]	@ 0x68
10006c98:	7812      	ldrb	r2, [r2, #0]
10006c9a:	ea82 71e2 	eor.w	r1, r2, r2, asr #31
10006c9e:	eba1 71e2 	sub.w	r1, r1, r2, asr #31
10006ca2:	9505      	str	r5, [sp, #20]
10006ca4:	f8cd b010 	str.w	fp, [sp, #16]
10006ca8:	980b      	ldr	r0, [sp, #44]	@ 0x2c
10006caa:	9003      	str	r0, [sp, #12]
10006cac:	9302      	str	r3, [sp, #8]
10006cae:	0fd2      	lsrs	r2, r2, #31
10006cb0:	9201      	str	r2, [sp, #4]
10006cb2:	9100      	str	r1, [sp, #0]
10006cb4:	463b      	mov	r3, r7
10006cb6:	4632      	mov	r2, r6
10006cb8:	4649      	mov	r1, r9
10006cba:	4640      	mov	r0, r8
10006cbc:	f7ff f9b5 	bl	1000602a <_ntoa_long>
10006cc0:	4606      	mov	r6, r0
10006cc2:	9b0f      	ldr	r3, [sp, #60]	@ 0x3c
10006cc4:	3301      	adds	r3, #1
10006cc6:	930f      	str	r3, [sp, #60]	@ 0x3c
10006cc8:	e641      	b.n	1000694e <_vsnprintf+0x16>
10006cca:	9a1a      	ldr	r2, [sp, #104]	@ 0x68
10006ccc:	3207      	adds	r2, #7
10006cce:	f022 0207 	bic.w	r2, r2, #7
10006cd2:	f102 0108 	add.w	r1, r2, #8
10006cd6:	911a      	str	r1, [sp, #104]	@ 0x68
10006cd8:	6851      	ldr	r1, [r2, #4]
10006cda:	6812      	ldr	r2, [r2, #0]
10006cdc:	4608      	mov	r0, r1
10006cde:	2900      	cmp	r1, #0
10006ce0:	db13      	blt.n	10006d0a <_vsnprintf+0x3d2>
10006ce2:	9508      	str	r5, [sp, #32]
10006ce4:	f8cd b01c 	str.w	fp, [sp, #28]
10006ce8:	9c0b      	ldr	r4, [sp, #44]	@ 0x2c
10006cea:	9406      	str	r4, [sp, #24]
10006cec:	9304      	str	r3, [sp, #16]
10006cee:	2300      	movs	r3, #0
10006cf0:	9305      	str	r3, [sp, #20]
10006cf2:	0fc9      	lsrs	r1, r1, #31
10006cf4:	9102      	str	r1, [sp, #8]
10006cf6:	9200      	str	r2, [sp, #0]
10006cf8:	9001      	str	r0, [sp, #4]
10006cfa:	463b      	mov	r3, r7
10006cfc:	4632      	mov	r2, r6
10006cfe:	4649      	mov	r1, r9
10006d00:	4640      	mov	r0, r8
10006d02:	f7ff f9dc 	bl	100060be <_ntoa_long_long>
10006d06:	4606      	mov	r6, r0
10006d08:	e7db      	b.n	10006cc2 <_vsnprintf+0x38a>
10006d0a:	4252      	negs	r2, r2
10006d0c:	eb61 0041 	sbc.w	r0, r1, r1, lsl #1
10006d10:	e7e7      	b.n	10006ce2 <_vsnprintf+0x3aa>
10006d12:	9a1a      	ldr	r2, [sp, #104]	@ 0x68
10006d14:	1d11      	adds	r1, r2, #4
10006d16:	911a      	str	r1, [sp, #104]	@ 0x68
10006d18:	6812      	ldr	r2, [r2, #0]
10006d1a:	ea82 71e2 	eor.w	r1, r2, r2, asr #31
10006d1e:	eba1 71e2 	sub.w	r1, r1, r2, asr #31
10006d22:	9505      	str	r5, [sp, #20]
10006d24:	f8cd b010 	str.w	fp, [sp, #16]
10006d28:	980b      	ldr	r0, [sp, #44]	@ 0x2c
10006d2a:	9003      	str	r0, [sp, #12]
10006d2c:	9302      	str	r3, [sp, #8]
10006d2e:	0fd2      	lsrs	r2, r2, #31
10006d30:	9201      	str	r2, [sp, #4]
10006d32:	9100      	str	r1, [sp, #0]
10006d34:	463b      	mov	r3, r7
10006d36:	4632      	mov	r2, r6
10006d38:	4649      	mov	r1, r9
10006d3a:	4640      	mov	r0, r8
10006d3c:	f7ff f975 	bl	1000602a <_ntoa_long>
10006d40:	4606      	mov	r6, r0
10006d42:	e7be      	b.n	10006cc2 <_vsnprintf+0x38a>
10006d44:	f015 0f80 	tst.w	r5, #128	@ 0x80
10006d48:	d005      	beq.n	10006d56 <_vsnprintf+0x41e>
10006d4a:	9a1a      	ldr	r2, [sp, #104]	@ 0x68
10006d4c:	1d11      	adds	r1, r2, #4
10006d4e:	911a      	str	r1, [sp, #104]	@ 0x68
10006d50:	f9b2 2000 	ldrsh.w	r2, [r2]
10006d54:	e7a1      	b.n	10006c9a <_vsnprintf+0x362>
10006d56:	9a1a      	ldr	r2, [sp, #104]	@ 0x68
10006d58:	1d11      	adds	r1, r2, #4
10006d5a:	911a      	str	r1, [sp, #104]	@ 0x68
10006d5c:	6812      	ldr	r2, [r2, #0]
10006d5e:	e79c      	b.n	10006c9a <_vsnprintf+0x362>
10006d60:	9a1a      	ldr	r2, [sp, #104]	@ 0x68
10006d62:	3207      	adds	r2, #7
10006d64:	f022 0207 	bic.w	r2, r2, #7
10006d68:	f102 0108 	add.w	r1, r2, #8
10006d6c:	911a      	str	r1, [sp, #104]	@ 0x68
10006d6e:	9508      	str	r5, [sp, #32]
10006d70:	f8cd b01c 	str.w	fp, [sp, #28]
10006d74:	990b      	ldr	r1, [sp, #44]	@ 0x2c
10006d76:	9106      	str	r1, [sp, #24]
10006d78:	2100      	movs	r1, #0
10006d7a:	9304      	str	r3, [sp, #16]
10006d7c:	9105      	str	r1, [sp, #20]
10006d7e:	9102      	str	r1, [sp, #8]
10006d80:	e9d2 2300 	ldrd	r2, r3, [r2]
10006d84:	e9cd 2300 	strd	r2, r3, [sp]
10006d88:	463b      	mov	r3, r7
10006d8a:	4632      	mov	r2, r6
10006d8c:	4649      	mov	r1, r9
10006d8e:	4640      	mov	r0, r8
10006d90:	f7ff f995 	bl	100060be <_ntoa_long_long>
10006d94:	4606      	mov	r6, r0
10006d96:	e794      	b.n	10006cc2 <_vsnprintf+0x38a>
10006d98:	9a1a      	ldr	r2, [sp, #104]	@ 0x68
10006d9a:	1d11      	adds	r1, r2, #4
10006d9c:	911a      	str	r1, [sp, #104]	@ 0x68
10006d9e:	9505      	str	r5, [sp, #20]
10006da0:	f8cd b010 	str.w	fp, [sp, #16]
10006da4:	990b      	ldr	r1, [sp, #44]	@ 0x2c
10006da6:	9103      	str	r1, [sp, #12]
10006da8:	9302      	str	r3, [sp, #8]
10006daa:	2300      	movs	r3, #0
10006dac:	9301      	str	r3, [sp, #4]
10006dae:	6813      	ldr	r3, [r2, #0]
10006db0:	9300      	str	r3, [sp, #0]
10006db2:	463b      	mov	r3, r7
10006db4:	4632      	mov	r2, r6
10006db6:	4649      	mov	r1, r9
10006db8:	4640      	mov	r0, r8
10006dba:	f7ff f936 	bl	1000602a <_ntoa_long>
10006dbe:	4606      	mov	r6, r0
10006dc0:	e77f      	b.n	10006cc2 <_vsnprintf+0x38a>
10006dc2:	f015 0f80 	tst.w	r5, #128	@ 0x80
10006dc6:	d004      	beq.n	10006dd2 <_vsnprintf+0x49a>
10006dc8:	9a1a      	ldr	r2, [sp, #104]	@ 0x68
10006dca:	1d11      	adds	r1, r2, #4
10006dcc:	911a      	str	r1, [sp, #104]	@ 0x68
10006dce:	8812      	ldrh	r2, [r2, #0]
10006dd0:	e73e      	b.n	10006c50 <_vsnprintf+0x318>
10006dd2:	9a1a      	ldr	r2, [sp, #104]	@ 0x68
10006dd4:	1d11      	adds	r1, r2, #4
10006dd6:	911a      	str	r1, [sp, #104]	@ 0x68
10006dd8:	6812      	ldr	r2, [r2, #0]
10006dda:	e739      	b.n	10006c50 <_vsnprintf+0x318>
10006ddc:	2846      	cmp	r0, #70	@ 0x46
10006dde:	d01a      	beq.n	10006e16 <_vsnprintf+0x4de>
10006de0:	9b1a      	ldr	r3, [sp, #104]	@ 0x68
10006de2:	3307      	adds	r3, #7
10006de4:	f023 0307 	bic.w	r3, r3, #7
10006de8:	f103 0208 	add.w	r2, r3, #8
10006dec:	921a      	str	r2, [sp, #104]	@ 0x68
10006dee:	9504      	str	r5, [sp, #16]
10006df0:	f8cd b00c 	str.w	fp, [sp, #12]
10006df4:	9a0b      	ldr	r2, [sp, #44]	@ 0x2c
10006df6:	9202      	str	r2, [sp, #8]
10006df8:	e9d3 2300 	ldrd	r2, r3, [r3]
10006dfc:	e9cd 2300 	strd	r2, r3, [sp]
10006e00:	463b      	mov	r3, r7
10006e02:	4632      	mov	r2, r6
10006e04:	4649      	mov	r1, r9
10006e06:	4640      	mov	r0, r8
10006e08:	f7ff fbca 	bl	100065a0 <_ftoa>
10006e0c:	4606      	mov	r6, r0
10006e0e:	9b0f      	ldr	r3, [sp, #60]	@ 0x3c
10006e10:	3301      	adds	r3, #1
10006e12:	930f      	str	r3, [sp, #60]	@ 0x3c
10006e14:	e59b      	b.n	1000694e <_vsnprintf+0x16>
10006e16:	f045 0520 	orr.w	r5, r5, #32
10006e1a:	e7e1      	b.n	10006de0 <_vsnprintf+0x4a8>
10006e1c:	2867      	cmp	r0, #103	@ 0x67
10006e1e:	d001      	beq.n	10006e24 <_vsnprintf+0x4ec>
10006e20:	2847      	cmp	r0, #71	@ 0x47
10006e22:	d101      	bne.n	10006e28 <_vsnprintf+0x4f0>
10006e24:	f445 6500 	orr.w	r5, r5, #2048	@ 0x800
10006e28:	2845      	cmp	r0, #69	@ 0x45
10006e2a:	d001      	beq.n	10006e30 <_vsnprintf+0x4f8>
10006e2c:	2847      	cmp	r0, #71	@ 0x47
10006e2e:	d101      	bne.n	10006e34 <_vsnprintf+0x4fc>
10006e30:	f045 0520 	orr.w	r5, r5, #32
10006e34:	9b1a      	ldr	r3, [sp, #104]	@ 0x68
10006e36:	3307      	adds	r3, #7
10006e38:	f023 0307 	bic.w	r3, r3, #7
10006e3c:	f103 0208 	add.w	r2, r3, #8
10006e40:	921a      	str	r2, [sp, #104]	@ 0x68
10006e42:	9504      	str	r5, [sp, #16]
10006e44:	f8cd b00c 	str.w	fp, [sp, #12]
10006e48:	9a0b      	ldr	r2, [sp, #44]	@ 0x2c
10006e4a:	9202      	str	r2, [sp, #8]
10006e4c:	e9d3 2300 	ldrd	r2, r3, [r3]
10006e50:	e9cd 2300 	strd	r2, r3, [sp]
10006e54:	463b      	mov	r3, r7
10006e56:	4632      	mov	r2, r6
10006e58:	4649      	mov	r1, r9
10006e5a:	4640      	mov	r0, r8
10006e5c:	f7ff f990 	bl	10006180 <_etoa>
10006e60:	4606      	mov	r6, r0
10006e62:	9b0f      	ldr	r3, [sp, #60]	@ 0x3c
10006e64:	3301      	adds	r3, #1
10006e66:	930f      	str	r3, [sp, #60]	@ 0x3c
10006e68:	e571      	b.n	1000694e <_vsnprintf+0x16>
10006e6a:	f015 0502 	ands.w	r5, r5, #2
10006e6e:	d01d      	beq.n	10006eac <_vsnprintf+0x574>
10006e70:	2401      	movs	r4, #1
10006e72:	981a      	ldr	r0, [sp, #104]	@ 0x68
10006e74:	1d03      	adds	r3, r0, #4
10006e76:	931a      	str	r3, [sp, #104]	@ 0x68
10006e78:	f106 0a01 	add.w	sl, r6, #1
10006e7c:	463b      	mov	r3, r7
10006e7e:	4632      	mov	r2, r6
10006e80:	4649      	mov	r1, r9
10006e82:	7800      	ldrb	r0, [r0, #0]
10006e84:	47c0      	blx	r8
10006e86:	b9a5      	cbnz	r5, 10006eb2 <_vsnprintf+0x57a>
10006e88:	9b0f      	ldr	r3, [sp, #60]	@ 0x3c
10006e8a:	3301      	adds	r3, #1
10006e8c:	930f      	str	r3, [sp, #60]	@ 0x3c
10006e8e:	4656      	mov	r6, sl
10006e90:	e55d      	b.n	1000694e <_vsnprintf+0x16>
10006e92:	f102 0a01 	add.w	sl, r2, #1
10006e96:	463b      	mov	r3, r7
10006e98:	4649      	mov	r1, r9
10006e9a:	2020      	movs	r0, #32
10006e9c:	47c0      	blx	r8
10006e9e:	4623      	mov	r3, r4
10006ea0:	4652      	mov	r2, sl
10006ea2:	1c5c      	adds	r4, r3, #1
10006ea4:	459b      	cmp	fp, r3
10006ea6:	d8f4      	bhi.n	10006e92 <_vsnprintf+0x55a>
10006ea8:	4616      	mov	r6, r2
10006eaa:	e7e2      	b.n	10006e72 <_vsnprintf+0x53a>
10006eac:	2301      	movs	r3, #1
10006eae:	4632      	mov	r2, r6
10006eb0:	e7f7      	b.n	10006ea2 <_vsnprintf+0x56a>
10006eb2:	4652      	mov	r2, sl
10006eb4:	e006      	b.n	10006ec4 <_vsnprintf+0x58c>
10006eb6:	1c56      	adds	r6, r2, #1
10006eb8:	463b      	mov	r3, r7
10006eba:	4649      	mov	r1, r9
10006ebc:	2020      	movs	r0, #32
10006ebe:	47c0      	blx	r8
10006ec0:	462c      	mov	r4, r5
10006ec2:	4632      	mov	r2, r6
10006ec4:	1c65      	adds	r5, r4, #1
10006ec6:	45a3      	cmp	fp, r4
10006ec8:	d8f5      	bhi.n	10006eb6 <_vsnprintf+0x57e>
10006eca:	4692      	mov	sl, r2
10006ecc:	e7dc      	b.n	10006e88 <_vsnprintf+0x550>
10006ece:	3301      	adds	r3, #1
10006ed0:	460a      	mov	r2, r1
10006ed2:	7819      	ldrb	r1, [r3, #0]
10006ed4:	b111      	cbz	r1, 10006edc <_vsnprintf+0x5a4>
10006ed6:	1e51      	subs	r1, r2, #1
10006ed8:	2a00      	cmp	r2, #0
10006eda:	d1f8      	bne.n	10006ece <_vsnprintf+0x596>
10006edc:	eba3 030a 	sub.w	r3, r3, sl
10006ee0:	f415 6280 	ands.w	r2, r5, #1024	@ 0x400
10006ee4:	920c      	str	r2, [sp, #48]	@ 0x30
10006ee6:	d003      	beq.n	10006ef0 <_vsnprintf+0x5b8>
10006ee8:	9a0b      	ldr	r2, [sp, #44]	@ 0x2c
10006eea:	4293      	cmp	r3, r2
10006eec:	bf28      	it	cs
10006eee:	4613      	movcs	r3, r2
10006ef0:	f015 0402 	ands.w	r4, r5, #2
10006ef4:	d009      	beq.n	10006f0a <_vsnprintf+0x5d2>
10006ef6:	940d      	str	r4, [sp, #52]	@ 0x34
10006ef8:	f8cd b038 	str.w	fp, [sp, #56]	@ 0x38
10006efc:	9d0b      	ldr	r5, [sp, #44]	@ 0x2c
10006efe:	4632      	mov	r2, r6
10006f00:	9e0c      	ldr	r6, [sp, #48]	@ 0x30
10006f02:	469b      	mov	fp, r3
10006f04:	e01f      	b.n	10006f46 <_vsnprintf+0x60e>
10006f06:	9a0b      	ldr	r2, [sp, #44]	@ 0x2c
10006f08:	e66f      	b.n	10006bea <_vsnprintf+0x2b2>
10006f0a:	4632      	mov	r2, r6
10006f0c:	4626      	mov	r6, r4
10006f0e:	e006      	b.n	10006f1e <_vsnprintf+0x5e6>
10006f10:	1c54      	adds	r4, r2, #1
10006f12:	463b      	mov	r3, r7
10006f14:	4649      	mov	r1, r9
10006f16:	2020      	movs	r0, #32
10006f18:	47c0      	blx	r8
10006f1a:	462b      	mov	r3, r5
10006f1c:	4622      	mov	r2, r4
10006f1e:	1c5d      	adds	r5, r3, #1
10006f20:	459b      	cmp	fp, r3
10006f22:	d8f5      	bhi.n	10006f10 <_vsnprintf+0x5d8>
10006f24:	4634      	mov	r4, r6
10006f26:	462b      	mov	r3, r5
10006f28:	940d      	str	r4, [sp, #52]	@ 0x34
10006f2a:	f8cd b038 	str.w	fp, [sp, #56]	@ 0x38
10006f2e:	9d0b      	ldr	r5, [sp, #44]	@ 0x2c
10006f30:	9e0c      	ldr	r6, [sp, #48]	@ 0x30
10006f32:	469b      	mov	fp, r3
10006f34:	e007      	b.n	10006f46 <_vsnprintf+0x60e>
10006f36:	461d      	mov	r5, r3
10006f38:	f10a 0a01 	add.w	sl, sl, #1
10006f3c:	1c54      	adds	r4, r2, #1
10006f3e:	463b      	mov	r3, r7
10006f40:	4649      	mov	r1, r9
10006f42:	47c0      	blx	r8
10006f44:	4622      	mov	r2, r4
10006f46:	f89a 0000 	ldrb.w	r0, [sl]
10006f4a:	b120      	cbz	r0, 10006f56 <_vsnprintf+0x61e>
10006f4c:	2e00      	cmp	r6, #0
10006f4e:	d0f3      	beq.n	10006f38 <_vsnprintf+0x600>
10006f50:	1e6b      	subs	r3, r5, #1
10006f52:	2d00      	cmp	r5, #0
10006f54:	d1ef      	bne.n	10006f36 <_vsnprintf+0x5fe>
10006f56:	9c0d      	ldr	r4, [sp, #52]	@ 0x34
10006f58:	4616      	mov	r6, r2
10006f5a:	465b      	mov	r3, fp
10006f5c:	f8dd b038 	ldr.w	fp, [sp, #56]	@ 0x38
10006f60:	b954      	cbnz	r4, 10006f78 <_vsnprintf+0x640>
10006f62:	9b0f      	ldr	r3, [sp, #60]	@ 0x3c
10006f64:	3301      	adds	r3, #1
10006f66:	930f      	str	r3, [sp, #60]	@ 0x3c
10006f68:	e4f1      	b.n	1000694e <_vsnprintf+0x16>
10006f6a:	1c55      	adds	r5, r2, #1
10006f6c:	463b      	mov	r3, r7
10006f6e:	4649      	mov	r1, r9
10006f70:	2020      	movs	r0, #32
10006f72:	47c0      	blx	r8
10006f74:	4623      	mov	r3, r4
10006f76:	462a      	mov	r2, r5
10006f78:	1c5c      	adds	r4, r3, #1
10006f7a:	459b      	cmp	fp, r3
10006f7c:	d8f5      	bhi.n	10006f6a <_vsnprintf+0x632>
10006f7e:	4616      	mov	r6, r2
10006f80:	e7ef      	b.n	10006f62 <_vsnprintf+0x62a>
10006f82:	f045 0521 	orr.w	r5, r5, #33	@ 0x21
10006f86:	9b1a      	ldr	r3, [sp, #104]	@ 0x68
10006f88:	1d1a      	adds	r2, r3, #4
10006f8a:	921a      	str	r2, [sp, #104]	@ 0x68
10006f8c:	681b      	ldr	r3, [r3, #0]
10006f8e:	9505      	str	r5, [sp, #20]
10006f90:	2208      	movs	r2, #8
10006f92:	9204      	str	r2, [sp, #16]
10006f94:	9a0b      	ldr	r2, [sp, #44]	@ 0x2c
10006f96:	9203      	str	r2, [sp, #12]
10006f98:	2210      	movs	r2, #16
10006f9a:	9202      	str	r2, [sp, #8]
10006f9c:	2200      	movs	r2, #0
10006f9e:	9201      	str	r2, [sp, #4]
10006fa0:	9300      	str	r3, [sp, #0]
10006fa2:	463b      	mov	r3, r7
10006fa4:	4632      	mov	r2, r6
10006fa6:	4649      	mov	r1, r9
10006fa8:	4640      	mov	r0, r8
10006faa:	f7ff f83e 	bl	1000602a <_ntoa_long>
10006fae:	4606      	mov	r6, r0
10006fb0:	9b0f      	ldr	r3, [sp, #60]	@ 0x3c
10006fb2:	3301      	adds	r3, #1
10006fb4:	930f      	str	r3, [sp, #60]	@ 0x3c
10006fb6:	e4ca      	b.n	1000694e <_vsnprintf+0x16>
10006fb8:	1c74      	adds	r4, r6, #1
10006fba:	463b      	mov	r3, r7
10006fbc:	4632      	mov	r2, r6
10006fbe:	4649      	mov	r1, r9
10006fc0:	2025      	movs	r0, #37	@ 0x25
10006fc2:	47c0      	blx	r8
10006fc4:	9b0f      	ldr	r3, [sp, #60]	@ 0x3c
10006fc6:	3301      	adds	r3, #1
10006fc8:	930f      	str	r3, [sp, #60]	@ 0x3c
10006fca:	4626      	mov	r6, r4
10006fcc:	e4bf      	b.n	1000694e <_vsnprintf+0x16>
10006fce:	1c74      	adds	r4, r6, #1
10006fd0:	463b      	mov	r3, r7
10006fd2:	4632      	mov	r2, r6
10006fd4:	4649      	mov	r1, r9
10006fd6:	47c0      	blx	r8
10006fd8:	9b0f      	ldr	r3, [sp, #60]	@ 0x3c
10006fda:	3301      	adds	r3, #1
10006fdc:	930f      	str	r3, [sp, #60]	@ 0x3c
10006fde:	4626      	mov	r6, r4
10006fe0:	e4b5      	b.n	1000694e <_vsnprintf+0x16>
10006fe2:	f8df 8020 	ldr.w	r8, [pc, #32]	@ 10007004 <_vsnprintf+0x6cc>
10006fe6:	e4b1      	b.n	1000694c <_vsnprintf+0x14>
10006fe8:	42be      	cmp	r6, r7
10006fea:	d308      	bcc.n	10006ffe <_vsnprintf+0x6c6>
10006fec:	1e7a      	subs	r2, r7, #1
10006fee:	463b      	mov	r3, r7
10006ff0:	4649      	mov	r1, r9
10006ff2:	2000      	movs	r0, #0
10006ff4:	47c0      	blx	r8
10006ff6:	4630      	mov	r0, r6
10006ff8:	b011      	add	sp, #68	@ 0x44
10006ffa:	e8bd 8ff0 	ldmia.w	sp!, {r4, r5, r6, r7, r8, r9, sl, fp, pc}
10006ffe:	4632      	mov	r2, r6
10007000:	e7f5      	b.n	10006fee <_vsnprintf+0x6b6>
10007002:	bf00      	nop
10007004:	10005e41 	.word	0x10005e41

10007008 <vfctprintf>:
10007008:	b500      	push	{lr}
1000700a:	b085      	sub	sp, #20
1000700c:	9002      	str	r0, [sp, #8]
1000700e:	9103      	str	r1, [sp, #12]
10007010:	9300      	str	r3, [sp, #0]
10007012:	4613      	mov	r3, r2
10007014:	f04f 32ff 	mov.w	r2, #4294967295
10007018:	a902      	add	r1, sp, #8
1000701a:	4803      	ldr	r0, [pc, #12]	@ (10007028 <vfctprintf+0x20>)
1000701c:	f7ff fc8c 	bl	10006938 <_vsnprintf>
10007020:	b005      	add	sp, #20
10007022:	f85d fb04 	ldr.w	pc, [sp], #4
10007026:	bf00      	nop
10007028:	10005e43 	.word	0x10005e43

1000702c <_exit>:
1000702c:	be00      	bkpt	0x0000
1000702e:	e7fd      	b.n	1000702c <_exit>

10007030 <exit>:
10007030:	b508      	push	{r3, lr}
10007032:	f7ff fffb 	bl	1000702c <_exit>
	...

10007038 <__assert_func>:
10007038:	b500      	push	{lr}
1000703a:	b083      	sub	sp, #12
1000703c:	468c      	mov	ip, r1
1000703e:	4619      	mov	r1, r3
10007040:	b15a      	cbz	r2, 1000705a <__assert_func+0x22>
10007042:	4614      	mov	r4, r2
10007044:	4b06      	ldr	r3, [pc, #24]	@ (10007060 <__assert_func+0x28>)
10007046:	9401      	str	r4, [sp, #4]
10007048:	9300      	str	r3, [sp, #0]
1000704a:	4663      	mov	r3, ip
1000704c:	4602      	mov	r2, r0
1000704e:	4805      	ldr	r0, [pc, #20]	@ (10007064 <__assert_func+0x2c>)
10007050:	f000 f952 	bl	100072f8 <__wrap_printf>
10007054:	2001      	movs	r0, #1
10007056:	f7ff ffe9 	bl	1000702c <_exit>
1000705a:	4b03      	ldr	r3, [pc, #12]	@ (10007068 <__assert_func+0x30>)
1000705c:	461c      	mov	r4, r3
1000705e:	e7f2      	b.n	10007046 <__assert_func+0xe>
10007060:	10008f7c 	.word	0x10008f7c
10007064:	10008f8c 	.word	0x10008f8c
10007068:	10007848 	.word	0x10007848

1000706c <runtime_init>:
1000706c:	b510      	push	{r4, lr}
1000706e:	f3ef 8305 	mrs	r3, IPSR
10007072:	b2db      	uxtb	r3, r3
10007074:	b103      	cbz	r3, 10007078 <runtime_init+0xc>
10007076:	be00      	bkpt	0x0000
10007078:	f7fe fc8e 	bl	10005998 <runtime_run_initializers>
1000707c:	4c04      	ldr	r4, [pc, #16]	@ (10007090 <runtime_init+0x24>)
1000707e:	e002      	b.n	10007086 <runtime_init+0x1a>
10007080:	f854 3b04 	ldr.w	r3, [r4], #4
10007084:	4798      	blx	r3
10007086:	4b03      	ldr	r3, [pc, #12]	@ (10007094 <runtime_init+0x28>)
10007088:	429c      	cmp	r4, r3
1000708a:	d3f9      	bcc.n	10007080 <runtime_init+0x14>
1000708c:	bd10      	pop	{r4, pc}
1000708e:	bf00      	nop
10007090:	100077b8 	.word	0x100077b8
10007094:	100077c0 	.word	0x100077c0

10007098 <stdio_out_chars_no_crlf>:
10007098:	b508      	push	{r3, lr}
1000709a:	4603      	mov	r3, r0
1000709c:	4608      	mov	r0, r1
1000709e:	681b      	ldr	r3, [r3, #0]
100070a0:	4611      	mov	r1, r2
100070a2:	4798      	blx	r3
100070a4:	bd08      	pop	{r3, pc}
	...

100070a8 <stdio_out_chars_crlf>:
100070a8:	b5f8      	push	{r3, r4, r5, r6, r7, lr}
100070aa:	4607      	mov	r7, r0
100070ac:	460d      	mov	r5, r1
100070ae:	4616      	mov	r6, r2
100070b0:	7d43      	ldrb	r3, [r0, #21]
100070b2:	b113      	cbz	r3, 100070ba <stdio_out_chars_crlf+0x12>
100070b4:	2400      	movs	r4, #0
100070b6:	4620      	mov	r0, r4
100070b8:	e00c      	b.n	100070d4 <stdio_out_chars_crlf+0x2c>
100070ba:	6803      	ldr	r3, [r0, #0]
100070bc:	4611      	mov	r1, r2
100070be:	4628      	mov	r0, r5
100070c0:	4798      	blx	r3
100070c2:	e02e      	b.n	10007122 <stdio_out_chars_crlf+0x7a>
100070c4:	7d3b      	ldrb	r3, [r7, #20]
100070c6:	e010      	b.n	100070ea <stdio_out_chars_crlf+0x42>
100070c8:	683b      	ldr	r3, [r7, #0]
100070ca:	2102      	movs	r1, #2
100070cc:	4815      	ldr	r0, [pc, #84]	@ (10007124 <stdio_out_chars_crlf+0x7c>)
100070ce:	4798      	blx	r3
100070d0:	1c60      	adds	r0, r4, #1
100070d2:	3401      	adds	r4, #1
100070d4:	42b4      	cmp	r4, r6
100070d6:	da14      	bge.n	10007102 <stdio_out_chars_crlf+0x5a>
100070d8:	2c00      	cmp	r4, #0
100070da:	ddf3      	ble.n	100070c4 <stdio_out_chars_crlf+0x1c>
100070dc:	192b      	adds	r3, r5, r4
100070de:	f813 3c01 	ldrb.w	r3, [r3, #-1]
100070e2:	2b0d      	cmp	r3, #13
100070e4:	bf14      	ite	ne
100070e6:	2300      	movne	r3, #0
100070e8:	2301      	moveq	r3, #1
100070ea:	5d2a      	ldrb	r2, [r5, r4]
100070ec:	2a0a      	cmp	r2, #10
100070ee:	d1f0      	bne.n	100070d2 <stdio_out_chars_crlf+0x2a>
100070f0:	2b00      	cmp	r3, #0
100070f2:	d1ee      	bne.n	100070d2 <stdio_out_chars_crlf+0x2a>
100070f4:	42a0      	cmp	r0, r4
100070f6:	dae7      	bge.n	100070c8 <stdio_out_chars_crlf+0x20>
100070f8:	683b      	ldr	r3, [r7, #0]
100070fa:	1a21      	subs	r1, r4, r0
100070fc:	4428      	add	r0, r5
100070fe:	4798      	blx	r3
10007100:	e7e2      	b.n	100070c8 <stdio_out_chars_crlf+0x20>
10007102:	42b0      	cmp	r0, r6
10007104:	da03      	bge.n	1000710e <stdio_out_chars_crlf+0x66>
10007106:	683b      	ldr	r3, [r7, #0]
10007108:	1a31      	subs	r1, r6, r0
1000710a:	4428      	add	r0, r5
1000710c:	4798      	blx	r3
1000710e:	2e00      	cmp	r6, #0
10007110:	dd07      	ble.n	10007122 <stdio_out_chars_crlf+0x7a>
10007112:	4435      	add	r5, r6
10007114:	f815 3c01 	ldrb.w	r3, [r5, #-1]
10007118:	2b0d      	cmp	r3, #13
1000711a:	bf14      	ite	ne
1000711c:	2300      	movne	r3, #0
1000711e:	2301      	moveq	r3, #1
10007120:	753b      	strb	r3, [r7, #20]
10007122:	bdf8      	pop	{r3, r4, r5, r6, r7, pc}
10007124:	10009830 	.word	0x10009830

10007128 <stdio_stack_buffer_flush>:
10007128:	b538      	push	{r3, r4, r5, lr}
1000712a:	6803      	ldr	r3, [r0, #0]
1000712c:	b1bb      	cbz	r3, 1000715e <stdio_stack_buffer_flush+0x36>
1000712e:	4605      	mov	r5, r0
10007130:	4b0b      	ldr	r3, [pc, #44]	@ (10007160 <stdio_stack_buffer_flush+0x38>)
10007132:	681c      	ldr	r4, [r3, #0]
10007134:	e006      	b.n	10007144 <stdio_stack_buffer_flush+0x1c>
10007136:	4629      	mov	r1, r5
10007138:	f851 2b04 	ldr.w	r2, [r1], #4
1000713c:	4620      	mov	r0, r4
1000713e:	f7ff ffb3 	bl	100070a8 <stdio_out_chars_crlf>
10007142:	6924      	ldr	r4, [r4, #16]
10007144:	b14c      	cbz	r4, 1000715a <stdio_stack_buffer_flush+0x32>
10007146:	6823      	ldr	r3, [r4, #0]
10007148:	2b00      	cmp	r3, #0
1000714a:	d0fa      	beq.n	10007142 <stdio_stack_buffer_flush+0x1a>
1000714c:	4b05      	ldr	r3, [pc, #20]	@ (10007164 <stdio_stack_buffer_flush+0x3c>)
1000714e:	681b      	ldr	r3, [r3, #0]
10007150:	2b00      	cmp	r3, #0
10007152:	d0f0      	beq.n	10007136 <stdio_stack_buffer_flush+0xe>
10007154:	42a3      	cmp	r3, r4
10007156:	d1f4      	bne.n	10007142 <stdio_stack_buffer_flush+0x1a>
10007158:	e7ed      	b.n	10007136 <stdio_stack_buffer_flush+0xe>
1000715a:	2300      	movs	r3, #0
1000715c:	602b      	str	r3, [r5, #0]
1000715e:	bd38      	pop	{r3, r4, r5, pc}
10007160:	20000920 	.word	0x20000920
10007164:	20000924 	.word	0x20000924

10007168 <stdio_buffered_printer>:
10007168:	b538      	push	{r3, r4, r5, lr}
1000716a:	4605      	mov	r5, r0
1000716c:	460c      	mov	r4, r1
1000716e:	680b      	ldr	r3, [r1, #0]
10007170:	2b80      	cmp	r3, #128	@ 0x80
10007172:	d005      	beq.n	10007180 <stdio_buffered_printer+0x18>
10007174:	6823      	ldr	r3, [r4, #0]
10007176:	1c5a      	adds	r2, r3, #1
10007178:	6022      	str	r2, [r4, #0]
1000717a:	441c      	add	r4, r3
1000717c:	7125      	strb	r5, [r4, #4]
1000717e:	bd38      	pop	{r3, r4, r5, pc}
10007180:	4608      	mov	r0, r1
10007182:	f7ff ffd1 	bl	10007128 <stdio_stack_buffer_flush>
10007186:	e7f5      	b.n	10007174 <stdio_buffered_printer+0xc>

10007188 <stdout_serialize_begin>:
10007188:	b508      	push	{r3, lr}
1000718a:	f7fe f8f3 	bl	10005374 <time_us_64>
1000718e:	4a07      	ldr	r2, [pc, #28]	@ (100071ac <stdout_serialize_begin+0x24>)
10007190:	1882      	adds	r2, r0, r2
10007192:	f141 0300 	adc.w	r3, r1, #0
10007196:	2b00      	cmp	r3, #0
10007198:	db03      	blt.n	100071a2 <stdout_serialize_begin+0x1a>
1000719a:	4805      	ldr	r0, [pc, #20]	@ (100071b0 <stdout_serialize_begin+0x28>)
1000719c:	f000 fae8 	bl	10007770 <__mutex_try_enter_block_until_veneer>
100071a0:	bd08      	pop	{r3, pc}
100071a2:	f04f 32ff 	mov.w	r2, #4294967295
100071a6:	f06f 4300 	mvn.w	r3, #2147483648	@ 0x80000000
100071aa:	e7f6      	b.n	1000719a <stdout_serialize_begin+0x12>
100071ac:	000f4240 	.word	0x000f4240
100071b0:	200006fc 	.word	0x200006fc

100071b4 <stdout_serialize_end>:
100071b4:	b508      	push	{r3, lr}
100071b6:	4802      	ldr	r0, [pc, #8]	@ (100071c0 <stdout_serialize_end+0xc>)
100071b8:	f000 fad2 	bl	10007760 <__mutex_exit_veneer>
100071bc:	bd08      	pop	{r3, pc}
100071be:	bf00      	nop
100071c0:	200006fc 	.word	0x200006fc

100071c4 <stdio_put_string>:
100071c4:	e92d 43f0 	stmdb	sp!, {r4, r5, r6, r7, r8, r9, lr}
100071c8:	b083      	sub	sp, #12
100071ca:	4606      	mov	r6, r0
100071cc:	460d      	mov	r5, r1
100071ce:	4690      	mov	r8, r2
100071d0:	461c      	mov	r4, r3
100071d2:	f7ff ffd9 	bl	10007188 <stdout_serialize_begin>
100071d6:	4681      	mov	r9, r0
100071d8:	f1b5 3fff 	cmp.w	r5, #4294967295
100071dc:	d004      	beq.n	100071e8 <stdio_put_string+0x24>
100071de:	b144      	cbz	r4, 100071f2 <stdio_put_string+0x2e>
100071e0:	4f17      	ldr	r7, [pc, #92]	@ (10007240 <stdio_put_string+0x7c>)
100071e2:	4b18      	ldr	r3, [pc, #96]	@ (10007244 <stdio_put_string+0x80>)
100071e4:	681c      	ldr	r4, [r3, #0]
100071e6:	e007      	b.n	100071f8 <stdio_put_string+0x34>
100071e8:	4630      	mov	r0, r6
100071ea:	f000 fa83 	bl	100076f4 <strlen>
100071ee:	4605      	mov	r5, r0
100071f0:	e7f5      	b.n	100071de <stdio_put_string+0x1a>
100071f2:	4f15      	ldr	r7, [pc, #84]	@ (10007248 <stdio_put_string+0x84>)
100071f4:	e7f5      	b.n	100071e2 <stdio_put_string+0x1e>
100071f6:	6924      	ldr	r4, [r4, #16]
100071f8:	b1bc      	cbz	r4, 1000722a <stdio_put_string+0x66>
100071fa:	6823      	ldr	r3, [r4, #0]
100071fc:	2b00      	cmp	r3, #0
100071fe:	d0fa      	beq.n	100071f6 <stdio_put_string+0x32>
10007200:	4b12      	ldr	r3, [pc, #72]	@ (1000724c <stdio_put_string+0x88>)
10007202:	681b      	ldr	r3, [r3, #0]
10007204:	b10b      	cbz	r3, 1000720a <stdio_put_string+0x46>
10007206:	42a3      	cmp	r3, r4
10007208:	d1f5      	bne.n	100071f6 <stdio_put_string+0x32>
1000720a:	462a      	mov	r2, r5
1000720c:	4631      	mov	r1, r6
1000720e:	4620      	mov	r0, r4
10007210:	47b8      	blx	r7
10007212:	f1b8 0f00 	cmp.w	r8, #0
10007216:	d0ee      	beq.n	100071f6 <stdio_put_string+0x32>
10007218:	230a      	movs	r3, #10
1000721a:	f88d 3007 	strb.w	r3, [sp, #7]
1000721e:	2201      	movs	r2, #1
10007220:	f10d 0107 	add.w	r1, sp, #7
10007224:	4620      	mov	r0, r4
10007226:	47b8      	blx	r7
10007228:	e7e5      	b.n	100071f6 <stdio_put_string+0x32>
1000722a:	f1b9 0f00 	cmp.w	r9, #0
1000722e:	d103      	bne.n	10007238 <stdio_put_string+0x74>
10007230:	4628      	mov	r0, r5
10007232:	b003      	add	sp, #12
10007234:	e8bd 83f0 	ldmia.w	sp!, {r4, r5, r6, r7, r8, r9, pc}
10007238:	f7ff ffbc 	bl	100071b4 <stdout_serialize_end>
1000723c:	e7f8      	b.n	10007230 <stdio_put_string+0x6c>
1000723e:	bf00      	nop
10007240:	100070a9 	.word	0x100070a9
10007244:	20000920 	.word	0x20000920
10007248:	10007099 	.word	0x10007099
1000724c:	20000924 	.word	0x20000924

10007250 <stdio_set_driver_enabled>:
10007250:	4a08      	ldr	r2, [pc, #32]	@ (10007274 <stdio_set_driver_enabled+0x24>)
10007252:	e001      	b.n	10007258 <stdio_set_driver_enabled+0x8>
10007254:	f103 0210 	add.w	r2, r3, #16
10007258:	6813      	ldr	r3, [r2, #0]
1000725a:	b13b      	cbz	r3, 1000726c <stdio_set_driver_enabled+0x1c>
1000725c:	4283      	cmp	r3, r0
1000725e:	d1f9      	bne.n	10007254 <stdio_set_driver_enabled+0x4>
10007260:	b931      	cbnz	r1, 10007270 <stdio_set_driver_enabled+0x20>
10007262:	6903      	ldr	r3, [r0, #16]
10007264:	6013      	str	r3, [r2, #0]
10007266:	2300      	movs	r3, #0
10007268:	6103      	str	r3, [r0, #16]
1000726a:	4770      	bx	lr
1000726c:	b101      	cbz	r1, 10007270 <stdio_set_driver_enabled+0x20>
1000726e:	6010      	str	r0, [r2, #0]
10007270:	4770      	bx	lr
10007272:	bf00      	nop
10007274:	20000920 	.word	0x20000920

10007278 <stdio_flush>:
10007278:	b510      	push	{r4, lr}
1000727a:	4b05      	ldr	r3, [pc, #20]	@ (10007290 <stdio_flush+0x18>)
1000727c:	681c      	ldr	r4, [r3, #0]
1000727e:	e001      	b.n	10007284 <stdio_flush+0xc>
10007280:	4798      	blx	r3
10007282:	6924      	ldr	r4, [r4, #16]
10007284:	b11c      	cbz	r4, 1000728e <stdio_flush+0x16>
10007286:	6863      	ldr	r3, [r4, #4]
10007288:	2b00      	cmp	r3, #0
1000728a:	d1f9      	bne.n	10007280 <stdio_flush+0x8>
1000728c:	e7f9      	b.n	10007282 <stdio_flush+0xa>
1000728e:	bd10      	pop	{r4, pc}
10007290:	20000920 	.word	0x20000920

10007294 <stdio_init_all>:
10007294:	b508      	push	{r3, lr}
10007296:	f000 f94d 	bl	10007534 <stdio_uart_init>
1000729a:	2001      	movs	r0, #1
1000729c:	bd08      	pop	{r3, pc}

1000729e <__wrap_puts>:
1000729e:	b538      	push	{r3, r4, r5, lr}
100072a0:	4605      	mov	r5, r0
100072a2:	f000 fa27 	bl	100076f4 <strlen>
100072a6:	4604      	mov	r4, r0
100072a8:	2301      	movs	r3, #1
100072aa:	461a      	mov	r2, r3
100072ac:	4601      	mov	r1, r0
100072ae:	4628      	mov	r0, r5
100072b0:	f7ff ff88 	bl	100071c4 <stdio_put_string>
100072b4:	f7ff ffe0 	bl	10007278 <stdio_flush>
100072b8:	4620      	mov	r0, r4
100072ba:	bd38      	pop	{r3, r4, r5, pc}

100072bc <__wrap_vprintf>:
100072bc:	b570      	push	{r4, r5, r6, lr}
100072be:	b0a2      	sub	sp, #136	@ 0x88
100072c0:	4604      	mov	r4, r0
100072c2:	460e      	mov	r6, r1
100072c4:	f7ff ff60 	bl	10007188 <stdout_serialize_begin>
100072c8:	4605      	mov	r5, r0
100072ca:	2300      	movs	r3, #0
100072cc:	9301      	str	r3, [sp, #4]
100072ce:	4633      	mov	r3, r6
100072d0:	4622      	mov	r2, r4
100072d2:	a901      	add	r1, sp, #4
100072d4:	4807      	ldr	r0, [pc, #28]	@ (100072f4 <__wrap_vprintf+0x38>)
100072d6:	f7ff fe97 	bl	10007008 <vfctprintf>
100072da:	4604      	mov	r4, r0
100072dc:	a801      	add	r0, sp, #4
100072de:	f7ff ff23 	bl	10007128 <stdio_stack_buffer_flush>
100072e2:	f7ff ffc9 	bl	10007278 <stdio_flush>
100072e6:	b915      	cbnz	r5, 100072ee <__wrap_vprintf+0x32>
100072e8:	4620      	mov	r0, r4
100072ea:	b022      	add	sp, #136	@ 0x88
100072ec:	bd70      	pop	{r4, r5, r6, pc}
100072ee:	f7ff ff61 	bl	100071b4 <stdout_serialize_end>
100072f2:	e7f9      	b.n	100072e8 <__wrap_vprintf+0x2c>
100072f4:	10007169 	.word	0x10007169

100072f8 <__wrap_printf>:
100072f8:	b40f      	push	{r0, r1, r2, r3}
100072fa:	b500      	push	{lr}
100072fc:	b083      	sub	sp, #12
100072fe:	a904      	add	r1, sp, #16
10007300:	f851 0b04 	ldr.w	r0, [r1], #4
10007304:	9101      	str	r1, [sp, #4]
10007306:	f7ff ffd9 	bl	100072bc <__wrap_vprintf>
1000730a:	b003      	add	sp, #12
1000730c:	f85d eb04 	ldr.w	lr, [sp], #4
10007310:	b004      	add	sp, #16
10007312:	4770      	bx	lr

10007314 <uart_putc>:
10007314:	b082      	sub	sp, #8
10007316:	468c      	mov	ip, r1
10007318:	4b18      	ldr	r3, [pc, #96]	@ (1000737c <uart_putc+0x68>)
1000731a:	4298      	cmp	r0, r3
1000731c:	bf14      	ite	ne
1000731e:	2300      	movne	r3, #0
10007320:	2301      	moveq	r3, #1
10007322:	4a17      	ldr	r2, [pc, #92]	@ (10007380 <uart_putc+0x6c>)
10007324:	f932 3013 	ldrsh.w	r3, [r2, r3, lsl #1]
10007328:	428b      	cmp	r3, r1
1000732a:	d005      	beq.n	10007338 <uart_putc+0x24>
1000732c:	f88d c007 	strb.w	ip, [sp, #7]
10007330:	2100      	movs	r1, #0
10007332:	f10d 0207 	add.w	r2, sp, #7
10007336:	e01c      	b.n	10007372 <uart_putc+0x5e>
10007338:	230d      	movs	r3, #13
1000733a:	f88d 3007 	strb.w	r3, [sp, #7]
1000733e:	2100      	movs	r1, #0
10007340:	f10d 0207 	add.w	r2, sp, #7
10007344:	2900      	cmp	r1, #0
10007346:	d1f1      	bne.n	1000732c <uart_putc+0x18>
10007348:	6983      	ldr	r3, [r0, #24]
1000734a:	f013 0f20 	tst.w	r3, #32
1000734e:	d1fb      	bne.n	10007348 <uart_putc+0x34>
10007350:	4613      	mov	r3, r2
10007352:	f813 2b01 	ldrb.w	r2, [r3], #1
10007356:	6002      	str	r2, [r0, #0]
10007358:	3101      	adds	r1, #1
1000735a:	461a      	mov	r2, r3
1000735c:	e7f2      	b.n	10007344 <uart_putc+0x30>
1000735e:	6983      	ldr	r3, [r0, #24]
10007360:	f013 0f20 	tst.w	r3, #32
10007364:	d1fb      	bne.n	1000735e <uart_putc+0x4a>
10007366:	4613      	mov	r3, r2
10007368:	f813 2b01 	ldrb.w	r2, [r3], #1
1000736c:	6002      	str	r2, [r0, #0]
1000736e:	3101      	adds	r1, #1
10007370:	461a      	mov	r2, r3
10007372:	2900      	cmp	r1, #0
10007374:	d0f3      	beq.n	1000735e <uart_putc+0x4a>
10007376:	b002      	add	sp, #8
10007378:	4770      	bx	lr
1000737a:	bf00      	nop
1000737c:	40078000 	.word	0x40078000
10007380:	20000c00 	.word	0x20000c00

10007384 <uart_getc>:
10007384:	b410      	push	{r4}
10007386:	b083      	sub	sp, #12
10007388:	2100      	movs	r1, #0
1000738a:	f10d 0207 	add.w	r2, sp, #7
1000738e:	e009      	b.n	100073a4 <uart_getc+0x20>
10007390:	6983      	ldr	r3, [r0, #24]
10007392:	f013 0f10 	tst.w	r3, #16
10007396:	d1fb      	bne.n	10007390 <uart_getc+0xc>
10007398:	6804      	ldr	r4, [r0, #0]
1000739a:	4613      	mov	r3, r2
1000739c:	f803 4b01 	strb.w	r4, [r3], #1
100073a0:	3101      	adds	r1, #1
100073a2:	461a      	mov	r2, r3
100073a4:	2900      	cmp	r1, #0
100073a6:	d0f3      	beq.n	10007390 <uart_getc+0xc>
100073a8:	f89d 0007 	ldrb.w	r0, [sp, #7]
100073ac:	b003      	add	sp, #12
100073ae:	f85d 4b04 	ldr.w	r4, [sp], #4
100073b2:	4770      	bx	lr

100073b4 <stdio_uart_out_chars>:
100073b4:	b570      	push	{r4, r5, r6, lr}
100073b6:	4606      	mov	r6, r0
100073b8:	460d      	mov	r5, r1
100073ba:	2400      	movs	r4, #0
100073bc:	e005      	b.n	100073ca <stdio_uart_out_chars+0x16>
100073be:	5d31      	ldrb	r1, [r6, r4]
100073c0:	4b03      	ldr	r3, [pc, #12]	@ (100073d0 <stdio_uart_out_chars+0x1c>)
100073c2:	6818      	ldr	r0, [r3, #0]
100073c4:	f7ff ffa6 	bl	10007314 <uart_putc>
100073c8:	3401      	adds	r4, #1
100073ca:	42ac      	cmp	r4, r5
100073cc:	dbf7      	blt.n	100073be <stdio_uart_out_chars+0xa>
100073ce:	bd70      	pop	{r4, r5, r6, pc}
100073d0:	20000c04 	.word	0x20000c04

100073d4 <stdio_uart_in_chars>:
100073d4:	b5f8      	push	{r3, r4, r5, r6, r7, lr}
100073d6:	4607      	mov	r7, r0
100073d8:	460e      	mov	r6, r1
100073da:	2400      	movs	r4, #0
100073dc:	e004      	b.n	100073e8 <stdio_uart_in_chars+0x14>
100073de:	1c65      	adds	r5, r4, #1
100073e0:	f7ff ffd0 	bl	10007384 <uart_getc>
100073e4:	5538      	strb	r0, [r7, r4]
100073e6:	462c      	mov	r4, r5
100073e8:	42b4      	cmp	r4, r6
100073ea:	da05      	bge.n	100073f8 <stdio_uart_in_chars+0x24>
100073ec:	4b0c      	ldr	r3, [pc, #48]	@ (10007420 <stdio_uart_in_chars+0x4c>)
100073ee:	6818      	ldr	r0, [r3, #0]
100073f0:	6983      	ldr	r3, [r0, #24]
100073f2:	f013 0f10 	tst.w	r3, #16
100073f6:	d0f2      	beq.n	100073de <stdio_uart_in_chars+0xa>
100073f8:	4b0a      	ldr	r3, [pc, #40]	@ (10007424 <stdio_uart_in_chars+0x50>)
100073fa:	681b      	ldr	r3, [r3, #0]
100073fc:	b14b      	cbz	r3, 10007412 <stdio_uart_in_chars+0x3e>
100073fe:	4b08      	ldr	r3, [pc, #32]	@ (10007420 <stdio_uart_in_chars+0x4c>)
10007400:	681b      	ldr	r3, [r3, #0]
10007402:	2250      	movs	r2, #80	@ 0x50
10007404:	639a      	str	r2, [r3, #56]	@ 0x38
10007406:	6b5a      	ldr	r2, [r3, #52]	@ 0x34
10007408:	f002 0238 	and.w	r2, r2, #56	@ 0x38
1000740c:	f503 5381 	add.w	r3, r3, #4128	@ 0x1020
10007410:	615a      	str	r2, [r3, #20]
10007412:	b10c      	cbz	r4, 10007418 <stdio_uart_in_chars+0x44>
10007414:	4620      	mov	r0, r4
10007416:	bdf8      	pop	{r3, r4, r5, r6, r7, pc}
10007418:	f06f 0402 	mvn.w	r4, #2
1000741c:	e7fa      	b.n	10007414 <stdio_uart_in_chars+0x40>
1000741e:	bf00      	nop
10007420:	20000c04 	.word	0x20000c04
10007424:	200008e0 	.word	0x200008e0

10007428 <on_uart_rx>:
10007428:	b508      	push	{r3, lr}
1000742a:	4b05      	ldr	r3, [pc, #20]	@ (10007440 <on_uart_rx+0x18>)
1000742c:	681b      	ldr	r3, [r3, #0]
1000742e:	b133      	cbz	r3, 1000743e <on_uart_rx+0x16>
10007430:	4a04      	ldr	r2, [pc, #16]	@ (10007444 <on_uart_rx+0x1c>)
10007432:	6812      	ldr	r2, [r2, #0]
10007434:	2100      	movs	r1, #0
10007436:	6391      	str	r1, [r2, #56]	@ 0x38
10007438:	4a03      	ldr	r2, [pc, #12]	@ (10007448 <on_uart_rx+0x20>)
1000743a:	6810      	ldr	r0, [r2, #0]
1000743c:	4798      	blx	r3
1000743e:	bd08      	pop	{r3, pc}
10007440:	200008e0 	.word	0x200008e0
10007444:	20000c04 	.word	0x20000c04
10007448:	200008e4 	.word	0x200008e4

1000744c <stdio_uart_out_flush>:
1000744c:	4b03      	ldr	r3, [pc, #12]	@ (1000745c <stdio_uart_out_flush+0x10>)
1000744e:	681a      	ldr	r2, [r3, #0]
10007450:	6993      	ldr	r3, [r2, #24]
10007452:	f013 0f08 	tst.w	r3, #8
10007456:	d1fb      	bne.n	10007450 <stdio_uart_out_flush+0x4>
10007458:	4770      	bx	lr
1000745a:	bf00      	nop
1000745c:	20000c04 	.word	0x20000c04

10007460 <stdio_uart_set_chars_available_callback>:
10007460:	b538      	push	{r3, r4, r5, lr}
10007462:	4b1b      	ldr	r3, [pc, #108]	@ (100074d0 <stdio_uart_set_chars_available_callback+0x70>)
10007464:	681b      	ldr	r3, [r3, #0]
10007466:	4a1b      	ldr	r2, [pc, #108]	@ (100074d4 <stdio_uart_set_chars_available_callback+0x74>)
10007468:	4293      	cmp	r3, r2
1000746a:	d005      	beq.n	10007478 <stdio_uart_set_chars_available_callback+0x18>
1000746c:	2421      	movs	r4, #33	@ 0x21
1000746e:	b1e0      	cbz	r0, 100074aa <stdio_uart_set_chars_available_callback+0x4a>
10007470:	4b19      	ldr	r3, [pc, #100]	@ (100074d8 <stdio_uart_set_chars_available_callback+0x78>)
10007472:	681b      	ldr	r3, [r3, #0]
10007474:	b113      	cbz	r3, 1000747c <stdio_uart_set_chars_available_callback+0x1c>
10007476:	bd38      	pop	{r3, r4, r5, pc}
10007478:	2422      	movs	r4, #34	@ 0x22
1000747a:	e7f8      	b.n	1000746e <stdio_uart_set_chars_available_callback+0xe>
1000747c:	4b16      	ldr	r3, [pc, #88]	@ (100074d8 <stdio_uart_set_chars_available_callback+0x78>)
1000747e:	6018      	str	r0, [r3, #0]
10007480:	4b16      	ldr	r3, [pc, #88]	@ (100074dc <stdio_uart_set_chars_available_callback+0x7c>)
10007482:	6019      	str	r1, [r3, #0]
10007484:	4916      	ldr	r1, [pc, #88]	@ (100074e0 <stdio_uart_set_chars_available_callback+0x80>)
10007486:	4620      	mov	r0, r4
10007488:	f7fd f9f4 	bl	10004874 <irq_set_exclusive_handler>
1000748c:	2101      	movs	r1, #1
1000748e:	4620      	mov	r0, r4
10007490:	f7fd f9de 	bl	10004850 <irq_set_enabled>
10007494:	4b0e      	ldr	r3, [pc, #56]	@ (100074d0 <stdio_uart_set_chars_available_callback+0x70>)
10007496:	681b      	ldr	r3, [r3, #0]
10007498:	2250      	movs	r2, #80	@ 0x50
1000749a:	639a      	str	r2, [r3, #56]	@ 0x38
1000749c:	6b5a      	ldr	r2, [r3, #52]	@ 0x34
1000749e:	f002 0238 	and.w	r2, r2, #56	@ 0x38
100074a2:	f503 5381 	add.w	r3, r3, #4128	@ 0x1020
100074a6:	615a      	str	r2, [r3, #20]
100074a8:	e7e5      	b.n	10007476 <stdio_uart_set_chars_available_callback+0x16>
100074aa:	4a0b      	ldr	r2, [pc, #44]	@ (100074d8 <stdio_uart_set_chars_available_callback+0x78>)
100074ac:	6812      	ldr	r2, [r2, #0]
100074ae:	2a00      	cmp	r2, #0
100074b0:	d0e1      	beq.n	10007476 <stdio_uart_set_chars_available_callback+0x16>
100074b2:	2500      	movs	r5, #0
100074b4:	639d      	str	r5, [r3, #56]	@ 0x38
100074b6:	4629      	mov	r1, r5
100074b8:	4620      	mov	r0, r4
100074ba:	f7fd f9c9 	bl	10004850 <irq_set_enabled>
100074be:	4908      	ldr	r1, [pc, #32]	@ (100074e0 <stdio_uart_set_chars_available_callback+0x80>)
100074c0:	4620      	mov	r0, r4
100074c2:	f7fd fa07 	bl	100048d4 <irq_remove_handler>
100074c6:	4b04      	ldr	r3, [pc, #16]	@ (100074d8 <stdio_uart_set_chars_available_callback+0x78>)
100074c8:	601d      	str	r5, [r3, #0]
100074ca:	4b04      	ldr	r3, [pc, #16]	@ (100074dc <stdio_uart_set_chars_available_callback+0x7c>)
100074cc:	601d      	str	r5, [r3, #0]
100074ce:	e7d2      	b.n	10007476 <stdio_uart_set_chars_available_callback+0x16>
100074d0:	20000c04 	.word	0x20000c04
100074d4:	40078000 	.word	0x40078000
100074d8:	200008e0 	.word	0x200008e0
100074dc:	200008e4 	.word	0x200008e4
100074e0:	10007429 	.word	0x10007429

100074e4 <stdio_uart_init_full>:
100074e4:	b538      	push	{r3, r4, r5, lr}
100074e6:	460d      	mov	r5, r1
100074e8:	461c      	mov	r4, r3
100074ea:	4b10      	ldr	r3, [pc, #64]	@ (1000752c <stdio_uart_init_full+0x48>)
100074ec:	6018      	str	r0, [r3, #0]
100074ee:	1e10      	subs	r0, r2, #0
100074f0:	db05      	blt.n	100074fe <stdio_uart_init_full+0x1a>
100074f2:	f010 0f02 	tst.w	r0, #2
100074f6:	d015      	beq.n	10007524 <stdio_uart_init_full+0x40>
100074f8:	210b      	movs	r1, #11
100074fa:	f7fd f8e1 	bl	100046c0 <gpio_set_function>
100074fe:	2c00      	cmp	r4, #0
10007500:	db06      	blt.n	10007510 <stdio_uart_init_full+0x2c>
10007502:	f014 0f02 	tst.w	r4, #2
10007506:	d00f      	beq.n	10007528 <stdio_uart_init_full+0x44>
10007508:	210b      	movs	r1, #11
1000750a:	4620      	mov	r0, r4
1000750c:	f7fd f8d8 	bl	100046c0 <gpio_set_function>
10007510:	4629      	mov	r1, r5
10007512:	4b06      	ldr	r3, [pc, #24]	@ (1000752c <stdio_uart_init_full+0x48>)
10007514:	6818      	ldr	r0, [r3, #0]
10007516:	f7fe fa03 	bl	10005920 <uart_init>
1000751a:	2101      	movs	r1, #1
1000751c:	4804      	ldr	r0, [pc, #16]	@ (10007530 <stdio_uart_init_full+0x4c>)
1000751e:	f7ff fe97 	bl	10007250 <stdio_set_driver_enabled>
10007522:	bd38      	pop	{r3, r4, r5, pc}
10007524:	2102      	movs	r1, #2
10007526:	e7e8      	b.n	100074fa <stdio_uart_init_full+0x16>
10007528:	2102      	movs	r1, #2
1000752a:	e7ee      	b.n	1000750a <stdio_uart_init_full+0x26>
1000752c:	20000c04 	.word	0x20000c04
10007530:	200006dc 	.word	0x200006dc

10007534 <stdio_uart_init>:
10007534:	b508      	push	{r3, lr}
10007536:	4b07      	ldr	r3, [pc, #28]	@ (10007554 <stdio_uart_init+0x20>)
10007538:	781b      	ldrb	r3, [r3, #0]
1000753a:	4b07      	ldr	r3, [pc, #28]	@ (10007558 <stdio_uart_init+0x24>)
1000753c:	781b      	ldrb	r3, [r3, #0]
1000753e:	4b07      	ldr	r3, [pc, #28]	@ (1000755c <stdio_uart_init+0x28>)
10007540:	781b      	ldrb	r3, [r3, #0]
10007542:	2301      	movs	r3, #1
10007544:	2200      	movs	r2, #0
10007546:	f44f 31e1 	mov.w	r1, #115200	@ 0x1c200
1000754a:	4805      	ldr	r0, [pc, #20]	@ (10007560 <stdio_uart_init+0x2c>)
1000754c:	f7ff ffca 	bl	100074e4 <stdio_uart_init_full>
10007550:	bd08      	pop	{r3, pc}
10007552:	bf00      	nop
10007554:	1000987c 	.word	0x1000987c
10007558:	10009878 	.word	0x10009878
1000755c:	10009874 	.word	0x10009874
10007560:	40070000 	.word	0x40070000

10007564 <memset>:
10007564:	b570      	push	{r4, r5, r6, lr}
10007566:	0786      	lsls	r6, r0, #30
10007568:	d047      	beq.n	100075fa <memset+0x96>
1000756a:	1e54      	subs	r4, r2, #1
1000756c:	2a00      	cmp	r2, #0
1000756e:	d03e      	beq.n	100075ee <memset+0x8a>
10007570:	b2ca      	uxtb	r2, r1
10007572:	4603      	mov	r3, r0
10007574:	e001      	b.n	1000757a <memset+0x16>
10007576:	3c01      	subs	r4, #1
10007578:	d339      	bcc.n	100075ee <memset+0x8a>
1000757a:	f803 2b01 	strb.w	r2, [r3], #1
1000757e:	079d      	lsls	r5, r3, #30
10007580:	d1f9      	bne.n	10007576 <memset+0x12>
10007582:	2c03      	cmp	r4, #3
10007584:	d92c      	bls.n	100075e0 <memset+0x7c>
10007586:	b2cd      	uxtb	r5, r1
10007588:	2c0f      	cmp	r4, #15
1000758a:	eb05 2505 	add.w	r5, r5, r5, lsl #8
1000758e:	eb05 4505 	add.w	r5, r5, r5, lsl #16
10007592:	d935      	bls.n	10007600 <memset+0x9c>
10007594:	f1a4 0c10 	sub.w	ip, r4, #16
10007598:	f103 0e10 	add.w	lr, r3, #16
1000759c:	461a      	mov	r2, r3
1000759e:	f02c 060f 	bic.w	r6, ip, #15
100075a2:	ea4f 1c1c 	mov.w	ip, ip, lsr #4
100075a6:	44b6      	add	lr, r6
100075a8:	e9c2 5500 	strd	r5, r5, [r2]
100075ac:	e9c2 5502 	strd	r5, r5, [r2, #8]
100075b0:	3210      	adds	r2, #16
100075b2:	4572      	cmp	r2, lr
100075b4:	d1f8      	bne.n	100075a8 <memset+0x44>
100075b6:	f10c 0201 	add.w	r2, ip, #1
100075ba:	f014 0f0c 	tst.w	r4, #12
100075be:	f004 0c0f 	and.w	ip, r4, #15
100075c2:	eb03 1202 	add.w	r2, r3, r2, lsl #4
100075c6:	d013      	beq.n	100075f0 <memset+0x8c>
100075c8:	f1ac 0304 	sub.w	r3, ip, #4
100075cc:	f023 0303 	bic.w	r3, r3, #3
100075d0:	3304      	adds	r3, #4
100075d2:	4413      	add	r3, r2
100075d4:	f842 5b04 	str.w	r5, [r2], #4
100075d8:	4293      	cmp	r3, r2
100075da:	d1fb      	bne.n	100075d4 <memset+0x70>
100075dc:	f00c 0403 	and.w	r4, ip, #3
100075e0:	b12c      	cbz	r4, 100075ee <memset+0x8a>
100075e2:	b2c9      	uxtb	r1, r1
100075e4:	441c      	add	r4, r3
100075e6:	f803 1b01 	strb.w	r1, [r3], #1
100075ea:	42a3      	cmp	r3, r4
100075ec:	d1fb      	bne.n	100075e6 <memset+0x82>
100075ee:	bd70      	pop	{r4, r5, r6, pc}
100075f0:	4664      	mov	r4, ip
100075f2:	4613      	mov	r3, r2
100075f4:	2c00      	cmp	r4, #0
100075f6:	d1f4      	bne.n	100075e2 <memset+0x7e>
100075f8:	e7f9      	b.n	100075ee <memset+0x8a>
100075fa:	4603      	mov	r3, r0
100075fc:	4614      	mov	r4, r2
100075fe:	e7c0      	b.n	10007582 <memset+0x1e>
10007600:	461a      	mov	r2, r3
10007602:	46a4      	mov	ip, r4
10007604:	e7e0      	b.n	100075c8 <memset+0x64>
10007606:	bf00      	nop

10007608 <memcpy>:
10007608:	4684      	mov	ip, r0
1000760a:	ea41 0300 	orr.w	r3, r1, r0
1000760e:	f013 0303 	ands.w	r3, r3, #3
10007612:	d149      	bne.n	100076a8 <memcpy+0xa0>
10007614:	3a40      	subs	r2, #64	@ 0x40
10007616:	d323      	bcc.n	10007660 <memcpy+0x58>
10007618:	680b      	ldr	r3, [r1, #0]
1000761a:	6003      	str	r3, [r0, #0]
1000761c:	684b      	ldr	r3, [r1, #4]
1000761e:	6043      	str	r3, [r0, #4]
10007620:	688b      	ldr	r3, [r1, #8]
10007622:	6083      	str	r3, [r0, #8]
10007624:	68cb      	ldr	r3, [r1, #12]
10007626:	60c3      	str	r3, [r0, #12]
10007628:	690b      	ldr	r3, [r1, #16]
1000762a:	6103      	str	r3, [r0, #16]
1000762c:	694b      	ldr	r3, [r1, #20]
1000762e:	6143      	str	r3, [r0, #20]
10007630:	698b      	ldr	r3, [r1, #24]
10007632:	6183      	str	r3, [r0, #24]
10007634:	69cb      	ldr	r3, [r1, #28]
10007636:	61c3      	str	r3, [r0, #28]
10007638:	6a0b      	ldr	r3, [r1, #32]
1000763a:	6203      	str	r3, [r0, #32]
1000763c:	6a4b      	ldr	r3, [r1, #36]	@ 0x24
1000763e:	6243      	str	r3, [r0, #36]	@ 0x24
10007640:	6a8b      	ldr	r3, [r1, #40]	@ 0x28
10007642:	6283      	str	r3, [r0, #40]	@ 0x28
10007644:	6acb      	ldr	r3, [r1, #44]	@ 0x2c
10007646:	62c3      	str	r3, [r0, #44]	@ 0x2c
10007648:	6b0b      	ldr	r3, [r1, #48]	@ 0x30
1000764a:	6303      	str	r3, [r0, #48]	@ 0x30
1000764c:	6b4b      	ldr	r3, [r1, #52]	@ 0x34
1000764e:	6343      	str	r3, [r0, #52]	@ 0x34
10007650:	6b8b      	ldr	r3, [r1, #56]	@ 0x38
10007652:	6383      	str	r3, [r0, #56]	@ 0x38
10007654:	6bcb      	ldr	r3, [r1, #60]	@ 0x3c
10007656:	63c3      	str	r3, [r0, #60]	@ 0x3c
10007658:	3040      	adds	r0, #64	@ 0x40
1000765a:	3140      	adds	r1, #64	@ 0x40
1000765c:	3a40      	subs	r2, #64	@ 0x40
1000765e:	d2db      	bcs.n	10007618 <memcpy+0x10>
10007660:	3230      	adds	r2, #48	@ 0x30
10007662:	d30b      	bcc.n	1000767c <memcpy+0x74>
10007664:	680b      	ldr	r3, [r1, #0]
10007666:	6003      	str	r3, [r0, #0]
10007668:	684b      	ldr	r3, [r1, #4]
1000766a:	6043      	str	r3, [r0, #4]
1000766c:	688b      	ldr	r3, [r1, #8]
1000766e:	6083      	str	r3, [r0, #8]
10007670:	68cb      	ldr	r3, [r1, #12]
10007672:	60c3      	str	r3, [r0, #12]
10007674:	3010      	adds	r0, #16
10007676:	3110      	adds	r1, #16
10007678:	3a10      	subs	r2, #16
1000767a:	d2f3      	bcs.n	10007664 <memcpy+0x5c>
1000767c:	320c      	adds	r2, #12
1000767e:	d305      	bcc.n	1000768c <memcpy+0x84>
10007680:	f851 3b04 	ldr.w	r3, [r1], #4
10007684:	f840 3b04 	str.w	r3, [r0], #4
10007688:	3a04      	subs	r2, #4
1000768a:	d2f9      	bcs.n	10007680 <memcpy+0x78>
1000768c:	3204      	adds	r2, #4
1000768e:	d008      	beq.n	100076a2 <memcpy+0x9a>
10007690:	07d2      	lsls	r2, r2, #31
10007692:	bf1c      	itt	ne
10007694:	f811 3b01 	ldrbne.w	r3, [r1], #1
10007698:	f800 3b01 	strbne.w	r3, [r0], #1
1000769c:	d301      	bcc.n	100076a2 <memcpy+0x9a>
1000769e:	880b      	ldrh	r3, [r1, #0]
100076a0:	8003      	strh	r3, [r0, #0]
100076a2:	4660      	mov	r0, ip
100076a4:	4770      	bx	lr
100076a6:	bf00      	nop
100076a8:	2a08      	cmp	r2, #8
100076aa:	d313      	bcc.n	100076d4 <memcpy+0xcc>
100076ac:	078b      	lsls	r3, r1, #30
100076ae:	d0b1      	beq.n	10007614 <memcpy+0xc>
100076b0:	f010 0303 	ands.w	r3, r0, #3
100076b4:	d0ae      	beq.n	10007614 <memcpy+0xc>
100076b6:	f1c3 0304 	rsb	r3, r3, #4
100076ba:	1ad2      	subs	r2, r2, r3
100076bc:	07db      	lsls	r3, r3, #31
100076be:	bf1c      	itt	ne
100076c0:	f811 3b01 	ldrbne.w	r3, [r1], #1
100076c4:	f800 3b01 	strbne.w	r3, [r0], #1
100076c8:	d3a4      	bcc.n	10007614 <memcpy+0xc>
100076ca:	f831 3b02 	ldrh.w	r3, [r1], #2
100076ce:	f820 3b02 	strh.w	r3, [r0], #2
100076d2:	e79f      	b.n	10007614 <memcpy+0xc>
100076d4:	3a04      	subs	r2, #4
100076d6:	d3d9      	bcc.n	1000768c <memcpy+0x84>
100076d8:	3a01      	subs	r2, #1
100076da:	f811 3b01 	ldrb.w	r3, [r1], #1
100076de:	f800 3b01 	strb.w	r3, [r0], #1
100076e2:	d2f9      	bcs.n	100076d8 <memcpy+0xd0>
100076e4:	780b      	ldrb	r3, [r1, #0]
100076e6:	7003      	strb	r3, [r0, #0]
100076e8:	784b      	ldrb	r3, [r1, #1]
100076ea:	7043      	strb	r3, [r0, #1]
100076ec:	788b      	ldrb	r3, [r1, #2]
100076ee:	7083      	strb	r3, [r0, #2]
100076f0:	4660      	mov	r0, ip
100076f2:	4770      	bx	lr

100076f4 <strlen>:
100076f4:	f020 0103 	bic.w	r1, r0, #3
100076f8:	f010 0003 	ands.w	r0, r0, #3
100076fc:	f1c0 0000 	rsb	r0, r0, #0
10007700:	f851 3b04 	ldr.w	r3, [r1], #4
10007704:	f100 0c04 	add.w	ip, r0, #4
10007708:	ea4f 0ccc 	mov.w	ip, ip, lsl #3
1000770c:	f06f 0200 	mvn.w	r2, #0
10007710:	bf1c      	itt	ne
10007712:	fa22 f20c 	lsrne.w	r2, r2, ip
10007716:	4313      	orrne	r3, r2
10007718:	f04f 0c01 	mov.w	ip, #1
1000771c:	ea4c 2c0c 	orr.w	ip, ip, ip, lsl #8
10007720:	ea4c 4c0c 	orr.w	ip, ip, ip, lsl #16
10007724:	eba3 020c 	sub.w	r2, r3, ip
10007728:	ea22 0203 	bic.w	r2, r2, r3
1000772c:	ea12 12cc 	ands.w	r2, r2, ip, lsl #7
10007730:	bf04      	itt	eq
10007732:	f851 3b04 	ldreq.w	r3, [r1], #4
10007736:	3004      	addeq	r0, #4
10007738:	d0f4      	beq.n	10007724 <strlen+0x30>
1000773a:	f1c2 0100 	rsb	r1, r2, #0
1000773e:	ea02 0201 	and.w	r2, r2, r1
10007742:	fab2 f282 	clz	r2, r2
10007746:	f1c2 021f 	rsb	r2, r2, #31
1000774a:	eb00 00d2 	add.w	r0, r0, r2, lsr #3
1000774e:	4770      	bx	lr

10007750 <_fini>:
10007750:	b5f8      	push	{r3, r4, r5, r6, r7, lr}
10007752:	bf00      	nop
10007754:	0000      	movs	r0, r0
	...

10007758 <____aeabi_uldivmod_veneer>:
10007758:	f85f f000 	ldr.w	pc, [pc]	@ 1000775c <____aeabi_uldivmod_veneer+0x4>
1000775c:	200002fd 	.word	0x200002fd

10007760 <__mutex_exit_veneer>:
10007760:	f85f f000 	ldr.w	pc, [pc]	@ 10007764 <__mutex_exit_veneer+0x4>
10007764:	2000020d 	.word	0x2000020d

10007768 <____aeabi_ldivmod_veneer>:
10007768:	f85f f000 	ldr.w	pc, [pc]	@ 1000776c <____aeabi_ldivmod_veneer+0x4>
1000776c:	2000025d 	.word	0x2000025d

10007770 <__mutex_try_enter_block_until_veneer>:
10007770:	f85f f000 	ldr.w	pc, [pc]	@ 10007774 <__mutex_try_enter_block_until_veneer+0x4>
10007774:	200001d9 	.word	0x200001d9

10007778 <__pre_init_runtime_init_bootrom_reset>:
10007778:	10005a41                                AZ..

1000777c <__pre_init_runtime_init_early_resets>:
1000777c:	100059b9                                .Y..

10007780 <__pre_init_runtime_init_usb_power_down>:
10007780:	100059e5                                .Y..

10007784 <__pre_init_runtime_init_clocks>:
10007784:	10005ab5                                .Z..

10007788 <__pre_init_runtime_init_post_clock_resets>:
10007788:	10005a21                                !Z..

1000778c <__pre_init_runtime_init_boot_locks_reset>:
1000778c:	1000557d                                }U..

10007790 <__pre_init_runtime_init_spin_locks_reset>:
10007790:	10005a65                                eZ..

10007794 <__pre_init_runtime_init_bootrom_locking_enable>:
10007794:	10005549                                IU..

10007798 <__pre_init_runtime_init_mutex>:
10007798:	10004bb9                                .K..

1000779c <__pre_init_runtime_init_install_ram_vector_table>:
1000779c:	10005a6d                                mZ..

100077a0 <__pre_init_runtime_init_default_alarm_pool>:
100077a0:	100052c9                                .R..

100077a4 <__pre_init_first_per_core_initializer>:
100077a4:	10005995                                .Y..

100077a8 <__pre_init_runtime_init_per_core_bootrom_reset>:
100077a8:	10005a53                                SZ..

100077ac <__pre_init_runtime_init_per_core_enable_coprocessors>:
100077ac:	10005a05                                .Z..

100077b0 <__pre_init_spinlock_set_extexclall>:
100077b0:	10004695                                .F..

100077b4 <__pre_init_runtime_init_per_core_irq_priorities>:
100077b4:	1000473d                                =G..

100077b8 <__frame_dummy_init_array_entry>:
100077b8:	10000219 10001385                       ........

Disassembly of section .data:

20000110 <mutex_try_enter>:
20000110:	b538      	push	{r3, r4, r5, lr}
20000112:	4604      	mov	r4, r0
20000114:	6803      	ldr	r3, [r0, #0]
20000116:	f3ef 8510 	mrs	r5, PRIMASK
2000011a:	b672      	cpsid	i
2000011c:	e8d3 0fcf 	ldaexb	r0, [r3]
20000120:	2201      	movs	r2, #1
20000122:	2800      	cmp	r0, #0
20000124:	d1fa      	bne.n	2000011c <mutex_try_enter+0xc>
20000126:	e8c3 2f40 	strexb	r0, r2, [r3]
2000012a:	2800      	cmp	r0, #0
2000012c:	d1f6      	bne.n	2000011c <mutex_try_enter+0xc>
2000012e:	f3bf 8f5f 	dmb	sy
20000132:	6863      	ldr	r3, [r4, #4]
20000134:	f1b3 3fff 	cmp.w	r3, #4294967295
20000138:	d009      	beq.n	2000014e <mutex_try_enter+0x3e>
2000013a:	b169      	cbz	r1, 20000158 <mutex_try_enter+0x48>
2000013c:	600b      	str	r3, [r1, #0]
2000013e:	2000      	movs	r0, #0
20000140:	6822      	ldr	r2, [r4, #0]
20000142:	2300      	movs	r3, #0
20000144:	e8c2 3f8f 	stlb	r3, [r2]
20000148:	f385 8810 	msr	PRIMASK, r5
2000014c:	bd38      	pop	{r3, r4, r5, pc}
2000014e:	f000 fa6f 	bl	20000630 <__ulPortLockGetCurrentOwnerId_veneer>
20000152:	6060      	str	r0, [r4, #4]
20000154:	2001      	movs	r0, #1
20000156:	e7f3      	b.n	20000140 <mutex_try_enter+0x30>
20000158:	2000      	movs	r0, #0
2000015a:	e7f1      	b.n	20000140 <mutex_try_enter+0x30>

2000015c <mutex_enter_block_until>:
2000015c:	e92d 41f0 	stmdb	sp!, {r4, r5, r6, r7, r8, lr}
20000160:	461f      	mov	r7, r3
20000162:	6803      	ldr	r3, [r0, #0]
20000164:	b30b      	cbz	r3, 200001aa <mutex_enter_block_until+0x4e>
20000166:	4604      	mov	r4, r0
20000168:	4616      	mov	r6, r2
2000016a:	f000 fa61 	bl	20000630 <__ulPortLockGetCurrentOwnerId_veneer>
2000016e:	4680      	mov	r8, r0
20000170:	6825      	ldr	r5, [r4, #0]
20000172:	f3ef 8110 	mrs	r1, PRIMASK
20000176:	b672      	cpsid	i
20000178:	460b      	mov	r3, r1
2000017a:	e8d5 0fcf 	ldaexb	r0, [r5]
2000017e:	2201      	movs	r2, #1
20000180:	2800      	cmp	r0, #0
20000182:	d1fa      	bne.n	2000017a <mutex_enter_block_until+0x1e>
20000184:	e8c5 2f40 	strexb	r0, r2, [r5]
20000188:	2800      	cmp	r0, #0
2000018a:	d1f6      	bne.n	2000017a <mutex_enter_block_until+0x1e>
2000018c:	f3bf 8f5f 	dmb	sy
20000190:	6865      	ldr	r5, [r4, #4]
20000192:	f1b5 3fff 	cmp.w	r5, #4294967295
20000196:	d00e      	beq.n	200001b6 <mutex_enter_block_until+0x5a>
20000198:	4632      	mov	r2, r6
2000019a:	463b      	mov	r3, r7
2000019c:	4620      	mov	r0, r4
2000019e:	f000 fa53 	bl	20000648 <__xPortLockInternalSpinUnlockWithBestEffortWaitOrTimeout_veneer>
200001a2:	2800      	cmp	r0, #0
200001a4:	d0e4      	beq.n	20000170 <mutex_enter_block_until+0x14>
200001a6:	2000      	movs	r0, #0
200001a8:	e00e      	b.n	200001c8 <mutex_enter_block_until+0x6c>
200001aa:	4b08      	ldr	r3, [pc, #32]	@ (200001cc <mutex_enter_block_until+0x70>)
200001ac:	4a08      	ldr	r2, [pc, #32]	@ (200001d0 <mutex_enter_block_until+0x74>)
200001ae:	21a6      	movs	r1, #166	@ 0xa6
200001b0:	4808      	ldr	r0, [pc, #32]	@ (200001d4 <mutex_enter_block_until+0x78>)
200001b2:	f000 fa41 	bl	20000638 <____assert_func_veneer>
200001b6:	f8c4 8004 	str.w	r8, [r4, #4]
200001ba:	6821      	ldr	r1, [r4, #0]
200001bc:	2200      	movs	r2, #0
200001be:	e8c1 2f8f 	stlb	r2, [r1]
200001c2:	f383 8810 	msr	PRIMASK, r3
200001c6:	2001      	movs	r0, #1
200001c8:	e8bd 81f0 	ldmia.w	sp!, {r4, r5, r6, r7, r8, pc}
200001cc:	10008b80 	.word	0x10008b80
200001d0:	100096d4 	.word	0x100096d4
200001d4:	10008b38 	.word	0x10008b38

200001d8 <mutex_try_enter_block_until>:
200001d8:	b5f0      	push	{r4, r5, r6, r7, lr}
200001da:	b083      	sub	sp, #12
200001dc:	4607      	mov	r7, r0
200001de:	4615      	mov	r5, r2
200001e0:	461c      	mov	r4, r3
200001e2:	a901      	add	r1, sp, #4
200001e4:	f7ff ff94 	bl	20000110 <mutex_try_enter>
200001e8:	4606      	mov	r6, r0
200001ea:	b110      	cbz	r0, 200001f2 <mutex_try_enter_block_until+0x1a>
200001ec:	4630      	mov	r0, r6
200001ee:	b003      	add	sp, #12
200001f0:	bdf0      	pop	{r4, r5, r6, r7, pc}
200001f2:	f000 fa1d 	bl	20000630 <__ulPortLockGetCurrentOwnerId_veneer>
200001f6:	9b01      	ldr	r3, [sp, #4]
200001f8:	4298      	cmp	r0, r3
200001fa:	d0f7      	beq.n	200001ec <mutex_try_enter_block_until+0x14>
200001fc:	462a      	mov	r2, r5
200001fe:	4623      	mov	r3, r4
20000200:	4638      	mov	r0, r7
20000202:	f7ff ffab 	bl	2000015c <mutex_enter_block_until>
20000206:	4606      	mov	r6, r0
20000208:	e7f0      	b.n	200001ec <mutex_try_enter_block_until+0x14>
	...

2000020c <mutex_exit>:
2000020c:	b508      	push	{r3, lr}
2000020e:	6803      	ldr	r3, [r0, #0]
20000210:	f3ef 8110 	mrs	r1, PRIMASK
20000214:	b672      	cpsid	i
20000216:	e8d3 cfcf 	ldaexb	ip, [r3]
2000021a:	2201      	movs	r2, #1
2000021c:	f1bc 0f00 	cmp.w	ip, #0
20000220:	d1f9      	bne.n	20000216 <mutex_exit+0xa>
20000222:	e8c3 2f4c 	strexb	ip, r2, [r3]
20000226:	f1bc 0f00 	cmp.w	ip, #0
2000022a:	d1f4      	bne.n	20000216 <mutex_exit+0xa>
2000022c:	f3bf 8f5f 	dmb	sy
20000230:	6843      	ldr	r3, [r0, #4]
20000232:	f1b3 3fff 	cmp.w	r3, #4294967295
20000236:	d005      	beq.n	20000244 <mutex_exit+0x38>
20000238:	f04f 33ff 	mov.w	r3, #4294967295
2000023c:	6043      	str	r3, [r0, #4]
2000023e:	f000 f9ff 	bl	20000640 <__vPortLockInternalSpinUnlockWithNotify_veneer>
20000242:	bd08      	pop	{r3, pc}
20000244:	4b02      	ldr	r3, [pc, #8]	@ (20000250 <mutex_exit+0x44>)
20000246:	4a03      	ldr	r2, [pc, #12]	@ (20000254 <mutex_exit+0x48>)
20000248:	21d5      	movs	r1, #213	@ 0xd5
2000024a:	4803      	ldr	r0, [pc, #12]	@ (20000258 <mutex_exit+0x4c>)
2000024c:	f000 f9f4 	bl	20000638 <____assert_func_veneer>
20000250:	10008b94 	.word	0x10008b94
20000254:	100096c8 	.word	0x100096c8
20000258:	10008b38 	.word	0x10008b38

2000025c <__aeabi_ldivmod>:
2000025c:	b97b      	cbnz	r3, 2000027e <__aeabi_ldivmod+0x22>
2000025e:	b972      	cbnz	r2, 2000027e <__aeabi_ldivmod+0x22>
20000260:	2900      	cmp	r1, #0
20000262:	bfbe      	ittt	lt
20000264:	2000      	movlt	r0, #0
20000266:	f04f 4100 	movlt.w	r1, #2147483648	@ 0x80000000
2000026a:	e006      	blt.n	2000027a <__aeabi_ldivmod+0x1e>
2000026c:	bf08      	it	eq
2000026e:	2800      	cmpeq	r0, #0
20000270:	bf1c      	itt	ne
20000272:	f06f 4100 	mvnne.w	r1, #2147483648	@ 0x80000000
20000276:	f04f 30ff 	movne.w	r0, #4294967295
2000027a:	f000 b9d7 	b.w	2000062c <__aeabi_idiv0>
2000027e:	f1ad 0c08 	sub.w	ip, sp, #8
20000282:	e96d ce04 	strd	ip, lr, [sp, #-16]!
20000286:	2900      	cmp	r1, #0
20000288:	db09      	blt.n	2000029e <__aeabi_ldivmod+0x42>
2000028a:	2b00      	cmp	r3, #0
2000028c:	db1a      	blt.n	200002c4 <__aeabi_ldivmod+0x68>
2000028e:	f000 f84d 	bl	2000032c <__udivmoddi4>
20000292:	f8dd e004 	ldr.w	lr, [sp, #4]
20000296:	e9dd 2302 	ldrd	r2, r3, [sp, #8]
2000029a:	b004      	add	sp, #16
2000029c:	4770      	bx	lr
2000029e:	4240      	negs	r0, r0
200002a0:	eb61 0141 	sbc.w	r1, r1, r1, lsl #1
200002a4:	2b00      	cmp	r3, #0
200002a6:	db1b      	blt.n	200002e0 <__aeabi_ldivmod+0x84>
200002a8:	f000 f840 	bl	2000032c <__udivmoddi4>
200002ac:	f8dd e004 	ldr.w	lr, [sp, #4]
200002b0:	e9dd 2302 	ldrd	r2, r3, [sp, #8]
200002b4:	b004      	add	sp, #16
200002b6:	4240      	negs	r0, r0
200002b8:	eb61 0141 	sbc.w	r1, r1, r1, lsl #1
200002bc:	4252      	negs	r2, r2
200002be:	eb63 0343 	sbc.w	r3, r3, r3, lsl #1
200002c2:	4770      	bx	lr
200002c4:	4252      	negs	r2, r2
200002c6:	eb63 0343 	sbc.w	r3, r3, r3, lsl #1
200002ca:	f000 f82f 	bl	2000032c <__udivmoddi4>
200002ce:	f8dd e004 	ldr.w	lr, [sp, #4]
200002d2:	e9dd 2302 	ldrd	r2, r3, [sp, #8]
200002d6:	b004      	add	sp, #16
200002d8:	4240      	negs	r0, r0
200002da:	eb61 0141 	sbc.w	r1, r1, r1, lsl #1
200002de:	4770      	bx	lr
200002e0:	4252      	negs	r2, r2
200002e2:	eb63 0343 	sbc.w	r3, r3, r3, lsl #1
200002e6:	f000 f821 	bl	2000032c <__udivmoddi4>
200002ea:	f8dd e004 	ldr.w	lr, [sp, #4]
200002ee:	e9dd 2302 	ldrd	r2, r3, [sp, #8]
200002f2:	b004      	add	sp, #16
200002f4:	4252      	negs	r2, r2
200002f6:	eb63 0343 	sbc.w	r3, r3, r3, lsl #1
200002fa:	4770      	bx	lr

200002fc <__aeabi_uldivmod>:
200002fc:	b953      	cbnz	r3, 20000314 <__aeabi_uldivmod+0x18>
200002fe:	b94a      	cbnz	r2, 20000314 <__aeabi_uldivmod+0x18>
20000300:	2900      	cmp	r1, #0
20000302:	bf08      	it	eq
20000304:	2800      	cmpeq	r0, #0
20000306:	bf1c      	itt	ne
20000308:	f04f 31ff 	movne.w	r1, #4294967295
2000030c:	f04f 30ff 	movne.w	r0, #4294967295
20000310:	f000 b98c 	b.w	2000062c <__aeabi_idiv0>
20000314:	f1ad 0c08 	sub.w	ip, sp, #8
20000318:	e96d ce04 	strd	ip, lr, [sp, #-16]!
2000031c:	f000 f806 	bl	2000032c <__udivmoddi4>
20000320:	f8dd e004 	ldr.w	lr, [sp, #4]
20000324:	e9dd 2302 	ldrd	r2, r3, [sp, #8]
20000328:	b004      	add	sp, #16
2000032a:	4770      	bx	lr

2000032c <__udivmoddi4>:
2000032c:	e92d 4ff0 	stmdb	sp!, {r4, r5, r6, r7, r8, r9, sl, fp, lr}
20000330:	9d09      	ldr	r5, [sp, #36]	@ 0x24
20000332:	460e      	mov	r6, r1
20000334:	4604      	mov	r4, r0
20000336:	460f      	mov	r7, r1
20000338:	2b00      	cmp	r3, #0
2000033a:	d147      	bne.n	200003cc <__udivmoddi4+0xa0>
2000033c:	428a      	cmp	r2, r1
2000033e:	4694      	mov	ip, r2
20000340:	fab2 f382 	clz	r3, r2
20000344:	d95a      	bls.n	200003fc <__udivmoddi4+0xd0>
20000346:	b143      	cbz	r3, 2000035a <__udivmoddi4+0x2e>
20000348:	fa02 fc03 	lsl.w	ip, r2, r3
2000034c:	f1c3 0220 	rsb	r2, r3, #32
20000350:	409f      	lsls	r7, r3
20000352:	409c      	lsls	r4, r3
20000354:	fa20 f202 	lsr.w	r2, r0, r2
20000358:	4317      	orrs	r7, r2
2000035a:	ea4f 461c 	mov.w	r6, ip, lsr #16
2000035e:	fa1f fe8c 	uxth.w	lr, ip
20000362:	0c22      	lsrs	r2, r4, #16
20000364:	fbb7 f1f6 	udiv	r1, r7, r6
20000368:	fb06 7711 	mls	r7, r6, r1, r7
2000036c:	fb01 f00e 	mul.w	r0, r1, lr
20000370:	ea42 4207 	orr.w	r2, r2, r7, lsl #16
20000374:	4290      	cmp	r0, r2
20000376:	d908      	bls.n	2000038a <__udivmoddi4+0x5e>
20000378:	eb1c 0202 	adds.w	r2, ip, r2
2000037c:	f101 37ff 	add.w	r7, r1, #4294967295
20000380:	d202      	bcs.n	20000388 <__udivmoddi4+0x5c>
20000382:	4290      	cmp	r0, r2
20000384:	f200 813c 	bhi.w	20000600 <__udivmoddi4+0x2d4>
20000388:	4639      	mov	r1, r7
2000038a:	1a12      	subs	r2, r2, r0
2000038c:	b2a4      	uxth	r4, r4
2000038e:	fbb2 f0f6 	udiv	r0, r2, r6
20000392:	fb06 2210 	mls	r2, r6, r0, r2
20000396:	fb00 fe0e 	mul.w	lr, r0, lr
2000039a:	ea44 4402 	orr.w	r4, r4, r2, lsl #16
2000039e:	45a6      	cmp	lr, r4
200003a0:	d908      	bls.n	200003b4 <__udivmoddi4+0x88>
200003a2:	eb1c 0404 	adds.w	r4, ip, r4
200003a6:	f100 32ff 	add.w	r2, r0, #4294967295
200003aa:	d202      	bcs.n	200003b2 <__udivmoddi4+0x86>
200003ac:	45a6      	cmp	lr, r4
200003ae:	f200 812a 	bhi.w	20000606 <__udivmoddi4+0x2da>
200003b2:	4610      	mov	r0, r2
200003b4:	ea40 4001 	orr.w	r0, r0, r1, lsl #16
200003b8:	eba4 040e 	sub.w	r4, r4, lr
200003bc:	2100      	movs	r1, #0
200003be:	b11d      	cbz	r5, 200003c8 <__udivmoddi4+0x9c>
200003c0:	40dc      	lsrs	r4, r3
200003c2:	2300      	movs	r3, #0
200003c4:	e9c5 4300 	strd	r4, r3, [r5]
200003c8:	e8bd 8ff0 	ldmia.w	sp!, {r4, r5, r6, r7, r8, r9, sl, fp, pc}
200003cc:	428b      	cmp	r3, r1
200003ce:	d905      	bls.n	200003dc <__udivmoddi4+0xb0>
200003d0:	b10d      	cbz	r5, 200003d6 <__udivmoddi4+0xaa>
200003d2:	e9c5 0100 	strd	r0, r1, [r5]
200003d6:	2100      	movs	r1, #0
200003d8:	4608      	mov	r0, r1
200003da:	e7f5      	b.n	200003c8 <__udivmoddi4+0x9c>
200003dc:	fab3 f183 	clz	r1, r3
200003e0:	2900      	cmp	r1, #0
200003e2:	d14f      	bne.n	20000484 <__udivmoddi4+0x158>
200003e4:	42b3      	cmp	r3, r6
200003e6:	f0c0 8102 	bcc.w	200005ee <__udivmoddi4+0x2c2>
200003ea:	4282      	cmp	r2, r0
200003ec:	f240 80ff 	bls.w	200005ee <__udivmoddi4+0x2c2>
200003f0:	4608      	mov	r0, r1
200003f2:	2d00      	cmp	r5, #0
200003f4:	d0e8      	beq.n	200003c8 <__udivmoddi4+0x9c>
200003f6:	e9c5 4700 	strd	r4, r7, [r5]
200003fa:	e7e5      	b.n	200003c8 <__udivmoddi4+0x9c>
200003fc:	2b00      	cmp	r3, #0
200003fe:	f040 80af 	bne.w	20000560 <__udivmoddi4+0x234>
20000402:	1a8a      	subs	r2, r1, r2
20000404:	ea4f 4e1c 	mov.w	lr, ip, lsr #16
20000408:	fa1f f78c 	uxth.w	r7, ip
2000040c:	2101      	movs	r1, #1
2000040e:	fbb2 f6fe 	udiv	r6, r2, lr
20000412:	fb0e 2016 	mls	r0, lr, r6, r2
20000416:	0c22      	lsrs	r2, r4, #16
20000418:	ea42 4200 	orr.w	r2, r2, r0, lsl #16
2000041c:	fb07 f006 	mul.w	r0, r7, r6
20000420:	4290      	cmp	r0, r2
20000422:	d90f      	bls.n	20000444 <__udivmoddi4+0x118>
20000424:	eb1c 0202 	adds.w	r2, ip, r2
20000428:	f106 38ff 	add.w	r8, r6, #4294967295
2000042c:	bf2c      	ite	cs
2000042e:	f04f 0901 	movcs.w	r9, #1
20000432:	f04f 0900 	movcc.w	r9, #0
20000436:	4290      	cmp	r0, r2
20000438:	d903      	bls.n	20000442 <__udivmoddi4+0x116>
2000043a:	f1b9 0f00 	cmp.w	r9, #0
2000043e:	f000 80dc 	beq.w	200005fa <__udivmoddi4+0x2ce>
20000442:	4646      	mov	r6, r8
20000444:	1a12      	subs	r2, r2, r0
20000446:	b2a4      	uxth	r4, r4
20000448:	fbb2 f0fe 	udiv	r0, r2, lr
2000044c:	fb0e 2210 	mls	r2, lr, r0, r2
20000450:	fb00 f707 	mul.w	r7, r0, r7
20000454:	ea44 4402 	orr.w	r4, r4, r2, lsl #16
20000458:	42a7      	cmp	r7, r4
2000045a:	d90f      	bls.n	2000047c <__udivmoddi4+0x150>
2000045c:	eb1c 0404 	adds.w	r4, ip, r4
20000460:	f100 32ff 	add.w	r2, r0, #4294967295
20000464:	bf2c      	ite	cs
20000466:	f04f 0e01 	movcs.w	lr, #1
2000046a:	f04f 0e00 	movcc.w	lr, #0
2000046e:	42a7      	cmp	r7, r4
20000470:	d903      	bls.n	2000047a <__udivmoddi4+0x14e>
20000472:	f1be 0f00 	cmp.w	lr, #0
20000476:	f000 80c9 	beq.w	2000060c <__udivmoddi4+0x2e0>
2000047a:	4610      	mov	r0, r2
2000047c:	1be4      	subs	r4, r4, r7
2000047e:	ea40 4006 	orr.w	r0, r0, r6, lsl #16
20000482:	e79c      	b.n	200003be <__udivmoddi4+0x92>
20000484:	f1c1 0420 	rsb	r4, r1, #32
20000488:	408b      	lsls	r3, r1
2000048a:	fa06 fc01 	lsl.w	ip, r6, r1
2000048e:	fa00 fe01 	lsl.w	lr, r0, r1
20000492:	fa22 f704 	lsr.w	r7, r2, r4
20000496:	40e6      	lsrs	r6, r4
20000498:	408a      	lsls	r2, r1
2000049a:	431f      	orrs	r7, r3
2000049c:	fa20 f304 	lsr.w	r3, r0, r4
200004a0:	ea4f 4817 	mov.w	r8, r7, lsr #16
200004a4:	ea43 030c 	orr.w	r3, r3, ip
200004a8:	fa1f fc87 	uxth.w	ip, r7
200004ac:	ea4f 4913 	mov.w	r9, r3, lsr #16
200004b0:	fbb6 f0f8 	udiv	r0, r6, r8
200004b4:	fb08 6610 	mls	r6, r8, r0, r6
200004b8:	ea49 4606 	orr.w	r6, r9, r6, lsl #16
200004bc:	fb00 f90c 	mul.w	r9, r0, ip
200004c0:	45b1      	cmp	r9, r6
200004c2:	d90e      	bls.n	200004e2 <__udivmoddi4+0x1b6>
200004c4:	19be      	adds	r6, r7, r6
200004c6:	f100 3aff 	add.w	sl, r0, #4294967295
200004ca:	bf2c      	ite	cs
200004cc:	f04f 0b01 	movcs.w	fp, #1
200004d0:	f04f 0b00 	movcc.w	fp, #0
200004d4:	45b1      	cmp	r9, r6
200004d6:	d903      	bls.n	200004e0 <__udivmoddi4+0x1b4>
200004d8:	f1bb 0f00 	cmp.w	fp, #0
200004dc:	f000 80a2 	beq.w	20000624 <__udivmoddi4+0x2f8>
200004e0:	4650      	mov	r0, sl
200004e2:	eba6 0609 	sub.w	r6, r6, r9
200004e6:	fa1f f983 	uxth.w	r9, r3
200004ea:	fbb6 f3f8 	udiv	r3, r6, r8
200004ee:	fb08 6613 	mls	r6, r8, r3, r6
200004f2:	fb03 fc0c 	mul.w	ip, r3, ip
200004f6:	ea49 4606 	orr.w	r6, r9, r6, lsl #16
200004fa:	45b4      	cmp	ip, r6
200004fc:	d90e      	bls.n	2000051c <__udivmoddi4+0x1f0>
200004fe:	19be      	adds	r6, r7, r6
20000500:	f103 38ff 	add.w	r8, r3, #4294967295
20000504:	bf2c      	ite	cs
20000506:	f04f 0901 	movcs.w	r9, #1
2000050a:	f04f 0900 	movcc.w	r9, #0
2000050e:	45b4      	cmp	ip, r6
20000510:	d903      	bls.n	2000051a <__udivmoddi4+0x1ee>
20000512:	f1b9 0f00 	cmp.w	r9, #0
20000516:	f000 8082 	beq.w	2000061e <__udivmoddi4+0x2f2>
2000051a:	4643      	mov	r3, r8
2000051c:	ea43 4000 	orr.w	r0, r3, r0, lsl #16
20000520:	eba6 060c 	sub.w	r6, r6, ip
20000524:	fba0 8c02 	umull	r8, ip, r0, r2
20000528:	4566      	cmp	r6, ip
2000052a:	4643      	mov	r3, r8
2000052c:	46e1      	mov	r9, ip
2000052e:	d302      	bcc.n	20000536 <__udivmoddi4+0x20a>
20000530:	d107      	bne.n	20000542 <__udivmoddi4+0x216>
20000532:	45c6      	cmp	lr, r8
20000534:	d205      	bcs.n	20000542 <__udivmoddi4+0x216>
20000536:	ebb8 0302 	subs.w	r3, r8, r2
2000053a:	eb6c 0c07 	sbc.w	ip, ip, r7
2000053e:	3801      	subs	r0, #1
20000540:	46e1      	mov	r9, ip
20000542:	b15d      	cbz	r5, 2000055c <__udivmoddi4+0x230>
20000544:	ebbe 0203 	subs.w	r2, lr, r3
20000548:	eb66 0609 	sbc.w	r6, r6, r9
2000054c:	fa06 f404 	lsl.w	r4, r6, r4
20000550:	fa22 f301 	lsr.w	r3, r2, r1
20000554:	40ce      	lsrs	r6, r1
20000556:	431c      	orrs	r4, r3
20000558:	e9c5 4600 	strd	r4, r6, [r5]
2000055c:	2100      	movs	r1, #0
2000055e:	e733      	b.n	200003c8 <__udivmoddi4+0x9c>
20000560:	fa02 fc03 	lsl.w	ip, r2, r3
20000564:	f1c3 0220 	rsb	r2, r3, #32
20000568:	4099      	lsls	r1, r3
2000056a:	409c      	lsls	r4, r3
2000056c:	40d6      	lsrs	r6, r2
2000056e:	ea4f 4e1c 	mov.w	lr, ip, lsr #16
20000572:	fa20 f202 	lsr.w	r2, r0, r2
20000576:	fa1f f78c 	uxth.w	r7, ip
2000057a:	fbb6 f0fe 	udiv	r0, r6, lr
2000057e:	430a      	orrs	r2, r1
20000580:	fb0e 6610 	mls	r6, lr, r0, r6
20000584:	0c11      	lsrs	r1, r2, #16
20000586:	ea41 4106 	orr.w	r1, r1, r6, lsl #16
2000058a:	fb00 f607 	mul.w	r6, r0, r7
2000058e:	428e      	cmp	r6, r1
20000590:	d90e      	bls.n	200005b0 <__udivmoddi4+0x284>
20000592:	eb1c 0101 	adds.w	r1, ip, r1
20000596:	f100 38ff 	add.w	r8, r0, #4294967295
2000059a:	bf2c      	ite	cs
2000059c:	f04f 0901 	movcs.w	r9, #1
200005a0:	f04f 0900 	movcc.w	r9, #0
200005a4:	428e      	cmp	r6, r1
200005a6:	d902      	bls.n	200005ae <__udivmoddi4+0x282>
200005a8:	f1b9 0f00 	cmp.w	r9, #0
200005ac:	d034      	beq.n	20000618 <__udivmoddi4+0x2ec>
200005ae:	4640      	mov	r0, r8
200005b0:	1b89      	subs	r1, r1, r6
200005b2:	b292      	uxth	r2, r2
200005b4:	fbb1 f6fe 	udiv	r6, r1, lr
200005b8:	fb0e 1116 	mls	r1, lr, r6, r1
200005bc:	ea42 4201 	orr.w	r2, r2, r1, lsl #16
200005c0:	fb06 f107 	mul.w	r1, r6, r7
200005c4:	4291      	cmp	r1, r2
200005c6:	d90e      	bls.n	200005e6 <__udivmoddi4+0x2ba>
200005c8:	eb1c 0202 	adds.w	r2, ip, r2
200005cc:	f106 38ff 	add.w	r8, r6, #4294967295
200005d0:	bf2c      	ite	cs
200005d2:	f04f 0901 	movcs.w	r9, #1
200005d6:	f04f 0900 	movcc.w	r9, #0
200005da:	4291      	cmp	r1, r2
200005dc:	d902      	bls.n	200005e4 <__udivmoddi4+0x2b8>
200005de:	f1b9 0f00 	cmp.w	r9, #0
200005e2:	d016      	beq.n	20000612 <__udivmoddi4+0x2e6>
200005e4:	4646      	mov	r6, r8
200005e6:	1a52      	subs	r2, r2, r1
200005e8:	ea46 4100 	orr.w	r1, r6, r0, lsl #16
200005ec:	e70f      	b.n	2000040e <__udivmoddi4+0xe2>
200005ee:	1a84      	subs	r4, r0, r2
200005f0:	eb66 0203 	sbc.w	r2, r6, r3
200005f4:	2001      	movs	r0, #1
200005f6:	4617      	mov	r7, r2
200005f8:	e6fb      	b.n	200003f2 <__udivmoddi4+0xc6>
200005fa:	3e02      	subs	r6, #2
200005fc:	4462      	add	r2, ip
200005fe:	e721      	b.n	20000444 <__udivmoddi4+0x118>
20000600:	3902      	subs	r1, #2
20000602:	4462      	add	r2, ip
20000604:	e6c1      	b.n	2000038a <__udivmoddi4+0x5e>
20000606:	4464      	add	r4, ip
20000608:	3802      	subs	r0, #2
2000060a:	e6d3      	b.n	200003b4 <__udivmoddi4+0x88>
2000060c:	4464      	add	r4, ip
2000060e:	3802      	subs	r0, #2
20000610:	e734      	b.n	2000047c <__udivmoddi4+0x150>
20000612:	3e02      	subs	r6, #2
20000614:	4462      	add	r2, ip
20000616:	e7e6      	b.n	200005e6 <__udivmoddi4+0x2ba>
20000618:	3802      	subs	r0, #2
2000061a:	4461      	add	r1, ip
2000061c:	e7c8      	b.n	200005b0 <__udivmoddi4+0x284>
2000061e:	3b02      	subs	r3, #2
20000620:	443e      	add	r6, r7
20000622:	e77b      	b.n	2000051c <__udivmoddi4+0x1f0>
20000624:	3802      	subs	r0, #2
20000626:	443e      	add	r6, r7
20000628:	e75b      	b.n	200004e2 <__udivmoddi4+0x1b6>
2000062a:	bf00      	nop

2000062c <__aeabi_idiv0>:
2000062c:	4770      	bx	lr
2000062e:	bf00      	nop

20000630 <__ulPortLockGetCurrentOwnerId_veneer>:
20000630:	f85f f000 	ldr.w	pc, [pc]	@ 20000634 <__ulPortLockGetCurrentOwnerId_veneer+0x4>
20000634:	100011d9 	.word	0x100011d9

20000638 <____assert_func_veneer>:
20000638:	f85f f000 	ldr.w	pc, [pc]	@ 2000063c <____assert_func_veneer+0x4>
2000063c:	10007039 	.word	0x10007039

20000640 <__vPortLockInternalSpinUnlockWithNotify_veneer>:
20000640:	f85f f000 	ldr.w	pc, [pc]	@ 20000644 <__vPortLockInternalSpinUnlockWithNotify_veneer+0x4>
20000644:	10001209 	.word	0x10001209

20000648 <__xPortLockInternalSpinUnlockWithBestEffortWaitOrTimeout_veneer>:
20000648:	f85f f000 	ldr.w	pc, [pc]	@ 2000064c <__xPortLockInternalSpinUnlockWithBestEffortWaitOrTimeout_veneer+0x4>
2000064c:	10001299 	.word	0x10001299

20000650 <last_core_id.0>:
20000650:	ffffffff                                ....

20000654 <last_core_id.1>:
20000654:	ffffffff                                ....

20000658 <last_core_id.3>:
20000658:	ffffffff 00000000                       ........

20000660 <worker_timeout>:
20000660:	00000000 10000311 00000000 00000000     ................
	...

20000678 <cDoorbellNum>:
20000678:	                                         .

20000679 <ucPrimaryCoreNum>:
20000679:	                                         .

2000067a <striped_spin_lock_num>:
2000067a:	                                         ..

2000067c <irq_handler_chain_slots>:
2000067c:	00000000 	.word	0x00000000
20000680:	00010000 	.word	0x00010000
	...
2000068c:	00020000 	.word	0x00020000
	...
20000698:	00030000 	.word	0x00030000
	...
200006a4:	00ff0000 	.word	0x00ff0000
200006a8:	00000000 	.word	0x00000000

200006ac <irq_handler_chain_first_slot>:
200006ac:	b501      	push	{r0, lr}
200006ae:	6848      	ldr	r0, [r1, #4]
200006b0:	3101      	adds	r1, #1
200006b2:	468e      	mov	lr, r1
200006b4:	4700      	bx	r0

200006b6 <irq_handler_chain_remove_tail>:
200006b6:	4670      	mov	r0, lr
200006b8:	3809      	subs	r0, #9
200006ba:	4901      	ldr	r1, [pc, #4]	@ (200006c0 <irq_handler_chain_remove_tail+0xa>)
200006bc:	4788      	blx	r1
200006be:	bd01      	pop	{r0, pc}
200006c0:	10004a79 	.word	0x10004a79

200006c4 <default_alarm_pool>:
	...
200006d8:	20000740                                @.. 

200006dc <stdio_uart>:
200006dc:	100073b5 1000744d 100073d5 10007461     .s..Mt...s..at..
200006ec:	00000000 00000100                       ........

200006f4 <malloc_mutex>:
	...

200006fc <print_mutex>:
	...
